
rock.elf:     file format elf64-x86-64


Disassembly of section .text:

ffffffff80101000 <ahci_init>:
ffffffff80101000:	55                   	push   %rbp
ffffffff80101001:	48 89 e5             	mov    %rsp,%rbp
ffffffff80101004:	48 83 ec 10          	sub    $0x10,%rsp
ffffffff80101008:	bf 00 02 00 00       	mov    $0x200,%edi
ffffffff8010100d:	e8 6a 11 00 00       	callq  ffffffff8010217c <kmalloc>
ffffffff80101012:	48 89 05 ef ef 00 00 	mov    %rax,0xefef(%rip)        # ffffffff80110008 <ahci_drives>
ffffffff80101019:	48 c7 45 f8 00 00 00 	movq   $0x0,-0x8(%rbp)
ffffffff80101020:	00 
ffffffff80101021:	e9 e6 00 00 00       	jmpq   ffffffff8010110c <ahci_init+0x10c>
ffffffff80101026:	48 8b 0d 9b 85 01 00 	mov    0x1859b(%rip),%rcx        # ffffffff801195c8 <pci_devices>
ffffffff8010102d:	48 8b 55 f8          	mov    -0x8(%rbp),%rdx
ffffffff80101031:	48 89 d0             	mov    %rdx,%rax
ffffffff80101034:	48 01 c0             	add    %rax,%rax
ffffffff80101037:	48 01 d0             	add    %rdx,%rax
ffffffff8010103a:	48 c1 e0 02          	shl    $0x2,%rax
ffffffff8010103e:	48 01 c8             	add    %rcx,%rax
ffffffff80101041:	0f b6 00             	movzbl (%rax),%eax
ffffffff80101044:	3c 01                	cmp    $0x1,%al
ffffffff80101046:	0f 85 ba 00 00 00    	jne    ffffffff80101106 <ahci_init+0x106>
ffffffff8010104c:	48 8b 0d 75 85 01 00 	mov    0x18575(%rip),%rcx        # ffffffff801195c8 <pci_devices>
ffffffff80101053:	48 8b 55 f8          	mov    -0x8(%rbp),%rdx
ffffffff80101057:	48 89 d0             	mov    %rdx,%rax
ffffffff8010105a:	48 01 c0             	add    %rax,%rax
ffffffff8010105d:	48 01 d0             	add    %rdx,%rax
ffffffff80101060:	48 c1 e0 02          	shl    $0x2,%rax
ffffffff80101064:	48 01 c8             	add    %rcx,%rax
ffffffff80101067:	0f b6 40 01          	movzbl 0x1(%rax),%eax
ffffffff8010106b:	3c 06                	cmp    $0x6,%al
ffffffff8010106d:	0f 85 93 00 00 00    	jne    ffffffff80101106 <ahci_init+0x106>
ffffffff80101073:	48 8b 0d 4e 85 01 00 	mov    0x1854e(%rip),%rcx        # ffffffff801195c8 <pci_devices>
ffffffff8010107a:	48 8b 55 f8          	mov    -0x8(%rbp),%rdx
ffffffff8010107e:	48 89 d0             	mov    %rdx,%rax
ffffffff80101081:	48 01 c0             	add    %rax,%rax
ffffffff80101084:	48 01 d0             	add    %rdx,%rax
ffffffff80101087:	48 c1 e0 02          	shl    $0x2,%rax
ffffffff8010108b:	48 01 c8             	add    %rcx,%rax
ffffffff8010108e:	0f b6 40 02          	movzbl 0x2(%rax),%eax
ffffffff80101092:	0f b6 c0             	movzbl %al,%eax
ffffffff80101095:	83 f8 02             	cmp    $0x2,%eax
ffffffff80101098:	74 59                	je     ffffffff801010f3 <ahci_init+0xf3>
ffffffff8010109a:	83 f8 02             	cmp    $0x2,%eax
ffffffff8010109d:	7f 68                	jg     ffffffff80101107 <ahci_init+0x107>
ffffffff8010109f:	85 c0                	test   %eax,%eax
ffffffff801010a1:	74 07                	je     ffffffff801010aa <ahci_init+0xaa>
ffffffff801010a3:	83 f8 01             	cmp    $0x1,%eax
ffffffff801010a6:	74 15                	je     ffffffff801010bd <ahci_init+0xbd>
ffffffff801010a8:	eb 5d                	jmp    ffffffff80101107 <ahci_init+0x107>
ffffffff801010aa:	48 c7 c7 00 c0 10 80 	mov    $0xffffffff8010c000,%rdi
ffffffff801010b1:	b8 00 00 00 00       	mov    $0x0,%eax
ffffffff801010b6:	e8 c3 7a 00 00       	callq  ffffffff80108b7e <kvprintf>
ffffffff801010bb:	eb 4a                	jmp    ffffffff80101107 <ahci_init+0x107>
ffffffff801010bd:	48 c7 c7 40 c0 10 80 	mov    $0xffffffff8010c040,%rdi
ffffffff801010c4:	b8 00 00 00 00       	mov    $0x0,%eax
ffffffff801010c9:	e8 b0 7a 00 00       	callq  ffffffff80108b7e <kvprintf>
ffffffff801010ce:	48 8b 0d f3 84 01 00 	mov    0x184f3(%rip),%rcx        # ffffffff801195c8 <pci_devices>
ffffffff801010d5:	48 8b 55 f8          	mov    -0x8(%rbp),%rdx
ffffffff801010d9:	48 89 d0             	mov    %rdx,%rax
ffffffff801010dc:	48 01 c0             	add    %rax,%rax
ffffffff801010df:	48 01 d0             	add    %rdx,%rax
ffffffff801010e2:	48 c1 e0 02          	shl    $0x2,%rax
ffffffff801010e6:	48 01 c8             	add    %rcx,%rax
ffffffff801010e9:	48 89 c7             	mov    %rax,%rdi
ffffffff801010ec:	e8 79 00 00 00       	callq  ffffffff8010116a <init_proto>
ffffffff801010f1:	eb 14                	jmp    ffffffff80101107 <ahci_init+0x107>
ffffffff801010f3:	48 c7 c7 70 c0 10 80 	mov    $0xffffffff8010c070,%rdi
ffffffff801010fa:	b8 00 00 00 00       	mov    $0x0,%eax
ffffffff801010ff:	e8 7a 7a 00 00       	callq  ffffffff80108b7e <kvprintf>
ffffffff80101104:	eb 01                	jmp    ffffffff80101107 <ahci_init+0x107>
ffffffff80101106:	90                   	nop
ffffffff80101107:	48 83 45 f8 01       	addq   $0x1,-0x8(%rbp)
ffffffff8010110c:	48 8b 05 bd 84 01 00 	mov    0x184bd(%rip),%rax        # ffffffff801195d0 <pci_device_cnt>
ffffffff80101113:	48 39 45 f8          	cmp    %rax,-0x8(%rbp)
ffffffff80101117:	0f 82 09 ff ff ff    	jb     ffffffff80101026 <ahci_init+0x26>
ffffffff8010111d:	48 c7 45 f0 00 00 00 	movq   $0x0,-0x10(%rbp)
ffffffff80101124:	00 
ffffffff80101125:	eb 32                	jmp    ffffffff80101159 <ahci_init+0x159>
ffffffff80101127:	48 8b 15 da ee 00 00 	mov    0xeeda(%rip),%rdx        # ffffffff80110008 <ahci_drives>
ffffffff8010112e:	48 8b 45 f0          	mov    -0x10(%rbp),%rax
ffffffff80101132:	48 c1 e0 04          	shl    $0x4,%rax
ffffffff80101136:	48 01 d0             	add    %rdx,%rax
ffffffff80101139:	48 8b 10             	mov    (%rax),%rdx
ffffffff8010113c:	48 8b 45 f0          	mov    -0x10(%rbp),%rax
ffffffff80101140:	48 89 c6             	mov    %rax,%rsi
ffffffff80101143:	48 c7 c7 98 c0 10 80 	mov    $0xffffffff8010c098,%rdi
ffffffff8010114a:	b8 00 00 00 00       	mov    $0x0,%eax
ffffffff8010114f:	e8 2a 7a 00 00       	callq  ffffffff80108b7e <kvprintf>
ffffffff80101154:	48 83 45 f0 01       	addq   $0x1,-0x10(%rbp)
ffffffff80101159:	48 8b 05 a0 ee 00 00 	mov    0xeea0(%rip),%rax        # ffffffff80110000 <ahci_drive_cnt>
ffffffff80101160:	48 39 45 f0          	cmp    %rax,-0x10(%rbp)
ffffffff80101164:	72 c1                	jb     ffffffff80101127 <ahci_init+0x127>
ffffffff80101166:	90                   	nop
ffffffff80101167:	90                   	nop
ffffffff80101168:	c9                   	leaveq 
ffffffff80101169:	c3                   	retq   

ffffffff8010116a <init_proto>:
ffffffff8010116a:	55                   	push   %rbp
ffffffff8010116b:	48 89 e5             	mov    %rsp,%rbp
ffffffff8010116e:	41 55                	push   %r13
ffffffff80101170:	41 54                	push   %r12
ffffffff80101172:	53                   	push   %rbx
ffffffff80101173:	48 83 ec 38          	sub    $0x38,%rsp
ffffffff80101177:	48 89 7d b8          	mov    %rdi,-0x48(%rbp)
ffffffff8010117b:	bf 00 02 00 00       	mov    $0x200,%edi
ffffffff80101180:	e8 f7 0f 00 00       	callq  ffffffff8010217c <kmalloc>
ffffffff80101185:	48 89 05 7c ee 00 00 	mov    %rax,0xee7c(%rip)        # ffffffff80110008 <ahci_drives>
ffffffff8010118c:	48 8b 45 b8          	mov    -0x48(%rbp),%rax
ffffffff80101190:	0f b6 40 0a          	movzbl 0xa(%rax),%eax
ffffffff80101194:	44 0f b6 e8          	movzbl %al,%r13d
ffffffff80101198:	48 8b 45 b8          	mov    -0x48(%rbp),%rax
ffffffff8010119c:	0f b6 40 09          	movzbl 0x9(%rax),%eax
ffffffff801011a0:	44 0f b6 e0          	movzbl %al,%r12d
ffffffff801011a4:	48 8b 45 b8          	mov    -0x48(%rbp),%rax
ffffffff801011a8:	0f b6 40 08          	movzbl 0x8(%rax),%eax
ffffffff801011ac:	0f b6 d8             	movzbl %al,%ebx
ffffffff801011af:	48 8b 45 b8          	mov    -0x48(%rbp),%rax
ffffffff801011b3:	0f b6 40 0a          	movzbl 0xa(%rax),%eax
ffffffff801011b7:	0f b6 d0             	movzbl %al,%edx
ffffffff801011ba:	48 8b 45 b8          	mov    -0x48(%rbp),%rax
ffffffff801011be:	0f b6 40 09          	movzbl 0x9(%rax),%eax
ffffffff801011c2:	0f b6 f0             	movzbl %al,%esi
ffffffff801011c5:	48 8b 45 b8          	mov    -0x48(%rbp),%rax
ffffffff801011c9:	0f b6 40 08          	movzbl 0x8(%rax),%eax
ffffffff801011cd:	0f b6 c0             	movzbl %al,%eax
ffffffff801011d0:	b9 04 00 00 00       	mov    $0x4,%ecx
ffffffff801011d5:	89 c7                	mov    %eax,%edi
ffffffff801011d7:	e8 36 82 00 00       	callq  ffffffff80109412 <pci_read>
ffffffff801011dc:	83 c8 04             	or     $0x4,%eax
ffffffff801011df:	41 b8 04 00 00 00    	mov    $0x4,%r8d
ffffffff801011e5:	44 89 e9             	mov    %r13d,%ecx
ffffffff801011e8:	44 89 e2             	mov    %r12d,%edx
ffffffff801011eb:	89 de                	mov    %ebx,%esi
ffffffff801011ed:	89 c7                	mov    %eax,%edi
ffffffff801011ef:	e8 81 82 00 00       	callq  ffffffff80109475 <pci_write>
ffffffff801011f4:	48 8b 45 b8          	mov    -0x48(%rbp),%rax
ffffffff801011f8:	48 8b 08             	mov    (%rax),%rcx
ffffffff801011fb:	8b 40 08             	mov    0x8(%rax),%eax
ffffffff801011fe:	ba 05 00 00 00       	mov    $0x5,%edx
ffffffff80101203:	48 89 cf             	mov    %rcx,%rdi
ffffffff80101206:	89 c6                	mov    %eax,%esi
ffffffff80101208:	e8 a3 83 00 00       	callq  ffffffff801095b0 <pci_get_bar>
ffffffff8010120d:	48 89 45 c0          	mov    %rax,-0x40(%rbp)
ffffffff80101211:	8b 45 c0             	mov    -0x40(%rbp),%eax
ffffffff80101214:	89 c2                	mov    %eax,%edx
ffffffff80101216:	48 b8 00 00 00 00 00 	movabs $0xffff800000000000,%rax
ffffffff8010121d:	80 ff ff 
ffffffff80101220:	48 01 d0             	add    %rdx,%rax
ffffffff80101223:	48 89 45 d0          	mov    %rax,-0x30(%rbp)
ffffffff80101227:	48 8b 45 d0          	mov    -0x30(%rbp),%rax
ffffffff8010122b:	48 89 c6             	mov    %rax,%rsi
ffffffff8010122e:	48 c7 c7 c8 c0 10 80 	mov    $0xffffffff8010c0c8,%rdi
ffffffff80101235:	b8 00 00 00 00       	mov    $0x0,%eax
ffffffff8010123a:	e8 3f 79 00 00       	callq  ffffffff80108b7e <kvprintf>
ffffffff8010123f:	c6 45 df 00          	movb   $0x0,-0x21(%rbp)
ffffffff80101243:	e9 c6 00 00 00       	jmpq   ffffffff8010130e <init_proto+0x1a4>
ffffffff80101248:	48 8b 45 d0          	mov    -0x30(%rbp),%rax
ffffffff8010124c:	8b 50 0c             	mov    0xc(%rax),%edx
ffffffff8010124f:	0f b6 45 df          	movzbl -0x21(%rbp),%eax
ffffffff80101253:	be 01 00 00 00       	mov    $0x1,%esi
ffffffff80101258:	89 c1                	mov    %eax,%ecx
ffffffff8010125a:	d3 e6                	shl    %cl,%esi
ffffffff8010125c:	89 f0                	mov    %esi,%eax
ffffffff8010125e:	21 d0                	and    %edx,%eax
ffffffff80101260:	85 c0                	test   %eax,%eax
ffffffff80101262:	0f 84 9b 00 00 00    	je     ffffffff80101303 <init_proto+0x199>
ffffffff80101268:	0f b6 45 df          	movzbl -0x21(%rbp),%eax
ffffffff8010126c:	48 98                	cltq   
ffffffff8010126e:	48 69 c0 9c 00 00 00 	imul   $0x9c,%rax,%rax
ffffffff80101275:	48 8d 90 00 01 00 00 	lea    0x100(%rax),%rdx
ffffffff8010127c:	48 8b 45 d0          	mov    -0x30(%rbp),%rax
ffffffff80101280:	48 01 d0             	add    %rdx,%rax
ffffffff80101283:	48 89 45 c8          	mov    %rax,-0x38(%rbp)
ffffffff80101287:	48 8b 45 c8          	mov    -0x38(%rbp),%rax
ffffffff8010128b:	8b 40 24             	mov    0x24(%rax),%eax
ffffffff8010128e:	3d 01 01 14 eb       	cmp    $0xeb140101,%eax
ffffffff80101293:	74 3c                	je     ffffffff801012d1 <init_proto+0x167>
ffffffff80101295:	3d 01 01 14 eb       	cmp    $0xeb140101,%eax
ffffffff8010129a:	77 68                	ja     ffffffff80101304 <init_proto+0x19a>
ffffffff8010129c:	3d 01 01 00 00       	cmp    $0x101,%eax
ffffffff801012a1:	74 09                	je     ffffffff801012ac <init_proto+0x142>
ffffffff801012a3:	3d 01 01 69 96       	cmp    $0x96690101,%eax
ffffffff801012a8:	74 40                	je     ffffffff801012ea <init_proto+0x180>
ffffffff801012aa:	eb 58                	jmp    ffffffff80101304 <init_proto+0x19a>
ffffffff801012ac:	0f b6 45 df          	movzbl -0x21(%rbp),%eax
ffffffff801012b0:	89 c6                	mov    %eax,%esi
ffffffff801012b2:	48 c7 c7 f0 c0 10 80 	mov    $0xffffffff8010c0f0,%rdi
ffffffff801012b9:	b8 00 00 00 00       	mov    $0x0,%eax
ffffffff801012be:	e8 bb 78 00 00       	callq  ffffffff80108b7e <kvprintf>
ffffffff801012c3:	48 8b 45 c8          	mov    -0x38(%rbp),%rax
ffffffff801012c7:	48 89 c7             	mov    %rax,%rdi
ffffffff801012ca:	e8 74 03 00 00       	callq  ffffffff80101643 <init_sata_device>
ffffffff801012cf:	eb 33                	jmp    ffffffff80101304 <init_proto+0x19a>
ffffffff801012d1:	0f b6 45 df          	movzbl -0x21(%rbp),%eax
ffffffff801012d5:	89 c6                	mov    %eax,%esi
ffffffff801012d7:	48 c7 c7 18 c1 10 80 	mov    $0xffffffff8010c118,%rdi
ffffffff801012de:	b8 00 00 00 00       	mov    $0x0,%eax
ffffffff801012e3:	e8 96 78 00 00       	callq  ffffffff80108b7e <kvprintf>
ffffffff801012e8:	eb 1a                	jmp    ffffffff80101304 <init_proto+0x19a>
ffffffff801012ea:	0f b6 45 df          	movzbl -0x21(%rbp),%eax
ffffffff801012ee:	89 c6                	mov    %eax,%esi
ffffffff801012f0:	48 c7 c7 50 c1 10 80 	mov    $0xffffffff8010c150,%rdi
ffffffff801012f7:	b8 00 00 00 00       	mov    $0x0,%eax
ffffffff801012fc:	e8 7d 78 00 00       	callq  ffffffff80108b7e <kvprintf>
ffffffff80101301:	eb 01                	jmp    ffffffff80101304 <init_proto+0x19a>
ffffffff80101303:	90                   	nop
ffffffff80101304:	0f b6 45 df          	movzbl -0x21(%rbp),%eax
ffffffff80101308:	83 c0 01             	add    $0x1,%eax
ffffffff8010130b:	88 45 df             	mov    %al,-0x21(%rbp)
ffffffff8010130e:	80 7d df 1f          	cmpb   $0x1f,-0x21(%rbp)
ffffffff80101312:	0f 86 30 ff ff ff    	jbe    ffffffff80101248 <init_proto+0xde>
ffffffff80101318:	90                   	nop
ffffffff80101319:	90                   	nop
ffffffff8010131a:	48 83 c4 38          	add    $0x38,%rsp
ffffffff8010131e:	5b                   	pop    %rbx
ffffffff8010131f:	41 5c                	pop    %r12
ffffffff80101321:	41 5d                	pop    %r13
ffffffff80101323:	5d                   	pop    %rbp
ffffffff80101324:	c3                   	retq   

ffffffff80101325 <find_CMD>:
ffffffff80101325:	55                   	push   %rbp
ffffffff80101326:	48 89 e5             	mov    %rsp,%rbp
ffffffff80101329:	48 83 ec 18          	sub    $0x18,%rsp
ffffffff8010132d:	48 89 7d e8          	mov    %rdi,-0x18(%rbp)
ffffffff80101331:	c7 45 fc 00 00 00 00 	movl   $0x0,-0x4(%rbp)
ffffffff80101338:	eb 2d                	jmp    ffffffff80101367 <find_CMD+0x42>
ffffffff8010133a:	48 8b 45 e8          	mov    -0x18(%rbp),%rax
ffffffff8010133e:	8b 50 34             	mov    0x34(%rax),%edx
ffffffff80101341:	48 8b 45 e8          	mov    -0x18(%rbp),%rax
ffffffff80101345:	8b 40 38             	mov    0x38(%rax),%eax
ffffffff80101348:	09 c2                	or     %eax,%edx
ffffffff8010134a:	8b 45 fc             	mov    -0x4(%rbp),%eax
ffffffff8010134d:	be 01 00 00 00       	mov    $0x1,%esi
ffffffff80101352:	89 c1                	mov    %eax,%ecx
ffffffff80101354:	d3 e6                	shl    %cl,%esi
ffffffff80101356:	89 f0                	mov    %esi,%eax
ffffffff80101358:	21 d0                	and    %edx,%eax
ffffffff8010135a:	85 c0                	test   %eax,%eax
ffffffff8010135c:	75 05                	jne    ffffffff80101363 <find_CMD+0x3e>
ffffffff8010135e:	8b 45 fc             	mov    -0x4(%rbp),%eax
ffffffff80101361:	eb 0f                	jmp    ffffffff80101372 <find_CMD+0x4d>
ffffffff80101363:	83 45 fc 01          	addl   $0x1,-0x4(%rbp)
ffffffff80101367:	83 7d fc 1f          	cmpl   $0x1f,-0x4(%rbp)
ffffffff8010136b:	76 cd                	jbe    ffffffff8010133a <find_CMD+0x15>
ffffffff8010136d:	b8 ff ff ff ff       	mov    $0xffffffff,%eax
ffffffff80101372:	c9                   	leaveq 
ffffffff80101373:	c3                   	retq   

ffffffff80101374 <send_command>:
ffffffff80101374:	55                   	push   %rbp
ffffffff80101375:	48 89 e5             	mov    %rsp,%rbp
ffffffff80101378:	48 83 ec 10          	sub    $0x10,%rsp
ffffffff8010137c:	48 89 7d f8          	mov    %rdi,-0x8(%rbp)
ffffffff80101380:	89 75 f4             	mov    %esi,-0xc(%rbp)
ffffffff80101383:	90                   	nop
ffffffff80101384:	48 8b 45 f8          	mov    -0x8(%rbp),%rax
ffffffff80101388:	8b 40 20             	mov    0x20(%rax),%eax
ffffffff8010138b:	25 88 00 00 00       	and    $0x88,%eax
ffffffff80101390:	85 c0                	test   %eax,%eax
ffffffff80101392:	75 f0                	jne    ffffffff80101384 <send_command+0x10>
ffffffff80101394:	48 8b 45 f8          	mov    -0x8(%rbp),%rax
ffffffff80101398:	8b 40 18             	mov    0x18(%rax),%eax
ffffffff8010139b:	83 e0 fe             	and    $0xfffffffe,%eax
ffffffff8010139e:	89 c2                	mov    %eax,%edx
ffffffff801013a0:	48 8b 45 f8          	mov    -0x8(%rbp),%rax
ffffffff801013a4:	89 50 18             	mov    %edx,0x18(%rax)
ffffffff801013a7:	90                   	nop
ffffffff801013a8:	48 8b 45 f8          	mov    -0x8(%rbp),%rax
ffffffff801013ac:	8b 40 18             	mov    0x18(%rax),%eax
ffffffff801013af:	25 00 80 00 00       	and    $0x8000,%eax
ffffffff801013b4:	85 c0                	test   %eax,%eax
ffffffff801013b6:	75 f0                	jne    ffffffff801013a8 <send_command+0x34>
ffffffff801013b8:	48 8b 45 f8          	mov    -0x8(%rbp),%rax
ffffffff801013bc:	8b 40 18             	mov    0x18(%rax),%eax
ffffffff801013bf:	83 c8 10             	or     $0x10,%eax
ffffffff801013c2:	89 c2                	mov    %eax,%edx
ffffffff801013c4:	48 8b 45 f8          	mov    -0x8(%rbp),%rax
ffffffff801013c8:	89 50 18             	mov    %edx,0x18(%rax)
ffffffff801013cb:	48 8b 45 f8          	mov    -0x8(%rbp),%rax
ffffffff801013cf:	8b 40 18             	mov    0x18(%rax),%eax
ffffffff801013d2:	83 c8 01             	or     $0x1,%eax
ffffffff801013d5:	89 c2                	mov    %eax,%edx
ffffffff801013d7:	48 8b 45 f8          	mov    -0x8(%rbp),%rax
ffffffff801013db:	89 50 18             	mov    %edx,0x18(%rax)
ffffffff801013de:	8b 45 f4             	mov    -0xc(%rbp),%eax
ffffffff801013e1:	ba 01 00 00 00       	mov    $0x1,%edx
ffffffff801013e6:	89 c1                	mov    %eax,%ecx
ffffffff801013e8:	d3 e2                	shl    %cl,%edx
ffffffff801013ea:	89 d0                	mov    %edx,%eax
ffffffff801013ec:	89 c2                	mov    %eax,%edx
ffffffff801013ee:	48 8b 45 f8          	mov    -0x8(%rbp),%rax
ffffffff801013f2:	89 50 38             	mov    %edx,0x38(%rax)
ffffffff801013f5:	48 8b 45 f8          	mov    -0x8(%rbp),%rax
ffffffff801013f9:	8b 50 38             	mov    0x38(%rax),%edx
ffffffff801013fc:	8b 45 f4             	mov    -0xc(%rbp),%eax
ffffffff801013ff:	be 01 00 00 00       	mov    $0x1,%esi
ffffffff80101404:	89 c1                	mov    %eax,%ecx
ffffffff80101406:	d3 e6                	shl    %cl,%esi
ffffffff80101408:	89 f0                	mov    %esi,%eax
ffffffff8010140a:	21 d0                	and    %edx,%eax
ffffffff8010140c:	85 c0                	test   %eax,%eax
ffffffff8010140e:	74 02                	je     ffffffff80101412 <send_command+0x9e>
ffffffff80101410:	eb e3                	jmp    ffffffff801013f5 <send_command+0x81>
ffffffff80101412:	90                   	nop
ffffffff80101413:	48 8b 45 f8          	mov    -0x8(%rbp),%rax
ffffffff80101417:	8b 40 18             	mov    0x18(%rax),%eax
ffffffff8010141a:	83 e0 fe             	and    $0xfffffffe,%eax
ffffffff8010141d:	89 c2                	mov    %eax,%edx
ffffffff8010141f:	48 8b 45 f8          	mov    -0x8(%rbp),%rax
ffffffff80101423:	89 50 18             	mov    %edx,0x18(%rax)
ffffffff80101426:	90                   	nop
ffffffff80101427:	48 8b 45 f8          	mov    -0x8(%rbp),%rax
ffffffff8010142b:	8b 40 18             	mov    0x18(%rax),%eax
ffffffff8010142e:	25 00 80 00 00       	and    $0x8000,%eax
ffffffff80101433:	85 c0                	test   %eax,%eax
ffffffff80101435:	75 f0                	jne    ffffffff80101427 <send_command+0xb3>
ffffffff80101437:	48 8b 45 f8          	mov    -0x8(%rbp),%rax
ffffffff8010143b:	8b 40 18             	mov    0x18(%rax),%eax
ffffffff8010143e:	83 e0 ef             	and    $0xffffffef,%eax
ffffffff80101441:	89 c2                	mov    %eax,%edx
ffffffff80101443:	48 8b 45 f8          	mov    -0x8(%rbp),%rax
ffffffff80101447:	89 50 18             	mov    %edx,0x18(%rax)
ffffffff8010144a:	90                   	nop
ffffffff8010144b:	c9                   	leaveq 
ffffffff8010144c:	c3                   	retq   

ffffffff8010144d <ahci_read>:
ffffffff8010144d:	55                   	push   %rbp
ffffffff8010144e:	48 89 e5             	mov    %rsp,%rbp
ffffffff80101451:	48 83 ec 30          	sub    $0x30,%rsp
ffffffff80101455:	89 7d ec             	mov    %edi,-0x14(%rbp)
ffffffff80101458:	48 89 75 e0          	mov    %rsi,-0x20(%rbp)
ffffffff8010145c:	48 89 55 d8          	mov    %rdx,-0x28(%rbp)
ffffffff80101460:	48 89 4d d0          	mov    %rcx,-0x30(%rbp)
ffffffff80101464:	48 8b 45 d8          	mov    -0x28(%rbp),%rax
ffffffff80101468:	48 05 ff 0f 00 00    	add    $0xfff,%rax
ffffffff8010146e:	48 c1 e8 0c          	shr    $0xc,%rax
ffffffff80101472:	48 89 c7             	mov    %rax,%rdi
ffffffff80101475:	e8 c0 86 00 00       	callq  ffffffff80109b3a <pmm_alloc>
ffffffff8010147a:	48 ba 00 00 00 00 00 	movabs $0xffff800000000000,%rdx
ffffffff80101481:	80 ff ff 
ffffffff80101484:	48 01 d0             	add    %rdx,%rax
ffffffff80101487:	48 89 45 f8          	mov    %rax,-0x8(%rbp)
ffffffff8010148b:	48 8b 45 d8          	mov    -0x28(%rbp),%rax
ffffffff8010148f:	48 05 ff 01 00 00    	add    $0x1ff,%rax
ffffffff80101495:	48 c1 e8 09          	shr    $0x9,%rax
ffffffff80101499:	48 89 c2             	mov    %rax,%rdx
ffffffff8010149c:	48 8b 45 e0          	mov    -0x20(%rbp),%rax
ffffffff801014a0:	48 c1 e8 09          	shr    $0x9,%rax
ffffffff801014a4:	48 89 c6             	mov    %rax,%rsi
ffffffff801014a7:	48 8b 0d 5a eb 00 00 	mov    0xeb5a(%rip),%rcx        # ffffffff80110008 <ahci_drives>
ffffffff801014ae:	8b 45 ec             	mov    -0x14(%rbp),%eax
ffffffff801014b1:	48 98                	cltq   
ffffffff801014b3:	48 c1 e0 04          	shl    $0x4,%rax
ffffffff801014b7:	48 8d 3c 01          	lea    (%rcx,%rax,1),%rdi
ffffffff801014bb:	48 8b 45 f8          	mov    -0x8(%rbp),%rax
ffffffff801014bf:	41 b8 00 00 00 00    	mov    $0x0,%r8d
ffffffff801014c5:	48 89 c1             	mov    %rax,%rcx
ffffffff801014c8:	e8 88 03 00 00       	callq  ffffffff80101855 <ahci_RW>
ffffffff801014cd:	48 8b 45 e0          	mov    -0x20(%rbp),%rax
ffffffff801014d1:	25 ff 01 00 00       	and    $0x1ff,%eax
ffffffff801014d6:	48 89 c2             	mov    %rax,%rdx
ffffffff801014d9:	48 8b 45 f8          	mov    -0x8(%rbp),%rax
ffffffff801014dd:	48 8d 0c 02          	lea    (%rdx,%rax,1),%rcx
ffffffff801014e1:	48 8b 55 d8          	mov    -0x28(%rbp),%rdx
ffffffff801014e5:	48 8b 45 d0          	mov    -0x30(%rbp),%rax
ffffffff801014e9:	48 89 ce             	mov    %rcx,%rsi
ffffffff801014ec:	48 89 c7             	mov    %rax,%rdi
ffffffff801014ef:	e8 a4 6e 00 00       	callq  ffffffff80108398 <memcpy8>
ffffffff801014f4:	48 8b 45 d8          	mov    -0x28(%rbp),%rax
ffffffff801014f8:	48 05 ff 0f 00 00    	add    $0xfff,%rax
ffffffff801014fe:	48 c1 e8 0c          	shr    $0xc,%rax
ffffffff80101502:	48 89 c2             	mov    %rax,%rdx
ffffffff80101505:	48 8b 45 f8          	mov    -0x8(%rbp),%rax
ffffffff80101509:	48 b9 00 00 00 00 00 	movabs $0x800000000000,%rcx
ffffffff80101510:	80 00 00 
ffffffff80101513:	48 01 c8             	add    %rcx,%rax
ffffffff80101516:	48 89 d6             	mov    %rdx,%rsi
ffffffff80101519:	48 89 c7             	mov    %rax,%rdi
ffffffff8010151c:	e8 ae 87 00 00       	callq  ffffffff80109ccf <pmm_free>
ffffffff80101521:	48 8b 45 d8          	mov    -0x28(%rbp),%rax
ffffffff80101525:	c9                   	leaveq 
ffffffff80101526:	c3                   	retq   

ffffffff80101527 <ahci_write>:
ffffffff80101527:	55                   	push   %rbp
ffffffff80101528:	48 89 e5             	mov    %rsp,%rbp
ffffffff8010152b:	48 83 ec 30          	sub    $0x30,%rsp
ffffffff8010152f:	89 7d ec             	mov    %edi,-0x14(%rbp)
ffffffff80101532:	48 89 75 e0          	mov    %rsi,-0x20(%rbp)
ffffffff80101536:	48 89 55 d8          	mov    %rdx,-0x28(%rbp)
ffffffff8010153a:	48 89 4d d0          	mov    %rcx,-0x30(%rbp)
ffffffff8010153e:	48 8b 45 d8          	mov    -0x28(%rbp),%rax
ffffffff80101542:	48 05 ff 0f 00 00    	add    $0xfff,%rax
ffffffff80101548:	48 c1 e8 0c          	shr    $0xc,%rax
ffffffff8010154c:	48 89 c7             	mov    %rax,%rdi
ffffffff8010154f:	e8 e6 85 00 00       	callq  ffffffff80109b3a <pmm_alloc>
ffffffff80101554:	48 ba 00 00 00 00 00 	movabs $0xffff800000000000,%rdx
ffffffff8010155b:	80 ff ff 
ffffffff8010155e:	48 01 d0             	add    %rdx,%rax
ffffffff80101561:	48 89 45 f8          	mov    %rax,-0x8(%rbp)
ffffffff80101565:	48 8b 45 d8          	mov    -0x28(%rbp),%rax
ffffffff80101569:	48 05 ff 01 00 00    	add    $0x1ff,%rax
ffffffff8010156f:	48 c1 e8 09          	shr    $0x9,%rax
ffffffff80101573:	48 89 c2             	mov    %rax,%rdx
ffffffff80101576:	48 8b 45 e0          	mov    -0x20(%rbp),%rax
ffffffff8010157a:	48 c1 e8 09          	shr    $0x9,%rax
ffffffff8010157e:	48 89 c6             	mov    %rax,%rsi
ffffffff80101581:	48 8b 0d 80 ea 00 00 	mov    0xea80(%rip),%rcx        # ffffffff80110008 <ahci_drives>
ffffffff80101588:	8b 45 ec             	mov    -0x14(%rbp),%eax
ffffffff8010158b:	48 98                	cltq   
ffffffff8010158d:	48 c1 e0 04          	shl    $0x4,%rax
ffffffff80101591:	48 8d 3c 01          	lea    (%rcx,%rax,1),%rdi
ffffffff80101595:	48 8b 45 f8          	mov    -0x8(%rbp),%rax
ffffffff80101599:	41 b8 00 00 00 00    	mov    $0x0,%r8d
ffffffff8010159f:	48 89 c1             	mov    %rax,%rcx
ffffffff801015a2:	e8 ae 02 00 00       	callq  ffffffff80101855 <ahci_RW>
ffffffff801015a7:	48 8b 45 e0          	mov    -0x20(%rbp),%rax
ffffffff801015ab:	25 ff 01 00 00       	and    $0x1ff,%eax
ffffffff801015b0:	48 89 c2             	mov    %rax,%rdx
ffffffff801015b3:	48 8b 45 f8          	mov    -0x8(%rbp),%rax
ffffffff801015b7:	48 8d 0c 02          	lea    (%rdx,%rax,1),%rcx
ffffffff801015bb:	48 8b 55 d8          	mov    -0x28(%rbp),%rdx
ffffffff801015bf:	48 8b 45 d0          	mov    -0x30(%rbp),%rax
ffffffff801015c3:	48 89 c6             	mov    %rax,%rsi
ffffffff801015c6:	48 89 cf             	mov    %rcx,%rdi
ffffffff801015c9:	e8 ca 6d 00 00       	callq  ffffffff80108398 <memcpy8>
ffffffff801015ce:	48 8b 45 d8          	mov    -0x28(%rbp),%rax
ffffffff801015d2:	48 05 ff 01 00 00    	add    $0x1ff,%rax
ffffffff801015d8:	48 c1 e8 09          	shr    $0x9,%rax
ffffffff801015dc:	48 89 c2             	mov    %rax,%rdx
ffffffff801015df:	48 8b 45 e0          	mov    -0x20(%rbp),%rax
ffffffff801015e3:	48 c1 e8 09          	shr    $0x9,%rax
ffffffff801015e7:	48 89 c6             	mov    %rax,%rsi
ffffffff801015ea:	48 8b 0d 17 ea 00 00 	mov    0xea17(%rip),%rcx        # ffffffff80110008 <ahci_drives>
ffffffff801015f1:	8b 45 ec             	mov    -0x14(%rbp),%eax
ffffffff801015f4:	48 98                	cltq   
ffffffff801015f6:	48 c1 e0 04          	shl    $0x4,%rax
ffffffff801015fa:	48 8d 3c 01          	lea    (%rcx,%rax,1),%rdi
ffffffff801015fe:	48 8b 45 f8          	mov    -0x8(%rbp),%rax
ffffffff80101602:	41 b8 01 00 00 00    	mov    $0x1,%r8d
ffffffff80101608:	48 89 c1             	mov    %rax,%rcx
ffffffff8010160b:	e8 45 02 00 00       	callq  ffffffff80101855 <ahci_RW>
ffffffff80101610:	48 8b 45 d8          	mov    -0x28(%rbp),%rax
ffffffff80101614:	48 05 ff 0f 00 00    	add    $0xfff,%rax
ffffffff8010161a:	48 c1 e8 0c          	shr    $0xc,%rax
ffffffff8010161e:	48 89 c2             	mov    %rax,%rdx
ffffffff80101621:	48 8b 45 f8          	mov    -0x8(%rbp),%rax
ffffffff80101625:	48 b9 00 00 00 00 00 	movabs $0x800000000000,%rcx
ffffffff8010162c:	80 00 00 
ffffffff8010162f:	48 01 c8             	add    %rcx,%rax
ffffffff80101632:	48 89 d6             	mov    %rdx,%rsi
ffffffff80101635:	48 89 c7             	mov    %rax,%rdi
ffffffff80101638:	e8 92 86 00 00       	callq  ffffffff80109ccf <pmm_free>
ffffffff8010163d:	48 8b 45 d8          	mov    -0x28(%rbp),%rax
ffffffff80101641:	c9                   	leaveq 
ffffffff80101642:	c3                   	retq   

ffffffff80101643 <init_sata_device>:
ffffffff80101643:	55                   	push   %rbp
ffffffff80101644:	48 89 e5             	mov    %rsp,%rbp
ffffffff80101647:	48 83 ec 60          	sub    $0x60,%rsp
ffffffff8010164b:	48 89 7d a8          	mov    %rdi,-0x58(%rbp)
ffffffff8010164f:	48 8b 45 a8          	mov    -0x58(%rbp),%rax
ffffffff80101653:	48 89 c7             	mov    %rax,%rdi
ffffffff80101656:	e8 ca fc ff ff       	callq  ffffffff80101325 <find_CMD>
ffffffff8010165b:	89 45 fc             	mov    %eax,-0x4(%rbp)
ffffffff8010165e:	83 7d fc ff          	cmpl   $0xffffffff,-0x4(%rbp)
ffffffff80101662:	75 18                	jne    ffffffff8010167c <init_sata_device+0x39>
ffffffff80101664:	48 c7 c6 78 c1 10 80 	mov    $0xffffffff8010c178,%rsi
ffffffff8010166b:	48 c7 c7 96 c1 10 80 	mov    $0xffffffff8010c196,%rdi
ffffffff80101672:	b8 00 00 00 00       	mov    $0x0,%eax
ffffffff80101677:	e8 e9 73 00 00       	callq  ffffffff80108a65 <kprintf>
ffffffff8010167c:	bf 01 00 00 00       	mov    $0x1,%edi
ffffffff80101681:	e8 b4 84 00 00       	callq  ffffffff80109b3a <pmm_alloc>
ffffffff80101686:	48 ba 00 00 00 00 00 	movabs $0xffff800000000000,%rdx
ffffffff8010168d:	80 ff ff 
ffffffff80101690:	48 01 d0             	add    %rdx,%rax
ffffffff80101693:	48 89 45 f0          	mov    %rax,-0x10(%rbp)
ffffffff80101697:	48 8b 45 a8          	mov    -0x58(%rbp),%rax
ffffffff8010169b:	8b 00                	mov    (%rax),%eax
ffffffff8010169d:	89 c2                	mov    %eax,%edx
ffffffff8010169f:	48 b8 00 00 00 00 00 	movabs $0xffff800000000000,%rax
ffffffff801016a6:	80 ff ff 
ffffffff801016a9:	48 01 d0             	add    %rdx,%rax
ffffffff801016ac:	48 89 45 e8          	mov    %rax,-0x18(%rbp)
ffffffff801016b0:	8b 45 fc             	mov    -0x4(%rbp),%eax
ffffffff801016b3:	48 98                	cltq   
ffffffff801016b5:	48 c1 e0 05          	shl    $0x5,%rax
ffffffff801016b9:	48 01 45 e8          	add    %rax,-0x18(%rbp)
ffffffff801016bd:	48 8b 45 e8          	mov    -0x18(%rbp),%rax
ffffffff801016c1:	0f b7 10             	movzwl (%rax),%edx
ffffffff801016c4:	83 e2 e0             	and    $0xffffffe0,%edx
ffffffff801016c7:	83 ca 05             	or     $0x5,%edx
ffffffff801016ca:	66 89 10             	mov    %dx,(%rax)
ffffffff801016cd:	48 8b 45 e8          	mov    -0x18(%rbp),%rax
ffffffff801016d1:	0f b7 10             	movzwl (%rax),%edx
ffffffff801016d4:	83 e2 bf             	and    $0xffffffbf,%edx
ffffffff801016d7:	66 89 10             	mov    %dx,(%rax)
ffffffff801016da:	48 8b 45 e8          	mov    -0x18(%rbp),%rax
ffffffff801016de:	66 c7 40 02 01 00    	movw   $0x1,0x2(%rax)
ffffffff801016e4:	48 8b 45 e8          	mov    -0x18(%rbp),%rax
ffffffff801016e8:	8b 40 08             	mov    0x8(%rax),%eax
ffffffff801016eb:	89 c2                	mov    %eax,%edx
ffffffff801016ed:	48 b8 00 00 00 00 00 	movabs $0xffff800000000000,%rax
ffffffff801016f4:	80 ff ff 
ffffffff801016f7:	48 01 d0             	add    %rdx,%rax
ffffffff801016fa:	48 89 45 e0          	mov    %rax,-0x20(%rbp)
ffffffff801016fe:	48 8b 45 e8          	mov    -0x18(%rbp),%rax
ffffffff80101702:	8b 40 08             	mov    0x8(%rax),%eax
ffffffff80101705:	89 c2                	mov    %eax,%edx
ffffffff80101707:	48 b8 00 00 00 00 00 	movabs $0xffff800000000000,%rax
ffffffff8010170e:	80 ff ff 
ffffffff80101711:	48 01 d0             	add    %rdx,%rax
ffffffff80101714:	ba 90 00 00 00       	mov    $0x90,%edx
ffffffff80101719:	be 00 00 00 00       	mov    $0x0,%esi
ffffffff8010171e:	48 89 c7             	mov    %rax,%rdi
ffffffff80101721:	e8 63 6b 00 00       	callq  ffffffff80108289 <memset8>
ffffffff80101726:	48 8b 45 f0          	mov    -0x10(%rbp),%rax
ffffffff8010172a:	89 c2                	mov    %eax,%edx
ffffffff8010172c:	48 8b 45 e0          	mov    -0x20(%rbp),%rax
ffffffff80101730:	89 90 80 00 00 00    	mov    %edx,0x80(%rax)
ffffffff80101736:	48 8b 45 e0          	mov    -0x20(%rbp),%rax
ffffffff8010173a:	8b 90 8c 00 00 00    	mov    0x8c(%rax),%edx
ffffffff80101740:	81 e2 00 00 c0 ff    	and    $0xffc00000,%edx
ffffffff80101746:	81 ca ff 01 00 00    	or     $0x1ff,%edx
ffffffff8010174c:	89 90 8c 00 00 00    	mov    %edx,0x8c(%rax)
ffffffff80101752:	48 8b 45 e0          	mov    -0x20(%rbp),%rax
ffffffff80101756:	8b 90 8c 00 00 00    	mov    0x8c(%rax),%edx
ffffffff8010175c:	81 ca 00 00 00 80    	or     $0x80000000,%edx
ffffffff80101762:	89 90 8c 00 00 00    	mov    %edx,0x8c(%rax)
ffffffff80101768:	48 8b 45 e0          	mov    -0x20(%rbp),%rax
ffffffff8010176c:	48 89 45 d8          	mov    %rax,-0x28(%rbp)
ffffffff80101770:	48 8b 45 e0          	mov    -0x20(%rbp),%rax
ffffffff80101774:	ba 14 00 00 00       	mov    $0x14,%edx
ffffffff80101779:	be 00 00 00 00       	mov    $0x0,%esi
ffffffff8010177e:	48 89 c7             	mov    %rax,%rdi
ffffffff80101781:	e8 03 6b 00 00       	callq  ffffffff80108289 <memset8>
ffffffff80101786:	48 8b 45 d8          	mov    -0x28(%rbp),%rax
ffffffff8010178a:	c6 40 02 ec          	movb   $0xec,0x2(%rax)
ffffffff8010178e:	48 8b 45 d8          	mov    -0x28(%rbp),%rax
ffffffff80101792:	0f b6 50 01          	movzbl 0x1(%rax),%edx
ffffffff80101796:	83 ca 80             	or     $0xffffff80,%edx
ffffffff80101799:	88 50 01             	mov    %dl,0x1(%rax)
ffffffff8010179c:	48 8b 45 d8          	mov    -0x28(%rbp),%rax
ffffffff801017a0:	c6 40 07 00          	movb   $0x0,0x7(%rax)
ffffffff801017a4:	48 8b 45 d8          	mov    -0x28(%rbp),%rax
ffffffff801017a8:	0f b6 50 01          	movzbl 0x1(%rax),%edx
ffffffff801017ac:	83 e2 f0             	and    $0xfffffff0,%edx
ffffffff801017af:	88 50 01             	mov    %dl,0x1(%rax)
ffffffff801017b2:	48 8b 45 d8          	mov    -0x28(%rbp),%rax
ffffffff801017b6:	c6 00 27             	movb   $0x27,(%rax)
ffffffff801017b9:	8b 55 fc             	mov    -0x4(%rbp),%edx
ffffffff801017bc:	48 8b 45 a8          	mov    -0x58(%rbp),%rax
ffffffff801017c0:	89 d6                	mov    %edx,%esi
ffffffff801017c2:	48 89 c7             	mov    %rax,%rdi
ffffffff801017c5:	e8 aa fb ff ff       	callq  ffffffff80101374 <send_command>
ffffffff801017ca:	48 8b 15 37 e8 00 00 	mov    0xe837(%rip),%rdx        # ffffffff80110008 <ahci_drives>
ffffffff801017d1:	48 8b 05 28 e8 00 00 	mov    0xe828(%rip),%rax        # ffffffff80110000 <ahci_drive_cnt>
ffffffff801017d8:	48 c1 e0 04          	shl    $0x4,%rax
ffffffff801017dc:	48 01 d0             	add    %rdx,%rax
ffffffff801017df:	48 8b 55 f0          	mov    -0x10(%rbp),%rdx
ffffffff801017e3:	48 81 c2 c8 00 00 00 	add    $0xc8,%rdx
ffffffff801017ea:	48 8b 12             	mov    (%rdx),%rdx
ffffffff801017ed:	48 89 10             	mov    %rdx,(%rax)
ffffffff801017f0:	48 8b 55 a8          	mov    -0x58(%rbp),%rdx
ffffffff801017f4:	48 89 50 08          	mov    %rdx,0x8(%rax)
ffffffff801017f8:	48 c7 45 b0 00 00 00 	movq   $0x0,-0x50(%rbp)
ffffffff801017ff:	00 
ffffffff80101800:	48 c7 45 b8 00 00 00 	movq   $0x0,-0x48(%rbp)
ffffffff80101807:	00 
ffffffff80101808:	48 c7 45 c0 00 00 00 	movq   $0x0,-0x40(%rbp)
ffffffff8010180f:	00 
ffffffff80101810:	48 c7 45 c8 00 00 00 	movq   $0x0,-0x38(%rbp)
ffffffff80101817:	00 
ffffffff80101818:	48 c7 45 d0 00 00 00 	movq   $0x0,-0x30(%rbp)
ffffffff8010181f:	00 
ffffffff80101820:	48 8b 05 d9 e7 00 00 	mov    0xe7d9(%rip),%rax        # ffffffff80110000 <ahci_drive_cnt>
ffffffff80101827:	48 8d 50 01          	lea    0x1(%rax),%rdx
ffffffff8010182b:	48 89 15 ce e7 00 00 	mov    %rdx,0xe7ce(%rip)        # ffffffff80110000 <ahci_drive_cnt>
ffffffff80101832:	48 89 45 b0          	mov    %rax,-0x50(%rbp)
ffffffff80101836:	48 c7 45 c8 4d 14 10 	movq   $0xffffffff8010144d,-0x38(%rbp)
ffffffff8010183d:	80 
ffffffff8010183e:	48 c7 45 d0 27 15 10 	movq   $0xffffffff80101527,-0x30(%rbp)
ffffffff80101845:	80 
ffffffff80101846:	48 8d 45 b0          	lea    -0x50(%rbp),%rax
ffffffff8010184a:	48 89 c7             	mov    %rax,%rdi
ffffffff8010184d:	e8 db 94 00 00       	callq  ffffffff8010ad2d <add_device>
ffffffff80101852:	90                   	nop
ffffffff80101853:	c9                   	leaveq 
ffffffff80101854:	c3                   	retq   

ffffffff80101855 <ahci_RW>:
ffffffff80101855:	55                   	push   %rbp
ffffffff80101856:	48 89 e5             	mov    %rsp,%rbp
ffffffff80101859:	48 83 ec 50          	sub    $0x50,%rsp
ffffffff8010185d:	48 89 7d d8          	mov    %rdi,-0x28(%rbp)
ffffffff80101861:	48 89 75 d0          	mov    %rsi,-0x30(%rbp)
ffffffff80101865:	48 89 55 c8          	mov    %rdx,-0x38(%rbp)
ffffffff80101869:	48 89 4d c0          	mov    %rcx,-0x40(%rbp)
ffffffff8010186d:	44 89 c0             	mov    %r8d,%eax
ffffffff80101870:	88 45 bc             	mov    %al,-0x44(%rbp)
ffffffff80101873:	48 8b 45 d8          	mov    -0x28(%rbp),%rax
ffffffff80101877:	48 8b 40 08          	mov    0x8(%rax),%rax
ffffffff8010187b:	48 89 c7             	mov    %rax,%rdi
ffffffff8010187e:	e8 a2 fa ff ff       	callq  ffffffff80101325 <find_CMD>
ffffffff80101883:	89 45 fc             	mov    %eax,-0x4(%rbp)
ffffffff80101886:	48 8b 45 d8          	mov    -0x28(%rbp),%rax
ffffffff8010188a:	48 8b 40 08          	mov    0x8(%rax),%rax
ffffffff8010188e:	8b 00                	mov    (%rax),%eax
ffffffff80101890:	89 c2                	mov    %eax,%edx
ffffffff80101892:	48 b8 00 00 00 00 00 	movabs $0xffff800000000000,%rax
ffffffff80101899:	80 ff ff 
ffffffff8010189c:	48 01 d0             	add    %rdx,%rax
ffffffff8010189f:	48 89 45 f0          	mov    %rax,-0x10(%rbp)
ffffffff801018a3:	48 8b 45 d8          	mov    -0x28(%rbp),%rax
ffffffff801018a7:	48 8b 40 08          	mov    0x8(%rax),%rax
ffffffff801018ab:	8b 00                	mov    (%rax),%eax
ffffffff801018ad:	89 c2                	mov    %eax,%edx
ffffffff801018af:	48 b8 00 00 00 00 00 	movabs $0xffff800000000000,%rax
ffffffff801018b6:	80 ff ff 
ffffffff801018b9:	48 01 d0             	add    %rdx,%rax
ffffffff801018bc:	ba 20 00 00 00       	mov    $0x20,%edx
ffffffff801018c1:	be 00 00 00 00       	mov    $0x0,%esi
ffffffff801018c6:	48 89 c7             	mov    %rax,%rdi
ffffffff801018c9:	e8 bb 69 00 00       	callq  ffffffff80108289 <memset8>
ffffffff801018ce:	8b 45 fc             	mov    -0x4(%rbp),%eax
ffffffff801018d1:	48 c1 e0 05          	shl    $0x5,%rax
ffffffff801018d5:	48 01 45 f0          	add    %rax,-0x10(%rbp)
ffffffff801018d9:	48 8b 45 f0          	mov    -0x10(%rbp),%rax
ffffffff801018dd:	0f b7 10             	movzwl (%rax),%edx
ffffffff801018e0:	83 e2 e0             	and    $0xffffffe0,%edx
ffffffff801018e3:	83 ca 05             	or     $0x5,%edx
ffffffff801018e6:	66 89 10             	mov    %dx,(%rax)
ffffffff801018e9:	80 7d bc 00          	cmpb   $0x0,-0x44(%rbp)
ffffffff801018ed:	0f 95 c2             	setne  %dl
ffffffff801018f0:	48 8b 45 f0          	mov    -0x10(%rbp),%rax
ffffffff801018f4:	0f b6 d2             	movzbl %dl,%edx
ffffffff801018f7:	83 e2 01             	and    $0x1,%edx
ffffffff801018fa:	89 d1                	mov    %edx,%ecx
ffffffff801018fc:	c1 e1 06             	shl    $0x6,%ecx
ffffffff801018ff:	0f b7 10             	movzwl (%rax),%edx
ffffffff80101902:	83 e2 bf             	and    $0xffffffbf,%edx
ffffffff80101905:	09 ca                	or     %ecx,%edx
ffffffff80101907:	66 89 10             	mov    %dx,(%rax)
ffffffff8010190a:	48 8b 45 f0          	mov    -0x10(%rbp),%rax
ffffffff8010190e:	66 c7 40 02 01 00    	movw   $0x1,0x2(%rax)
ffffffff80101914:	48 8b 45 f0          	mov    -0x10(%rbp),%rax
ffffffff80101918:	8b 40 08             	mov    0x8(%rax),%eax
ffffffff8010191b:	89 c2                	mov    %eax,%edx
ffffffff8010191d:	48 b8 00 00 00 00 00 	movabs $0xffff800000000000,%rax
ffffffff80101924:	80 ff ff 
ffffffff80101927:	48 01 d0             	add    %rdx,%rax
ffffffff8010192a:	48 89 45 e8          	mov    %rax,-0x18(%rbp)
ffffffff8010192e:	48 8b 45 f0          	mov    -0x10(%rbp),%rax
ffffffff80101932:	8b 40 08             	mov    0x8(%rax),%eax
ffffffff80101935:	89 c2                	mov    %eax,%edx
ffffffff80101937:	48 b8 00 00 00 00 00 	movabs $0xffff800000000000,%rax
ffffffff8010193e:	80 ff ff 
ffffffff80101941:	48 01 d0             	add    %rdx,%rax
ffffffff80101944:	ba 90 00 00 00       	mov    $0x90,%edx
ffffffff80101949:	be 00 00 00 00       	mov    $0x0,%esi
ffffffff8010194e:	48 89 c7             	mov    %rax,%rdi
ffffffff80101951:	e8 33 69 00 00       	callq  ffffffff80108289 <memset8>
ffffffff80101956:	48 8b 45 c0          	mov    -0x40(%rbp),%rax
ffffffff8010195a:	89 c2                	mov    %eax,%edx
ffffffff8010195c:	48 8b 45 e8          	mov    -0x18(%rbp),%rax
ffffffff80101960:	89 90 80 00 00 00    	mov    %edx,0x80(%rax)
ffffffff80101966:	48 8b 45 c8          	mov    -0x38(%rbp),%rax
ffffffff8010196a:	c1 e0 09             	shl    $0x9,%eax
ffffffff8010196d:	83 e8 01             	sub    $0x1,%eax
ffffffff80101970:	25 ff ff 3f 00       	and    $0x3fffff,%eax
ffffffff80101975:	89 c2                	mov    %eax,%edx
ffffffff80101977:	48 8b 45 e8          	mov    -0x18(%rbp),%rax
ffffffff8010197b:	89 d1                	mov    %edx,%ecx
ffffffff8010197d:	81 e1 ff ff 3f 00    	and    $0x3fffff,%ecx
ffffffff80101983:	8b 90 8c 00 00 00    	mov    0x8c(%rax),%edx
ffffffff80101989:	81 e2 00 00 c0 ff    	and    $0xffc00000,%edx
ffffffff8010198f:	09 ca                	or     %ecx,%edx
ffffffff80101991:	89 90 8c 00 00 00    	mov    %edx,0x8c(%rax)
ffffffff80101997:	48 8b 45 e8          	mov    -0x18(%rbp),%rax
ffffffff8010199b:	8b 90 8c 00 00 00    	mov    0x8c(%rax),%edx
ffffffff801019a1:	81 ca 00 00 00 80    	or     $0x80000000,%edx
ffffffff801019a7:	89 90 8c 00 00 00    	mov    %edx,0x8c(%rax)
ffffffff801019ad:	48 8b 45 e8          	mov    -0x18(%rbp),%rax
ffffffff801019b1:	48 89 45 e0          	mov    %rax,-0x20(%rbp)
ffffffff801019b5:	48 8b 45 e8          	mov    -0x18(%rbp),%rax
ffffffff801019b9:	ba 14 00 00 00       	mov    $0x14,%edx
ffffffff801019be:	be 00 00 00 00       	mov    $0x0,%esi
ffffffff801019c3:	48 89 c7             	mov    %rax,%rdi
ffffffff801019c6:	e8 be 68 00 00       	callq  ffffffff80108289 <memset8>
ffffffff801019cb:	48 8b 45 e0          	mov    -0x20(%rbp),%rax
ffffffff801019cf:	c6 00 27             	movb   $0x27,(%rax)
ffffffff801019d2:	48 8b 45 e0          	mov    -0x20(%rbp),%rax
ffffffff801019d6:	0f b6 50 01          	movzbl 0x1(%rax),%edx
ffffffff801019da:	83 ca 80             	or     $0xffffff80,%edx
ffffffff801019dd:	88 50 01             	mov    %dl,0x1(%rax)
ffffffff801019e0:	80 7d bc 00          	cmpb   $0x0,-0x44(%rbp)
ffffffff801019e4:	74 07                	je     ffffffff801019ed <ahci_RW+0x198>
ffffffff801019e6:	ba 35 00 00 00       	mov    $0x35,%edx
ffffffff801019eb:	eb 05                	jmp    ffffffff801019f2 <ahci_RW+0x19d>
ffffffff801019ed:	ba 25 00 00 00       	mov    $0x25,%edx
ffffffff801019f2:	48 8b 45 e0          	mov    -0x20(%rbp),%rax
ffffffff801019f6:	88 50 02             	mov    %dl,0x2(%rax)
ffffffff801019f9:	48 8b 45 d0          	mov    -0x30(%rbp),%rax
ffffffff801019fd:	89 c2                	mov    %eax,%edx
ffffffff801019ff:	48 8b 45 e0          	mov    -0x20(%rbp),%rax
ffffffff80101a03:	88 50 04             	mov    %dl,0x4(%rax)
ffffffff80101a06:	48 8b 45 d0          	mov    -0x30(%rbp),%rax
ffffffff80101a0a:	c1 e8 08             	shr    $0x8,%eax
ffffffff80101a0d:	89 c2                	mov    %eax,%edx
ffffffff80101a0f:	48 8b 45 e0          	mov    -0x20(%rbp),%rax
ffffffff80101a13:	88 50 05             	mov    %dl,0x5(%rax)
ffffffff80101a16:	48 8b 45 d0          	mov    -0x30(%rbp),%rax
ffffffff80101a1a:	c1 e8 10             	shr    $0x10,%eax
ffffffff80101a1d:	89 c2                	mov    %eax,%edx
ffffffff80101a1f:	48 8b 45 e0          	mov    -0x20(%rbp),%rax
ffffffff80101a23:	88 50 06             	mov    %dl,0x6(%rax)
ffffffff80101a26:	48 8b 45 e0          	mov    -0x20(%rbp),%rax
ffffffff80101a2a:	c6 40 07 40          	movb   $0x40,0x7(%rax)
ffffffff80101a2e:	48 8b 45 d0          	mov    -0x30(%rbp),%rax
ffffffff80101a32:	c1 e8 18             	shr    $0x18,%eax
ffffffff80101a35:	89 c2                	mov    %eax,%edx
ffffffff80101a37:	48 8b 45 e0          	mov    -0x20(%rbp),%rax
ffffffff80101a3b:	88 50 08             	mov    %dl,0x8(%rax)
ffffffff80101a3e:	48 8b 45 e0          	mov    -0x20(%rbp),%rax
ffffffff80101a42:	c6 40 09 00          	movb   $0x0,0x9(%rax)
ffffffff80101a46:	48 8b 45 e0          	mov    -0x20(%rbp),%rax
ffffffff80101a4a:	c6 40 0a 00          	movb   $0x0,0xa(%rax)
ffffffff80101a4e:	48 8b 45 c8          	mov    -0x38(%rbp),%rax
ffffffff80101a52:	89 c2                	mov    %eax,%edx
ffffffff80101a54:	48 8b 45 e0          	mov    -0x20(%rbp),%rax
ffffffff80101a58:	88 50 0c             	mov    %dl,0xc(%rax)
ffffffff80101a5b:	48 8b 45 c8          	mov    -0x38(%rbp),%rax
ffffffff80101a5f:	48 c1 e8 08          	shr    $0x8,%rax
ffffffff80101a63:	89 c2                	mov    %eax,%edx
ffffffff80101a65:	48 8b 45 e0          	mov    -0x20(%rbp),%rax
ffffffff80101a69:	88 50 0d             	mov    %dl,0xd(%rax)
ffffffff80101a6c:	48 8b 45 d8          	mov    -0x28(%rbp),%rax
ffffffff80101a70:	48 8b 40 08          	mov    0x8(%rax),%rax
ffffffff80101a74:	8b 55 fc             	mov    -0x4(%rbp),%edx
ffffffff80101a77:	89 d6                	mov    %edx,%esi
ffffffff80101a79:	48 89 c7             	mov    %rax,%rdi
ffffffff80101a7c:	e8 f3 f8 ff ff       	callq  ffffffff80101374 <send_command>
ffffffff80101a81:	90                   	nop
ffffffff80101a82:	c9                   	leaveq 
ffffffff80101a83:	c3                   	retq   

ffffffff80101a84 <lapic_read>:
ffffffff80101a84:	55                   	push   %rbp
ffffffff80101a85:	48 89 e5             	mov    %rsp,%rbp
ffffffff80101a88:	48 83 ec 08          	sub    $0x8,%rsp
ffffffff80101a8c:	89 f8                	mov    %edi,%eax
ffffffff80101a8e:	66 89 45 fc          	mov    %ax,-0x4(%rbp)
ffffffff80101a92:	8b 05 d8 7a 01 00    	mov    0x17ad8(%rip),%eax        # ffffffff80119570 <madt_info+0x30>
ffffffff80101a98:	89 c2                	mov    %eax,%edx
ffffffff80101a9a:	0f b7 45 fc          	movzwl -0x4(%rbp),%eax
ffffffff80101a9e:	48 01 c2             	add    %rax,%rdx
ffffffff80101aa1:	48 b8 00 00 00 00 00 	movabs $0xffff800000000000,%rax
ffffffff80101aa8:	80 ff ff 
ffffffff80101aab:	48 01 d0             	add    %rdx,%rax
ffffffff80101aae:	8b 00                	mov    (%rax),%eax
ffffffff80101ab0:	c9                   	leaveq 
ffffffff80101ab1:	c3                   	retq   

ffffffff80101ab2 <lapic_write>:
ffffffff80101ab2:	55                   	push   %rbp
ffffffff80101ab3:	48 89 e5             	mov    %rsp,%rbp
ffffffff80101ab6:	48 83 ec 08          	sub    $0x8,%rsp
ffffffff80101aba:	89 f8                	mov    %edi,%eax
ffffffff80101abc:	89 75 f8             	mov    %esi,-0x8(%rbp)
ffffffff80101abf:	66 89 45 fc          	mov    %ax,-0x4(%rbp)
ffffffff80101ac3:	8b 05 a7 7a 01 00    	mov    0x17aa7(%rip),%eax        # ffffffff80119570 <madt_info+0x30>
ffffffff80101ac9:	89 c2                	mov    %eax,%edx
ffffffff80101acb:	0f b7 45 fc          	movzwl -0x4(%rbp),%eax
ffffffff80101acf:	48 01 c2             	add    %rax,%rdx
ffffffff80101ad2:	48 b8 00 00 00 00 00 	movabs $0xffff800000000000,%rax
ffffffff80101ad9:	80 ff ff 
ffffffff80101adc:	48 01 d0             	add    %rdx,%rax
ffffffff80101adf:	48 89 c2             	mov    %rax,%rdx
ffffffff80101ae2:	8b 45 f8             	mov    -0x8(%rbp),%eax
ffffffff80101ae5:	89 02                	mov    %eax,(%rdx)
ffffffff80101ae7:	90                   	nop
ffffffff80101ae8:	c9                   	leaveq 
ffffffff80101ae9:	c3                   	retq   

ffffffff80101aea <send_IPI>:
ffffffff80101aea:	55                   	push   %rbp
ffffffff80101aeb:	48 89 e5             	mov    %rsp,%rbp
ffffffff80101aee:	48 83 ec 08          	sub    $0x8,%rsp
ffffffff80101af2:	89 f8                	mov    %edi,%eax
ffffffff80101af4:	89 75 f8             	mov    %esi,-0x8(%rbp)
ffffffff80101af7:	88 45 fc             	mov    %al,-0x4(%rbp)
ffffffff80101afa:	0f b6 45 fc          	movzbl -0x4(%rbp),%eax
ffffffff80101afe:	c1 e0 18             	shl    $0x18,%eax
ffffffff80101b01:	89 c6                	mov    %eax,%esi
ffffffff80101b03:	bf 10 03 00 00       	mov    $0x310,%edi
ffffffff80101b08:	e8 a5 ff ff ff       	callq  ffffffff80101ab2 <lapic_write>
ffffffff80101b0d:	8b 45 f8             	mov    -0x8(%rbp),%eax
ffffffff80101b10:	89 c6                	mov    %eax,%esi
ffffffff80101b12:	bf 00 03 00 00       	mov    $0x300,%edi
ffffffff80101b17:	e8 96 ff ff ff       	callq  ffffffff80101ab2 <lapic_write>
ffffffff80101b1c:	90                   	nop
ffffffff80101b1d:	c9                   	leaveq 
ffffffff80101b1e:	c3                   	retq   

ffffffff80101b1f <ioapic_read>:
ffffffff80101b1f:	55                   	push   %rbp
ffffffff80101b20:	48 89 e5             	mov    %rsp,%rbp
ffffffff80101b23:	48 83 ec 10          	sub    $0x10,%rsp
ffffffff80101b27:	48 89 7d f8          	mov    %rdi,-0x8(%rbp)
ffffffff80101b2b:	89 75 f4             	mov    %esi,-0xc(%rbp)
ffffffff80101b2e:	48 ba 10 00 00 00 00 	movabs $0xffff800000000010,%rdx
ffffffff80101b35:	80 ff ff 
ffffffff80101b38:	48 8b 45 f8          	mov    -0x8(%rbp),%rax
ffffffff80101b3c:	48 01 d0             	add    %rdx,%rax
ffffffff80101b3f:	48 89 c2             	mov    %rax,%rdx
ffffffff80101b42:	8b 45 f4             	mov    -0xc(%rbp),%eax
ffffffff80101b45:	89 02                	mov    %eax,(%rdx)
ffffffff80101b47:	48 ba 12 00 00 00 00 	movabs $0xffff800000000012,%rdx
ffffffff80101b4e:	80 ff ff 
ffffffff80101b51:	48 8b 45 f8          	mov    -0x8(%rbp),%rax
ffffffff80101b55:	48 01 d0             	add    %rdx,%rax
ffffffff80101b58:	8b 00                	mov    (%rax),%eax
ffffffff80101b5a:	c9                   	leaveq 
ffffffff80101b5b:	c3                   	retq   

ffffffff80101b5c <ioapic_write>:
ffffffff80101b5c:	55                   	push   %rbp
ffffffff80101b5d:	48 89 e5             	mov    %rsp,%rbp
ffffffff80101b60:	48 83 ec 10          	sub    $0x10,%rsp
ffffffff80101b64:	48 89 7d f8          	mov    %rdi,-0x8(%rbp)
ffffffff80101b68:	89 75 f4             	mov    %esi,-0xc(%rbp)
ffffffff80101b6b:	89 55 f0             	mov    %edx,-0x10(%rbp)
ffffffff80101b6e:	48 ba 00 00 00 00 00 	movabs $0xffff800000000000,%rdx
ffffffff80101b75:	80 ff ff 
ffffffff80101b78:	48 8b 45 f8          	mov    -0x8(%rbp),%rax
ffffffff80101b7c:	48 01 d0             	add    %rdx,%rax
ffffffff80101b7f:	48 89 c2             	mov    %rax,%rdx
ffffffff80101b82:	8b 45 f4             	mov    -0xc(%rbp),%eax
ffffffff80101b85:	89 02                	mov    %eax,(%rdx)
ffffffff80101b87:	48 ba 10 00 00 00 00 	movabs $0xffff800000000010,%rdx
ffffffff80101b8e:	80 ff ff 
ffffffff80101b91:	48 8b 45 f8          	mov    -0x8(%rbp),%rax
ffffffff80101b95:	48 01 d0             	add    %rdx,%rax
ffffffff80101b98:	48 89 c2             	mov    %rax,%rdx
ffffffff80101b9b:	8b 45 f0             	mov    -0x10(%rbp),%eax
ffffffff80101b9e:	89 02                	mov    %eax,(%rdx)
ffffffff80101ba0:	90                   	nop
ffffffff80101ba1:	c9                   	leaveq 
ffffffff80101ba2:	c3                   	retq   

ffffffff80101ba3 <write_redirection>:
ffffffff80101ba3:	55                   	push   %rbp
ffffffff80101ba4:	48 89 e5             	mov    %rsp,%rbp
ffffffff80101ba7:	48 83 ec 28          	sub    $0x28,%rsp
ffffffff80101bab:	89 7d ec             	mov    %edi,-0x14(%rbp)
ffffffff80101bae:	48 89 75 e0          	mov    %rsi,-0x20(%rbp)
ffffffff80101bb2:	48 89 55 d8          	mov    %rdx,-0x28(%rbp)
ffffffff80101bb6:	48 8b 0d 93 79 01 00 	mov    0x17993(%rip),%rcx        # ffffffff80119550 <madt_info+0x10>
ffffffff80101bbd:	48 8b 55 d8          	mov    -0x28(%rbp),%rdx
ffffffff80101bc1:	48 89 d0             	mov    %rdx,%rax
ffffffff80101bc4:	48 c1 e0 02          	shl    $0x2,%rax
ffffffff80101bc8:	48 01 d0             	add    %rdx,%rax
ffffffff80101bcb:	48 01 c0             	add    %rax,%rax
ffffffff80101bce:	48 01 c8             	add    %rcx,%rax
ffffffff80101bd1:	8b 50 06             	mov    0x6(%rax),%edx
ffffffff80101bd4:	8b 45 ec             	mov    -0x14(%rbp),%eax
ffffffff80101bd7:	29 d0                	sub    %edx,%eax
ffffffff80101bd9:	83 c0 08             	add    $0x8,%eax
ffffffff80101bdc:	01 c0                	add    %eax,%eax
ffffffff80101bde:	89 45 fc             	mov    %eax,-0x4(%rbp)
ffffffff80101be1:	48 8b 45 e0          	mov    -0x20(%rbp),%rax
ffffffff80101be5:	89 c6                	mov    %eax,%esi
ffffffff80101be7:	48 8b 0d 62 79 01 00 	mov    0x17962(%rip),%rcx        # ffffffff80119550 <madt_info+0x10>
ffffffff80101bee:	48 8b 55 d8          	mov    -0x28(%rbp),%rdx
ffffffff80101bf2:	48 89 d0             	mov    %rdx,%rax
ffffffff80101bf5:	48 c1 e0 02          	shl    $0x2,%rax
ffffffff80101bf9:	48 01 d0             	add    %rdx,%rax
ffffffff80101bfc:	48 01 c0             	add    %rax,%rax
ffffffff80101bff:	48 01 c8             	add    %rcx,%rax
ffffffff80101c02:	8b 40 02             	mov    0x2(%rax),%eax
ffffffff80101c05:	89 c1                	mov    %eax,%ecx
ffffffff80101c07:	8b 45 fc             	mov    -0x4(%rbp),%eax
ffffffff80101c0a:	89 f2                	mov    %esi,%edx
ffffffff80101c0c:	89 c6                	mov    %eax,%esi
ffffffff80101c0e:	48 89 cf             	mov    %rcx,%rdi
ffffffff80101c11:	e8 46 ff ff ff       	callq  ffffffff80101b5c <ioapic_write>
ffffffff80101c16:	48 8b 45 e0          	mov    -0x20(%rbp),%rax
ffffffff80101c1a:	48 c1 e8 20          	shr    $0x20,%rax
ffffffff80101c1e:	89 c6                	mov    %eax,%esi
ffffffff80101c20:	8b 45 fc             	mov    -0x4(%rbp),%eax
ffffffff80101c23:	8d 48 01             	lea    0x1(%rax),%ecx
ffffffff80101c26:	48 8b 3d 23 79 01 00 	mov    0x17923(%rip),%rdi        # ffffffff80119550 <madt_info+0x10>
ffffffff80101c2d:	48 8b 55 d8          	mov    -0x28(%rbp),%rdx
ffffffff80101c31:	48 89 d0             	mov    %rdx,%rax
ffffffff80101c34:	48 c1 e0 02          	shl    $0x2,%rax
ffffffff80101c38:	48 01 d0             	add    %rdx,%rax
ffffffff80101c3b:	48 01 c0             	add    %rax,%rax
ffffffff80101c3e:	48 01 f8             	add    %rdi,%rax
ffffffff80101c41:	8b 40 02             	mov    0x2(%rax),%eax
ffffffff80101c44:	89 c0                	mov    %eax,%eax
ffffffff80101c46:	89 f2                	mov    %esi,%edx
ffffffff80101c48:	89 ce                	mov    %ecx,%esi
ffffffff80101c4a:	48 89 c7             	mov    %rax,%rdi
ffffffff80101c4d:	e8 0a ff ff ff       	callq  ffffffff80101b5c <ioapic_write>
ffffffff80101c52:	90                   	nop
ffffffff80101c53:	c9                   	leaveq 
ffffffff80101c54:	c3                   	retq   

ffffffff80101c55 <read_redirection>:
ffffffff80101c55:	55                   	push   %rbp
ffffffff80101c56:	48 89 e5             	mov    %rsp,%rbp
ffffffff80101c59:	48 83 ec 20          	sub    $0x20,%rsp
ffffffff80101c5d:	89 7d ec             	mov    %edi,-0x14(%rbp)
ffffffff80101c60:	48 89 75 e0          	mov    %rsi,-0x20(%rbp)
ffffffff80101c64:	48 8b 0d e5 78 01 00 	mov    0x178e5(%rip),%rcx        # ffffffff80119550 <madt_info+0x10>
ffffffff80101c6b:	48 8b 55 e0          	mov    -0x20(%rbp),%rdx
ffffffff80101c6f:	48 89 d0             	mov    %rdx,%rax
ffffffff80101c72:	48 c1 e0 02          	shl    $0x2,%rax
ffffffff80101c76:	48 01 d0             	add    %rdx,%rax
ffffffff80101c79:	48 01 c0             	add    %rax,%rax
ffffffff80101c7c:	48 01 c8             	add    %rcx,%rax
ffffffff80101c7f:	8b 50 06             	mov    0x6(%rax),%edx
ffffffff80101c82:	8b 45 ec             	mov    -0x14(%rbp),%eax
ffffffff80101c85:	29 d0                	sub    %edx,%eax
ffffffff80101c87:	83 c0 08             	add    $0x8,%eax
ffffffff80101c8a:	01 c0                	add    %eax,%eax
ffffffff80101c8c:	89 45 fc             	mov    %eax,-0x4(%rbp)
ffffffff80101c8f:	48 8b 0d ba 78 01 00 	mov    0x178ba(%rip),%rcx        # ffffffff80119550 <madt_info+0x10>
ffffffff80101c96:	48 8b 55 e0          	mov    -0x20(%rbp),%rdx
ffffffff80101c9a:	48 89 d0             	mov    %rdx,%rax
ffffffff80101c9d:	48 c1 e0 02          	shl    $0x2,%rax
ffffffff80101ca1:	48 01 d0             	add    %rdx,%rax
ffffffff80101ca4:	48 01 c0             	add    %rax,%rax
ffffffff80101ca7:	48 01 c8             	add    %rcx,%rax
ffffffff80101caa:	8b 40 02             	mov    0x2(%rax),%eax
ffffffff80101cad:	89 c2                	mov    %eax,%edx
ffffffff80101caf:	8b 45 fc             	mov    -0x4(%rbp),%eax
ffffffff80101cb2:	89 c6                	mov    %eax,%esi
ffffffff80101cb4:	48 89 d7             	mov    %rdx,%rdi
ffffffff80101cb7:	e8 63 fe ff ff       	callq  ffffffff80101b1f <ioapic_read>
ffffffff80101cbc:	89 c0                	mov    %eax,%eax
ffffffff80101cbe:	48 89 45 f0          	mov    %rax,-0x10(%rbp)
ffffffff80101cc2:	8b 45 fc             	mov    -0x4(%rbp),%eax
ffffffff80101cc5:	8d 50 01             	lea    0x1(%rax),%edx
ffffffff80101cc8:	48 8b 35 81 78 01 00 	mov    0x17881(%rip),%rsi        # ffffffff80119550 <madt_info+0x10>
ffffffff80101ccf:	48 8b 4d e0          	mov    -0x20(%rbp),%rcx
ffffffff80101cd3:	48 89 c8             	mov    %rcx,%rax
ffffffff80101cd6:	48 c1 e0 02          	shl    $0x2,%rax
ffffffff80101cda:	48 01 c8             	add    %rcx,%rax
ffffffff80101cdd:	48 01 c0             	add    %rax,%rax
ffffffff80101ce0:	48 01 f0             	add    %rsi,%rax
ffffffff80101ce3:	8b 40 02             	mov    0x2(%rax),%eax
ffffffff80101ce6:	89 c0                	mov    %eax,%eax
ffffffff80101ce8:	89 d6                	mov    %edx,%esi
ffffffff80101cea:	48 89 c7             	mov    %rax,%rdi
ffffffff80101ced:	e8 2d fe ff ff       	callq  ffffffff80101b1f <ioapic_read>
ffffffff80101cf2:	89 c0                	mov    %eax,%eax
ffffffff80101cf4:	48 c1 e0 20          	shl    $0x20,%rax
ffffffff80101cf8:	48 0b 45 f0          	or     -0x10(%rbp),%rax
ffffffff80101cfc:	c9                   	leaveq 
ffffffff80101cfd:	c3                   	retq   

ffffffff80101cfe <mask_GSI>:
ffffffff80101cfe:	55                   	push   %rbp
ffffffff80101cff:	48 89 e5             	mov    %rsp,%rbp
ffffffff80101d02:	48 83 ec 08          	sub    $0x8,%rsp
ffffffff80101d06:	89 7d fc             	mov    %edi,-0x4(%rbp)
ffffffff80101d09:	8b 45 fc             	mov    -0x4(%rbp),%eax
ffffffff80101d0c:	be 00 00 00 00       	mov    $0x0,%esi
ffffffff80101d11:	89 c7                	mov    %eax,%edi
ffffffff80101d13:	e8 3d ff ff ff       	callq  ffffffff80101c55 <read_redirection>
ffffffff80101d18:	48 0d 00 00 01 00    	or     $0x10000,%rax
ffffffff80101d1e:	48 89 c1             	mov    %rax,%rcx
ffffffff80101d21:	8b 45 fc             	mov    -0x4(%rbp),%eax
ffffffff80101d24:	ba 00 00 00 00       	mov    $0x0,%edx
ffffffff80101d29:	48 89 ce             	mov    %rcx,%rsi
ffffffff80101d2c:	89 c7                	mov    %eax,%edi
ffffffff80101d2e:	e8 70 fe ff ff       	callq  ffffffff80101ba3 <write_redirection>
ffffffff80101d33:	90                   	nop
ffffffff80101d34:	c9                   	leaveq 
ffffffff80101d35:	c3                   	retq   

ffffffff80101d36 <unmask_GSI>:
ffffffff80101d36:	55                   	push   %rbp
ffffffff80101d37:	48 89 e5             	mov    %rsp,%rbp
ffffffff80101d3a:	48 83 ec 08          	sub    $0x8,%rsp
ffffffff80101d3e:	89 7d fc             	mov    %edi,-0x4(%rbp)
ffffffff80101d41:	8b 45 fc             	mov    -0x4(%rbp),%eax
ffffffff80101d44:	be 00 00 00 00       	mov    $0x0,%esi
ffffffff80101d49:	89 c7                	mov    %eax,%edi
ffffffff80101d4b:	e8 05 ff ff ff       	callq  ffffffff80101c55 <read_redirection>
ffffffff80101d50:	25 00 00 01 00       	and    $0x10000,%eax
ffffffff80101d55:	48 89 c1             	mov    %rax,%rcx
ffffffff80101d58:	8b 45 fc             	mov    -0x4(%rbp),%eax
ffffffff80101d5b:	ba 00 00 00 00       	mov    $0x0,%edx
ffffffff80101d60:	48 89 ce             	mov    %rcx,%rsi
ffffffff80101d63:	89 c7                	mov    %eax,%edi
ffffffff80101d65:	e8 39 fe ff ff       	callq  ffffffff80101ba3 <write_redirection>
ffffffff80101d6a:	8b 45 fc             	mov    -0x4(%rbp),%eax
ffffffff80101d6d:	83 c0 20             	add    $0x20,%eax
ffffffff80101d70:	89 c1                	mov    %eax,%ecx
ffffffff80101d72:	8b 45 fc             	mov    -0x4(%rbp),%eax
ffffffff80101d75:	ba 00 00 00 00       	mov    $0x0,%edx
ffffffff80101d7a:	48 89 ce             	mov    %rcx,%rsi
ffffffff80101d7d:	89 c7                	mov    %eax,%edi
ffffffff80101d7f:	e8 1f fe ff ff       	callq  ffffffff80101ba3 <write_redirection>
ffffffff80101d84:	90                   	nop
ffffffff80101d85:	c9                   	leaveq 
ffffffff80101d86:	c3                   	retq   

ffffffff80101d87 <get_max_GSI>:
ffffffff80101d87:	55                   	push   %rbp
ffffffff80101d88:	48 89 e5             	mov    %rsp,%rbp
ffffffff80101d8b:	48 83 ec 18          	sub    $0x18,%rsp
ffffffff80101d8f:	48 89 7d e8          	mov    %rdi,-0x18(%rbp)
ffffffff80101d93:	48 8b 45 e8          	mov    -0x18(%rbp),%rax
ffffffff80101d97:	be 01 00 00 00       	mov    $0x1,%esi
ffffffff80101d9c:	48 89 c7             	mov    %rax,%rdi
ffffffff80101d9f:	e8 7b fd ff ff       	callq  ffffffff80101b1f <ioapic_read>
ffffffff80101da4:	c1 e8 10             	shr    $0x10,%eax
ffffffff80101da7:	89 45 fc             	mov    %eax,-0x4(%rbp)
ffffffff80101daa:	8b 45 fc             	mov    -0x4(%rbp),%eax
ffffffff80101dad:	24 7f                	and    $0x7f,%al
ffffffff80101daf:	c9                   	leaveq 
ffffffff80101db0:	c3                   	retq   

ffffffff80101db1 <lapic_timer_init>:
ffffffff80101db1:	55                   	push   %rbp
ffffffff80101db2:	48 89 e5             	mov    %rsp,%rbp
ffffffff80101db5:	48 83 ec 20          	sub    $0x20,%rsp
ffffffff80101db9:	48 89 7d e8          	mov    %rdi,-0x18(%rbp)
ffffffff80101dbd:	be 03 00 00 00       	mov    $0x3,%esi
ffffffff80101dc2:	bf e0 03 00 00       	mov    $0x3e0,%edi
ffffffff80101dc7:	e8 e6 fc ff ff       	callq  ffffffff80101ab2 <lapic_write>
ffffffff80101dcc:	be ff ff ff ff       	mov    $0xffffffff,%esi
ffffffff80101dd1:	bf 80 03 00 00       	mov    $0x380,%edi
ffffffff80101dd6:	e8 d7 fc ff ff       	callq  ffffffff80101ab2 <lapic_write>
ffffffff80101ddb:	48 8b 45 e8          	mov    -0x18(%rbp),%rax
ffffffff80101ddf:	48 89 c7             	mov    %rax,%rdi
ffffffff80101de2:	e8 44 2f 00 00       	callq  ffffffff80104d2b <ksleep>
ffffffff80101de7:	bf 90 03 00 00       	mov    $0x390,%edi
ffffffff80101dec:	e8 93 fc ff ff       	callq  ffffffff80101a84 <lapic_read>
ffffffff80101df1:	f7 d0                	not    %eax
ffffffff80101df3:	89 45 fc             	mov    %eax,-0x4(%rbp)
ffffffff80101df6:	be 20 00 02 00       	mov    $0x20020,%esi
ffffffff80101dfb:	bf 20 03 00 00       	mov    $0x320,%edi
ffffffff80101e00:	e8 ad fc ff ff       	callq  ffffffff80101ab2 <lapic_write>
ffffffff80101e05:	be 03 00 00 00       	mov    $0x3,%esi
ffffffff80101e0a:	bf e0 03 00 00       	mov    $0x3e0,%edi
ffffffff80101e0f:	e8 9e fc ff ff       	callq  ffffffff80101ab2 <lapic_write>
ffffffff80101e14:	8b 45 fc             	mov    -0x4(%rbp),%eax
ffffffff80101e17:	89 c6                	mov    %eax,%esi
ffffffff80101e19:	bf 80 03 00 00       	mov    $0x380,%edi
ffffffff80101e1e:	e8 8f fc ff ff       	callq  ffffffff80101ab2 <lapic_write>
ffffffff80101e23:	90                   	nop
ffffffff80101e24:	c9                   	leaveq 
ffffffff80101e25:	c3                   	retq   

ffffffff80101e26 <apic_init>:
ffffffff80101e26:	55                   	push   %rbp
ffffffff80101e27:	48 89 e5             	mov    %rsp,%rbp
ffffffff80101e2a:	48 83 ec 10          	sub    $0x10,%rsp
ffffffff80101e2e:	be 11 00 00 00       	mov    $0x11,%esi
ffffffff80101e33:	bf 20 00 00 00       	mov    $0x20,%edi
ffffffff80101e38:	e8 84 01 00 00       	callq  ffffffff80101fc1 <outb>
ffffffff80101e3d:	be 11 00 00 00       	mov    $0x11,%esi
ffffffff80101e42:	bf a0 00 00 00       	mov    $0xa0,%edi
ffffffff80101e47:	e8 75 01 00 00       	callq  ffffffff80101fc1 <outb>
ffffffff80101e4c:	be 20 00 00 00       	mov    $0x20,%esi
ffffffff80101e51:	bf 21 00 00 00       	mov    $0x21,%edi
ffffffff80101e56:	e8 66 01 00 00       	callq  ffffffff80101fc1 <outb>
ffffffff80101e5b:	be 28 00 00 00       	mov    $0x28,%esi
ffffffff80101e60:	bf a1 00 00 00       	mov    $0xa1,%edi
ffffffff80101e65:	e8 57 01 00 00       	callq  ffffffff80101fc1 <outb>
ffffffff80101e6a:	be 04 00 00 00       	mov    $0x4,%esi
ffffffff80101e6f:	bf 21 00 00 00       	mov    $0x21,%edi
ffffffff80101e74:	e8 48 01 00 00       	callq  ffffffff80101fc1 <outb>
ffffffff80101e79:	be 02 00 00 00       	mov    $0x2,%esi
ffffffff80101e7e:	bf a1 00 00 00       	mov    $0xa1,%edi
ffffffff80101e83:	e8 39 01 00 00       	callq  ffffffff80101fc1 <outb>
ffffffff80101e88:	be 01 00 00 00       	mov    $0x1,%esi
ffffffff80101e8d:	bf 21 00 00 00       	mov    $0x21,%edi
ffffffff80101e92:	e8 2a 01 00 00       	callq  ffffffff80101fc1 <outb>
ffffffff80101e97:	be 01 00 00 00       	mov    $0x1,%esi
ffffffff80101e9c:	bf a1 00 00 00       	mov    $0xa1,%edi
ffffffff80101ea1:	e8 1b 01 00 00       	callq  ffffffff80101fc1 <outb>
ffffffff80101ea6:	be 00 00 00 00       	mov    $0x0,%esi
ffffffff80101eab:	bf 21 00 00 00       	mov    $0x21,%edi
ffffffff80101eb0:	e8 0c 01 00 00       	callq  ffffffff80101fc1 <outb>
ffffffff80101eb5:	be 00 00 00 00       	mov    $0x0,%esi
ffffffff80101eba:	bf a1 00 00 00       	mov    $0xa1,%edi
ffffffff80101ebf:	e8 fd 00 00 00       	callq  ffffffff80101fc1 <outb>
ffffffff80101ec4:	be ff 00 00 00       	mov    $0xff,%esi
ffffffff80101ec9:	bf a1 00 00 00       	mov    $0xa1,%edi
ffffffff80101ece:	e8 ee 00 00 00       	callq  ffffffff80101fc1 <outb>
ffffffff80101ed3:	be ff 00 00 00       	mov    $0xff,%esi
ffffffff80101ed8:	bf 21 00 00 00       	mov    $0x21,%edi
ffffffff80101edd:	e8 df 00 00 00       	callq  ffffffff80101fc1 <outb>
ffffffff80101ee2:	c6 45 ff 00          	movb   $0x0,-0x1(%rbp)
ffffffff80101ee6:	eb 68                	jmp    ffffffff80101f50 <apic_init+0x12a>
ffffffff80101ee8:	48 8b 0d 61 76 01 00 	mov    0x17661(%rip),%rcx        # ffffffff80119550 <madt_info+0x10>
ffffffff80101eef:	0f b6 55 ff          	movzbl -0x1(%rbp),%edx
ffffffff80101ef3:	48 89 d0             	mov    %rdx,%rax
ffffffff80101ef6:	48 c1 e0 02          	shl    $0x2,%rax
ffffffff80101efa:	48 01 d0             	add    %rdx,%rax
ffffffff80101efd:	48 01 c0             	add    %rax,%rax
ffffffff80101f00:	48 01 c8             	add    %rcx,%rax
ffffffff80101f03:	8b 40 06             	mov    0x6(%rax),%eax
ffffffff80101f06:	89 45 f8             	mov    %eax,-0x8(%rbp)
ffffffff80101f09:	eb 0e                	jmp    ffffffff80101f19 <apic_init+0xf3>
ffffffff80101f0b:	8b 45 f8             	mov    -0x8(%rbp),%eax
ffffffff80101f0e:	89 c7                	mov    %eax,%edi
ffffffff80101f10:	e8 e9 fd ff ff       	callq  ffffffff80101cfe <mask_GSI>
ffffffff80101f15:	83 45 f8 01          	addl   $0x1,-0x8(%rbp)
ffffffff80101f19:	48 8b 0d 30 76 01 00 	mov    0x17630(%rip),%rcx        # ffffffff80119550 <madt_info+0x10>
ffffffff80101f20:	0f b6 55 ff          	movzbl -0x1(%rbp),%edx
ffffffff80101f24:	48 89 d0             	mov    %rdx,%rax
ffffffff80101f27:	48 c1 e0 02          	shl    $0x2,%rax
ffffffff80101f2b:	48 01 d0             	add    %rdx,%rax
ffffffff80101f2e:	48 01 c0             	add    %rax,%rax
ffffffff80101f31:	48 01 c8             	add    %rcx,%rax
ffffffff80101f34:	8b 40 02             	mov    0x2(%rax),%eax
ffffffff80101f37:	89 c0                	mov    %eax,%eax
ffffffff80101f39:	48 89 c7             	mov    %rax,%rdi
ffffffff80101f3c:	e8 46 fe ff ff       	callq  ffffffff80101d87 <get_max_GSI>
ffffffff80101f41:	39 45 f8             	cmp    %eax,-0x8(%rbp)
ffffffff80101f44:	72 c5                	jb     ffffffff80101f0b <apic_init+0xe5>
ffffffff80101f46:	0f b6 45 ff          	movzbl -0x1(%rbp),%eax
ffffffff80101f4a:	83 c0 01             	add    $0x1,%eax
ffffffff80101f4d:	88 45 ff             	mov    %al,-0x1(%rbp)
ffffffff80101f50:	0f b6 05 ea 75 01 00 	movzbl 0x175ea(%rip),%eax        # ffffffff80119541 <madt_info+0x1>
ffffffff80101f57:	38 45 ff             	cmp    %al,-0x1(%rbp)
ffffffff80101f5a:	72 8c                	jb     ffffffff80101ee8 <apic_init+0xc2>
ffffffff80101f5c:	c6 45 f7 00          	movb   $0x0,-0x9(%rbp)
ffffffff80101f60:	eb 27                	jmp    ffffffff80101f89 <apic_init+0x163>
ffffffff80101f62:	0f b6 45 f7          	movzbl -0x9(%rbp),%eax
ffffffff80101f66:	83 c0 20             	add    $0x20,%eax
ffffffff80101f69:	48 63 c8             	movslq %eax,%rcx
ffffffff80101f6c:	0f b6 45 f7          	movzbl -0x9(%rbp),%eax
ffffffff80101f70:	ba 00 00 00 00       	mov    $0x0,%edx
ffffffff80101f75:	48 89 ce             	mov    %rcx,%rsi
ffffffff80101f78:	89 c7                	mov    %eax,%edi
ffffffff80101f7a:	e8 24 fc ff ff       	callq  ffffffff80101ba3 <write_redirection>
ffffffff80101f7f:	0f b6 45 f7          	movzbl -0x9(%rbp),%eax
ffffffff80101f83:	83 c0 01             	add    $0x1,%eax
ffffffff80101f86:	88 45 f7             	mov    %al,-0x9(%rbp)
ffffffff80101f89:	80 7d f7 0f          	cmpb   $0xf,-0x9(%rbp)
ffffffff80101f8d:	76 d3                	jbe    ffffffff80101f62 <apic_init+0x13c>
ffffffff80101f8f:	bf 02 00 00 00       	mov    $0x2,%edi
ffffffff80101f94:	e8 65 fd ff ff       	callq  ffffffff80101cfe <mask_GSI>
ffffffff80101f99:	bf f0 00 00 00       	mov    $0xf0,%edi
ffffffff80101f9e:	e8 e1 fa ff ff       	callq  ffffffff80101a84 <lapic_read>
ffffffff80101fa3:	0d ff 01 00 00       	or     $0x1ff,%eax
ffffffff80101fa8:	89 c6                	mov    %eax,%esi
ffffffff80101faa:	bf f0 00 00 00       	mov    $0xf0,%edi
ffffffff80101faf:	e8 fe fa ff ff       	callq  ffffffff80101ab2 <lapic_write>
ffffffff80101fb4:	b8 00 00 00 00       	mov    $0x0,%eax
ffffffff80101fb9:	fb                   	sti    
ffffffff80101fba:	44 0f 22 c0          	mov    %rax,%cr8
ffffffff80101fbe:	90                   	nop
ffffffff80101fbf:	c9                   	leaveq 
ffffffff80101fc0:	c3                   	retq   

ffffffff80101fc1 <outb>:
ffffffff80101fc1:	55                   	push   %rbp
ffffffff80101fc2:	48 89 e5             	mov    %rsp,%rbp
ffffffff80101fc5:	48 83 ec 08          	sub    $0x8,%rsp
ffffffff80101fc9:	89 f8                	mov    %edi,%eax
ffffffff80101fcb:	89 f2                	mov    %esi,%edx
ffffffff80101fcd:	66 89 45 fc          	mov    %ax,-0x4(%rbp)
ffffffff80101fd1:	89 d0                	mov    %edx,%eax
ffffffff80101fd3:	88 45 f8             	mov    %al,-0x8(%rbp)
ffffffff80101fd6:	0f b6 45 f8          	movzbl -0x8(%rbp),%eax
ffffffff80101fda:	0f b7 55 fc          	movzwl -0x4(%rbp),%edx
ffffffff80101fde:	ee                   	out    %al,(%dx)
ffffffff80101fdf:	90                   	nop
ffffffff80101fe0:	c9                   	leaveq 
ffffffff80101fe1:	c3                   	retq   

ffffffff80101fe2 <outw>:
ffffffff80101fe2:	55                   	push   %rbp
ffffffff80101fe3:	48 89 e5             	mov    %rsp,%rbp
ffffffff80101fe6:	48 83 ec 08          	sub    $0x8,%rsp
ffffffff80101fea:	89 fa                	mov    %edi,%edx
ffffffff80101fec:	89 f0                	mov    %esi,%eax
ffffffff80101fee:	66 89 55 fc          	mov    %dx,-0x4(%rbp)
ffffffff80101ff2:	66 89 45 f8          	mov    %ax,-0x8(%rbp)
ffffffff80101ff6:	0f b7 45 f8          	movzwl -0x8(%rbp),%eax
ffffffff80101ffa:	0f b7 55 fc          	movzwl -0x4(%rbp),%edx
ffffffff80101ffe:	66 ef                	out    %ax,(%dx)
ffffffff80102000:	90                   	nop
ffffffff80102001:	c9                   	leaveq 
ffffffff80102002:	c3                   	retq   

ffffffff80102003 <outd>:
ffffffff80102003:	55                   	push   %rbp
ffffffff80102004:	48 89 e5             	mov    %rsp,%rbp
ffffffff80102007:	48 83 ec 08          	sub    $0x8,%rsp
ffffffff8010200b:	89 f8                	mov    %edi,%eax
ffffffff8010200d:	89 75 f8             	mov    %esi,-0x8(%rbp)
ffffffff80102010:	66 89 45 fc          	mov    %ax,-0x4(%rbp)
ffffffff80102014:	8b 45 f8             	mov    -0x8(%rbp),%eax
ffffffff80102017:	0f b7 55 fc          	movzwl -0x4(%rbp),%edx
ffffffff8010201b:	ef                   	out    %eax,(%dx)
ffffffff8010201c:	90                   	nop
ffffffff8010201d:	c9                   	leaveq 
ffffffff8010201e:	c3                   	retq   

ffffffff8010201f <inb>:
ffffffff8010201f:	55                   	push   %rbp
ffffffff80102020:	48 89 e5             	mov    %rsp,%rbp
ffffffff80102023:	48 83 ec 18          	sub    $0x18,%rsp
ffffffff80102027:	89 f8                	mov    %edi,%eax
ffffffff80102029:	66 89 45 ec          	mov    %ax,-0x14(%rbp)
ffffffff8010202d:	0f b7 45 ec          	movzwl -0x14(%rbp),%eax
ffffffff80102031:	89 c2                	mov    %eax,%edx
ffffffff80102033:	ec                   	in     (%dx),%al
ffffffff80102034:	88 45 ff             	mov    %al,-0x1(%rbp)
ffffffff80102037:	0f b6 45 ff          	movzbl -0x1(%rbp),%eax
ffffffff8010203b:	c9                   	leaveq 
ffffffff8010203c:	c3                   	retq   

ffffffff8010203d <inw>:
ffffffff8010203d:	55                   	push   %rbp
ffffffff8010203e:	48 89 e5             	mov    %rsp,%rbp
ffffffff80102041:	48 83 ec 18          	sub    $0x18,%rsp
ffffffff80102045:	89 f8                	mov    %edi,%eax
ffffffff80102047:	66 89 45 ec          	mov    %ax,-0x14(%rbp)
ffffffff8010204b:	0f b7 45 ec          	movzwl -0x14(%rbp),%eax
ffffffff8010204f:	89 c2                	mov    %eax,%edx
ffffffff80102051:	66 ed                	in     (%dx),%ax
ffffffff80102053:	66 89 45 fe          	mov    %ax,-0x2(%rbp)
ffffffff80102057:	0f b7 45 fe          	movzwl -0x2(%rbp),%eax
ffffffff8010205b:	c9                   	leaveq 
ffffffff8010205c:	c3                   	retq   

ffffffff8010205d <ind>:
ffffffff8010205d:	55                   	push   %rbp
ffffffff8010205e:	48 89 e5             	mov    %rsp,%rbp
ffffffff80102061:	48 83 ec 18          	sub    $0x18,%rsp
ffffffff80102065:	89 f8                	mov    %edi,%eax
ffffffff80102067:	66 89 45 ec          	mov    %ax,-0x14(%rbp)
ffffffff8010206b:	0f b7 45 ec          	movzwl -0x14(%rbp),%eax
ffffffff8010206f:	89 c2                	mov    %eax,%edx
ffffffff80102071:	ed                   	in     (%dx),%eax
ffffffff80102072:	89 45 fc             	mov    %eax,-0x4(%rbp)
ffffffff80102075:	8b 45 fc             	mov    -0x4(%rbp),%eax
ffffffff80102078:	c9                   	leaveq 
ffffffff80102079:	c3                   	retq   

ffffffff8010207a <rdmsr>:
ffffffff8010207a:	55                   	push   %rbp
ffffffff8010207b:	48 89 e5             	mov    %rsp,%rbp
ffffffff8010207e:	48 83 ec 18          	sub    $0x18,%rsp
ffffffff80102082:	48 89 7d e8          	mov    %rdi,-0x18(%rbp)
ffffffff80102086:	48 8b 45 e8          	mov    -0x18(%rbp),%rax
ffffffff8010208a:	48 89 c1             	mov    %rax,%rcx
ffffffff8010208d:	0f 32                	rdmsr  
ffffffff8010208f:	48 89 45 f8          	mov    %rax,-0x8(%rbp)
ffffffff80102093:	48 89 55 f0          	mov    %rdx,-0x10(%rbp)
ffffffff80102097:	48 8b 45 f0          	mov    -0x10(%rbp),%rax
ffffffff8010209b:	48 c1 e0 20          	shl    $0x20,%rax
ffffffff8010209f:	48 0b 45 f8          	or     -0x8(%rbp),%rax
ffffffff801020a3:	c9                   	leaveq 
ffffffff801020a4:	c3                   	retq   

ffffffff801020a5 <wrmsr>:
ffffffff801020a5:	55                   	push   %rbp
ffffffff801020a6:	48 89 e5             	mov    %rsp,%rbp
ffffffff801020a9:	48 83 ec 20          	sub    $0x20,%rsp
ffffffff801020ad:	48 89 7d e8          	mov    %rdi,-0x18(%rbp)
ffffffff801020b1:	48 89 75 e0          	mov    %rsi,-0x20(%rbp)
ffffffff801020b5:	48 8b 45 e0          	mov    -0x20(%rbp),%rax
ffffffff801020b9:	89 c0                	mov    %eax,%eax
ffffffff801020bb:	48 89 45 f8          	mov    %rax,-0x8(%rbp)
ffffffff801020bf:	48 8b 45 e0          	mov    -0x20(%rbp),%rax
ffffffff801020c3:	48 c1 e8 20          	shr    $0x20,%rax
ffffffff801020c7:	48 89 45 f0          	mov    %rax,-0x10(%rbp)
ffffffff801020cb:	48 8b 45 f8          	mov    -0x8(%rbp),%rax
ffffffff801020cf:	48 8b 55 f0          	mov    -0x10(%rbp),%rdx
ffffffff801020d3:	48 8b 4d e8          	mov    -0x18(%rbp),%rcx
ffffffff801020d7:	0f 30                	wrmsr  
ffffffff801020d9:	90                   	nop
ffffffff801020da:	c9                   	leaveq 
ffffffff801020db:	c3                   	retq   

ffffffff801020dc <bitmap_init>:
ffffffff801020dc:	55                   	push   %rbp
ffffffff801020dd:	48 89 e5             	mov    %rsp,%rbp
ffffffff801020e0:	bf 00 10 00 00       	mov    $0x1000,%edi
ffffffff801020e5:	e8 50 7a 00 00       	callq  ffffffff80109b3a <pmm_alloc>
ffffffff801020ea:	48 89 05 2f df 00 00 	mov    %rax,0xdf2f(%rip)        # ffffffff80110020 <start>
ffffffff801020f1:	bf 00 00 01 00       	mov    $0x10000,%edi
ffffffff801020f6:	e8 3f 7a 00 00       	callq  ffffffff80109b3a <pmm_alloc>
ffffffff801020fb:	48 ba 00 00 00 00 00 	movabs $0xffff800000000000,%rdx
ffffffff80102102:	80 ff ff 
ffffffff80102105:	48 01 d0             	add    %rdx,%rax
ffffffff80102108:	48 89 05 01 df 00 00 	mov    %rax,0xdf01(%rip)        # ffffffff80110010 <bitmap>
ffffffff8010210f:	48 c7 05 0e df 00 00 	movq   $0x10000,0xdf0e(%rip)        # ffffffff80110028 <bitmap_size>
ffffffff80102116:	00 00 01 00 
ffffffff8010211a:	bf 20 00 00 00       	mov    $0x20,%edi
ffffffff8010211f:	e8 16 7a 00 00       	callq  ffffffff80109b3a <pmm_alloc>
ffffffff80102124:	48 ba 00 00 00 00 00 	movabs $0xffff800000000000,%rdx
ffffffff8010212b:	80 ff ff 
ffffffff8010212e:	48 01 d0             	add    %rdx,%rax
ffffffff80102131:	48 89 05 e0 de 00 00 	mov    %rax,0xdee0(%rip)        # ffffffff80110018 <allocs>
ffffffff80102138:	48 c7 05 ed de 00 00 	movq   $0x20000,0xdeed(%rip)        # ffffffff80110030 <allocation_size>
ffffffff8010213f:	00 00 02 00 
ffffffff80102143:	48 8b 15 de de 00 00 	mov    0xdede(%rip),%rdx        # ffffffff80110028 <bitmap_size>
ffffffff8010214a:	48 8b 05 bf de 00 00 	mov    0xdebf(%rip),%rax        # ffffffff80110010 <bitmap>
ffffffff80102151:	be 00 00 00 00       	mov    $0x0,%esi
ffffffff80102156:	48 89 c7             	mov    %rax,%rdi
ffffffff80102159:	e8 2b 61 00 00       	callq  ffffffff80108289 <memset8>
ffffffff8010215e:	48 8b 15 cb de 00 00 	mov    0xdecb(%rip),%rdx        # ffffffff80110030 <allocation_size>
ffffffff80102165:	48 8b 05 ac de 00 00 	mov    0xdeac(%rip),%rax        # ffffffff80110018 <allocs>
ffffffff8010216c:	be 00 00 00 00       	mov    $0x0,%esi
ffffffff80102171:	48 89 c7             	mov    %rax,%rdi
ffffffff80102174:	e8 10 61 00 00       	callq  ffffffff80108289 <memset8>
ffffffff80102179:	90                   	nop
ffffffff8010217a:	5d                   	pop    %rbp
ffffffff8010217b:	c3                   	retq   

ffffffff8010217c <kmalloc>:
ffffffff8010217c:	55                   	push   %rbp
ffffffff8010217d:	48 89 e5             	mov    %rsp,%rbp
ffffffff80102180:	48 83 ec 40          	sub    $0x40,%rsp
ffffffff80102184:	48 89 7d c8          	mov    %rdi,-0x38(%rbp)
ffffffff80102188:	c7 45 fc 00 00 00 00 	movl   $0x0,-0x4(%rbp)
ffffffff8010218f:	48 8b 45 c8          	mov    -0x38(%rbp),%rax
ffffffff80102193:	48 83 c0 1f          	add    $0x1f,%rax
ffffffff80102197:	48 c1 e8 05          	shr    $0x5,%rax
ffffffff8010219b:	89 45 dc             	mov    %eax,-0x24(%rbp)
ffffffff8010219e:	b8 00 00 00 00       	mov    $0x0,%eax
ffffffff801021a3:	e8 23 03 00 00       	callq  ffffffff801024cb <first_free>
ffffffff801021a8:	48 c1 e0 05          	shl    $0x5,%rax
ffffffff801021ac:	48 89 45 f0          	mov    %rax,-0x10(%rbp)
ffffffff801021b0:	b8 00 00 00 00       	mov    $0x0,%eax
ffffffff801021b5:	e8 11 03 00 00       	callq  ffffffff801024cb <first_free>
ffffffff801021ba:	48 89 45 e8          	mov    %rax,-0x18(%rbp)
ffffffff801021be:	e9 35 01 00 00       	jmpq   ffffffff801022f8 <kmalloc+0x17c>
ffffffff801021c3:	48 8b 15 46 de 00 00 	mov    0xde46(%rip),%rdx        # ffffffff80110010 <bitmap>
ffffffff801021ca:	48 8b 45 e8          	mov    -0x18(%rbp),%rax
ffffffff801021ce:	48 c1 e8 03          	shr    $0x3,%rax
ffffffff801021d2:	48 01 d0             	add    %rdx,%rax
ffffffff801021d5:	0f b6 00             	movzbl (%rax),%eax
ffffffff801021d8:	0f b6 d0             	movzbl %al,%edx
ffffffff801021db:	48 8b 45 e8          	mov    -0x18(%rbp),%rax
ffffffff801021df:	83 e0 07             	and    $0x7,%eax
ffffffff801021e2:	89 c1                	mov    %eax,%ecx
ffffffff801021e4:	d3 fa                	sar    %cl,%edx
ffffffff801021e6:	89 d0                	mov    %edx,%eax
ffffffff801021e8:	83 e0 01             	and    $0x1,%eax
ffffffff801021eb:	85 c0                	test   %eax,%eax
ffffffff801021ed:	74 22                	je     ffffffff80102211 <kmalloc+0x95>
ffffffff801021ef:	8b 45 fc             	mov    -0x4(%rbp),%eax
ffffffff801021f2:	83 c0 01             	add    $0x1,%eax
ffffffff801021f5:	c1 e0 05             	shl    $0x5,%eax
ffffffff801021f8:	89 c2                	mov    %eax,%edx
ffffffff801021fa:	48 8b 45 f0          	mov    -0x10(%rbp),%rax
ffffffff801021fe:	48 01 d0             	add    %rdx,%rax
ffffffff80102201:	48 89 45 f0          	mov    %rax,-0x10(%rbp)
ffffffff80102205:	c7 45 fc 00 00 00 00 	movl   $0x0,-0x4(%rbp)
ffffffff8010220c:	e9 e2 00 00 00       	jmpq   ffffffff801022f3 <kmalloc+0x177>
ffffffff80102211:	83 45 fc 01          	addl   $0x1,-0x4(%rbp)
ffffffff80102215:	8b 45 fc             	mov    -0x4(%rbp),%eax
ffffffff80102218:	3b 45 dc             	cmp    -0x24(%rbp),%eax
ffffffff8010221b:	0f 85 d2 00 00 00    	jne    ffffffff801022f3 <kmalloc+0x177>
ffffffff80102221:	b8 00 00 00 00       	mov    $0x0,%eax
ffffffff80102226:	e8 ff 02 00 00       	callq  ffffffff8010252a <first_free_alloc>
ffffffff8010222b:	48 89 45 d0          	mov    %rax,-0x30(%rbp)
ffffffff8010222f:	48 8b 15 e2 dd 00 00 	mov    0xdde2(%rip),%rdx        # ffffffff80110018 <allocs>
ffffffff80102236:	48 8b 45 d0          	mov    -0x30(%rbp),%rax
ffffffff8010223a:	48 c1 e0 03          	shl    $0x3,%rax
ffffffff8010223e:	48 01 d0             	add    %rdx,%rax
ffffffff80102241:	48 8b 55 f0          	mov    -0x10(%rbp),%rdx
ffffffff80102245:	48 c1 ea 05          	shr    $0x5,%rdx
ffffffff80102249:	89 d1                	mov    %edx,%ecx
ffffffff8010224b:	8b 55 dc             	mov    -0x24(%rbp),%edx
ffffffff8010224e:	89 10                	mov    %edx,(%rax)
ffffffff80102250:	89 48 04             	mov    %ecx,0x4(%rax)
ffffffff80102253:	48 c7 45 e0 00 00 00 	movq   $0x0,-0x20(%rbp)
ffffffff8010225a:	00 
ffffffff8010225b:	eb 70                	jmp    ffffffff801022cd <kmalloc+0x151>
ffffffff8010225d:	48 8b 15 ac dd 00 00 	mov    0xddac(%rip),%rdx        # ffffffff80110010 <bitmap>
ffffffff80102264:	48 8b 45 f0          	mov    -0x10(%rbp),%rax
ffffffff80102268:	48 c1 e8 05          	shr    $0x5,%rax
ffffffff8010226c:	48 89 c1             	mov    %rax,%rcx
ffffffff8010226f:	48 8b 45 e0          	mov    -0x20(%rbp),%rax
ffffffff80102273:	48 01 c8             	add    %rcx,%rax
ffffffff80102276:	48 c1 e8 03          	shr    $0x3,%rax
ffffffff8010227a:	48 01 d0             	add    %rdx,%rax
ffffffff8010227d:	0f b6 00             	movzbl (%rax),%eax
ffffffff80102280:	89 c6                	mov    %eax,%esi
ffffffff80102282:	48 8b 45 f0          	mov    -0x10(%rbp),%rax
ffffffff80102286:	48 c1 e8 05          	shr    $0x5,%rax
ffffffff8010228a:	89 c2                	mov    %eax,%edx
ffffffff8010228c:	48 8b 45 e0          	mov    -0x20(%rbp),%rax
ffffffff80102290:	01 d0                	add    %edx,%eax
ffffffff80102292:	83 e0 07             	and    $0x7,%eax
ffffffff80102295:	ba 01 00 00 00       	mov    $0x1,%edx
ffffffff8010229a:	89 c1                	mov    %eax,%ecx
ffffffff8010229c:	d3 e2                	shl    %cl,%edx
ffffffff8010229e:	89 d0                	mov    %edx,%eax
ffffffff801022a0:	09 c6                	or     %eax,%esi
ffffffff801022a2:	89 f1                	mov    %esi,%ecx
ffffffff801022a4:	48 8b 15 65 dd 00 00 	mov    0xdd65(%rip),%rdx        # ffffffff80110010 <bitmap>
ffffffff801022ab:	48 8b 45 f0          	mov    -0x10(%rbp),%rax
ffffffff801022af:	48 c1 e8 05          	shr    $0x5,%rax
ffffffff801022b3:	48 89 c6             	mov    %rax,%rsi
ffffffff801022b6:	48 8b 45 e0          	mov    -0x20(%rbp),%rax
ffffffff801022ba:	48 01 f0             	add    %rsi,%rax
ffffffff801022bd:	48 c1 e8 03          	shr    $0x3,%rax
ffffffff801022c1:	48 01 d0             	add    %rdx,%rax
ffffffff801022c4:	89 ca                	mov    %ecx,%edx
ffffffff801022c6:	88 10                	mov    %dl,(%rax)
ffffffff801022c8:	48 83 45 e0 01       	addq   $0x1,-0x20(%rbp)
ffffffff801022cd:	8b 45 dc             	mov    -0x24(%rbp),%eax
ffffffff801022d0:	48 39 45 e0          	cmp    %rax,-0x20(%rbp)
ffffffff801022d4:	7c 87                	jl     ffffffff8010225d <kmalloc+0xe1>
ffffffff801022d6:	48 8b 55 f0          	mov    -0x10(%rbp),%rdx
ffffffff801022da:	48 8b 05 3f dd 00 00 	mov    0xdd3f(%rip),%rax        # ffffffff80110020 <start>
ffffffff801022e1:	48 01 c2             	add    %rax,%rdx
ffffffff801022e4:	48 b8 00 00 00 00 00 	movabs $0xffff800000000000,%rax
ffffffff801022eb:	80 ff ff 
ffffffff801022ee:	48 01 d0             	add    %rdx,%rax
ffffffff801022f1:	eb 33                	jmp    ffffffff80102326 <kmalloc+0x1aa>
ffffffff801022f3:	48 83 45 e8 01       	addq   $0x1,-0x18(%rbp)
ffffffff801022f8:	48 8b 05 29 dd 00 00 	mov    0xdd29(%rip),%rax        # ffffffff80110028 <bitmap_size>
ffffffff801022ff:	48 39 45 e8          	cmp    %rax,-0x18(%rbp)
ffffffff80102303:	0f 82 ba fe ff ff    	jb     ffffffff801021c3 <kmalloc+0x47>
ffffffff80102309:	48 c7 c6 9d c1 10 80 	mov    $0xffffffff8010c19d,%rsi
ffffffff80102310:	48 c7 c7 aa c1 10 80 	mov    $0xffffffff8010c1aa,%rdi
ffffffff80102317:	b8 00 00 00 00       	mov    $0x0,%eax
ffffffff8010231c:	e8 44 67 00 00       	callq  ffffffff80108a65 <kprintf>
ffffffff80102321:	b8 00 00 00 00       	mov    $0x0,%eax
ffffffff80102326:	c9                   	leaveq 
ffffffff80102327:	c3                   	retq   

ffffffff80102328 <kfree>:
ffffffff80102328:	55                   	push   %rbp
ffffffff80102329:	48 89 e5             	mov    %rsp,%rbp
ffffffff8010232c:	48 83 ec 28          	sub    $0x28,%rsp
ffffffff80102330:	48 89 7d d8          	mov    %rdi,-0x28(%rbp)
ffffffff80102334:	48 8b 45 d8          	mov    -0x28(%rbp),%rax
ffffffff80102338:	48 8b 15 e1 dc 00 00 	mov    0xdce1(%rip),%rdx        # ffffffff80110020 <start>
ffffffff8010233f:	48 29 d0             	sub    %rdx,%rax
ffffffff80102342:	48 89 c1             	mov    %rax,%rcx
ffffffff80102345:	48 b8 00 00 00 00 00 	movabs $0x800000000000,%rax
ffffffff8010234c:	80 00 00 
ffffffff8010234f:	48 01 c8             	add    %rcx,%rax
ffffffff80102352:	48 c1 e8 05          	shr    $0x5,%rax
ffffffff80102356:	48 89 45 e8          	mov    %rax,-0x18(%rbp)
ffffffff8010235a:	48 c7 45 e0 00 00 00 	movq   $0x0,-0x20(%rbp)
ffffffff80102361:	00 
ffffffff80102362:	48 c7 45 f8 00 00 00 	movq   $0x0,-0x8(%rbp)
ffffffff80102369:	00 
ffffffff8010236a:	eb 22                	jmp    ffffffff8010238e <kfree+0x66>
ffffffff8010236c:	48 8b 15 a5 dc 00 00 	mov    0xdca5(%rip),%rdx        # ffffffff80110018 <allocs>
ffffffff80102373:	48 8b 45 f8          	mov    -0x8(%rbp),%rax
ffffffff80102377:	48 c1 e0 03          	shl    $0x3,%rax
ffffffff8010237b:	48 01 d0             	add    %rdx,%rax
ffffffff8010237e:	8b 40 04             	mov    0x4(%rax),%eax
ffffffff80102381:	89 c0                	mov    %eax,%eax
ffffffff80102383:	48 39 45 e8          	cmp    %rax,-0x18(%rbp)
ffffffff80102387:	74 14                	je     ffffffff8010239d <kfree+0x75>
ffffffff80102389:	48 83 45 f8 01       	addq   $0x1,-0x8(%rbp)
ffffffff8010238e:	48 8b 05 9b dc 00 00 	mov    0xdc9b(%rip),%rax        # ffffffff80110030 <allocation_size>
ffffffff80102395:	48 39 45 f8          	cmp    %rax,-0x8(%rbp)
ffffffff80102399:	72 d1                	jb     ffffffff8010236c <kfree+0x44>
ffffffff8010239b:	eb 01                	jmp    ffffffff8010239e <kfree+0x76>
ffffffff8010239d:	90                   	nop
ffffffff8010239e:	48 8b 15 73 dc 00 00 	mov    0xdc73(%rip),%rdx        # ffffffff80110018 <allocs>
ffffffff801023a5:	48 8b 45 f8          	mov    -0x8(%rbp),%rax
ffffffff801023a9:	48 c1 e0 03          	shl    $0x3,%rax
ffffffff801023ad:	48 01 d0             	add    %rdx,%rax
ffffffff801023b0:	8b 00                	mov    (%rax),%eax
ffffffff801023b2:	89 c0                	mov    %eax,%eax
ffffffff801023b4:	48 89 45 e0          	mov    %rax,-0x20(%rbp)
ffffffff801023b8:	48 8b 45 e8          	mov    -0x18(%rbp),%rax
ffffffff801023bc:	48 89 45 f0          	mov    %rax,-0x10(%rbp)
ffffffff801023c0:	eb 4a                	jmp    ffffffff8010240c <kfree+0xe4>
ffffffff801023c2:	48 8b 15 47 dc 00 00 	mov    0xdc47(%rip),%rdx        # ffffffff80110010 <bitmap>
ffffffff801023c9:	48 8b 45 f0          	mov    -0x10(%rbp),%rax
ffffffff801023cd:	48 c1 e8 03          	shr    $0x3,%rax
ffffffff801023d1:	48 01 d0             	add    %rdx,%rax
ffffffff801023d4:	0f b6 00             	movzbl (%rax),%eax
ffffffff801023d7:	89 c6                	mov    %eax,%esi
ffffffff801023d9:	48 8b 45 f0          	mov    -0x10(%rbp),%rax
ffffffff801023dd:	83 e0 07             	and    $0x7,%eax
ffffffff801023e0:	ba 01 00 00 00       	mov    $0x1,%edx
ffffffff801023e5:	89 c1                	mov    %eax,%ecx
ffffffff801023e7:	d3 e2                	shl    %cl,%edx
ffffffff801023e9:	89 d0                	mov    %edx,%eax
ffffffff801023eb:	f7 d0                	not    %eax
ffffffff801023ed:	21 c6                	and    %eax,%esi
ffffffff801023ef:	89 f1                	mov    %esi,%ecx
ffffffff801023f1:	48 8b 15 18 dc 00 00 	mov    0xdc18(%rip),%rdx        # ffffffff80110010 <bitmap>
ffffffff801023f8:	48 8b 45 f0          	mov    -0x10(%rbp),%rax
ffffffff801023fc:	48 c1 e8 03          	shr    $0x3,%rax
ffffffff80102400:	48 01 d0             	add    %rdx,%rax
ffffffff80102403:	89 ca                	mov    %ecx,%edx
ffffffff80102405:	88 10                	mov    %dl,(%rax)
ffffffff80102407:	48 83 45 f0 01       	addq   $0x1,-0x10(%rbp)
ffffffff8010240c:	48 8b 55 e8          	mov    -0x18(%rbp),%rdx
ffffffff80102410:	48 8b 45 e0          	mov    -0x20(%rbp),%rax
ffffffff80102414:	48 01 d0             	add    %rdx,%rax
ffffffff80102417:	48 39 45 f0          	cmp    %rax,-0x10(%rbp)
ffffffff8010241b:	72 a5                	jb     ffffffff801023c2 <kfree+0x9a>
ffffffff8010241d:	48 8b 15 f4 db 00 00 	mov    0xdbf4(%rip),%rdx        # ffffffff80110018 <allocs>
ffffffff80102424:	48 8b 45 f8          	mov    -0x8(%rbp),%rax
ffffffff80102428:	48 c1 e0 03          	shl    $0x3,%rax
ffffffff8010242c:	48 01 d0             	add    %rdx,%rax
ffffffff8010242f:	48 c7 00 00 00 00 00 	movq   $0x0,(%rax)
ffffffff80102436:	48 8b 45 e0          	mov    -0x20(%rbp),%rax
ffffffff8010243a:	c9                   	leaveq 
ffffffff8010243b:	c3                   	retq   

ffffffff8010243c <krealloc>:
ffffffff8010243c:	55                   	push   %rbp
ffffffff8010243d:	48 89 e5             	mov    %rsp,%rbp
ffffffff80102440:	48 83 ec 20          	sub    $0x20,%rsp
ffffffff80102444:	48 89 7d e8          	mov    %rdi,-0x18(%rbp)
ffffffff80102448:	48 89 75 e0          	mov    %rsi,-0x20(%rbp)
ffffffff8010244c:	48 8b 45 e8          	mov    -0x18(%rbp),%rax
ffffffff80102450:	48 89 c7             	mov    %rax,%rdi
ffffffff80102453:	e8 d0 fe ff ff       	callq  ffffffff80102328 <kfree>
ffffffff80102458:	48 89 45 f8          	mov    %rax,-0x8(%rbp)
ffffffff8010245c:	48 8b 45 e0          	mov    -0x20(%rbp),%rax
ffffffff80102460:	48 89 c7             	mov    %rax,%rdi
ffffffff80102463:	e8 14 fd ff ff       	callq  ffffffff8010217c <kmalloc>
ffffffff80102468:	48 89 45 f0          	mov    %rax,-0x10(%rbp)
ffffffff8010246c:	48 8b 45 f8          	mov    -0x8(%rbp),%rax
ffffffff80102470:	48 c1 e0 05          	shl    $0x5,%rax
ffffffff80102474:	48 c1 e8 03          	shr    $0x3,%rax
ffffffff80102478:	48 89 c2             	mov    %rax,%rdx
ffffffff8010247b:	48 8b 4d e8          	mov    -0x18(%rbp),%rcx
ffffffff8010247f:	48 8b 45 f0          	mov    -0x10(%rbp),%rax
ffffffff80102483:	48 89 ce             	mov    %rcx,%rsi
ffffffff80102486:	48 89 c7             	mov    %rax,%rdi
ffffffff80102489:	e8 06 60 00 00       	callq  ffffffff80108494 <memcpy64>
ffffffff8010248e:	48 8b 45 f0          	mov    -0x10(%rbp),%rax
ffffffff80102492:	c9                   	leaveq 
ffffffff80102493:	c3                   	retq   

ffffffff80102494 <kcalloc>:
ffffffff80102494:	55                   	push   %rbp
ffffffff80102495:	48 89 e5             	mov    %rsp,%rbp
ffffffff80102498:	48 83 ec 20          	sub    $0x20,%rsp
ffffffff8010249c:	48 89 7d e8          	mov    %rdi,-0x18(%rbp)
ffffffff801024a0:	48 8b 45 e8          	mov    -0x18(%rbp),%rax
ffffffff801024a4:	48 89 c7             	mov    %rax,%rdi
ffffffff801024a7:	e8 d0 fc ff ff       	callq  ffffffff8010217c <kmalloc>
ffffffff801024ac:	48 89 45 f8          	mov    %rax,-0x8(%rbp)
ffffffff801024b0:	48 8b 55 e8          	mov    -0x18(%rbp),%rdx
ffffffff801024b4:	48 8b 45 f8          	mov    -0x8(%rbp),%rax
ffffffff801024b8:	be 00 00 00 00       	mov    $0x0,%esi
ffffffff801024bd:	48 89 c7             	mov    %rax,%rdi
ffffffff801024c0:	e8 c4 5d 00 00       	callq  ffffffff80108289 <memset8>
ffffffff801024c5:	48 8b 45 f8          	mov    -0x8(%rbp),%rax
ffffffff801024c9:	c9                   	leaveq 
ffffffff801024ca:	c3                   	retq   

ffffffff801024cb <first_free>:
ffffffff801024cb:	55                   	push   %rbp
ffffffff801024cc:	48 89 e5             	mov    %rsp,%rbp
ffffffff801024cf:	48 83 ec 10          	sub    $0x10,%rsp
ffffffff801024d3:	48 c7 45 f8 00 00 00 	movq   $0x0,-0x8(%rbp)
ffffffff801024da:	00 
ffffffff801024db:	eb 37                	jmp    ffffffff80102514 <first_free+0x49>
ffffffff801024dd:	48 8b 15 2c db 00 00 	mov    0xdb2c(%rip),%rdx        # ffffffff80110010 <bitmap>
ffffffff801024e4:	48 8b 45 f8          	mov    -0x8(%rbp),%rax
ffffffff801024e8:	48 c1 e8 03          	shr    $0x3,%rax
ffffffff801024ec:	48 01 d0             	add    %rdx,%rax
ffffffff801024ef:	0f b6 00             	movzbl (%rax),%eax
ffffffff801024f2:	0f b6 d0             	movzbl %al,%edx
ffffffff801024f5:	48 8b 45 f8          	mov    -0x8(%rbp),%rax
ffffffff801024f9:	83 e0 07             	and    $0x7,%eax
ffffffff801024fc:	89 c1                	mov    %eax,%ecx
ffffffff801024fe:	d3 fa                	sar    %cl,%edx
ffffffff80102500:	89 d0                	mov    %edx,%eax
ffffffff80102502:	83 e0 01             	and    $0x1,%eax
ffffffff80102505:	85 c0                	test   %eax,%eax
ffffffff80102507:	75 06                	jne    ffffffff8010250f <first_free+0x44>
ffffffff80102509:	48 8b 45 f8          	mov    -0x8(%rbp),%rax
ffffffff8010250d:	eb 19                	jmp    ffffffff80102528 <first_free+0x5d>
ffffffff8010250f:	48 83 45 f8 01       	addq   $0x1,-0x8(%rbp)
ffffffff80102514:	48 8b 05 0d db 00 00 	mov    0xdb0d(%rip),%rax        # ffffffff80110028 <bitmap_size>
ffffffff8010251b:	48 39 45 f8          	cmp    %rax,-0x8(%rbp)
ffffffff8010251f:	72 bc                	jb     ffffffff801024dd <first_free+0x12>
ffffffff80102521:	48 c7 c0 ff ff ff ff 	mov    $0xffffffffffffffff,%rax
ffffffff80102528:	c9                   	leaveq 
ffffffff80102529:	c3                   	retq   

ffffffff8010252a <first_free_alloc>:
ffffffff8010252a:	55                   	push   %rbp
ffffffff8010252b:	48 89 e5             	mov    %rsp,%rbp
ffffffff8010252e:	48 83 ec 10          	sub    $0x10,%rsp
ffffffff80102532:	48 c7 45 f8 00 00 00 	movq   $0x0,-0x8(%rbp)
ffffffff80102539:	00 
ffffffff8010253a:	eb 23                	jmp    ffffffff8010255f <first_free_alloc+0x35>
ffffffff8010253c:	48 8b 15 d5 da 00 00 	mov    0xdad5(%rip),%rdx        # ffffffff80110018 <allocs>
ffffffff80102543:	48 8b 45 f8          	mov    -0x8(%rbp),%rax
ffffffff80102547:	48 c1 e0 03          	shl    $0x3,%rax
ffffffff8010254b:	48 01 d0             	add    %rdx,%rax
ffffffff8010254e:	8b 00                	mov    (%rax),%eax
ffffffff80102550:	85 c0                	test   %eax,%eax
ffffffff80102552:	75 06                	jne    ffffffff8010255a <first_free_alloc+0x30>
ffffffff80102554:	48 8b 45 f8          	mov    -0x8(%rbp),%rax
ffffffff80102558:	eb 19                	jmp    ffffffff80102573 <first_free_alloc+0x49>
ffffffff8010255a:	48 83 45 f8 01       	addq   $0x1,-0x8(%rbp)
ffffffff8010255f:	48 8b 05 ca da 00 00 	mov    0xdaca(%rip),%rax        # ffffffff80110030 <allocation_size>
ffffffff80102566:	48 39 45 f8          	cmp    %rax,-0x8(%rbp)
ffffffff8010256a:	72 d0                	jb     ffffffff8010253c <first_free_alloc+0x12>
ffffffff8010256c:	48 c7 c0 ff ff ff ff 	mov    $0xffffffffffffffff,%rax
ffffffff80102573:	c9                   	leaveq 
ffffffff80102574:	c3                   	retq   

ffffffff80102575 <fs_check_ext2>:
ffffffff80102575:	55                   	push   %rbp
ffffffff80102576:	48 89 e5             	mov    %rsp,%rbp
ffffffff80102579:	53                   	push   %rbx
ffffffff8010257a:	48 81 ec 98 00 00 00 	sub    $0x98,%rsp
ffffffff80102581:	bf 58 01 00 00       	mov    $0x158,%edi
ffffffff80102586:	e8 f1 fb ff ff       	callq  ffffffff8010217c <kmalloc>
ffffffff8010258b:	48 89 45 e8          	mov    %rax,-0x18(%rbp)
ffffffff8010258f:	48 8b 45 e8          	mov    -0x18(%rbp),%rax
ffffffff80102593:	48 89 c1             	mov    %rax,%rcx
ffffffff80102596:	ba c8 00 00 00       	mov    $0xc8,%edx
ffffffff8010259b:	be 00 04 00 00       	mov    $0x400,%esi
ffffffff801025a0:	48 8d 7d 10          	lea    0x10(%rbp),%rdi
ffffffff801025a4:	e8 de 86 00 00       	callq  ffffffff8010ac87 <partition_read>
ffffffff801025a9:	48 8b 45 e8          	mov    -0x18(%rbp),%rax
ffffffff801025ad:	0f b7 40 38          	movzwl 0x38(%rax),%eax
ffffffff801025b1:	66 3d 53 ef          	cmp    $0xef53,%ax
ffffffff801025b5:	74 16                	je     ffffffff801025cd <fs_check_ext2+0x58>
ffffffff801025b7:	48 8b 45 e8          	mov    -0x18(%rbp),%rax
ffffffff801025bb:	48 89 c7             	mov    %rax,%rdi
ffffffff801025be:	e8 65 fd ff ff       	callq  ffffffff80102328 <kfree>
ffffffff801025c3:	b8 00 00 00 00       	mov    $0x0,%eax
ffffffff801025c8:	e9 36 01 00 00       	jmpq   ffffffff80102703 <fs_check_ext2+0x18e>
ffffffff801025cd:	48 8b 45 e8          	mov    -0x18(%rbp),%rax
ffffffff801025d1:	8b 40 18             	mov    0x18(%rax),%eax
ffffffff801025d4:	ba 00 04 00 00       	mov    $0x400,%edx
ffffffff801025d9:	89 c1                	mov    %eax,%ecx
ffffffff801025db:	d3 e2                	shl    %cl,%edx
ffffffff801025dd:	89 d0                	mov    %edx,%eax
ffffffff801025df:	48 63 d0             	movslq %eax,%rdx
ffffffff801025e2:	48 8b 45 e8          	mov    -0x18(%rbp),%rax
ffffffff801025e6:	48 89 90 40 01 00 00 	mov    %rdx,0x140(%rax)
ffffffff801025ed:	48 8b 45 e8          	mov    -0x18(%rbp),%rax
ffffffff801025f1:	8b 40 1c             	mov    0x1c(%rax),%eax
ffffffff801025f4:	ba 00 04 00 00       	mov    $0x400,%edx
ffffffff801025f9:	89 c1                	mov    %eax,%ecx
ffffffff801025fb:	d3 e2                	shl    %cl,%edx
ffffffff801025fd:	89 d0                	mov    %edx,%eax
ffffffff801025ff:	48 63 d0             	movslq %eax,%rdx
ffffffff80102602:	48 8b 45 e8          	mov    -0x18(%rbp),%rax
ffffffff80102606:	48 89 90 48 01 00 00 	mov    %rdx,0x148(%rax)
ffffffff8010260d:	48 8b 45 e8          	mov    -0x18(%rbp),%rax
ffffffff80102611:	48 89 45 38          	mov    %rax,0x38(%rbp)
ffffffff80102615:	48 8b 5d 38          	mov    0x38(%rbp),%rbx
ffffffff80102619:	48 8d 85 60 ff ff ff 	lea    -0xa0(%rbp),%rax
ffffffff80102620:	ba 02 00 00 00       	mov    $0x2,%edx
ffffffff80102625:	48 8d 75 10          	lea    0x10(%rbp),%rsi
ffffffff80102629:	48 89 c7             	mov    %rax,%rdi
ffffffff8010262c:	e8 f3 05 00 00       	callq  ffffffff80102c24 <read_inode>
ffffffff80102631:	48 8b 85 60 ff ff ff 	mov    -0xa0(%rbp),%rax
ffffffff80102638:	48 89 83 c8 00 00 00 	mov    %rax,0xc8(%rbx)
ffffffff8010263f:	48 8b 85 68 ff ff ff 	mov    -0x98(%rbp),%rax
ffffffff80102646:	48 89 83 d0 00 00 00 	mov    %rax,0xd0(%rbx)
ffffffff8010264d:	48 8b 85 70 ff ff ff 	mov    -0x90(%rbp),%rax
ffffffff80102654:	48 89 83 d8 00 00 00 	mov    %rax,0xd8(%rbx)
ffffffff8010265b:	48 8b 85 78 ff ff ff 	mov    -0x88(%rbp),%rax
ffffffff80102662:	48 89 83 e0 00 00 00 	mov    %rax,0xe0(%rbx)
ffffffff80102669:	48 8b 45 80          	mov    -0x80(%rbp),%rax
ffffffff8010266d:	48 89 83 e8 00 00 00 	mov    %rax,0xe8(%rbx)
ffffffff80102674:	48 8b 45 88          	mov    -0x78(%rbp),%rax
ffffffff80102678:	48 89 83 f0 00 00 00 	mov    %rax,0xf0(%rbx)
ffffffff8010267f:	48 8b 45 90          	mov    -0x70(%rbp),%rax
ffffffff80102683:	48 89 83 f8 00 00 00 	mov    %rax,0xf8(%rbx)
ffffffff8010268a:	48 8b 45 98          	mov    -0x68(%rbp),%rax
ffffffff8010268e:	48 89 83 00 01 00 00 	mov    %rax,0x100(%rbx)
ffffffff80102695:	48 8b 45 a0          	mov    -0x60(%rbp),%rax
ffffffff80102699:	48 89 83 08 01 00 00 	mov    %rax,0x108(%rbx)
ffffffff801026a0:	48 8b 45 a8          	mov    -0x58(%rbp),%rax
ffffffff801026a4:	48 89 83 10 01 00 00 	mov    %rax,0x110(%rbx)
ffffffff801026ab:	48 8b 45 b0          	mov    -0x50(%rbp),%rax
ffffffff801026af:	48 89 83 18 01 00 00 	mov    %rax,0x118(%rbx)
ffffffff801026b6:	48 8b 45 b8          	mov    -0x48(%rbp),%rax
ffffffff801026ba:	48 89 83 20 01 00 00 	mov    %rax,0x120(%rbx)
ffffffff801026c1:	48 8b 45 c0          	mov    -0x40(%rbp),%rax
ffffffff801026c5:	48 89 83 28 01 00 00 	mov    %rax,0x128(%rbx)
ffffffff801026cc:	48 8b 45 c8          	mov    -0x38(%rbp),%rax
ffffffff801026d0:	48 89 83 30 01 00 00 	mov    %rax,0x130(%rbx)
ffffffff801026d7:	8b 45 d0             	mov    -0x30(%rbp),%eax
ffffffff801026da:	89 83 38 01 00 00    	mov    %eax,0x138(%rbx)
ffffffff801026e0:	48 8b 45 38          	mov    0x38(%rbp),%rax
ffffffff801026e4:	8b 40 04             	mov    0x4(%rax),%eax
ffffffff801026e7:	48 8b 55 38          	mov    0x38(%rbp),%rdx
ffffffff801026eb:	8b 72 20             	mov    0x20(%rdx),%esi
ffffffff801026ee:	48 8b 4d 38          	mov    0x38(%rbp),%rcx
ffffffff801026f2:	ba 00 00 00 00       	mov    $0x0,%edx
ffffffff801026f7:	f7 f6                	div    %esi
ffffffff801026f9:	89 81 50 01 00 00    	mov    %eax,0x150(%rcx)
ffffffff801026ff:	48 8b 45 e8          	mov    -0x18(%rbp),%rax
ffffffff80102703:	48 8b 5d f8          	mov    -0x8(%rbp),%rbx
ffffffff80102707:	c9                   	leaveq 
ffffffff80102708:	c3                   	retq   

ffffffff80102709 <ext2_read>:
ffffffff80102709:	55                   	push   %rbp
ffffffff8010270a:	48 89 e5             	mov    %rsp,%rbp
ffffffff8010270d:	48 81 ec b0 00 00 00 	sub    $0xb0,%rsp
ffffffff80102714:	48 89 bd 78 ff ff ff 	mov    %rdi,-0x88(%rbp)
ffffffff8010271b:	48 89 b5 70 ff ff ff 	mov    %rsi,-0x90(%rbp)
ffffffff80102722:	48 89 95 68 ff ff ff 	mov    %rdx,-0x98(%rbp)
ffffffff80102729:	48 89 8d 60 ff ff ff 	mov    %rcx,-0xa0(%rbp)
ffffffff80102730:	4c 89 85 58 ff ff ff 	mov    %r8,-0xa8(%rbp)
ffffffff80102737:	48 8b 85 78 ff ff ff 	mov    -0x88(%rbp),%rax
ffffffff8010273e:	48 8b 40 28          	mov    0x28(%rax),%rax
ffffffff80102742:	48 8b bd 70 ff ff ff 	mov    -0x90(%rbp),%rdi
ffffffff80102749:	48 8d 75 84          	lea    -0x7c(%rbp),%rsi
ffffffff8010274d:	48 8b 8d 78 ff ff ff 	mov    -0x88(%rbp),%rcx
ffffffff80102754:	48 83 ec 08          	sub    $0x8,%rsp
ffffffff80102758:	48 83 ec 78          	sub    $0x78,%rsp
ffffffff8010275c:	48 89 e2             	mov    %rsp,%rdx
ffffffff8010275f:	4c 8b 80 c8 00 00 00 	mov    0xc8(%rax),%r8
ffffffff80102766:	4c 89 02             	mov    %r8,(%rdx)
ffffffff80102769:	4c 8b 80 d0 00 00 00 	mov    0xd0(%rax),%r8
ffffffff80102770:	4c 89 42 08          	mov    %r8,0x8(%rdx)
ffffffff80102774:	4c 8b 80 d8 00 00 00 	mov    0xd8(%rax),%r8
ffffffff8010277b:	4c 89 42 10          	mov    %r8,0x10(%rdx)
ffffffff8010277f:	4c 8b 80 e0 00 00 00 	mov    0xe0(%rax),%r8
ffffffff80102786:	4c 89 42 18          	mov    %r8,0x18(%rdx)
ffffffff8010278a:	4c 8b 80 e8 00 00 00 	mov    0xe8(%rax),%r8
ffffffff80102791:	4c 89 42 20          	mov    %r8,0x20(%rdx)
ffffffff80102795:	4c 8b 80 f0 00 00 00 	mov    0xf0(%rax),%r8
ffffffff8010279c:	4c 89 42 28          	mov    %r8,0x28(%rdx)
ffffffff801027a0:	4c 8b 80 f8 00 00 00 	mov    0xf8(%rax),%r8
ffffffff801027a7:	4c 89 42 30          	mov    %r8,0x30(%rdx)
ffffffff801027ab:	4c 8b 80 00 01 00 00 	mov    0x100(%rax),%r8
ffffffff801027b2:	4c 89 42 38          	mov    %r8,0x38(%rdx)
ffffffff801027b6:	4c 8b 80 08 01 00 00 	mov    0x108(%rax),%r8
ffffffff801027bd:	4c 89 42 40          	mov    %r8,0x40(%rdx)
ffffffff801027c1:	4c 8b 80 10 01 00 00 	mov    0x110(%rax),%r8
ffffffff801027c8:	4c 89 42 48          	mov    %r8,0x48(%rdx)
ffffffff801027cc:	4c 8b 80 18 01 00 00 	mov    0x118(%rax),%r8
ffffffff801027d3:	4c 89 42 50          	mov    %r8,0x50(%rdx)
ffffffff801027d7:	4c 8b 80 20 01 00 00 	mov    0x120(%rax),%r8
ffffffff801027de:	4c 89 42 58          	mov    %r8,0x58(%rdx)
ffffffff801027e2:	4c 8b 80 28 01 00 00 	mov    0x128(%rax),%r8
ffffffff801027e9:	4c 89 42 60          	mov    %r8,0x60(%rdx)
ffffffff801027ed:	4c 8b 80 30 01 00 00 	mov    0x130(%rax),%r8
ffffffff801027f4:	4c 89 42 68          	mov    %r8,0x68(%rdx)
ffffffff801027f8:	8b 80 38 01 00 00    	mov    0x138(%rax),%eax
ffffffff801027fe:	89 42 70             	mov    %eax,0x70(%rdx)
ffffffff80102801:	48 89 fa             	mov    %rdi,%rdx
ffffffff80102804:	48 89 cf             	mov    %rcx,%rdi
ffffffff80102807:	e8 57 14 00 00       	callq  ffffffff80103c63 <read_dir>
ffffffff8010280c:	48 83 ec 80          	sub    $0xffffffffffffff80,%rsp
ffffffff80102810:	83 f8 01             	cmp    $0x1,%eax
ffffffff80102813:	74 0a                	je     ffffffff8010281f <ext2_read+0x116>
ffffffff80102815:	b8 00 00 00 00       	mov    $0x0,%eax
ffffffff8010281a:	e9 c7 00 00 00       	jmpq   ffffffff801028e6 <ext2_read+0x1dd>
ffffffff8010281f:	8b 55 84             	mov    -0x7c(%rbp),%edx
ffffffff80102822:	48 8d 45 8c          	lea    -0x74(%rbp),%rax
ffffffff80102826:	48 8b 8d 78 ff ff ff 	mov    -0x88(%rbp),%rcx
ffffffff8010282d:	48 89 ce             	mov    %rcx,%rsi
ffffffff80102830:	48 89 c7             	mov    %rax,%rdi
ffffffff80102833:	e8 ec 03 00 00       	callq  ffffffff80102c24 <read_inode>
ffffffff80102838:	48 8b 8d 58 ff ff ff 	mov    -0xa8(%rbp),%rcx
ffffffff8010283f:	48 8b 95 60 ff ff ff 	mov    -0xa0(%rbp),%rdx
ffffffff80102846:	48 8b b5 68 ff ff ff 	mov    -0x98(%rbp),%rsi
ffffffff8010284d:	48 8b bd 78 ff ff ff 	mov    -0x88(%rbp),%rdi
ffffffff80102854:	48 83 ec 08          	sub    $0x8,%rsp
ffffffff80102858:	48 83 ec 78          	sub    $0x78,%rsp
ffffffff8010285c:	48 89 e0             	mov    %rsp,%rax
ffffffff8010285f:	4c 8b 45 8c          	mov    -0x74(%rbp),%r8
ffffffff80102863:	4c 89 00             	mov    %r8,(%rax)
ffffffff80102866:	4c 8b 45 94          	mov    -0x6c(%rbp),%r8
ffffffff8010286a:	4c 89 40 08          	mov    %r8,0x8(%rax)
ffffffff8010286e:	4c 8b 45 9c          	mov    -0x64(%rbp),%r8
ffffffff80102872:	4c 89 40 10          	mov    %r8,0x10(%rax)
ffffffff80102876:	4c 8b 45 a4          	mov    -0x5c(%rbp),%r8
ffffffff8010287a:	4c 89 40 18          	mov    %r8,0x18(%rax)
ffffffff8010287e:	4c 8b 45 ac          	mov    -0x54(%rbp),%r8
ffffffff80102882:	4c 89 40 20          	mov    %r8,0x20(%rax)
ffffffff80102886:	4c 8b 45 b4          	mov    -0x4c(%rbp),%r8
ffffffff8010288a:	4c 89 40 28          	mov    %r8,0x28(%rax)
ffffffff8010288e:	4c 8b 45 bc          	mov    -0x44(%rbp),%r8
ffffffff80102892:	4c 89 40 30          	mov    %r8,0x30(%rax)
ffffffff80102896:	4c 8b 45 c4          	mov    -0x3c(%rbp),%r8
ffffffff8010289a:	4c 89 40 38          	mov    %r8,0x38(%rax)
ffffffff8010289e:	4c 8b 45 cc          	mov    -0x34(%rbp),%r8
ffffffff801028a2:	4c 89 40 40          	mov    %r8,0x40(%rax)
ffffffff801028a6:	4c 8b 45 d4          	mov    -0x2c(%rbp),%r8
ffffffff801028aa:	4c 89 40 48          	mov    %r8,0x48(%rax)
ffffffff801028ae:	4c 8b 45 dc          	mov    -0x24(%rbp),%r8
ffffffff801028b2:	4c 89 40 50          	mov    %r8,0x50(%rax)
ffffffff801028b6:	4c 8b 45 e4          	mov    -0x1c(%rbp),%r8
ffffffff801028ba:	4c 89 40 58          	mov    %r8,0x58(%rax)
ffffffff801028be:	4c 8b 45 ec          	mov    -0x14(%rbp),%r8
ffffffff801028c2:	4c 89 40 60          	mov    %r8,0x60(%rax)
ffffffff801028c6:	4c 8b 45 f4          	mov    -0xc(%rbp),%r8
ffffffff801028ca:	4c 89 40 68          	mov    %r8,0x68(%rax)
ffffffff801028ce:	44 8b 45 fc          	mov    -0x4(%rbp),%r8d
ffffffff801028d2:	44 89 40 70          	mov    %r8d,0x70(%rax)
ffffffff801028d6:	e8 20 05 00 00       	callq  ffffffff80102dfb <inode_read>
ffffffff801028db:	48 83 ec 80          	sub    $0xffffffffffffff80,%rsp
ffffffff801028df:	48 8b 85 60 ff ff ff 	mov    -0xa0(%rbp),%rax
ffffffff801028e6:	c9                   	leaveq 
ffffffff801028e7:	c3                   	retq   

ffffffff801028e8 <ext2_write>:
ffffffff801028e8:	55                   	push   %rbp
ffffffff801028e9:	48 89 e5             	mov    %rsp,%rbp
ffffffff801028ec:	48 81 ec b0 00 00 00 	sub    $0xb0,%rsp
ffffffff801028f3:	48 89 bd 78 ff ff ff 	mov    %rdi,-0x88(%rbp)
ffffffff801028fa:	48 89 b5 70 ff ff ff 	mov    %rsi,-0x90(%rbp)
ffffffff80102901:	48 89 95 68 ff ff ff 	mov    %rdx,-0x98(%rbp)
ffffffff80102908:	48 89 8d 60 ff ff ff 	mov    %rcx,-0xa0(%rbp)
ffffffff8010290f:	4c 89 85 58 ff ff ff 	mov    %r8,-0xa8(%rbp)
ffffffff80102916:	48 8b 85 78 ff ff ff 	mov    -0x88(%rbp),%rax
ffffffff8010291d:	48 8b 40 28          	mov    0x28(%rax),%rax
ffffffff80102921:	48 8b bd 70 ff ff ff 	mov    -0x90(%rbp),%rdi
ffffffff80102928:	48 8d 75 84          	lea    -0x7c(%rbp),%rsi
ffffffff8010292c:	48 8b 8d 78 ff ff ff 	mov    -0x88(%rbp),%rcx
ffffffff80102933:	48 83 ec 08          	sub    $0x8,%rsp
ffffffff80102937:	48 83 ec 78          	sub    $0x78,%rsp
ffffffff8010293b:	48 89 e2             	mov    %rsp,%rdx
ffffffff8010293e:	4c 8b 80 c8 00 00 00 	mov    0xc8(%rax),%r8
ffffffff80102945:	4c 89 02             	mov    %r8,(%rdx)
ffffffff80102948:	4c 8b 80 d0 00 00 00 	mov    0xd0(%rax),%r8
ffffffff8010294f:	4c 89 42 08          	mov    %r8,0x8(%rdx)
ffffffff80102953:	4c 8b 80 d8 00 00 00 	mov    0xd8(%rax),%r8
ffffffff8010295a:	4c 89 42 10          	mov    %r8,0x10(%rdx)
ffffffff8010295e:	4c 8b 80 e0 00 00 00 	mov    0xe0(%rax),%r8
ffffffff80102965:	4c 89 42 18          	mov    %r8,0x18(%rdx)
ffffffff80102969:	4c 8b 80 e8 00 00 00 	mov    0xe8(%rax),%r8
ffffffff80102970:	4c 89 42 20          	mov    %r8,0x20(%rdx)
ffffffff80102974:	4c 8b 80 f0 00 00 00 	mov    0xf0(%rax),%r8
ffffffff8010297b:	4c 89 42 28          	mov    %r8,0x28(%rdx)
ffffffff8010297f:	4c 8b 80 f8 00 00 00 	mov    0xf8(%rax),%r8
ffffffff80102986:	4c 89 42 30          	mov    %r8,0x30(%rdx)
ffffffff8010298a:	4c 8b 80 00 01 00 00 	mov    0x100(%rax),%r8
ffffffff80102991:	4c 89 42 38          	mov    %r8,0x38(%rdx)
ffffffff80102995:	4c 8b 80 08 01 00 00 	mov    0x108(%rax),%r8
ffffffff8010299c:	4c 89 42 40          	mov    %r8,0x40(%rdx)
ffffffff801029a0:	4c 8b 80 10 01 00 00 	mov    0x110(%rax),%r8
ffffffff801029a7:	4c 89 42 48          	mov    %r8,0x48(%rdx)
ffffffff801029ab:	4c 8b 80 18 01 00 00 	mov    0x118(%rax),%r8
ffffffff801029b2:	4c 89 42 50          	mov    %r8,0x50(%rdx)
ffffffff801029b6:	4c 8b 80 20 01 00 00 	mov    0x120(%rax),%r8
ffffffff801029bd:	4c 89 42 58          	mov    %r8,0x58(%rdx)
ffffffff801029c1:	4c 8b 80 28 01 00 00 	mov    0x128(%rax),%r8
ffffffff801029c8:	4c 89 42 60          	mov    %r8,0x60(%rdx)
ffffffff801029cc:	4c 8b 80 30 01 00 00 	mov    0x130(%rax),%r8
ffffffff801029d3:	4c 89 42 68          	mov    %r8,0x68(%rdx)
ffffffff801029d7:	8b 80 38 01 00 00    	mov    0x138(%rax),%eax
ffffffff801029dd:	89 42 70             	mov    %eax,0x70(%rdx)
ffffffff801029e0:	48 89 fa             	mov    %rdi,%rdx
ffffffff801029e3:	48 89 cf             	mov    %rcx,%rdi
ffffffff801029e6:	e8 78 12 00 00       	callq  ffffffff80103c63 <read_dir>
ffffffff801029eb:	48 83 ec 80          	sub    $0xffffffffffffff80,%rsp
ffffffff801029ef:	83 f8 01             	cmp    $0x1,%eax
ffffffff801029f2:	74 0a                	je     ffffffff801029fe <ext2_write+0x116>
ffffffff801029f4:	b8 00 00 00 00       	mov    $0x0,%eax
ffffffff801029f9:	e9 c7 00 00 00       	jmpq   ffffffff80102ac5 <ext2_write+0x1dd>
ffffffff801029fe:	8b 55 84             	mov    -0x7c(%rbp),%edx
ffffffff80102a01:	48 8d 45 8c          	lea    -0x74(%rbp),%rax
ffffffff80102a05:	48 8b 8d 78 ff ff ff 	mov    -0x88(%rbp),%rcx
ffffffff80102a0c:	48 89 ce             	mov    %rcx,%rsi
ffffffff80102a0f:	48 89 c7             	mov    %rax,%rdi
ffffffff80102a12:	e8 0d 02 00 00       	callq  ffffffff80102c24 <read_inode>
ffffffff80102a17:	48 8b 8d 58 ff ff ff 	mov    -0xa8(%rbp),%rcx
ffffffff80102a1e:	48 8b 95 60 ff ff ff 	mov    -0xa0(%rbp),%rdx
ffffffff80102a25:	48 8b b5 68 ff ff ff 	mov    -0x98(%rbp),%rsi
ffffffff80102a2c:	48 8b bd 78 ff ff ff 	mov    -0x88(%rbp),%rdi
ffffffff80102a33:	48 83 ec 08          	sub    $0x8,%rsp
ffffffff80102a37:	48 83 ec 78          	sub    $0x78,%rsp
ffffffff80102a3b:	48 89 e0             	mov    %rsp,%rax
ffffffff80102a3e:	4c 8b 45 8c          	mov    -0x74(%rbp),%r8
ffffffff80102a42:	4c 89 00             	mov    %r8,(%rax)
ffffffff80102a45:	4c 8b 45 94          	mov    -0x6c(%rbp),%r8
ffffffff80102a49:	4c 89 40 08          	mov    %r8,0x8(%rax)
ffffffff80102a4d:	4c 8b 45 9c          	mov    -0x64(%rbp),%r8
ffffffff80102a51:	4c 89 40 10          	mov    %r8,0x10(%rax)
ffffffff80102a55:	4c 8b 45 a4          	mov    -0x5c(%rbp),%r8
ffffffff80102a59:	4c 89 40 18          	mov    %r8,0x18(%rax)
ffffffff80102a5d:	4c 8b 45 ac          	mov    -0x54(%rbp),%r8
ffffffff80102a61:	4c 89 40 20          	mov    %r8,0x20(%rax)
ffffffff80102a65:	4c 8b 45 b4          	mov    -0x4c(%rbp),%r8
ffffffff80102a69:	4c 89 40 28          	mov    %r8,0x28(%rax)
ffffffff80102a6d:	4c 8b 45 bc          	mov    -0x44(%rbp),%r8
ffffffff80102a71:	4c 89 40 30          	mov    %r8,0x30(%rax)
ffffffff80102a75:	4c 8b 45 c4          	mov    -0x3c(%rbp),%r8
ffffffff80102a79:	4c 89 40 38          	mov    %r8,0x38(%rax)
ffffffff80102a7d:	4c 8b 45 cc          	mov    -0x34(%rbp),%r8
ffffffff80102a81:	4c 89 40 40          	mov    %r8,0x40(%rax)
ffffffff80102a85:	4c 8b 45 d4          	mov    -0x2c(%rbp),%r8
ffffffff80102a89:	4c 89 40 48          	mov    %r8,0x48(%rax)
ffffffff80102a8d:	4c 8b 45 dc          	mov    -0x24(%rbp),%r8
ffffffff80102a91:	4c 89 40 50          	mov    %r8,0x50(%rax)
ffffffff80102a95:	4c 8b 45 e4          	mov    -0x1c(%rbp),%r8
ffffffff80102a99:	4c 89 40 58          	mov    %r8,0x58(%rax)
ffffffff80102a9d:	4c 8b 45 ec          	mov    -0x14(%rbp),%r8
ffffffff80102aa1:	4c 89 40 60          	mov    %r8,0x60(%rax)
ffffffff80102aa5:	4c 8b 45 f4          	mov    -0xc(%rbp),%r8
ffffffff80102aa9:	4c 89 40 68          	mov    %r8,0x68(%rax)
ffffffff80102aad:	44 8b 45 fc          	mov    -0x4(%rbp),%r8d
ffffffff80102ab1:	44 89 40 70          	mov    %r8d,0x70(%rax)
ffffffff80102ab5:	e8 24 05 00 00       	callq  ffffffff80102fde <inode_write>
ffffffff80102aba:	48 83 ec 80          	sub    $0xffffffffffffff80,%rsp
ffffffff80102abe:	48 8b 85 60 ff ff ff 	mov    -0xa0(%rbp),%rax
ffffffff80102ac5:	c9                   	leaveq 
ffffffff80102ac6:	c3                   	retq   

ffffffff80102ac7 <read_bgd>:
ffffffff80102ac7:	55                   	push   %rbp
ffffffff80102ac8:	48 89 e5             	mov    %rsp,%rbp
ffffffff80102acb:	48 83 ec 50          	sub    $0x50,%rsp
ffffffff80102acf:	48 89 7d c8          	mov    %rdi,-0x38(%rbp)
ffffffff80102ad3:	48 89 75 c0          	mov    %rsi,-0x40(%rbp)
ffffffff80102ad7:	89 55 bc             	mov    %edx,-0x44(%rbp)
ffffffff80102ada:	48 8b 45 c0          	mov    -0x40(%rbp),%rax
ffffffff80102ade:	48 8b 40 28          	mov    0x28(%rax),%rax
ffffffff80102ae2:	48 8b 80 40 01 00 00 	mov    0x140(%rax),%rax
ffffffff80102ae9:	48 3d ff 07 00 00    	cmp    $0x7ff,%rax
ffffffff80102aef:	76 11                	jbe    ffffffff80102b02 <read_bgd+0x3b>
ffffffff80102af1:	48 8b 45 c0          	mov    -0x40(%rbp),%rax
ffffffff80102af5:	48 8b 40 28          	mov    0x28(%rax),%rax
ffffffff80102af9:	48 8b 80 40 01 00 00 	mov    0x140(%rax),%rax
ffffffff80102b00:	eb 12                	jmp    ffffffff80102b14 <read_bgd+0x4d>
ffffffff80102b02:	48 8b 45 c0          	mov    -0x40(%rbp),%rax
ffffffff80102b06:	48 8b 40 28          	mov    0x28(%rax),%rax
ffffffff80102b0a:	48 8b 80 40 01 00 00 	mov    0x140(%rax),%rax
ffffffff80102b11:	48 01 c0             	add    %rax,%rax
ffffffff80102b14:	48 89 45 f8          	mov    %rax,-0x8(%rbp)
ffffffff80102b18:	8b 45 bc             	mov    -0x44(%rbp),%eax
ffffffff80102b1b:	8d 48 ff             	lea    -0x1(%rax),%ecx
ffffffff80102b1e:	48 8b 45 c0          	mov    -0x40(%rbp),%rax
ffffffff80102b22:	48 8b 40 28          	mov    0x28(%rax),%rax
ffffffff80102b26:	8b 78 28             	mov    0x28(%rax),%edi
ffffffff80102b29:	89 c8                	mov    %ecx,%eax
ffffffff80102b2b:	ba 00 00 00 00       	mov    $0x0,%edx
ffffffff80102b30:	f7 f7                	div    %edi
ffffffff80102b32:	89 c0                	mov    %eax,%eax
ffffffff80102b34:	48 89 45 f0          	mov    %rax,-0x10(%rbp)
ffffffff80102b38:	48 8b 45 f0          	mov    -0x10(%rbp),%rax
ffffffff80102b3c:	48 c1 e0 05          	shl    $0x5,%rax
ffffffff80102b40:	48 89 c2             	mov    %rax,%rdx
ffffffff80102b43:	48 8b 45 f8          	mov    -0x8(%rbp),%rax
ffffffff80102b47:	48 8d 34 02          	lea    (%rdx,%rax,1),%rsi
ffffffff80102b4b:	48 8d 55 d0          	lea    -0x30(%rbp),%rdx
ffffffff80102b4f:	48 8b 45 c0          	mov    -0x40(%rbp),%rax
ffffffff80102b53:	48 89 d1             	mov    %rdx,%rcx
ffffffff80102b56:	ba 20 00 00 00       	mov    $0x20,%edx
ffffffff80102b5b:	48 89 c7             	mov    %rax,%rdi
ffffffff80102b5e:	e8 24 81 00 00       	callq  ffffffff8010ac87 <partition_read>
ffffffff80102b63:	48 8b 45 c8          	mov    -0x38(%rbp),%rax
ffffffff80102b67:	48 8b 55 d0          	mov    -0x30(%rbp),%rdx
ffffffff80102b6b:	48 89 10             	mov    %rdx,(%rax)
ffffffff80102b6e:	48 8b 55 d8          	mov    -0x28(%rbp),%rdx
ffffffff80102b72:	48 89 50 08          	mov    %rdx,0x8(%rax)
ffffffff80102b76:	48 8b 55 e0          	mov    -0x20(%rbp),%rdx
ffffffff80102b7a:	48 89 50 10          	mov    %rdx,0x10(%rax)
ffffffff80102b7e:	48 8b 55 e8          	mov    -0x18(%rbp),%rdx
ffffffff80102b82:	48 89 50 18          	mov    %rdx,0x18(%rax)
ffffffff80102b86:	48 8b 45 c8          	mov    -0x38(%rbp),%rax
ffffffff80102b8a:	c9                   	leaveq 
ffffffff80102b8b:	c3                   	retq   

ffffffff80102b8c <write_bgd>:
ffffffff80102b8c:	55                   	push   %rbp
ffffffff80102b8d:	48 89 e5             	mov    %rsp,%rbp
ffffffff80102b90:	48 83 ec 20          	sub    $0x20,%rsp
ffffffff80102b94:	48 89 7d e8          	mov    %rdi,-0x18(%rbp)
ffffffff80102b98:	89 75 e4             	mov    %esi,-0x1c(%rbp)
ffffffff80102b9b:	48 8b 45 e8          	mov    -0x18(%rbp),%rax
ffffffff80102b9f:	48 8b 40 28          	mov    0x28(%rax),%rax
ffffffff80102ba3:	48 8b 80 40 01 00 00 	mov    0x140(%rax),%rax
ffffffff80102baa:	48 3d ff 07 00 00    	cmp    $0x7ff,%rax
ffffffff80102bb0:	76 11                	jbe    ffffffff80102bc3 <write_bgd+0x37>
ffffffff80102bb2:	48 8b 45 e8          	mov    -0x18(%rbp),%rax
ffffffff80102bb6:	48 8b 40 28          	mov    0x28(%rax),%rax
ffffffff80102bba:	48 8b 80 40 01 00 00 	mov    0x140(%rax),%rax
ffffffff80102bc1:	eb 12                	jmp    ffffffff80102bd5 <write_bgd+0x49>
ffffffff80102bc3:	48 8b 45 e8          	mov    -0x18(%rbp),%rax
ffffffff80102bc7:	48 8b 40 28          	mov    0x28(%rax),%rax
ffffffff80102bcb:	48 8b 80 40 01 00 00 	mov    0x140(%rax),%rax
ffffffff80102bd2:	48 01 c0             	add    %rax,%rax
ffffffff80102bd5:	48 89 45 f8          	mov    %rax,-0x8(%rbp)
ffffffff80102bd9:	8b 45 e4             	mov    -0x1c(%rbp),%eax
ffffffff80102bdc:	8d 48 ff             	lea    -0x1(%rax),%ecx
ffffffff80102bdf:	48 8b 45 e8          	mov    -0x18(%rbp),%rax
ffffffff80102be3:	48 8b 40 28          	mov    0x28(%rax),%rax
ffffffff80102be7:	8b 78 28             	mov    0x28(%rax),%edi
ffffffff80102bea:	89 c8                	mov    %ecx,%eax
ffffffff80102bec:	ba 00 00 00 00       	mov    $0x0,%edx
ffffffff80102bf1:	f7 f7                	div    %edi
ffffffff80102bf3:	89 c0                	mov    %eax,%eax
ffffffff80102bf5:	48 89 45 f0          	mov    %rax,-0x10(%rbp)
ffffffff80102bf9:	48 8b 45 f0          	mov    -0x10(%rbp),%rax
ffffffff80102bfd:	48 c1 e0 05          	shl    $0x5,%rax
ffffffff80102c01:	48 89 c2             	mov    %rax,%rdx
ffffffff80102c04:	48 8b 45 f8          	mov    -0x8(%rbp),%rax
ffffffff80102c08:	48 8d 34 02          	lea    (%rdx,%rax,1),%rsi
ffffffff80102c0c:	48 8b 45 e8          	mov    -0x18(%rbp),%rax
ffffffff80102c10:	48 8d 4d 10          	lea    0x10(%rbp),%rcx
ffffffff80102c14:	ba 20 00 00 00       	mov    $0x20,%edx
ffffffff80102c19:	48 89 c7             	mov    %rax,%rdi
ffffffff80102c1c:	e8 b9 80 00 00       	callq  ffffffff8010acda <partition_write>
ffffffff80102c21:	90                   	nop
ffffffff80102c22:	c9                   	leaveq 
ffffffff80102c23:	c3                   	retq   

ffffffff80102c24 <read_inode>:
ffffffff80102c24:	55                   	push   %rbp
ffffffff80102c25:	48 89 e5             	mov    %rsp,%rbp
ffffffff80102c28:	48 81 ec c0 00 00 00 	sub    $0xc0,%rsp
ffffffff80102c2f:	48 89 bd 58 ff ff ff 	mov    %rdi,-0xa8(%rbp)
ffffffff80102c36:	48 89 b5 50 ff ff ff 	mov    %rsi,-0xb0(%rbp)
ffffffff80102c3d:	89 95 4c ff ff ff    	mov    %edx,-0xb4(%rbp)
ffffffff80102c43:	48 8d 45 d8          	lea    -0x28(%rbp),%rax
ffffffff80102c47:	8b 95 4c ff ff ff    	mov    -0xb4(%rbp),%edx
ffffffff80102c4d:	48 8b 8d 50 ff ff ff 	mov    -0xb0(%rbp),%rcx
ffffffff80102c54:	48 89 ce             	mov    %rcx,%rsi
ffffffff80102c57:	48 89 c7             	mov    %rax,%rdi
ffffffff80102c5a:	e8 68 fe ff ff       	callq  ffffffff80102ac7 <read_bgd>
ffffffff80102c5f:	8b 85 4c ff ff ff    	mov    -0xb4(%rbp),%eax
ffffffff80102c65:	8d 50 ff             	lea    -0x1(%rax),%edx
ffffffff80102c68:	48 8b 85 50 ff ff ff 	mov    -0xb0(%rbp),%rax
ffffffff80102c6f:	48 8b 40 28          	mov    0x28(%rax),%rax
ffffffff80102c73:	8b 48 28             	mov    0x28(%rax),%ecx
ffffffff80102c76:	89 d0                	mov    %edx,%eax
ffffffff80102c78:	ba 00 00 00 00       	mov    $0x0,%edx
ffffffff80102c7d:	f7 f1                	div    %ecx
ffffffff80102c7f:	89 d0                	mov    %edx,%eax
ffffffff80102c81:	89 c0                	mov    %eax,%eax
ffffffff80102c83:	48 89 45 f8          	mov    %rax,-0x8(%rbp)
ffffffff80102c87:	8b 45 e0             	mov    -0x20(%rbp),%eax
ffffffff80102c8a:	89 c2                	mov    %eax,%edx
ffffffff80102c8c:	48 8b 85 50 ff ff ff 	mov    -0xb0(%rbp),%rax
ffffffff80102c93:	48 8b 40 28          	mov    0x28(%rax),%rax
ffffffff80102c97:	48 8b 80 40 01 00 00 	mov    0x140(%rax),%rax
ffffffff80102c9e:	48 0f af d0          	imul   %rax,%rdx
ffffffff80102ca2:	48 8b 85 50 ff ff ff 	mov    -0xb0(%rbp),%rax
ffffffff80102ca9:	48 8b 40 28          	mov    0x28(%rax),%rax
ffffffff80102cad:	0f b7 40 58          	movzwl 0x58(%rax),%eax
ffffffff80102cb1:	0f b7 c0             	movzwl %ax,%eax
ffffffff80102cb4:	48 0f af 45 f8       	imul   -0x8(%rbp),%rax
ffffffff80102cb9:	48 8d 34 02          	lea    (%rdx,%rax,1),%rsi
ffffffff80102cbd:	48 8d 95 64 ff ff ff 	lea    -0x9c(%rbp),%rdx
ffffffff80102cc4:	48 8b 85 50 ff ff ff 	mov    -0xb0(%rbp),%rax
ffffffff80102ccb:	48 89 d1             	mov    %rdx,%rcx
ffffffff80102cce:	ba 74 00 00 00       	mov    $0x74,%edx
ffffffff80102cd3:	48 89 c7             	mov    %rax,%rdi
ffffffff80102cd6:	e8 ac 7f 00 00       	callq  ffffffff8010ac87 <partition_read>
ffffffff80102cdb:	48 8b 85 58 ff ff ff 	mov    -0xa8(%rbp),%rax
ffffffff80102ce2:	48 8b 95 64 ff ff ff 	mov    -0x9c(%rbp),%rdx
ffffffff80102ce9:	48 89 10             	mov    %rdx,(%rax)
ffffffff80102cec:	48 8b 95 6c ff ff ff 	mov    -0x94(%rbp),%rdx
ffffffff80102cf3:	48 89 50 08          	mov    %rdx,0x8(%rax)
ffffffff80102cf7:	48 8b 95 74 ff ff ff 	mov    -0x8c(%rbp),%rdx
ffffffff80102cfe:	48 89 50 10          	mov    %rdx,0x10(%rax)
ffffffff80102d02:	48 8b 95 7c ff ff ff 	mov    -0x84(%rbp),%rdx
ffffffff80102d09:	48 89 50 18          	mov    %rdx,0x18(%rax)
ffffffff80102d0d:	48 8b 55 84          	mov    -0x7c(%rbp),%rdx
ffffffff80102d11:	48 89 50 20          	mov    %rdx,0x20(%rax)
ffffffff80102d15:	48 8b 55 8c          	mov    -0x74(%rbp),%rdx
ffffffff80102d19:	48 89 50 28          	mov    %rdx,0x28(%rax)
ffffffff80102d1d:	48 8b 55 94          	mov    -0x6c(%rbp),%rdx
ffffffff80102d21:	48 89 50 30          	mov    %rdx,0x30(%rax)
ffffffff80102d25:	48 8b 55 9c          	mov    -0x64(%rbp),%rdx
ffffffff80102d29:	48 89 50 38          	mov    %rdx,0x38(%rax)
ffffffff80102d2d:	48 8b 55 a4          	mov    -0x5c(%rbp),%rdx
ffffffff80102d31:	48 89 50 40          	mov    %rdx,0x40(%rax)
ffffffff80102d35:	48 8b 55 ac          	mov    -0x54(%rbp),%rdx
ffffffff80102d39:	48 89 50 48          	mov    %rdx,0x48(%rax)
ffffffff80102d3d:	48 8b 55 b4          	mov    -0x4c(%rbp),%rdx
ffffffff80102d41:	48 89 50 50          	mov    %rdx,0x50(%rax)
ffffffff80102d45:	48 8b 55 bc          	mov    -0x44(%rbp),%rdx
ffffffff80102d49:	48 89 50 58          	mov    %rdx,0x58(%rax)
ffffffff80102d4d:	48 8b 55 c4          	mov    -0x3c(%rbp),%rdx
ffffffff80102d51:	48 89 50 60          	mov    %rdx,0x60(%rax)
ffffffff80102d55:	48 8b 55 cc          	mov    -0x34(%rbp),%rdx
ffffffff80102d59:	48 89 50 68          	mov    %rdx,0x68(%rax)
ffffffff80102d5d:	8b 55 d4             	mov    -0x2c(%rbp),%edx
ffffffff80102d60:	89 50 70             	mov    %edx,0x70(%rax)
ffffffff80102d63:	48 8b 85 58 ff ff ff 	mov    -0xa8(%rbp),%rax
ffffffff80102d6a:	c9                   	leaveq 
ffffffff80102d6b:	c3                   	retq   

ffffffff80102d6c <write_inode>:
ffffffff80102d6c:	55                   	push   %rbp
ffffffff80102d6d:	48 89 e5             	mov    %rsp,%rbp
ffffffff80102d70:	48 83 ec 40          	sub    $0x40,%rsp
ffffffff80102d74:	48 89 7d c8          	mov    %rdi,-0x38(%rbp)
ffffffff80102d78:	89 75 c4             	mov    %esi,-0x3c(%rbp)
ffffffff80102d7b:	48 8d 45 d8          	lea    -0x28(%rbp),%rax
ffffffff80102d7f:	8b 55 c4             	mov    -0x3c(%rbp),%edx
ffffffff80102d82:	48 8b 4d c8          	mov    -0x38(%rbp),%rcx
ffffffff80102d86:	48 89 ce             	mov    %rcx,%rsi
ffffffff80102d89:	48 89 c7             	mov    %rax,%rdi
ffffffff80102d8c:	e8 36 fd ff ff       	callq  ffffffff80102ac7 <read_bgd>
ffffffff80102d91:	8b 45 c4             	mov    -0x3c(%rbp),%eax
ffffffff80102d94:	8d 50 ff             	lea    -0x1(%rax),%edx
ffffffff80102d97:	48 8b 45 c8          	mov    -0x38(%rbp),%rax
ffffffff80102d9b:	48 8b 40 28          	mov    0x28(%rax),%rax
ffffffff80102d9f:	8b 48 28             	mov    0x28(%rax),%ecx
ffffffff80102da2:	89 d0                	mov    %edx,%eax
ffffffff80102da4:	ba 00 00 00 00       	mov    $0x0,%edx
ffffffff80102da9:	f7 f1                	div    %ecx
ffffffff80102dab:	89 d0                	mov    %edx,%eax
ffffffff80102dad:	89 c0                	mov    %eax,%eax
ffffffff80102daf:	48 89 45 f8          	mov    %rax,-0x8(%rbp)
ffffffff80102db3:	8b 45 e0             	mov    -0x20(%rbp),%eax
ffffffff80102db6:	89 c2                	mov    %eax,%edx
ffffffff80102db8:	48 8b 45 c8          	mov    -0x38(%rbp),%rax
ffffffff80102dbc:	48 8b 40 28          	mov    0x28(%rax),%rax
ffffffff80102dc0:	48 8b 80 40 01 00 00 	mov    0x140(%rax),%rax
ffffffff80102dc7:	48 0f af d0          	imul   %rax,%rdx
ffffffff80102dcb:	48 8b 45 c8          	mov    -0x38(%rbp),%rax
ffffffff80102dcf:	48 8b 40 28          	mov    0x28(%rax),%rax
ffffffff80102dd3:	0f b7 40 58          	movzwl 0x58(%rax),%eax
ffffffff80102dd7:	0f b7 c0             	movzwl %ax,%eax
ffffffff80102dda:	48 0f af 45 f8       	imul   -0x8(%rbp),%rax
ffffffff80102ddf:	48 8d 34 02          	lea    (%rdx,%rax,1),%rsi
ffffffff80102de3:	48 8b 45 c8          	mov    -0x38(%rbp),%rax
ffffffff80102de7:	48 8d 4d 10          	lea    0x10(%rbp),%rcx
ffffffff80102deb:	ba 74 00 00 00       	mov    $0x74,%edx
ffffffff80102df0:	48 89 c7             	mov    %rax,%rdi
ffffffff80102df3:	e8 e2 7e 00 00       	callq  ffffffff8010acda <partition_write>
ffffffff80102df8:	90                   	nop
ffffffff80102df9:	c9                   	leaveq 
ffffffff80102dfa:	c3                   	retq   

ffffffff80102dfb <inode_read>:
ffffffff80102dfb:	55                   	push   %rbp
ffffffff80102dfc:	48 89 e5             	mov    %rsp,%rbp
ffffffff80102dff:	48 83 ec 60          	sub    $0x60,%rsp
ffffffff80102e03:	48 89 7d b8          	mov    %rdi,-0x48(%rbp)
ffffffff80102e07:	48 89 75 b0          	mov    %rsi,-0x50(%rbp)
ffffffff80102e0b:	48 89 55 a8          	mov    %rdx,-0x58(%rbp)
ffffffff80102e0f:	48 89 4d a0          	mov    %rcx,-0x60(%rbp)
ffffffff80102e13:	48 8b 45 b8          	mov    -0x48(%rbp),%rax
ffffffff80102e17:	48 8b 40 28          	mov    0x28(%rax),%rax
ffffffff80102e1b:	48 8b 80 40 01 00 00 	mov    0x140(%rax),%rax
ffffffff80102e22:	48 89 45 e8          	mov    %rax,-0x18(%rbp)
ffffffff80102e26:	48 c7 45 f8 00 00 00 	movq   $0x0,-0x8(%rbp)
ffffffff80102e2d:	00 
ffffffff80102e2e:	e9 99 01 00 00       	jmpq   ffffffff80102fcc <inode_read+0x1d1>
ffffffff80102e33:	48 8b 55 b0          	mov    -0x50(%rbp),%rdx
ffffffff80102e37:	48 8b 45 f8          	mov    -0x8(%rbp),%rax
ffffffff80102e3b:	48 01 d0             	add    %rdx,%rax
ffffffff80102e3e:	ba 00 00 00 00       	mov    $0x0,%edx
ffffffff80102e43:	48 f7 75 e8          	divq   -0x18(%rbp)
ffffffff80102e47:	48 89 45 e0          	mov    %rax,-0x20(%rbp)
ffffffff80102e4b:	48 8b 45 a8          	mov    -0x58(%rbp),%rax
ffffffff80102e4f:	48 2b 45 f8          	sub    -0x8(%rbp),%rax
ffffffff80102e53:	48 89 45 f0          	mov    %rax,-0x10(%rbp)
ffffffff80102e57:	48 8b 55 b0          	mov    -0x50(%rbp),%rdx
ffffffff80102e5b:	48 8b 45 f8          	mov    -0x8(%rbp),%rax
ffffffff80102e5f:	48 01 d0             	add    %rdx,%rax
ffffffff80102e62:	ba 00 00 00 00       	mov    $0x0,%edx
ffffffff80102e67:	48 f7 75 e8          	divq   -0x18(%rbp)
ffffffff80102e6b:	48 89 55 d8          	mov    %rdx,-0x28(%rbp)
ffffffff80102e6f:	48 8b 45 e8          	mov    -0x18(%rbp),%rax
ffffffff80102e73:	48 2b 45 d8          	sub    -0x28(%rbp),%rax
ffffffff80102e77:	48 39 45 f0          	cmp    %rax,-0x10(%rbp)
ffffffff80102e7b:	76 0c                	jbe    ffffffff80102e89 <inode_read+0x8e>
ffffffff80102e7d:	48 8b 45 e8          	mov    -0x18(%rbp),%rax
ffffffff80102e81:	48 2b 45 d8          	sub    -0x28(%rbp),%rax
ffffffff80102e85:	48 89 45 f0          	mov    %rax,-0x10(%rbp)
ffffffff80102e89:	48 83 7d e0 0b       	cmpq   $0xb,-0x20(%rbp)
ffffffff80102e8e:	77 14                	ja     ffffffff80102ea4 <inode_read+0xa9>
ffffffff80102e90:	48 8b 45 e0          	mov    -0x20(%rbp),%rax
ffffffff80102e94:	48 83 c0 08          	add    $0x8,%rax
ffffffff80102e98:	8b 44 85 18          	mov    0x18(%rbp,%rax,4),%eax
ffffffff80102e9c:	89 45 cc             	mov    %eax,-0x34(%rbp)
ffffffff80102e9f:	e9 ed 00 00 00       	jmpq   ffffffff80102f91 <inode_read+0x196>
ffffffff80102ea4:	48 83 6d e0 0c       	subq   $0xc,-0x20(%rbp)
ffffffff80102ea9:	48 8b 45 e0          	mov    -0x20(%rbp),%rax
ffffffff80102ead:	48 c1 e0 02          	shl    $0x2,%rax
ffffffff80102eb1:	48 39 45 e8          	cmp    %rax,-0x18(%rbp)
ffffffff80102eb5:	0f 87 a5 00 00 00    	ja     ffffffff80102f60 <inode_read+0x165>
ffffffff80102ebb:	48 8b 45 e8          	mov    -0x18(%rbp),%rax
ffffffff80102ebf:	48 c1 e8 02          	shr    $0x2,%rax
ffffffff80102ec3:	48 29 45 e0          	sub    %rax,-0x20(%rbp)
ffffffff80102ec7:	48 8b 45 e8          	mov    -0x18(%rbp),%rax
ffffffff80102ecb:	48 c1 e8 02          	shr    $0x2,%rax
ffffffff80102ecf:	48 89 c7             	mov    %rax,%rdi
ffffffff80102ed2:	48 8b 45 e0          	mov    -0x20(%rbp),%rax
ffffffff80102ed6:	ba 00 00 00 00       	mov    $0x0,%edx
ffffffff80102edb:	48 f7 f7             	div    %rdi
ffffffff80102ede:	89 45 d4             	mov    %eax,-0x2c(%rbp)
ffffffff80102ee1:	48 8b 45 e8          	mov    -0x18(%rbp),%rax
ffffffff80102ee5:	48 c1 e8 02          	shr    $0x2,%rax
ffffffff80102ee9:	48 89 c1             	mov    %rax,%rcx
ffffffff80102eec:	48 8b 45 e0          	mov    -0x20(%rbp),%rax
ffffffff80102ef0:	ba 00 00 00 00       	mov    $0x0,%edx
ffffffff80102ef5:	48 f7 f1             	div    %rcx
ffffffff80102ef8:	48 89 d0             	mov    %rdx,%rax
ffffffff80102efb:	89 45 d0             	mov    %eax,-0x30(%rbp)
ffffffff80102efe:	8b 45 6c             	mov    0x6c(%rbp),%eax
ffffffff80102f01:	89 c0                	mov    %eax,%eax
ffffffff80102f03:	48 0f af 45 e8       	imul   -0x18(%rbp),%rax
ffffffff80102f08:	48 89 c2             	mov    %rax,%rdx
ffffffff80102f0b:	8b 45 d4             	mov    -0x2c(%rbp),%eax
ffffffff80102f0e:	48 c1 e0 02          	shl    $0x2,%rax
ffffffff80102f12:	48 8d 34 02          	lea    (%rdx,%rax,1),%rsi
ffffffff80102f16:	48 8d 55 c8          	lea    -0x38(%rbp),%rdx
ffffffff80102f1a:	48 8b 45 b8          	mov    -0x48(%rbp),%rax
ffffffff80102f1e:	48 89 d1             	mov    %rdx,%rcx
ffffffff80102f21:	ba 04 00 00 00       	mov    $0x4,%edx
ffffffff80102f26:	48 89 c7             	mov    %rax,%rdi
ffffffff80102f29:	e8 59 7d 00 00       	callq  ffffffff8010ac87 <partition_read>
ffffffff80102f2e:	8b 45 c8             	mov    -0x38(%rbp),%eax
ffffffff80102f31:	89 c0                	mov    %eax,%eax
ffffffff80102f33:	48 0f af 45 e8       	imul   -0x18(%rbp),%rax
ffffffff80102f38:	48 89 c2             	mov    %rax,%rdx
ffffffff80102f3b:	8b 45 d0             	mov    -0x30(%rbp),%eax
ffffffff80102f3e:	48 c1 e0 02          	shl    $0x2,%rax
ffffffff80102f42:	48 8d 34 02          	lea    (%rdx,%rax,1),%rsi
ffffffff80102f46:	48 8d 55 cc          	lea    -0x34(%rbp),%rdx
ffffffff80102f4a:	48 8b 45 b8          	mov    -0x48(%rbp),%rax
ffffffff80102f4e:	48 89 d1             	mov    %rdx,%rcx
ffffffff80102f51:	ba 04 00 00 00       	mov    $0x4,%edx
ffffffff80102f56:	48 89 c7             	mov    %rax,%rdi
ffffffff80102f59:	e8 29 7d 00 00       	callq  ffffffff8010ac87 <partition_read>
ffffffff80102f5e:	eb 31                	jmp    ffffffff80102f91 <inode_read+0x196>
ffffffff80102f60:	8b 45 68             	mov    0x68(%rbp),%eax
ffffffff80102f63:	89 c0                	mov    %eax,%eax
ffffffff80102f65:	48 0f af 45 e8       	imul   -0x18(%rbp),%rax
ffffffff80102f6a:	48 89 c2             	mov    %rax,%rdx
ffffffff80102f6d:	48 8b 45 e0          	mov    -0x20(%rbp),%rax
ffffffff80102f71:	48 c1 e0 02          	shl    $0x2,%rax
ffffffff80102f75:	48 8d 34 02          	lea    (%rdx,%rax,1),%rsi
ffffffff80102f79:	48 8d 55 cc          	lea    -0x34(%rbp),%rdx
ffffffff80102f7d:	48 8b 45 b8          	mov    -0x48(%rbp),%rax
ffffffff80102f81:	48 89 d1             	mov    %rdx,%rcx
ffffffff80102f84:	ba 04 00 00 00       	mov    $0x4,%edx
ffffffff80102f89:	48 89 c7             	mov    %rax,%rdi
ffffffff80102f8c:	e8 f6 7c 00 00       	callq  ffffffff8010ac87 <partition_read>
ffffffff80102f91:	48 8b 55 a0          	mov    -0x60(%rbp),%rdx
ffffffff80102f95:	48 8b 45 f8          	mov    -0x8(%rbp),%rax
ffffffff80102f99:	48 01 d0             	add    %rdx,%rax
ffffffff80102f9c:	48 89 c1             	mov    %rax,%rcx
ffffffff80102f9f:	8b 45 cc             	mov    -0x34(%rbp),%eax
ffffffff80102fa2:	89 c0                	mov    %eax,%eax
ffffffff80102fa4:	48 0f af 45 e8       	imul   -0x18(%rbp),%rax
ffffffff80102fa9:	48 89 c2             	mov    %rax,%rdx
ffffffff80102fac:	48 8b 45 d8          	mov    -0x28(%rbp),%rax
ffffffff80102fb0:	48 8d 34 02          	lea    (%rdx,%rax,1),%rsi
ffffffff80102fb4:	48 8b 55 f0          	mov    -0x10(%rbp),%rdx
ffffffff80102fb8:	48 8b 45 b8          	mov    -0x48(%rbp),%rax
ffffffff80102fbc:	48 89 c7             	mov    %rax,%rdi
ffffffff80102fbf:	e8 c3 7c 00 00       	callq  ffffffff8010ac87 <partition_read>
ffffffff80102fc4:	48 8b 45 f0          	mov    -0x10(%rbp),%rax
ffffffff80102fc8:	48 01 45 f8          	add    %rax,-0x8(%rbp)
ffffffff80102fcc:	48 8b 45 f8          	mov    -0x8(%rbp),%rax
ffffffff80102fd0:	48 3b 45 a8          	cmp    -0x58(%rbp),%rax
ffffffff80102fd4:	0f 82 59 fe ff ff    	jb     ffffffff80102e33 <inode_read+0x38>
ffffffff80102fda:	90                   	nop
ffffffff80102fdb:	90                   	nop
ffffffff80102fdc:	c9                   	leaveq 
ffffffff80102fdd:	c3                   	retq   

ffffffff80102fde <inode_write>:
ffffffff80102fde:	55                   	push   %rbp
ffffffff80102fdf:	48 89 e5             	mov    %rsp,%rbp
ffffffff80102fe2:	48 83 ec 60          	sub    $0x60,%rsp
ffffffff80102fe6:	48 89 7d b8          	mov    %rdi,-0x48(%rbp)
ffffffff80102fea:	48 89 75 b0          	mov    %rsi,-0x50(%rbp)
ffffffff80102fee:	48 89 55 a8          	mov    %rdx,-0x58(%rbp)
ffffffff80102ff2:	48 89 4d a0          	mov    %rcx,-0x60(%rbp)
ffffffff80102ff6:	48 8b 45 b8          	mov    -0x48(%rbp),%rax
ffffffff80102ffa:	48 8b 40 28          	mov    0x28(%rax),%rax
ffffffff80102ffe:	48 8b 80 40 01 00 00 	mov    0x140(%rax),%rax
ffffffff80103005:	48 89 45 e8          	mov    %rax,-0x18(%rbp)
ffffffff80103009:	48 c7 45 f8 00 00 00 	movq   $0x0,-0x8(%rbp)
ffffffff80103010:	00 
ffffffff80103011:	e9 a6 01 00 00       	jmpq   ffffffff801031bc <inode_write+0x1de>
ffffffff80103016:	48 8b 55 b0          	mov    -0x50(%rbp),%rdx
ffffffff8010301a:	48 8b 45 f8          	mov    -0x8(%rbp),%rax
ffffffff8010301e:	48 01 d0             	add    %rdx,%rax
ffffffff80103021:	ba 00 00 00 00       	mov    $0x0,%edx
ffffffff80103026:	48 f7 75 e8          	divq   -0x18(%rbp)
ffffffff8010302a:	48 89 45 e0          	mov    %rax,-0x20(%rbp)
ffffffff8010302e:	48 8b 45 a8          	mov    -0x58(%rbp),%rax
ffffffff80103032:	48 2b 45 f8          	sub    -0x8(%rbp),%rax
ffffffff80103036:	48 89 45 f0          	mov    %rax,-0x10(%rbp)
ffffffff8010303a:	48 8b 55 b0          	mov    -0x50(%rbp),%rdx
ffffffff8010303e:	48 8b 45 f8          	mov    -0x8(%rbp),%rax
ffffffff80103042:	48 01 d0             	add    %rdx,%rax
ffffffff80103045:	ba 00 00 00 00       	mov    $0x0,%edx
ffffffff8010304a:	48 f7 75 e8          	divq   -0x18(%rbp)
ffffffff8010304e:	48 89 55 d8          	mov    %rdx,-0x28(%rbp)
ffffffff80103052:	48 8b 45 e8          	mov    -0x18(%rbp),%rax
ffffffff80103056:	48 2b 45 d8          	sub    -0x28(%rbp),%rax
ffffffff8010305a:	48 39 45 f0          	cmp    %rax,-0x10(%rbp)
ffffffff8010305e:	76 0c                	jbe    ffffffff8010306c <inode_write+0x8e>
ffffffff80103060:	48 8b 45 e8          	mov    -0x18(%rbp),%rax
ffffffff80103064:	48 2b 45 d8          	sub    -0x28(%rbp),%rax
ffffffff80103068:	48 89 45 f0          	mov    %rax,-0x10(%rbp)
ffffffff8010306c:	48 83 7d e0 0b       	cmpq   $0xb,-0x20(%rbp)
ffffffff80103071:	77 14                	ja     ffffffff80103087 <inode_write+0xa9>
ffffffff80103073:	48 8b 45 e0          	mov    -0x20(%rbp),%rax
ffffffff80103077:	48 83 c0 08          	add    $0x8,%rax
ffffffff8010307b:	8b 44 85 18          	mov    0x18(%rbp,%rax,4),%eax
ffffffff8010307f:	89 45 cc             	mov    %eax,-0x34(%rbp)
ffffffff80103082:	e9 e9 00 00 00       	jmpq   ffffffff80103170 <inode_write+0x192>
ffffffff80103087:	48 83 6d e0 0c       	subq   $0xc,-0x20(%rbp)
ffffffff8010308c:	48 8b 45 e0          	mov    -0x20(%rbp),%rax
ffffffff80103090:	48 c1 e0 02          	shl    $0x2,%rax
ffffffff80103094:	48 39 45 e8          	cmp    %rax,-0x18(%rbp)
ffffffff80103098:	0f 87 a1 00 00 00    	ja     ffffffff8010313f <inode_write+0x161>
ffffffff8010309e:	48 8b 45 e8          	mov    -0x18(%rbp),%rax
ffffffff801030a2:	48 c1 e8 02          	shr    $0x2,%rax
ffffffff801030a6:	48 29 45 e0          	sub    %rax,-0x20(%rbp)
ffffffff801030aa:	48 8b 45 e8          	mov    -0x18(%rbp),%rax
ffffffff801030ae:	48 c1 e8 02          	shr    $0x2,%rax
ffffffff801030b2:	48 89 c7             	mov    %rax,%rdi
ffffffff801030b5:	48 8b 45 e0          	mov    -0x20(%rbp),%rax
ffffffff801030b9:	ba 00 00 00 00       	mov    $0x0,%edx
ffffffff801030be:	48 f7 f7             	div    %rdi
ffffffff801030c1:	89 45 d4             	mov    %eax,-0x2c(%rbp)
ffffffff801030c4:	48 8b 45 e8          	mov    -0x18(%rbp),%rax
ffffffff801030c8:	48 c1 e8 02          	shr    $0x2,%rax
ffffffff801030cc:	48 89 c1             	mov    %rax,%rcx
ffffffff801030cf:	48 8b 45 e0          	mov    -0x20(%rbp),%rax
ffffffff801030d3:	ba 00 00 00 00       	mov    $0x0,%edx
ffffffff801030d8:	48 f7 f1             	div    %rcx
ffffffff801030db:	48 89 d0             	mov    %rdx,%rax
ffffffff801030de:	89 45 d0             	mov    %eax,-0x30(%rbp)
ffffffff801030e1:	8b 45 6c             	mov    0x6c(%rbp),%eax
ffffffff801030e4:	89 c0                	mov    %eax,%eax
ffffffff801030e6:	48 0f af 45 e8       	imul   -0x18(%rbp),%rax
ffffffff801030eb:	48 89 c2             	mov    %rax,%rdx
ffffffff801030ee:	8b 45 d4             	mov    -0x2c(%rbp),%eax
ffffffff801030f1:	48 c1 e0 02          	shl    $0x2,%rax
ffffffff801030f5:	48 8d 34 02          	lea    (%rdx,%rax,1),%rsi
ffffffff801030f9:	48 8d 55 c8          	lea    -0x38(%rbp),%rdx
ffffffff801030fd:	48 8b 45 b8          	mov    -0x48(%rbp),%rax
ffffffff80103101:	48 89 d1             	mov    %rdx,%rcx
ffffffff80103104:	ba 04 00 00 00       	mov    $0x4,%edx
ffffffff80103109:	48 89 c7             	mov    %rax,%rdi
ffffffff8010310c:	e8 76 7b 00 00       	callq  ffffffff8010ac87 <partition_read>
ffffffff80103111:	8b 45 c8             	mov    -0x38(%rbp),%eax
ffffffff80103114:	89 c0                	mov    %eax,%eax
ffffffff80103116:	48 0f af 45 e8       	imul   -0x18(%rbp),%rax
ffffffff8010311b:	48 89 c2             	mov    %rax,%rdx
ffffffff8010311e:	8b 45 d0             	mov    -0x30(%rbp),%eax
ffffffff80103121:	48 8d 34 02          	lea    (%rdx,%rax,1),%rsi
ffffffff80103125:	48 8d 55 cc          	lea    -0x34(%rbp),%rdx
ffffffff80103129:	48 8b 45 b8          	mov    -0x48(%rbp),%rax
ffffffff8010312d:	48 89 d1             	mov    %rdx,%rcx
ffffffff80103130:	ba 04 00 00 00       	mov    $0x4,%edx
ffffffff80103135:	48 89 c7             	mov    %rax,%rdi
ffffffff80103138:	e8 4a 7b 00 00       	callq  ffffffff8010ac87 <partition_read>
ffffffff8010313d:	eb 31                	jmp    ffffffff80103170 <inode_write+0x192>
ffffffff8010313f:	8b 45 68             	mov    0x68(%rbp),%eax
ffffffff80103142:	89 c0                	mov    %eax,%eax
ffffffff80103144:	48 0f af 45 e8       	imul   -0x18(%rbp),%rax
ffffffff80103149:	48 89 c2             	mov    %rax,%rdx
ffffffff8010314c:	48 8b 45 e0          	mov    -0x20(%rbp),%rax
ffffffff80103150:	48 c1 e0 02          	shl    $0x2,%rax
ffffffff80103154:	48 8d 34 02          	lea    (%rdx,%rax,1),%rsi
ffffffff80103158:	48 8d 55 cc          	lea    -0x34(%rbp),%rdx
ffffffff8010315c:	48 8b 45 b8          	mov    -0x48(%rbp),%rax
ffffffff80103160:	48 89 d1             	mov    %rdx,%rcx
ffffffff80103163:	ba 04 00 00 00       	mov    $0x4,%edx
ffffffff80103168:	48 89 c7             	mov    %rax,%rdi
ffffffff8010316b:	e8 17 7b 00 00       	callq  ffffffff8010ac87 <partition_read>
ffffffff80103170:	8b 55 cc             	mov    -0x34(%rbp),%edx
ffffffff80103173:	48 8b 45 b8          	mov    -0x48(%rbp),%rax
ffffffff80103177:	89 d6                	mov    %edx,%esi
ffffffff80103179:	48 89 c7             	mov    %rax,%rdi
ffffffff8010317c:	e8 bb 01 00 00       	callq  ffffffff8010333c <alloc_block>
ffffffff80103181:	48 8b 55 a0          	mov    -0x60(%rbp),%rdx
ffffffff80103185:	48 8b 45 f8          	mov    -0x8(%rbp),%rax
ffffffff80103189:	48 01 d0             	add    %rdx,%rax
ffffffff8010318c:	48 89 c1             	mov    %rax,%rcx
ffffffff8010318f:	8b 45 cc             	mov    -0x34(%rbp),%eax
ffffffff80103192:	89 c0                	mov    %eax,%eax
ffffffff80103194:	48 0f af 45 e8       	imul   -0x18(%rbp),%rax
ffffffff80103199:	48 89 c2             	mov    %rax,%rdx
ffffffff8010319c:	48 8b 45 d8          	mov    -0x28(%rbp),%rax
ffffffff801031a0:	48 8d 34 02          	lea    (%rdx,%rax,1),%rsi
ffffffff801031a4:	48 8b 55 f0          	mov    -0x10(%rbp),%rdx
ffffffff801031a8:	48 8b 45 b8          	mov    -0x48(%rbp),%rax
ffffffff801031ac:	48 89 c7             	mov    %rax,%rdi
ffffffff801031af:	e8 26 7b 00 00       	callq  ffffffff8010acda <partition_write>
ffffffff801031b4:	48 8b 45 f0          	mov    -0x10(%rbp),%rax
ffffffff801031b8:	48 01 45 f8          	add    %rax,-0x8(%rbp)
ffffffff801031bc:	48 8b 45 f8          	mov    -0x8(%rbp),%rax
ffffffff801031c0:	48 3b 45 a8          	cmp    -0x58(%rbp),%rax
ffffffff801031c4:	0f 82 4c fe ff ff    	jb     ffffffff80103016 <inode_write+0x38>
ffffffff801031ca:	90                   	nop
ffffffff801031cb:	90                   	nop
ffffffff801031cc:	c9                   	leaveq 
ffffffff801031cd:	c3                   	retq   

ffffffff801031ce <free_block>:
ffffffff801031ce:	55                   	push   %rbp
ffffffff801031cf:	48 89 e5             	mov    %rsp,%rbp
ffffffff801031d2:	48 83 ec 40          	sub    $0x40,%rsp
ffffffff801031d6:	48 89 7d c8          	mov    %rdi,-0x38(%rbp)
ffffffff801031da:	89 75 c4             	mov    %esi,-0x3c(%rbp)
ffffffff801031dd:	48 8b 45 c8          	mov    -0x38(%rbp),%rax
ffffffff801031e1:	48 8b 40 28          	mov    0x28(%rax),%rax
ffffffff801031e5:	48 8b 80 40 01 00 00 	mov    0x140(%rax),%rax
ffffffff801031ec:	48 89 c7             	mov    %rax,%rdi
ffffffff801031ef:	e8 a0 f2 ff ff       	callq  ffffffff80102494 <kcalloc>
ffffffff801031f4:	48 89 45 f8          	mov    %rax,-0x8(%rbp)
ffffffff801031f8:	48 8b 45 c8          	mov    -0x38(%rbp),%rax
ffffffff801031fc:	48 8b 40 28          	mov    0x28(%rax),%rax
ffffffff80103200:	8b 78 20             	mov    0x20(%rax),%edi
ffffffff80103203:	8b 45 c4             	mov    -0x3c(%rbp),%eax
ffffffff80103206:	ba 00 00 00 00       	mov    $0x0,%edx
ffffffff8010320b:	f7 f7                	div    %edi
ffffffff8010320d:	89 45 f4             	mov    %eax,-0xc(%rbp)
ffffffff80103210:	48 8b 45 c8          	mov    -0x38(%rbp),%rax
ffffffff80103214:	48 8b 40 28          	mov    0x28(%rax),%rax
ffffffff80103218:	8b 78 20             	mov    0x20(%rax),%edi
ffffffff8010321b:	8b 45 c4             	mov    -0x3c(%rbp),%eax
ffffffff8010321e:	ba 00 00 00 00       	mov    $0x0,%edx
ffffffff80103223:	f7 f7                	div    %edi
ffffffff80103225:	89 c2                	mov    %eax,%edx
ffffffff80103227:	8b 45 c4             	mov    -0x3c(%rbp),%eax
ffffffff8010322a:	29 d0                	sub    %edx,%eax
ffffffff8010322c:	89 45 f0             	mov    %eax,-0x10(%rbp)
ffffffff8010322f:	48 8d 45 d0          	lea    -0x30(%rbp),%rax
ffffffff80103233:	8b 55 f4             	mov    -0xc(%rbp),%edx
ffffffff80103236:	48 8b 4d c8          	mov    -0x38(%rbp),%rcx
ffffffff8010323a:	48 89 ce             	mov    %rcx,%rsi
ffffffff8010323d:	48 89 c7             	mov    %rax,%rdi
ffffffff80103240:	e8 82 f8 ff ff       	callq  ffffffff80102ac7 <read_bgd>
ffffffff80103245:	48 8b 45 c8          	mov    -0x38(%rbp),%rax
ffffffff80103249:	48 8b 40 28          	mov    0x28(%rax),%rax
ffffffff8010324d:	48 8b 90 40 01 00 00 	mov    0x140(%rax),%rdx
ffffffff80103254:	8b 45 d0             	mov    -0x30(%rbp),%eax
ffffffff80103257:	89 c6                	mov    %eax,%esi
ffffffff80103259:	48 8b 4d f8          	mov    -0x8(%rbp),%rcx
ffffffff8010325d:	48 8b 45 c8          	mov    -0x38(%rbp),%rax
ffffffff80103261:	48 89 c7             	mov    %rax,%rdi
ffffffff80103264:	e8 1e 7a 00 00       	callq  ffffffff8010ac87 <partition_read>
ffffffff80103269:	8b 45 f0             	mov    -0x10(%rbp),%eax
ffffffff8010326c:	c1 e8 03             	shr    $0x3,%eax
ffffffff8010326f:	89 c2                	mov    %eax,%edx
ffffffff80103271:	48 8b 45 f8          	mov    -0x8(%rbp),%rax
ffffffff80103275:	48 01 d0             	add    %rdx,%rax
ffffffff80103278:	0f b6 00             	movzbl (%rax),%eax
ffffffff8010327b:	0f b6 d0             	movzbl %al,%edx
ffffffff8010327e:	8b 45 f0             	mov    -0x10(%rbp),%eax
ffffffff80103281:	83 e0 07             	and    $0x7,%eax
ffffffff80103284:	89 c1                	mov    %eax,%ecx
ffffffff80103286:	d3 fa                	sar    %cl,%edx
ffffffff80103288:	89 d0                	mov    %edx,%eax
ffffffff8010328a:	83 e0 01             	and    $0x1,%eax
ffffffff8010328d:	85 c0                	test   %eax,%eax
ffffffff8010328f:	75 11                	jne    ffffffff801032a2 <free_block+0xd4>
ffffffff80103291:	48 8b 45 f8          	mov    -0x8(%rbp),%rax
ffffffff80103295:	48 89 c7             	mov    %rax,%rdi
ffffffff80103298:	e8 8b f0 ff ff       	callq  ffffffff80102328 <kfree>
ffffffff8010329d:	e9 98 00 00 00       	jmpq   ffffffff8010333a <free_block+0x16c>
ffffffff801032a2:	8b 45 f0             	mov    -0x10(%rbp),%eax
ffffffff801032a5:	c1 e8 03             	shr    $0x3,%eax
ffffffff801032a8:	89 c2                	mov    %eax,%edx
ffffffff801032aa:	48 8b 45 f8          	mov    -0x8(%rbp),%rax
ffffffff801032ae:	48 01 d0             	add    %rdx,%rax
ffffffff801032b1:	0f b6 00             	movzbl (%rax),%eax
ffffffff801032b4:	89 c6                	mov    %eax,%esi
ffffffff801032b6:	8b 45 f0             	mov    -0x10(%rbp),%eax
ffffffff801032b9:	83 e0 07             	and    $0x7,%eax
ffffffff801032bc:	ba 01 00 00 00       	mov    $0x1,%edx
ffffffff801032c1:	89 c1                	mov    %eax,%ecx
ffffffff801032c3:	d3 e2                	shl    %cl,%edx
ffffffff801032c5:	89 d0                	mov    %edx,%eax
ffffffff801032c7:	f7 d0                	not    %eax
ffffffff801032c9:	21 c6                	and    %eax,%esi
ffffffff801032cb:	89 f2                	mov    %esi,%edx
ffffffff801032cd:	8b 45 f0             	mov    -0x10(%rbp),%eax
ffffffff801032d0:	c1 e8 03             	shr    $0x3,%eax
ffffffff801032d3:	89 c1                	mov    %eax,%ecx
ffffffff801032d5:	48 8b 45 f8          	mov    -0x8(%rbp),%rax
ffffffff801032d9:	48 01 c8             	add    %rcx,%rax
ffffffff801032dc:	88 10                	mov    %dl,(%rax)
ffffffff801032de:	48 8b 45 c8          	mov    -0x38(%rbp),%rax
ffffffff801032e2:	48 8b 40 28          	mov    0x28(%rax),%rax
ffffffff801032e6:	48 8b 90 40 01 00 00 	mov    0x140(%rax),%rdx
ffffffff801032ed:	8b 45 d0             	mov    -0x30(%rbp),%eax
ffffffff801032f0:	89 c6                	mov    %eax,%esi
ffffffff801032f2:	48 8b 4d f8          	mov    -0x8(%rbp),%rcx
ffffffff801032f6:	48 8b 45 c8          	mov    -0x38(%rbp),%rax
ffffffff801032fa:	48 89 c7             	mov    %rax,%rdi
ffffffff801032fd:	e8 d8 79 00 00       	callq  ffffffff8010acda <partition_write>
ffffffff80103302:	0f b7 45 dc          	movzwl -0x24(%rbp),%eax
ffffffff80103306:	83 c0 01             	add    $0x1,%eax
ffffffff80103309:	66 89 45 dc          	mov    %ax,-0x24(%rbp)
ffffffff8010330d:	8b 55 f4             	mov    -0xc(%rbp),%edx
ffffffff80103310:	48 8b 45 c8          	mov    -0x38(%rbp),%rax
ffffffff80103314:	ff 75 e8             	pushq  -0x18(%rbp)
ffffffff80103317:	ff 75 e0             	pushq  -0x20(%rbp)
ffffffff8010331a:	ff 75 d8             	pushq  -0x28(%rbp)
ffffffff8010331d:	ff 75 d0             	pushq  -0x30(%rbp)
ffffffff80103320:	89 d6                	mov    %edx,%esi
ffffffff80103322:	48 89 c7             	mov    %rax,%rdi
ffffffff80103325:	e8 62 f8 ff ff       	callq  ffffffff80102b8c <write_bgd>
ffffffff8010332a:	48 83 c4 20          	add    $0x20,%rsp
ffffffff8010332e:	48 8b 45 f8          	mov    -0x8(%rbp),%rax
ffffffff80103332:	48 89 c7             	mov    %rax,%rdi
ffffffff80103335:	e8 ee ef ff ff       	callq  ffffffff80102328 <kfree>
ffffffff8010333a:	c9                   	leaveq 
ffffffff8010333b:	c3                   	retq   

ffffffff8010333c <alloc_block>:
ffffffff8010333c:	55                   	push   %rbp
ffffffff8010333d:	48 89 e5             	mov    %rsp,%rbp
ffffffff80103340:	48 83 ec 40          	sub    $0x40,%rsp
ffffffff80103344:	48 89 7d c8          	mov    %rdi,-0x38(%rbp)
ffffffff80103348:	89 75 c4             	mov    %esi,-0x3c(%rbp)
ffffffff8010334b:	48 8b 45 c8          	mov    -0x38(%rbp),%rax
ffffffff8010334f:	48 8b 40 28          	mov    0x28(%rax),%rax
ffffffff80103353:	48 8b 80 40 01 00 00 	mov    0x140(%rax),%rax
ffffffff8010335a:	48 89 c7             	mov    %rax,%rdi
ffffffff8010335d:	e8 32 f1 ff ff       	callq  ffffffff80102494 <kcalloc>
ffffffff80103362:	48 89 45 f8          	mov    %rax,-0x8(%rbp)
ffffffff80103366:	48 8b 45 c8          	mov    -0x38(%rbp),%rax
ffffffff8010336a:	48 8b 40 28          	mov    0x28(%rax),%rax
ffffffff8010336e:	8b 78 20             	mov    0x20(%rax),%edi
ffffffff80103371:	8b 45 c4             	mov    -0x3c(%rbp),%eax
ffffffff80103374:	ba 00 00 00 00       	mov    $0x0,%edx
ffffffff80103379:	f7 f7                	div    %edi
ffffffff8010337b:	89 45 f4             	mov    %eax,-0xc(%rbp)
ffffffff8010337e:	48 8b 45 c8          	mov    -0x38(%rbp),%rax
ffffffff80103382:	48 8b 40 28          	mov    0x28(%rax),%rax
ffffffff80103386:	8b 78 20             	mov    0x20(%rax),%edi
ffffffff80103389:	8b 45 c4             	mov    -0x3c(%rbp),%eax
ffffffff8010338c:	ba 00 00 00 00       	mov    $0x0,%edx
ffffffff80103391:	f7 f7                	div    %edi
ffffffff80103393:	89 c2                	mov    %eax,%edx
ffffffff80103395:	8b 45 c4             	mov    -0x3c(%rbp),%eax
ffffffff80103398:	29 d0                	sub    %edx,%eax
ffffffff8010339a:	89 45 f0             	mov    %eax,-0x10(%rbp)
ffffffff8010339d:	48 8d 45 d0          	lea    -0x30(%rbp),%rax
ffffffff801033a1:	8b 55 f4             	mov    -0xc(%rbp),%edx
ffffffff801033a4:	48 8b 4d c8          	mov    -0x38(%rbp),%rcx
ffffffff801033a8:	48 89 ce             	mov    %rcx,%rsi
ffffffff801033ab:	48 89 c7             	mov    %rax,%rdi
ffffffff801033ae:	e8 14 f7 ff ff       	callq  ffffffff80102ac7 <read_bgd>
ffffffff801033b3:	48 8b 45 c8          	mov    -0x38(%rbp),%rax
ffffffff801033b7:	48 8b 40 28          	mov    0x28(%rax),%rax
ffffffff801033bb:	48 8b 90 40 01 00 00 	mov    0x140(%rax),%rdx
ffffffff801033c2:	8b 45 d0             	mov    -0x30(%rbp),%eax
ffffffff801033c5:	89 c6                	mov    %eax,%esi
ffffffff801033c7:	48 8b 4d f8          	mov    -0x8(%rbp),%rcx
ffffffff801033cb:	48 8b 45 c8          	mov    -0x38(%rbp),%rax
ffffffff801033cf:	48 89 c7             	mov    %rax,%rdi
ffffffff801033d2:	e8 b0 78 00 00       	callq  ffffffff8010ac87 <partition_read>
ffffffff801033d7:	8b 45 f0             	mov    -0x10(%rbp),%eax
ffffffff801033da:	c1 e8 03             	shr    $0x3,%eax
ffffffff801033dd:	89 c2                	mov    %eax,%edx
ffffffff801033df:	48 8b 45 f8          	mov    -0x8(%rbp),%rax
ffffffff801033e3:	48 01 d0             	add    %rdx,%rax
ffffffff801033e6:	0f b6 00             	movzbl (%rax),%eax
ffffffff801033e9:	0f b6 d0             	movzbl %al,%edx
ffffffff801033ec:	8b 45 f0             	mov    -0x10(%rbp),%eax
ffffffff801033ef:	83 e0 07             	and    $0x7,%eax
ffffffff801033f2:	89 c1                	mov    %eax,%ecx
ffffffff801033f4:	d3 fa                	sar    %cl,%edx
ffffffff801033f6:	89 d0                	mov    %edx,%eax
ffffffff801033f8:	83 e0 01             	and    $0x1,%eax
ffffffff801033fb:	85 c0                	test   %eax,%eax
ffffffff801033fd:	74 11                	je     ffffffff80103410 <alloc_block+0xd4>
ffffffff801033ff:	48 8b 45 f8          	mov    -0x8(%rbp),%rax
ffffffff80103403:	48 89 c7             	mov    %rax,%rdi
ffffffff80103406:	e8 1d ef ff ff       	callq  ffffffff80102328 <kfree>
ffffffff8010340b:	e9 96 00 00 00       	jmpq   ffffffff801034a6 <alloc_block+0x16a>
ffffffff80103410:	8b 45 f0             	mov    -0x10(%rbp),%eax
ffffffff80103413:	c1 e8 03             	shr    $0x3,%eax
ffffffff80103416:	89 c2                	mov    %eax,%edx
ffffffff80103418:	48 8b 45 f8          	mov    -0x8(%rbp),%rax
ffffffff8010341c:	48 01 d0             	add    %rdx,%rax
ffffffff8010341f:	0f b6 00             	movzbl (%rax),%eax
ffffffff80103422:	89 c6                	mov    %eax,%esi
ffffffff80103424:	8b 45 f0             	mov    -0x10(%rbp),%eax
ffffffff80103427:	83 e0 07             	and    $0x7,%eax
ffffffff8010342a:	ba 01 00 00 00       	mov    $0x1,%edx
ffffffff8010342f:	89 c1                	mov    %eax,%ecx
ffffffff80103431:	d3 e2                	shl    %cl,%edx
ffffffff80103433:	89 d0                	mov    %edx,%eax
ffffffff80103435:	09 c6                	or     %eax,%esi
ffffffff80103437:	89 f2                	mov    %esi,%edx
ffffffff80103439:	8b 45 f0             	mov    -0x10(%rbp),%eax
ffffffff8010343c:	c1 e8 03             	shr    $0x3,%eax
ffffffff8010343f:	89 c1                	mov    %eax,%ecx
ffffffff80103441:	48 8b 45 f8          	mov    -0x8(%rbp),%rax
ffffffff80103445:	48 01 c8             	add    %rcx,%rax
ffffffff80103448:	88 10                	mov    %dl,(%rax)
ffffffff8010344a:	48 8b 45 c8          	mov    -0x38(%rbp),%rax
ffffffff8010344e:	48 8b 40 28          	mov    0x28(%rax),%rax
ffffffff80103452:	48 8b 90 40 01 00 00 	mov    0x140(%rax),%rdx
ffffffff80103459:	8b 45 d0             	mov    -0x30(%rbp),%eax
ffffffff8010345c:	89 c6                	mov    %eax,%esi
ffffffff8010345e:	48 8b 4d f8          	mov    -0x8(%rbp),%rcx
ffffffff80103462:	48 8b 45 c8          	mov    -0x38(%rbp),%rax
ffffffff80103466:	48 89 c7             	mov    %rax,%rdi
ffffffff80103469:	e8 6c 78 00 00       	callq  ffffffff8010acda <partition_write>
ffffffff8010346e:	0f b7 45 dc          	movzwl -0x24(%rbp),%eax
ffffffff80103472:	83 c0 01             	add    $0x1,%eax
ffffffff80103475:	66 89 45 dc          	mov    %ax,-0x24(%rbp)
ffffffff80103479:	8b 55 f4             	mov    -0xc(%rbp),%edx
ffffffff8010347c:	48 8b 45 c8          	mov    -0x38(%rbp),%rax
ffffffff80103480:	ff 75 e8             	pushq  -0x18(%rbp)
ffffffff80103483:	ff 75 e0             	pushq  -0x20(%rbp)
ffffffff80103486:	ff 75 d8             	pushq  -0x28(%rbp)
ffffffff80103489:	ff 75 d0             	pushq  -0x30(%rbp)
ffffffff8010348c:	89 d6                	mov    %edx,%esi
ffffffff8010348e:	48 89 c7             	mov    %rax,%rdi
ffffffff80103491:	e8 f6 f6 ff ff       	callq  ffffffff80102b8c <write_bgd>
ffffffff80103496:	48 83 c4 20          	add    $0x20,%rsp
ffffffff8010349a:	48 8b 45 f8          	mov    -0x8(%rbp),%rax
ffffffff8010349e:	48 89 c7             	mov    %rax,%rdi
ffffffff801034a1:	e8 82 ee ff ff       	callq  ffffffff80102328 <kfree>
ffffffff801034a6:	c9                   	leaveq 
ffffffff801034a7:	c3                   	retq   

ffffffff801034a8 <alloc_inode>:
ffffffff801034a8:	55                   	push   %rbp
ffffffff801034a9:	48 89 e5             	mov    %rsp,%rbp
ffffffff801034ac:	48 83 ec 50          	sub    $0x50,%rsp
ffffffff801034b0:	48 89 7d b8          	mov    %rdi,-0x48(%rbp)
ffffffff801034b4:	48 8b 45 b8          	mov    -0x48(%rbp),%rax
ffffffff801034b8:	48 8b 40 28          	mov    0x28(%rax),%rax
ffffffff801034bc:	48 8b 80 40 01 00 00 	mov    0x140(%rax),%rax
ffffffff801034c3:	48 89 c7             	mov    %rax,%rdi
ffffffff801034c6:	e8 c9 ef ff ff       	callq  ffffffff80102494 <kcalloc>
ffffffff801034cb:	48 89 45 f0          	mov    %rax,-0x10(%rbp)
ffffffff801034cf:	c7 45 fc 00 00 00 00 	movl   $0x0,-0x4(%rbp)
ffffffff801034d6:	e9 61 01 00 00       	jmpq   ffffffff8010363c <alloc_inode+0x194>
ffffffff801034db:	48 8d 45 cc          	lea    -0x34(%rbp),%rax
ffffffff801034df:	8b 55 fc             	mov    -0x4(%rbp),%edx
ffffffff801034e2:	48 8b 4d b8          	mov    -0x48(%rbp),%rcx
ffffffff801034e6:	48 89 ce             	mov    %rcx,%rsi
ffffffff801034e9:	48 89 c7             	mov    %rax,%rdi
ffffffff801034ec:	e8 d6 f5 ff ff       	callq  ffffffff80102ac7 <read_bgd>
ffffffff801034f1:	0f b7 45 da          	movzwl -0x26(%rbp),%eax
ffffffff801034f5:	66 85 c0             	test   %ax,%ax
ffffffff801034f8:	0f 84 39 01 00 00    	je     ffffffff80103637 <alloc_inode+0x18f>
ffffffff801034fe:	48 8b 45 b8          	mov    -0x48(%rbp),%rax
ffffffff80103502:	48 8b 40 28          	mov    0x28(%rax),%rax
ffffffff80103506:	48 8b 90 40 01 00 00 	mov    0x140(%rax),%rdx
ffffffff8010350d:	8b 45 d0             	mov    -0x30(%rbp),%eax
ffffffff80103510:	89 c6                	mov    %eax,%esi
ffffffff80103512:	48 8b 4d f0          	mov    -0x10(%rbp),%rcx
ffffffff80103516:	48 8b 45 b8          	mov    -0x48(%rbp),%rax
ffffffff8010351a:	48 89 c7             	mov    %rax,%rdi
ffffffff8010351d:	e8 65 77 00 00       	callq  ffffffff8010ac87 <partition_read>
ffffffff80103522:	c7 45 ec 00 00 00 00 	movl   $0x0,-0x14(%rbp)
ffffffff80103529:	e9 ec 00 00 00       	jmpq   ffffffff8010361a <alloc_inode+0x172>
ffffffff8010352e:	8b 45 ec             	mov    -0x14(%rbp),%eax
ffffffff80103531:	c1 e8 03             	shr    $0x3,%eax
ffffffff80103534:	89 c2                	mov    %eax,%edx
ffffffff80103536:	48 8b 45 f0          	mov    -0x10(%rbp),%rax
ffffffff8010353a:	48 01 d0             	add    %rdx,%rax
ffffffff8010353d:	0f b6 00             	movzbl (%rax),%eax
ffffffff80103540:	0f b6 d0             	movzbl %al,%edx
ffffffff80103543:	8b 45 ec             	mov    -0x14(%rbp),%eax
ffffffff80103546:	83 e0 07             	and    $0x7,%eax
ffffffff80103549:	89 c1                	mov    %eax,%ecx
ffffffff8010354b:	d3 fa                	sar    %cl,%edx
ffffffff8010354d:	89 d0                	mov    %edx,%eax
ffffffff8010354f:	83 e0 01             	and    $0x1,%eax
ffffffff80103552:	85 c0                	test   %eax,%eax
ffffffff80103554:	0f 85 bc 00 00 00    	jne    ffffffff80103616 <alloc_inode+0x16e>
ffffffff8010355a:	8b 45 ec             	mov    -0x14(%rbp),%eax
ffffffff8010355d:	c1 e8 03             	shr    $0x3,%eax
ffffffff80103560:	89 c2                	mov    %eax,%edx
ffffffff80103562:	48 8b 45 f0          	mov    -0x10(%rbp),%rax
ffffffff80103566:	48 01 d0             	add    %rdx,%rax
ffffffff80103569:	0f b6 00             	movzbl (%rax),%eax
ffffffff8010356c:	89 c6                	mov    %eax,%esi
ffffffff8010356e:	8b 45 ec             	mov    -0x14(%rbp),%eax
ffffffff80103571:	83 e0 07             	and    $0x7,%eax
ffffffff80103574:	ba 01 00 00 00       	mov    $0x1,%edx
ffffffff80103579:	89 c1                	mov    %eax,%ecx
ffffffff8010357b:	d3 e2                	shl    %cl,%edx
ffffffff8010357d:	89 d0                	mov    %edx,%eax
ffffffff8010357f:	09 c6                	or     %eax,%esi
ffffffff80103581:	89 f2                	mov    %esi,%edx
ffffffff80103583:	8b 45 ec             	mov    -0x14(%rbp),%eax
ffffffff80103586:	c1 e8 03             	shr    $0x3,%eax
ffffffff80103589:	89 c1                	mov    %eax,%ecx
ffffffff8010358b:	48 8b 45 f0          	mov    -0x10(%rbp),%rax
ffffffff8010358f:	48 01 c8             	add    %rcx,%rax
ffffffff80103592:	88 10                	mov    %dl,(%rax)
ffffffff80103594:	48 8b 45 b8          	mov    -0x48(%rbp),%rax
ffffffff80103598:	48 8b 40 28          	mov    0x28(%rax),%rax
ffffffff8010359c:	48 8b 90 40 01 00 00 	mov    0x140(%rax),%rdx
ffffffff801035a3:	8b 45 d0             	mov    -0x30(%rbp),%eax
ffffffff801035a6:	89 c6                	mov    %eax,%esi
ffffffff801035a8:	48 8b 4d f0          	mov    -0x10(%rbp),%rcx
ffffffff801035ac:	48 8b 45 b8          	mov    -0x48(%rbp),%rax
ffffffff801035b0:	48 89 c7             	mov    %rax,%rdi
ffffffff801035b3:	e8 22 77 00 00       	callq  ffffffff8010acda <partition_write>
ffffffff801035b8:	0f b7 45 da          	movzwl -0x26(%rbp),%eax
ffffffff801035bc:	83 e8 01             	sub    $0x1,%eax
ffffffff801035bf:	66 89 45 da          	mov    %ax,-0x26(%rbp)
ffffffff801035c3:	8b 4d fc             	mov    -0x4(%rbp),%ecx
ffffffff801035c6:	48 8b 55 b8          	mov    -0x48(%rbp),%rdx
ffffffff801035ca:	48 83 ec 20          	sub    $0x20,%rsp
ffffffff801035ce:	48 89 e0             	mov    %rsp,%rax
ffffffff801035d1:	48 8b 75 cc          	mov    -0x34(%rbp),%rsi
ffffffff801035d5:	48 89 30             	mov    %rsi,(%rax)
ffffffff801035d8:	48 8b 75 d4          	mov    -0x2c(%rbp),%rsi
ffffffff801035dc:	48 89 70 08          	mov    %rsi,0x8(%rax)
ffffffff801035e0:	48 8b 75 dc          	mov    -0x24(%rbp),%rsi
ffffffff801035e4:	48 89 70 10          	mov    %rsi,0x10(%rax)
ffffffff801035e8:	48 8b 75 e4          	mov    -0x1c(%rbp),%rsi
ffffffff801035ec:	48 89 70 18          	mov    %rsi,0x18(%rax)
ffffffff801035f0:	89 ce                	mov    %ecx,%esi
ffffffff801035f2:	48 89 d7             	mov    %rdx,%rdi
ffffffff801035f5:	e8 92 f5 ff ff       	callq  ffffffff80102b8c <write_bgd>
ffffffff801035fa:	48 83 c4 20          	add    $0x20,%rsp
ffffffff801035fe:	48 8b 45 b8          	mov    -0x48(%rbp),%rax
ffffffff80103602:	48 8b 40 28          	mov    0x28(%rax),%rax
ffffffff80103606:	8b 40 28             	mov    0x28(%rax),%eax
ffffffff80103609:	0f af 45 fc          	imul   -0x4(%rbp),%eax
ffffffff8010360d:	89 c2                	mov    %eax,%edx
ffffffff8010360f:	8b 45 ec             	mov    -0x14(%rbp),%eax
ffffffff80103612:	01 d0                	add    %edx,%eax
ffffffff80103614:	eb 42                	jmp    ffffffff80103658 <alloc_inode+0x1b0>
ffffffff80103616:	83 45 fc 01          	addl   $0x1,-0x4(%rbp)
ffffffff8010361a:	8b 55 ec             	mov    -0x14(%rbp),%edx
ffffffff8010361d:	48 8b 45 b8          	mov    -0x48(%rbp),%rax
ffffffff80103621:	48 8b 40 28          	mov    0x28(%rax),%rax
ffffffff80103625:	48 8b 80 40 01 00 00 	mov    0x140(%rax),%rax
ffffffff8010362c:	48 39 c2             	cmp    %rax,%rdx
ffffffff8010362f:	0f 82 f9 fe ff ff    	jb     ffffffff8010352e <alloc_inode+0x86>
ffffffff80103635:	eb 01                	jmp    ffffffff80103638 <alloc_inode+0x190>
ffffffff80103637:	90                   	nop
ffffffff80103638:	83 45 fc 01          	addl   $0x1,-0x4(%rbp)
ffffffff8010363c:	48 8b 45 b8          	mov    -0x48(%rbp),%rax
ffffffff80103640:	48 8b 40 28          	mov    0x28(%rax),%rax
ffffffff80103644:	8b 80 50 01 00 00    	mov    0x150(%rax),%eax
ffffffff8010364a:	39 45 fc             	cmp    %eax,-0x4(%rbp)
ffffffff8010364d:	0f 82 88 fe ff ff    	jb     ffffffff801034db <alloc_inode+0x33>
ffffffff80103653:	b8 ff ff ff ff       	mov    $0xffffffff,%eax
ffffffff80103658:	c9                   	leaveq 
ffffffff80103659:	c3                   	retq   

ffffffff8010365a <free_inode>:
ffffffff8010365a:	55                   	push   %rbp
ffffffff8010365b:	48 89 e5             	mov    %rsp,%rbp
ffffffff8010365e:	48 83 ec 40          	sub    $0x40,%rsp
ffffffff80103662:	48 89 7d c8          	mov    %rdi,-0x38(%rbp)
ffffffff80103666:	89 75 c4             	mov    %esi,-0x3c(%rbp)
ffffffff80103669:	48 8b 45 c8          	mov    -0x38(%rbp),%rax
ffffffff8010366d:	48 8b 40 28          	mov    0x28(%rax),%rax
ffffffff80103671:	48 8b 80 40 01 00 00 	mov    0x140(%rax),%rax
ffffffff80103678:	48 89 c7             	mov    %rax,%rdi
ffffffff8010367b:	e8 14 ee ff ff       	callq  ffffffff80102494 <kcalloc>
ffffffff80103680:	48 89 45 f8          	mov    %rax,-0x8(%rbp)
ffffffff80103684:	48 8b 45 c8          	mov    -0x38(%rbp),%rax
ffffffff80103688:	48 8b 40 28          	mov    0x28(%rax),%rax
ffffffff8010368c:	8b 78 28             	mov    0x28(%rax),%edi
ffffffff8010368f:	8b 45 c4             	mov    -0x3c(%rbp),%eax
ffffffff80103692:	ba 00 00 00 00       	mov    $0x0,%edx
ffffffff80103697:	f7 f7                	div    %edi
ffffffff80103699:	89 45 f4             	mov    %eax,-0xc(%rbp)
ffffffff8010369c:	48 8b 45 c8          	mov    -0x38(%rbp),%rax
ffffffff801036a0:	48 8b 40 28          	mov    0x28(%rax),%rax
ffffffff801036a4:	8b 78 28             	mov    0x28(%rax),%edi
ffffffff801036a7:	8b 45 c4             	mov    -0x3c(%rbp),%eax
ffffffff801036aa:	ba 00 00 00 00       	mov    $0x0,%edx
ffffffff801036af:	f7 f7                	div    %edi
ffffffff801036b1:	89 c2                	mov    %eax,%edx
ffffffff801036b3:	8b 45 c4             	mov    -0x3c(%rbp),%eax
ffffffff801036b6:	29 d0                	sub    %edx,%eax
ffffffff801036b8:	89 45 f0             	mov    %eax,-0x10(%rbp)
ffffffff801036bb:	48 8d 45 d0          	lea    -0x30(%rbp),%rax
ffffffff801036bf:	8b 55 f4             	mov    -0xc(%rbp),%edx
ffffffff801036c2:	48 8b 4d c8          	mov    -0x38(%rbp),%rcx
ffffffff801036c6:	48 89 ce             	mov    %rcx,%rsi
ffffffff801036c9:	48 89 c7             	mov    %rax,%rdi
ffffffff801036cc:	e8 f6 f3 ff ff       	callq  ffffffff80102ac7 <read_bgd>
ffffffff801036d1:	48 8b 45 c8          	mov    -0x38(%rbp),%rax
ffffffff801036d5:	48 8b 40 28          	mov    0x28(%rax),%rax
ffffffff801036d9:	48 8b 90 40 01 00 00 	mov    0x140(%rax),%rdx
ffffffff801036e0:	8b 45 d4             	mov    -0x2c(%rbp),%eax
ffffffff801036e3:	89 c6                	mov    %eax,%esi
ffffffff801036e5:	48 8b 4d f8          	mov    -0x8(%rbp),%rcx
ffffffff801036e9:	48 8b 45 c8          	mov    -0x38(%rbp),%rax
ffffffff801036ed:	48 89 c7             	mov    %rax,%rdi
ffffffff801036f0:	e8 92 75 00 00       	callq  ffffffff8010ac87 <partition_read>
ffffffff801036f5:	8b 45 f0             	mov    -0x10(%rbp),%eax
ffffffff801036f8:	c1 e8 03             	shr    $0x3,%eax
ffffffff801036fb:	89 c2                	mov    %eax,%edx
ffffffff801036fd:	48 8b 45 f8          	mov    -0x8(%rbp),%rax
ffffffff80103701:	48 01 d0             	add    %rdx,%rax
ffffffff80103704:	0f b6 00             	movzbl (%rax),%eax
ffffffff80103707:	0f b6 d0             	movzbl %al,%edx
ffffffff8010370a:	8b 45 f0             	mov    -0x10(%rbp),%eax
ffffffff8010370d:	83 e0 07             	and    $0x7,%eax
ffffffff80103710:	89 c1                	mov    %eax,%ecx
ffffffff80103712:	d3 fa                	sar    %cl,%edx
ffffffff80103714:	89 d0                	mov    %edx,%eax
ffffffff80103716:	83 e0 01             	and    $0x1,%eax
ffffffff80103719:	85 c0                	test   %eax,%eax
ffffffff8010371b:	75 11                	jne    ffffffff8010372e <free_inode+0xd4>
ffffffff8010371d:	48 8b 45 f8          	mov    -0x8(%rbp),%rax
ffffffff80103721:	48 89 c7             	mov    %rax,%rdi
ffffffff80103724:	e8 ff eb ff ff       	callq  ffffffff80102328 <kfree>
ffffffff80103729:	e9 98 00 00 00       	jmpq   ffffffff801037c6 <free_inode+0x16c>
ffffffff8010372e:	8b 45 f0             	mov    -0x10(%rbp),%eax
ffffffff80103731:	c1 e8 03             	shr    $0x3,%eax
ffffffff80103734:	89 c2                	mov    %eax,%edx
ffffffff80103736:	48 8b 45 f8          	mov    -0x8(%rbp),%rax
ffffffff8010373a:	48 01 d0             	add    %rdx,%rax
ffffffff8010373d:	0f b6 00             	movzbl (%rax),%eax
ffffffff80103740:	89 c6                	mov    %eax,%esi
ffffffff80103742:	8b 45 f0             	mov    -0x10(%rbp),%eax
ffffffff80103745:	83 e0 07             	and    $0x7,%eax
ffffffff80103748:	ba 01 00 00 00       	mov    $0x1,%edx
ffffffff8010374d:	89 c1                	mov    %eax,%ecx
ffffffff8010374f:	d3 e2                	shl    %cl,%edx
ffffffff80103751:	89 d0                	mov    %edx,%eax
ffffffff80103753:	f7 d0                	not    %eax
ffffffff80103755:	21 c6                	and    %eax,%esi
ffffffff80103757:	89 f2                	mov    %esi,%edx
ffffffff80103759:	8b 45 f0             	mov    -0x10(%rbp),%eax
ffffffff8010375c:	c1 e8 03             	shr    $0x3,%eax
ffffffff8010375f:	89 c1                	mov    %eax,%ecx
ffffffff80103761:	48 8b 45 f8          	mov    -0x8(%rbp),%rax
ffffffff80103765:	48 01 c8             	add    %rcx,%rax
ffffffff80103768:	88 10                	mov    %dl,(%rax)
ffffffff8010376a:	48 8b 45 c8          	mov    -0x38(%rbp),%rax
ffffffff8010376e:	48 8b 40 28          	mov    0x28(%rax),%rax
ffffffff80103772:	48 8b 90 40 01 00 00 	mov    0x140(%rax),%rdx
ffffffff80103779:	8b 45 d4             	mov    -0x2c(%rbp),%eax
ffffffff8010377c:	89 c6                	mov    %eax,%esi
ffffffff8010377e:	48 8b 4d f8          	mov    -0x8(%rbp),%rcx
ffffffff80103782:	48 8b 45 c8          	mov    -0x38(%rbp),%rax
ffffffff80103786:	48 89 c7             	mov    %rax,%rdi
ffffffff80103789:	e8 4c 75 00 00       	callq  ffffffff8010acda <partition_write>
ffffffff8010378e:	0f b7 45 de          	movzwl -0x22(%rbp),%eax
ffffffff80103792:	83 c0 01             	add    $0x1,%eax
ffffffff80103795:	66 89 45 de          	mov    %ax,-0x22(%rbp)
ffffffff80103799:	8b 55 f4             	mov    -0xc(%rbp),%edx
ffffffff8010379c:	48 8b 45 c8          	mov    -0x38(%rbp),%rax
ffffffff801037a0:	ff 75 e8             	pushq  -0x18(%rbp)
ffffffff801037a3:	ff 75 e0             	pushq  -0x20(%rbp)
ffffffff801037a6:	ff 75 d8             	pushq  -0x28(%rbp)
ffffffff801037a9:	ff 75 d0             	pushq  -0x30(%rbp)
ffffffff801037ac:	89 d6                	mov    %edx,%esi
ffffffff801037ae:	48 89 c7             	mov    %rax,%rdi
ffffffff801037b1:	e8 d6 f3 ff ff       	callq  ffffffff80102b8c <write_bgd>
ffffffff801037b6:	48 83 c4 20          	add    $0x20,%rsp
ffffffff801037ba:	48 8b 45 f8          	mov    -0x8(%rbp),%rax
ffffffff801037be:	48 89 c7             	mov    %rax,%rdi
ffffffff801037c1:	e8 62 eb ff ff       	callq  ffffffff80102328 <kfree>
ffffffff801037c6:	c9                   	leaveq 
ffffffff801037c7:	c3                   	retq   

ffffffff801037c8 <delete_dir_entry>:
ffffffff801037c8:	55                   	push   %rbp
ffffffff801037c9:	48 89 e5             	mov    %rsp,%rbp
ffffffff801037cc:	48 83 ec 30          	sub    $0x30,%rsp
ffffffff801037d0:	48 89 7d d8          	mov    %rdi,-0x28(%rbp)
ffffffff801037d4:	48 89 75 d0          	mov    %rsi,-0x30(%rbp)
ffffffff801037d8:	8b 45 14             	mov    0x14(%rbp),%eax
ffffffff801037db:	89 c0                	mov    %eax,%eax
ffffffff801037dd:	48 89 c7             	mov    %rax,%rdi
ffffffff801037e0:	e8 97 e9 ff ff       	callq  ffffffff8010217c <kmalloc>
ffffffff801037e5:	48 89 45 f0          	mov    %rax,-0x10(%rbp)
ffffffff801037e9:	8b 45 14             	mov    0x14(%rbp),%eax
ffffffff801037ec:	89 c6                	mov    %eax,%esi
ffffffff801037ee:	48 8b 55 f0          	mov    -0x10(%rbp),%rdx
ffffffff801037f2:	48 8b 7d d8          	mov    -0x28(%rbp),%rdi
ffffffff801037f6:	48 83 ec 08          	sub    $0x8,%rsp
ffffffff801037fa:	48 83 ec 78          	sub    $0x78,%rsp
ffffffff801037fe:	48 89 e0             	mov    %rsp,%rax
ffffffff80103801:	48 8b 4d 10          	mov    0x10(%rbp),%rcx
ffffffff80103805:	48 89 08             	mov    %rcx,(%rax)
ffffffff80103808:	48 8b 4d 18          	mov    0x18(%rbp),%rcx
ffffffff8010380c:	48 89 48 08          	mov    %rcx,0x8(%rax)
ffffffff80103810:	48 8b 4d 20          	mov    0x20(%rbp),%rcx
ffffffff80103814:	48 89 48 10          	mov    %rcx,0x10(%rax)
ffffffff80103818:	48 8b 4d 28          	mov    0x28(%rbp),%rcx
ffffffff8010381c:	48 89 48 18          	mov    %rcx,0x18(%rax)
ffffffff80103820:	48 8b 4d 30          	mov    0x30(%rbp),%rcx
ffffffff80103824:	48 89 48 20          	mov    %rcx,0x20(%rax)
ffffffff80103828:	48 8b 4d 38          	mov    0x38(%rbp),%rcx
ffffffff8010382c:	48 89 48 28          	mov    %rcx,0x28(%rax)
ffffffff80103830:	48 8b 4d 40          	mov    0x40(%rbp),%rcx
ffffffff80103834:	48 89 48 30          	mov    %rcx,0x30(%rax)
ffffffff80103838:	48 8b 4d 48          	mov    0x48(%rbp),%rcx
ffffffff8010383c:	48 89 48 38          	mov    %rcx,0x38(%rax)
ffffffff80103840:	48 8b 4d 50          	mov    0x50(%rbp),%rcx
ffffffff80103844:	48 89 48 40          	mov    %rcx,0x40(%rax)
ffffffff80103848:	48 8b 4d 58          	mov    0x58(%rbp),%rcx
ffffffff8010384c:	48 89 48 48          	mov    %rcx,0x48(%rax)
ffffffff80103850:	48 8b 4d 60          	mov    0x60(%rbp),%rcx
ffffffff80103854:	48 89 48 50          	mov    %rcx,0x50(%rax)
ffffffff80103858:	48 8b 4d 68          	mov    0x68(%rbp),%rcx
ffffffff8010385c:	48 89 48 58          	mov    %rcx,0x58(%rax)
ffffffff80103860:	48 8b 4d 70          	mov    0x70(%rbp),%rcx
ffffffff80103864:	48 89 48 60          	mov    %rcx,0x60(%rax)
ffffffff80103868:	48 8b 4d 78          	mov    0x78(%rbp),%rcx
ffffffff8010386c:	48 89 48 68          	mov    %rcx,0x68(%rax)
ffffffff80103870:	8b 8d 80 00 00 00    	mov    0x80(%rbp),%ecx
ffffffff80103876:	89 48 70             	mov    %ecx,0x70(%rax)
ffffffff80103879:	48 89 d1             	mov    %rdx,%rcx
ffffffff8010387c:	48 89 f2             	mov    %rsi,%rdx
ffffffff8010387f:	be 00 00 00 00       	mov    $0x0,%esi
ffffffff80103884:	e8 72 f5 ff ff       	callq  ffffffff80102dfb <inode_read>
ffffffff80103889:	48 83 ec 80          	sub    $0xffffffffffffff80,%rsp
ffffffff8010388d:	c7 45 fc 00 00 00 00 	movl   $0x0,-0x4(%rbp)
ffffffff80103894:	e9 25 01 00 00       	jmpq   ffffffff801039be <delete_dir_entry+0x1f6>
ffffffff80103899:	8b 55 fc             	mov    -0x4(%rbp),%edx
ffffffff8010389c:	48 8b 45 f0          	mov    -0x10(%rbp),%rax
ffffffff801038a0:	48 01 d0             	add    %rdx,%rax
ffffffff801038a3:	48 89 45 e8          	mov    %rax,-0x18(%rbp)
ffffffff801038a7:	48 8b 45 d0          	mov    -0x30(%rbp),%rax
ffffffff801038ab:	48 89 c7             	mov    %rax,%rdi
ffffffff801038ae:	e8 9d 4c 00 00       	callq  ffffffff80108550 <strlen>
ffffffff801038b3:	48 89 c2             	mov    %rax,%rdx
ffffffff801038b6:	48 8b 45 e8          	mov    -0x18(%rbp),%rax
ffffffff801038ba:	48 8d 48 08          	lea    0x8(%rax),%rcx
ffffffff801038be:	48 8b 45 d0          	mov    -0x30(%rbp),%rax
ffffffff801038c2:	48 89 c6             	mov    %rax,%rsi
ffffffff801038c5:	48 89 cf             	mov    %rcx,%rdi
ffffffff801038c8:	e8 09 4d 00 00       	callq  ffffffff801085d6 <strncmp>
ffffffff801038cd:	85 c0                	test   %eax,%eax
ffffffff801038cf:	0f 85 c2 00 00 00    	jne    ffffffff80103997 <delete_dir_entry+0x1cf>
ffffffff801038d5:	48 8b 45 e8          	mov    -0x18(%rbp),%rax
ffffffff801038d9:	0f b7 40 04          	movzwl 0x4(%rax),%eax
ffffffff801038dd:	0f b7 d0             	movzwl %ax,%edx
ffffffff801038e0:	48 8b 45 e8          	mov    -0x18(%rbp),%rax
ffffffff801038e4:	be 00 00 00 00       	mov    $0x0,%esi
ffffffff801038e9:	48 89 c7             	mov    %rax,%rdi
ffffffff801038ec:	e8 98 49 00 00       	callq  ffffffff80108289 <memset8>
ffffffff801038f1:	8b 45 14             	mov    0x14(%rbp),%eax
ffffffff801038f4:	89 c6                	mov    %eax,%esi
ffffffff801038f6:	48 8b 55 f0          	mov    -0x10(%rbp),%rdx
ffffffff801038fa:	48 8b 7d d8          	mov    -0x28(%rbp),%rdi
ffffffff801038fe:	48 83 ec 08          	sub    $0x8,%rsp
ffffffff80103902:	48 83 ec 78          	sub    $0x78,%rsp
ffffffff80103906:	48 89 e0             	mov    %rsp,%rax
ffffffff80103909:	48 8b 4d 10          	mov    0x10(%rbp),%rcx
ffffffff8010390d:	48 89 08             	mov    %rcx,(%rax)
ffffffff80103910:	48 8b 4d 18          	mov    0x18(%rbp),%rcx
ffffffff80103914:	48 89 48 08          	mov    %rcx,0x8(%rax)
ffffffff80103918:	48 8b 4d 20          	mov    0x20(%rbp),%rcx
ffffffff8010391c:	48 89 48 10          	mov    %rcx,0x10(%rax)
ffffffff80103920:	48 8b 4d 28          	mov    0x28(%rbp),%rcx
ffffffff80103924:	48 89 48 18          	mov    %rcx,0x18(%rax)
ffffffff80103928:	48 8b 4d 30          	mov    0x30(%rbp),%rcx
ffffffff8010392c:	48 89 48 20          	mov    %rcx,0x20(%rax)
ffffffff80103930:	48 8b 4d 38          	mov    0x38(%rbp),%rcx
ffffffff80103934:	48 89 48 28          	mov    %rcx,0x28(%rax)
ffffffff80103938:	48 8b 4d 40          	mov    0x40(%rbp),%rcx
ffffffff8010393c:	48 89 48 30          	mov    %rcx,0x30(%rax)
ffffffff80103940:	48 8b 4d 48          	mov    0x48(%rbp),%rcx
ffffffff80103944:	48 89 48 38          	mov    %rcx,0x38(%rax)
ffffffff80103948:	48 8b 4d 50          	mov    0x50(%rbp),%rcx
ffffffff8010394c:	48 89 48 40          	mov    %rcx,0x40(%rax)
ffffffff80103950:	48 8b 4d 58          	mov    0x58(%rbp),%rcx
ffffffff80103954:	48 89 48 48          	mov    %rcx,0x48(%rax)
ffffffff80103958:	48 8b 4d 60          	mov    0x60(%rbp),%rcx
ffffffff8010395c:	48 89 48 50          	mov    %rcx,0x50(%rax)
ffffffff80103960:	48 8b 4d 68          	mov    0x68(%rbp),%rcx
ffffffff80103964:	48 89 48 58          	mov    %rcx,0x58(%rax)
ffffffff80103968:	48 8b 4d 70          	mov    0x70(%rbp),%rcx
ffffffff8010396c:	48 89 48 60          	mov    %rcx,0x60(%rax)
ffffffff80103970:	48 8b 4d 78          	mov    0x78(%rbp),%rcx
ffffffff80103974:	48 89 48 68          	mov    %rcx,0x68(%rax)
ffffffff80103978:	8b 8d 80 00 00 00    	mov    0x80(%rbp),%ecx
ffffffff8010397e:	89 48 70             	mov    %ecx,0x70(%rax)
ffffffff80103981:	48 89 d1             	mov    %rdx,%rcx
ffffffff80103984:	48 89 f2             	mov    %rsi,%rdx
ffffffff80103987:	be 00 00 00 00       	mov    $0x0,%esi
ffffffff8010398c:	e8 4d f6 ff ff       	callq  ffffffff80102fde <inode_write>
ffffffff80103991:	48 83 ec 80          	sub    $0xffffffffffffff80,%rsp
ffffffff80103995:	eb 33                	jmp    ffffffff801039ca <delete_dir_entry+0x202>
ffffffff80103997:	48 8b 45 e8          	mov    -0x18(%rbp),%rax
ffffffff8010399b:	0f b7 40 04          	movzwl 0x4(%rax),%eax
ffffffff8010399f:	66 85 c0             	test   %ax,%ax
ffffffff801039a2:	74 16                	je     ffffffff801039ba <delete_dir_entry+0x1f2>
ffffffff801039a4:	48 8b 45 e8          	mov    -0x18(%rbp),%rax
ffffffff801039a8:	0f b7 40 04          	movzwl 0x4(%rax),%eax
ffffffff801039ac:	0f b7 d0             	movzwl %ax,%edx
ffffffff801039af:	8b 45 fc             	mov    -0x4(%rbp),%eax
ffffffff801039b2:	01 d0                	add    %edx,%eax
ffffffff801039b4:	83 e8 01             	sub    $0x1,%eax
ffffffff801039b7:	89 45 fc             	mov    %eax,-0x4(%rbp)
ffffffff801039ba:	83 45 fc 01          	addl   $0x1,-0x4(%rbp)
ffffffff801039be:	8b 45 14             	mov    0x14(%rbp),%eax
ffffffff801039c1:	39 45 fc             	cmp    %eax,-0x4(%rbp)
ffffffff801039c4:	0f 82 cf fe ff ff    	jb     ffffffff80103899 <delete_dir_entry+0xd1>
ffffffff801039ca:	c9                   	leaveq 
ffffffff801039cb:	c3                   	retq   

ffffffff801039cc <create_dir_entry>:
ffffffff801039cc:	55                   	push   %rbp
ffffffff801039cd:	48 89 e5             	mov    %rsp,%rbp
ffffffff801039d0:	48 83 ec 40          	sub    $0x40,%rsp
ffffffff801039d4:	48 89 7d d8          	mov    %rdi,-0x28(%rbp)
ffffffff801039d8:	89 75 d4             	mov    %esi,-0x2c(%rbp)
ffffffff801039db:	48 89 55 c8          	mov    %rdx,-0x38(%rbp)
ffffffff801039df:	89 c8                	mov    %ecx,%eax
ffffffff801039e1:	88 45 d0             	mov    %al,-0x30(%rbp)
ffffffff801039e4:	8b 45 14             	mov    0x14(%rbp),%eax
ffffffff801039e7:	89 c0                	mov    %eax,%eax
ffffffff801039e9:	48 89 c7             	mov    %rax,%rdi
ffffffff801039ec:	e8 8b e7 ff ff       	callq  ffffffff8010217c <kmalloc>
ffffffff801039f1:	48 89 45 f0          	mov    %rax,-0x10(%rbp)
ffffffff801039f5:	8b 45 14             	mov    0x14(%rbp),%eax
ffffffff801039f8:	89 c6                	mov    %eax,%esi
ffffffff801039fa:	48 8b 55 f0          	mov    -0x10(%rbp),%rdx
ffffffff801039fe:	48 8b 7d d8          	mov    -0x28(%rbp),%rdi
ffffffff80103a02:	48 83 ec 08          	sub    $0x8,%rsp
ffffffff80103a06:	48 83 ec 78          	sub    $0x78,%rsp
ffffffff80103a0a:	48 89 e0             	mov    %rsp,%rax
ffffffff80103a0d:	48 8b 4d 10          	mov    0x10(%rbp),%rcx
ffffffff80103a11:	48 89 08             	mov    %rcx,(%rax)
ffffffff80103a14:	48 8b 4d 18          	mov    0x18(%rbp),%rcx
ffffffff80103a18:	48 89 48 08          	mov    %rcx,0x8(%rax)
ffffffff80103a1c:	48 8b 4d 20          	mov    0x20(%rbp),%rcx
ffffffff80103a20:	48 89 48 10          	mov    %rcx,0x10(%rax)
ffffffff80103a24:	48 8b 4d 28          	mov    0x28(%rbp),%rcx
ffffffff80103a28:	48 89 48 18          	mov    %rcx,0x18(%rax)
ffffffff80103a2c:	48 8b 4d 30          	mov    0x30(%rbp),%rcx
ffffffff80103a30:	48 89 48 20          	mov    %rcx,0x20(%rax)
ffffffff80103a34:	48 8b 4d 38          	mov    0x38(%rbp),%rcx
ffffffff80103a38:	48 89 48 28          	mov    %rcx,0x28(%rax)
ffffffff80103a3c:	48 8b 4d 40          	mov    0x40(%rbp),%rcx
ffffffff80103a40:	48 89 48 30          	mov    %rcx,0x30(%rax)
ffffffff80103a44:	48 8b 4d 48          	mov    0x48(%rbp),%rcx
ffffffff80103a48:	48 89 48 38          	mov    %rcx,0x38(%rax)
ffffffff80103a4c:	48 8b 4d 50          	mov    0x50(%rbp),%rcx
ffffffff80103a50:	48 89 48 40          	mov    %rcx,0x40(%rax)
ffffffff80103a54:	48 8b 4d 58          	mov    0x58(%rbp),%rcx
ffffffff80103a58:	48 89 48 48          	mov    %rcx,0x48(%rax)
ffffffff80103a5c:	48 8b 4d 60          	mov    0x60(%rbp),%rcx
ffffffff80103a60:	48 89 48 50          	mov    %rcx,0x50(%rax)
ffffffff80103a64:	48 8b 4d 68          	mov    0x68(%rbp),%rcx
ffffffff80103a68:	48 89 48 58          	mov    %rcx,0x58(%rax)
ffffffff80103a6c:	48 8b 4d 70          	mov    0x70(%rbp),%rcx
ffffffff80103a70:	48 89 48 60          	mov    %rcx,0x60(%rax)
ffffffff80103a74:	48 8b 4d 78          	mov    0x78(%rbp),%rcx
ffffffff80103a78:	48 89 48 68          	mov    %rcx,0x68(%rax)
ffffffff80103a7c:	8b 8d 80 00 00 00    	mov    0x80(%rbp),%ecx
ffffffff80103a82:	89 48 70             	mov    %ecx,0x70(%rax)
ffffffff80103a85:	48 89 d1             	mov    %rdx,%rcx
ffffffff80103a88:	48 89 f2             	mov    %rsi,%rdx
ffffffff80103a8b:	be 00 00 00 00       	mov    $0x0,%esi
ffffffff80103a90:	e8 66 f3 ff ff       	callq  ffffffff80102dfb <inode_read>
ffffffff80103a95:	48 83 ec 80          	sub    $0xffffffffffffff80,%rsp
ffffffff80103a99:	c7 45 fc 00 00 00 00 	movl   $0x0,-0x4(%rbp)
ffffffff80103aa0:	c7 45 f8 00 00 00 00 	movl   $0x0,-0x8(%rbp)
ffffffff80103aa7:	e9 98 01 00 00       	jmpq   ffffffff80103c44 <create_dir_entry+0x278>
ffffffff80103aac:	8b 55 f8             	mov    -0x8(%rbp),%edx
ffffffff80103aaf:	48 8b 45 f0          	mov    -0x10(%rbp),%rax
ffffffff80103ab3:	48 01 d0             	add    %rdx,%rax
ffffffff80103ab6:	48 89 45 e8          	mov    %rax,-0x18(%rbp)
ffffffff80103aba:	83 7d fc 00          	cmpl   $0x0,-0x4(%rbp)
ffffffff80103abe:	0f 84 d7 00 00 00    	je     ffffffff80103b9b <create_dir_entry+0x1cf>
ffffffff80103ac4:	48 8b 45 c8          	mov    -0x38(%rbp),%rax
ffffffff80103ac8:	48 89 c7             	mov    %rax,%rdi
ffffffff80103acb:	e8 80 4a 00 00       	callq  ffffffff80108550 <strlen>
ffffffff80103ad0:	89 c2                	mov    %eax,%edx
ffffffff80103ad2:	48 8b 45 e8          	mov    -0x18(%rbp),%rax
ffffffff80103ad6:	88 50 06             	mov    %dl,0x6(%rax)
ffffffff80103ad9:	48 8b 45 e8          	mov    -0x18(%rbp),%rax
ffffffff80103add:	0f b6 55 d0          	movzbl -0x30(%rbp),%edx
ffffffff80103ae1:	88 50 07             	mov    %dl,0x7(%rax)
ffffffff80103ae4:	48 8b 45 e8          	mov    -0x18(%rbp),%rax
ffffffff80103ae8:	8b 55 d4             	mov    -0x2c(%rbp),%edx
ffffffff80103aeb:	89 10                	mov    %edx,(%rax)
ffffffff80103aed:	8b 45 14             	mov    0x14(%rbp),%eax
ffffffff80103af0:	89 c6                	mov    %eax,%esi
ffffffff80103af2:	48 8b 55 f0          	mov    -0x10(%rbp),%rdx
ffffffff80103af6:	48 8b 7d d8          	mov    -0x28(%rbp),%rdi
ffffffff80103afa:	48 83 ec 08          	sub    $0x8,%rsp
ffffffff80103afe:	48 83 ec 78          	sub    $0x78,%rsp
ffffffff80103b02:	48 89 e0             	mov    %rsp,%rax
ffffffff80103b05:	48 8b 4d 10          	mov    0x10(%rbp),%rcx
ffffffff80103b09:	48 89 08             	mov    %rcx,(%rax)
ffffffff80103b0c:	48 8b 4d 18          	mov    0x18(%rbp),%rcx
ffffffff80103b10:	48 89 48 08          	mov    %rcx,0x8(%rax)
ffffffff80103b14:	48 8b 4d 20          	mov    0x20(%rbp),%rcx
ffffffff80103b18:	48 89 48 10          	mov    %rcx,0x10(%rax)
ffffffff80103b1c:	48 8b 4d 28          	mov    0x28(%rbp),%rcx
ffffffff80103b20:	48 89 48 18          	mov    %rcx,0x18(%rax)
ffffffff80103b24:	48 8b 4d 30          	mov    0x30(%rbp),%rcx
ffffffff80103b28:	48 89 48 20          	mov    %rcx,0x20(%rax)
ffffffff80103b2c:	48 8b 4d 38          	mov    0x38(%rbp),%rcx
ffffffff80103b30:	48 89 48 28          	mov    %rcx,0x28(%rax)
ffffffff80103b34:	48 8b 4d 40          	mov    0x40(%rbp),%rcx
ffffffff80103b38:	48 89 48 30          	mov    %rcx,0x30(%rax)
ffffffff80103b3c:	48 8b 4d 48          	mov    0x48(%rbp),%rcx
ffffffff80103b40:	48 89 48 38          	mov    %rcx,0x38(%rax)
ffffffff80103b44:	48 8b 4d 50          	mov    0x50(%rbp),%rcx
ffffffff80103b48:	48 89 48 40          	mov    %rcx,0x40(%rax)
ffffffff80103b4c:	48 8b 4d 58          	mov    0x58(%rbp),%rcx
ffffffff80103b50:	48 89 48 48          	mov    %rcx,0x48(%rax)
ffffffff80103b54:	48 8b 4d 60          	mov    0x60(%rbp),%rcx
ffffffff80103b58:	48 89 48 50          	mov    %rcx,0x50(%rax)
ffffffff80103b5c:	48 8b 4d 68          	mov    0x68(%rbp),%rcx
ffffffff80103b60:	48 89 48 58          	mov    %rcx,0x58(%rax)
ffffffff80103b64:	48 8b 4d 70          	mov    0x70(%rbp),%rcx
ffffffff80103b68:	48 89 48 60          	mov    %rcx,0x60(%rax)
ffffffff80103b6c:	48 8b 4d 78          	mov    0x78(%rbp),%rcx
ffffffff80103b70:	48 89 48 68          	mov    %rcx,0x68(%rax)
ffffffff80103b74:	8b 8d 80 00 00 00    	mov    0x80(%rbp),%ecx
ffffffff80103b7a:	89 48 70             	mov    %ecx,0x70(%rax)
ffffffff80103b7d:	48 89 d1             	mov    %rdx,%rcx
ffffffff80103b80:	48 89 f2             	mov    %rsi,%rdx
ffffffff80103b83:	be 00 00 00 00       	mov    $0x0,%esi
ffffffff80103b88:	e8 51 f4 ff ff       	callq  ffffffff80102fde <inode_write>
ffffffff80103b8d:	48 83 ec 80          	sub    $0xffffffffffffff80,%rsp
ffffffff80103b91:	b8 01 00 00 00       	mov    $0x1,%eax
ffffffff80103b96:	e9 c6 00 00 00       	jmpq   ffffffff80103c61 <create_dir_entry+0x295>
ffffffff80103b9b:	48 8b 45 c8          	mov    -0x38(%rbp),%rax
ffffffff80103b9f:	48 89 c7             	mov    %rax,%rdi
ffffffff80103ba2:	e8 a9 49 00 00       	callq  ffffffff80108550 <strlen>
ffffffff80103ba7:	48 89 c2             	mov    %rax,%rdx
ffffffff80103baa:	48 8b 45 e8          	mov    -0x18(%rbp),%rax
ffffffff80103bae:	48 8d 48 08          	lea    0x8(%rax),%rcx
ffffffff80103bb2:	48 8b 45 c8          	mov    -0x38(%rbp),%rax
ffffffff80103bb6:	48 89 c6             	mov    %rax,%rsi
ffffffff80103bb9:	48 89 cf             	mov    %rcx,%rdi
ffffffff80103bbc:	e8 15 4a 00 00       	callq  ffffffff801085d6 <strncmp>
ffffffff80103bc1:	85 c0                	test   %eax,%eax
ffffffff80103bc3:	75 32                	jne    ffffffff80103bf7 <create_dir_entry+0x22b>
ffffffff80103bc5:	48 8b 45 c8          	mov    -0x38(%rbp),%rax
ffffffff80103bc9:	48 89 c2             	mov    %rax,%rdx
ffffffff80103bcc:	48 c7 c6 b3 c1 10 80 	mov    $0xffffffff8010c1b3,%rsi
ffffffff80103bd3:	48 c7 c7 c5 c1 10 80 	mov    $0xffffffff8010c1c5,%rdi
ffffffff80103bda:	b8 00 00 00 00       	mov    $0x0,%eax
ffffffff80103bdf:	e8 81 4e 00 00       	callq  ffffffff80108a65 <kprintf>
ffffffff80103be4:	48 8b 45 f0          	mov    -0x10(%rbp),%rax
ffffffff80103be8:	48 89 c7             	mov    %rax,%rdi
ffffffff80103beb:	e8 38 e7 ff ff       	callq  ffffffff80102328 <kfree>
ffffffff80103bf0:	b8 00 00 00 00       	mov    $0x0,%eax
ffffffff80103bf5:	eb 6a                	jmp    ffffffff80103c61 <create_dir_entry+0x295>
ffffffff80103bf7:	48 8b 45 e8          	mov    -0x18(%rbp),%rax
ffffffff80103bfb:	0f b6 40 06          	movzbl 0x6(%rax),%eax
ffffffff80103bff:	0f b6 c0             	movzbl %al,%eax
ffffffff80103c02:	83 c0 08             	add    $0x8,%eax
ffffffff80103c05:	89 45 e4             	mov    %eax,-0x1c(%rbp)
ffffffff80103c08:	48 8b 45 e8          	mov    -0x18(%rbp),%rax
ffffffff80103c0c:	0f b7 40 04          	movzwl 0x4(%rax),%eax
ffffffff80103c10:	0f b7 c0             	movzwl %ax,%eax
ffffffff80103c13:	39 45 e4             	cmp    %eax,-0x1c(%rbp)
ffffffff80103c16:	74 17                	je     ffffffff80103c2f <create_dir_entry+0x263>
ffffffff80103c18:	8b 55 e4             	mov    -0x1c(%rbp),%edx
ffffffff80103c1b:	8b 45 f8             	mov    -0x8(%rbp),%eax
ffffffff80103c1e:	01 d0                	add    %edx,%eax
ffffffff80103c20:	83 e8 01             	sub    $0x1,%eax
ffffffff80103c23:	89 45 f8             	mov    %eax,-0x8(%rbp)
ffffffff80103c26:	c7 45 fc 01 00 00 00 	movl   $0x1,-0x4(%rbp)
ffffffff80103c2d:	eb 11                	jmp    ffffffff80103c40 <create_dir_entry+0x274>
ffffffff80103c2f:	48 8b 45 e8          	mov    -0x18(%rbp),%rax
ffffffff80103c33:	0f b7 40 04          	movzwl 0x4(%rax),%eax
ffffffff80103c37:	0f b7 c0             	movzwl %ax,%eax
ffffffff80103c3a:	83 e8 01             	sub    $0x1,%eax
ffffffff80103c3d:	89 45 f8             	mov    %eax,-0x8(%rbp)
ffffffff80103c40:	83 45 f8 01          	addl   $0x1,-0x8(%rbp)
ffffffff80103c44:	8b 45 14             	mov    0x14(%rbp),%eax
ffffffff80103c47:	39 45 f8             	cmp    %eax,-0x8(%rbp)
ffffffff80103c4a:	0f 82 5c fe ff ff    	jb     ffffffff80103aac <create_dir_entry+0xe0>
ffffffff80103c50:	48 8b 45 f0          	mov    -0x10(%rbp),%rax
ffffffff80103c54:	48 89 c7             	mov    %rax,%rdi
ffffffff80103c57:	e8 cc e6 ff ff       	callq  ffffffff80102328 <kfree>
ffffffff80103c5c:	b8 01 00 00 00       	mov    $0x1,%eax
ffffffff80103c61:	c9                   	leaveq 
ffffffff80103c62:	c3                   	retq   

ffffffff80103c63 <read_dir>:
ffffffff80103c63:	55                   	push   %rbp
ffffffff80103c64:	48 89 e5             	mov    %rsp,%rbp
ffffffff80103c67:	48 83 ec 50          	sub    $0x50,%rsp
ffffffff80103c6b:	48 89 7d c8          	mov    %rdi,-0x38(%rbp)
ffffffff80103c6f:	48 89 75 c0          	mov    %rsi,-0x40(%rbp)
ffffffff80103c73:	48 89 55 b8          	mov    %rdx,-0x48(%rbp)
ffffffff80103c77:	48 8b 45 b8          	mov    -0x48(%rbp),%rax
ffffffff80103c7b:	0f b6 00             	movzbl (%rax),%eax
ffffffff80103c7e:	3c 2f                	cmp    $0x2f,%al
ffffffff80103c80:	75 05                	jne    ffffffff80103c87 <read_dir+0x24>
ffffffff80103c82:	48 83 45 b8 01       	addq   $0x1,-0x48(%rbp)
ffffffff80103c87:	8b 45 14             	mov    0x14(%rbp),%eax
ffffffff80103c8a:	89 c0                	mov    %eax,%eax
ffffffff80103c8c:	48 89 c7             	mov    %rax,%rdi
ffffffff80103c8f:	e8 00 e8 ff ff       	callq  ffffffff80102494 <kcalloc>
ffffffff80103c94:	48 89 45 e0          	mov    %rax,-0x20(%rbp)
ffffffff80103c98:	8b 45 14             	mov    0x14(%rbp),%eax
ffffffff80103c9b:	89 c6                	mov    %eax,%esi
ffffffff80103c9d:	48 8b 55 e0          	mov    -0x20(%rbp),%rdx
ffffffff80103ca1:	48 8b 7d c8          	mov    -0x38(%rbp),%rdi
ffffffff80103ca5:	48 83 ec 08          	sub    $0x8,%rsp
ffffffff80103ca9:	48 83 ec 78          	sub    $0x78,%rsp
ffffffff80103cad:	48 89 e0             	mov    %rsp,%rax
ffffffff80103cb0:	48 8b 4d 10          	mov    0x10(%rbp),%rcx
ffffffff80103cb4:	48 89 08             	mov    %rcx,(%rax)
ffffffff80103cb7:	48 8b 4d 18          	mov    0x18(%rbp),%rcx
ffffffff80103cbb:	48 89 48 08          	mov    %rcx,0x8(%rax)
ffffffff80103cbf:	48 8b 4d 20          	mov    0x20(%rbp),%rcx
ffffffff80103cc3:	48 89 48 10          	mov    %rcx,0x10(%rax)
ffffffff80103cc7:	48 8b 4d 28          	mov    0x28(%rbp),%rcx
ffffffff80103ccb:	48 89 48 18          	mov    %rcx,0x18(%rax)
ffffffff80103ccf:	48 8b 4d 30          	mov    0x30(%rbp),%rcx
ffffffff80103cd3:	48 89 48 20          	mov    %rcx,0x20(%rax)
ffffffff80103cd7:	48 8b 4d 38          	mov    0x38(%rbp),%rcx
ffffffff80103cdb:	48 89 48 28          	mov    %rcx,0x28(%rax)
ffffffff80103cdf:	48 8b 4d 40          	mov    0x40(%rbp),%rcx
ffffffff80103ce3:	48 89 48 30          	mov    %rcx,0x30(%rax)
ffffffff80103ce7:	48 8b 4d 48          	mov    0x48(%rbp),%rcx
ffffffff80103ceb:	48 89 48 38          	mov    %rcx,0x38(%rax)
ffffffff80103cef:	48 8b 4d 50          	mov    0x50(%rbp),%rcx
ffffffff80103cf3:	48 89 48 40          	mov    %rcx,0x40(%rax)
ffffffff80103cf7:	48 8b 4d 58          	mov    0x58(%rbp),%rcx
ffffffff80103cfb:	48 89 48 48          	mov    %rcx,0x48(%rax)
ffffffff80103cff:	48 8b 4d 60          	mov    0x60(%rbp),%rcx
ffffffff80103d03:	48 89 48 50          	mov    %rcx,0x50(%rax)
ffffffff80103d07:	48 8b 4d 68          	mov    0x68(%rbp),%rcx
ffffffff80103d0b:	48 89 48 58          	mov    %rcx,0x58(%rax)
ffffffff80103d0f:	48 8b 4d 70          	mov    0x70(%rbp),%rcx
ffffffff80103d13:	48 89 48 60          	mov    %rcx,0x60(%rax)
ffffffff80103d17:	48 8b 4d 78          	mov    0x78(%rbp),%rcx
ffffffff80103d1b:	48 89 48 68          	mov    %rcx,0x68(%rax)
ffffffff80103d1f:	8b 8d 80 00 00 00    	mov    0x80(%rbp),%ecx
ffffffff80103d25:	89 48 70             	mov    %ecx,0x70(%rax)
ffffffff80103d28:	48 89 d1             	mov    %rdx,%rcx
ffffffff80103d2b:	48 89 f2             	mov    %rsi,%rdx
ffffffff80103d2e:	be 00 00 00 00       	mov    $0x0,%esi
ffffffff80103d33:	e8 c3 f0 ff ff       	callq  ffffffff80102dfb <inode_read>
ffffffff80103d38:	48 83 ec 80          	sub    $0xffffffffffffff80,%rsp
ffffffff80103d3c:	c7 45 fc 00 00 00 00 	movl   $0x0,-0x4(%rbp)
ffffffff80103d43:	48 8b 45 b8          	mov    -0x48(%rbp),%rax
ffffffff80103d47:	be 2f 00 00 00       	mov    $0x2f,%esi
ffffffff80103d4c:	48 89 c7             	mov    %rax,%rdi
ffffffff80103d4f:	e8 bc 49 00 00       	callq  ffffffff80108710 <character_cnt>
ffffffff80103d54:	89 45 dc             	mov    %eax,-0x24(%rbp)
ffffffff80103d57:	48 8b 45 b8          	mov    -0x48(%rbp),%rax
ffffffff80103d5b:	48 c7 c6 ca c1 10 80 	mov    $0xffffffff8010c1ca,%rsi
ffffffff80103d62:	48 89 c7             	mov    %rax,%rdi
ffffffff80103d65:	e8 59 4b 00 00       	callq  ffffffff801088c3 <strtok>
ffffffff80103d6a:	48 89 45 f0          	mov    %rax,-0x10(%rbp)
ffffffff80103d6e:	e9 26 02 00 00       	jmpq   ffffffff80103f99 <read_dir+0x336>
ffffffff80103d73:	c7 45 ec 00 00 00 00 	movl   $0x0,-0x14(%rbp)
ffffffff80103d7a:	e9 e9 01 00 00       	jmpq   ffffffff80103f68 <read_dir+0x305>
ffffffff80103d7f:	8b 55 ec             	mov    -0x14(%rbp),%edx
ffffffff80103d82:	48 8b 45 e0          	mov    -0x20(%rbp),%rax
ffffffff80103d86:	48 01 d0             	add    %rdx,%rax
ffffffff80103d89:	48 89 45 d0          	mov    %rax,-0x30(%rbp)
ffffffff80103d8d:	48 8b 45 f0          	mov    -0x10(%rbp),%rax
ffffffff80103d91:	48 89 c7             	mov    %rax,%rdi
ffffffff80103d94:	e8 b7 47 00 00       	callq  ffffffff80108550 <strlen>
ffffffff80103d99:	48 89 c2             	mov    %rax,%rdx
ffffffff80103d9c:	48 8b 45 d0          	mov    -0x30(%rbp),%rax
ffffffff80103da0:	48 8d 48 08          	lea    0x8(%rax),%rcx
ffffffff80103da4:	48 8b 45 f0          	mov    -0x10(%rbp),%rax
ffffffff80103da8:	48 89 c6             	mov    %rax,%rsi
ffffffff80103dab:	48 89 cf             	mov    %rcx,%rdi
ffffffff80103dae:	e8 23 48 00 00       	callq  ffffffff801085d6 <strncmp>
ffffffff80103db3:	85 c0                	test   %eax,%eax
ffffffff80103db5:	75 39                	jne    ffffffff80103df0 <read_dir+0x18d>
ffffffff80103db7:	8b 45 fc             	mov    -0x4(%rbp),%eax
ffffffff80103dba:	3b 45 dc             	cmp    -0x24(%rbp),%eax
ffffffff80103dbd:	75 31                	jne    ffffffff80103df0 <read_dir+0x18d>
ffffffff80103dbf:	48 8b 45 c0          	mov    -0x40(%rbp),%rax
ffffffff80103dc3:	48 8b 55 d0          	mov    -0x30(%rbp),%rdx
ffffffff80103dc7:	48 8b 12             	mov    (%rdx),%rdx
ffffffff80103dca:	48 89 10             	mov    %rdx,(%rax)
ffffffff80103dcd:	90                   	nop
ffffffff80103dce:	48 8b 45 f0          	mov    -0x10(%rbp),%rax
ffffffff80103dd2:	48 89 c7             	mov    %rax,%rdi
ffffffff80103dd5:	e8 4e e5 ff ff       	callq  ffffffff80102328 <kfree>
ffffffff80103dda:	48 8b 45 e0          	mov    -0x20(%rbp),%rax
ffffffff80103dde:	48 89 c7             	mov    %rax,%rdi
ffffffff80103de1:	e8 42 e5 ff ff       	callq  ffffffff80102328 <kfree>
ffffffff80103de6:	b8 01 00 00 00       	mov    $0x1,%eax
ffffffff80103deb:	e9 e4 01 00 00       	jmpq   ffffffff80103fd4 <read_dir+0x371>
ffffffff80103df0:	48 8b 45 f0          	mov    -0x10(%rbp),%rax
ffffffff80103df4:	48 89 c7             	mov    %rax,%rdi
ffffffff80103df7:	e8 54 47 00 00       	callq  ffffffff80108550 <strlen>
ffffffff80103dfc:	48 89 c2             	mov    %rax,%rdx
ffffffff80103dff:	48 8b 45 d0          	mov    -0x30(%rbp),%rax
ffffffff80103e03:	48 8d 48 08          	lea    0x8(%rax),%rcx
ffffffff80103e07:	48 8b 45 f0          	mov    -0x10(%rbp),%rax
ffffffff80103e0b:	48 89 c6             	mov    %rax,%rsi
ffffffff80103e0e:	48 89 cf             	mov    %rcx,%rdi
ffffffff80103e11:	e8 c0 47 00 00       	callq  ffffffff801085d6 <strncmp>
ffffffff80103e16:	85 c0                	test   %eax,%eax
ffffffff80103e18:	0f 85 23 01 00 00    	jne    ffffffff80103f41 <read_dir+0x2de>
ffffffff80103e1e:	48 8b 45 d0          	mov    -0x30(%rbp),%rax
ffffffff80103e22:	8b 10                	mov    (%rax),%edx
ffffffff80103e24:	48 8b 45 c8          	mov    -0x38(%rbp),%rax
ffffffff80103e28:	48 89 c6             	mov    %rax,%rsi
ffffffff80103e2b:	48 8d 7d 10          	lea    0x10(%rbp),%rdi
ffffffff80103e2f:	e8 f0 ed ff ff       	callq  ffffffff80102c24 <read_inode>
ffffffff80103e34:	0f b7 45 10          	movzwl 0x10(%rbp),%eax
ffffffff80103e38:	0f b7 c0             	movzwl %ax,%eax
ffffffff80103e3b:	25 00 40 00 00       	and    $0x4000,%eax
ffffffff80103e40:	85 c0                	test   %eax,%eax
ffffffff80103e42:	75 57                	jne    ffffffff80103e9b <read_dir+0x238>
ffffffff80103e44:	48 8b 45 f0          	mov    -0x10(%rbp),%rax
ffffffff80103e48:	48 89 c2             	mov    %rax,%rdx
ffffffff80103e4b:	48 c7 c6 cc c1 10 80 	mov    $0xffffffff8010c1cc,%rsi
ffffffff80103e52:	48 c7 c7 e2 c1 10 80 	mov    $0xffffffff8010c1e2,%rdi
ffffffff80103e59:	b8 00 00 00 00       	mov    $0x0,%eax
ffffffff80103e5e:	e8 02 4c 00 00       	callq  ffffffff80108a65 <kprintf>
ffffffff80103e63:	48 c7 c7 eb c1 10 80 	mov    $0xffffffff8010c1eb,%rdi
ffffffff80103e6a:	b8 00 00 00 00       	mov    $0x0,%eax
ffffffff80103e6f:	e8 0a 4d 00 00       	callq  ffffffff80108b7e <kvprintf>
ffffffff80103e74:	48 8b 45 e0          	mov    -0x20(%rbp),%rax
ffffffff80103e78:	48 89 c7             	mov    %rax,%rdi
ffffffff80103e7b:	e8 a8 e4 ff ff       	callq  ffffffff80102328 <kfree>
ffffffff80103e80:	48 c7 c7 eb c1 10 80 	mov    $0xffffffff8010c1eb,%rdi
ffffffff80103e87:	b8 00 00 00 00       	mov    $0x0,%eax
ffffffff80103e8c:	e8 ed 4c 00 00       	callq  ffffffff80108b7e <kvprintf>
ffffffff80103e91:	b8 00 00 00 00       	mov    $0x0,%eax
ffffffff80103e96:	e9 39 01 00 00       	jmpq   ffffffff80103fd4 <read_dir+0x371>
ffffffff80103e9b:	8b 45 14             	mov    0x14(%rbp),%eax
ffffffff80103e9e:	89 c6                	mov    %eax,%esi
ffffffff80103ea0:	48 8b 55 e0          	mov    -0x20(%rbp),%rdx
ffffffff80103ea4:	48 8b 7d c8          	mov    -0x38(%rbp),%rdi
ffffffff80103ea8:	48 83 ec 08          	sub    $0x8,%rsp
ffffffff80103eac:	48 83 ec 78          	sub    $0x78,%rsp
ffffffff80103eb0:	48 89 e0             	mov    %rsp,%rax
ffffffff80103eb3:	48 8b 4d 10          	mov    0x10(%rbp),%rcx
ffffffff80103eb7:	48 89 08             	mov    %rcx,(%rax)
ffffffff80103eba:	48 8b 4d 18          	mov    0x18(%rbp),%rcx
ffffffff80103ebe:	48 89 48 08          	mov    %rcx,0x8(%rax)
ffffffff80103ec2:	48 8b 4d 20          	mov    0x20(%rbp),%rcx
ffffffff80103ec6:	48 89 48 10          	mov    %rcx,0x10(%rax)
ffffffff80103eca:	48 8b 4d 28          	mov    0x28(%rbp),%rcx
ffffffff80103ece:	48 89 48 18          	mov    %rcx,0x18(%rax)
ffffffff80103ed2:	48 8b 4d 30          	mov    0x30(%rbp),%rcx
ffffffff80103ed6:	48 89 48 20          	mov    %rcx,0x20(%rax)
ffffffff80103eda:	48 8b 4d 38          	mov    0x38(%rbp),%rcx
ffffffff80103ede:	48 89 48 28          	mov    %rcx,0x28(%rax)
ffffffff80103ee2:	48 8b 4d 40          	mov    0x40(%rbp),%rcx
ffffffff80103ee6:	48 89 48 30          	mov    %rcx,0x30(%rax)
ffffffff80103eea:	48 8b 4d 48          	mov    0x48(%rbp),%rcx
ffffffff80103eee:	48 89 48 38          	mov    %rcx,0x38(%rax)
ffffffff80103ef2:	48 8b 4d 50          	mov    0x50(%rbp),%rcx
ffffffff80103ef6:	48 89 48 40          	mov    %rcx,0x40(%rax)
ffffffff80103efa:	48 8b 4d 58          	mov    0x58(%rbp),%rcx
ffffffff80103efe:	48 89 48 48          	mov    %rcx,0x48(%rax)
ffffffff80103f02:	48 8b 4d 60          	mov    0x60(%rbp),%rcx
ffffffff80103f06:	48 89 48 50          	mov    %rcx,0x50(%rax)
ffffffff80103f0a:	48 8b 4d 68          	mov    0x68(%rbp),%rcx
ffffffff80103f0e:	48 89 48 58          	mov    %rcx,0x58(%rax)
ffffffff80103f12:	48 8b 4d 70          	mov    0x70(%rbp),%rcx
ffffffff80103f16:	48 89 48 60          	mov    %rcx,0x60(%rax)
ffffffff80103f1a:	48 8b 4d 78          	mov    0x78(%rbp),%rcx
ffffffff80103f1e:	48 89 48 68          	mov    %rcx,0x68(%rax)
ffffffff80103f22:	8b 8d 80 00 00 00    	mov    0x80(%rbp),%ecx
ffffffff80103f28:	89 48 70             	mov    %ecx,0x70(%rax)
ffffffff80103f2b:	48 89 d1             	mov    %rdx,%rcx
ffffffff80103f2e:	48 89 f2             	mov    %rsi,%rdx
ffffffff80103f31:	be 00 00 00 00       	mov    $0x0,%esi
ffffffff80103f36:	e8 c0 ee ff ff       	callq  ffffffff80102dfb <inode_read>
ffffffff80103f3b:	48 83 ec 80          	sub    $0xffffffffffffff80,%rsp
ffffffff80103f3f:	eb 33                	jmp    ffffffff80103f74 <read_dir+0x311>
ffffffff80103f41:	48 8b 45 d0          	mov    -0x30(%rbp),%rax
ffffffff80103f45:	0f b7 40 04          	movzwl 0x4(%rax),%eax
ffffffff80103f49:	66 85 c0             	test   %ax,%ax
ffffffff80103f4c:	74 16                	je     ffffffff80103f64 <read_dir+0x301>
ffffffff80103f4e:	48 8b 45 d0          	mov    -0x30(%rbp),%rax
ffffffff80103f52:	0f b7 40 04          	movzwl 0x4(%rax),%eax
ffffffff80103f56:	0f b7 d0             	movzwl %ax,%edx
ffffffff80103f59:	8b 45 ec             	mov    -0x14(%rbp),%eax
ffffffff80103f5c:	01 d0                	add    %edx,%eax
ffffffff80103f5e:	83 e8 01             	sub    $0x1,%eax
ffffffff80103f61:	89 45 ec             	mov    %eax,-0x14(%rbp)
ffffffff80103f64:	83 45 ec 01          	addl   $0x1,-0x14(%rbp)
ffffffff80103f68:	8b 45 14             	mov    0x14(%rbp),%eax
ffffffff80103f6b:	39 45 ec             	cmp    %eax,-0x14(%rbp)
ffffffff80103f6e:	0f 82 0b fe ff ff    	jb     ffffffff80103d7f <read_dir+0x11c>
ffffffff80103f74:	48 8b 45 f0          	mov    -0x10(%rbp),%rax
ffffffff80103f78:	48 89 c7             	mov    %rax,%rdi
ffffffff80103f7b:	e8 a8 e3 ff ff       	callq  ffffffff80102328 <kfree>
ffffffff80103f80:	48 c7 c6 ca c1 10 80 	mov    $0xffffffff8010c1ca,%rsi
ffffffff80103f87:	bf 00 00 00 00       	mov    $0x0,%edi
ffffffff80103f8c:	e8 32 49 00 00       	callq  ffffffff801088c3 <strtok>
ffffffff80103f91:	48 89 45 f0          	mov    %rax,-0x10(%rbp)
ffffffff80103f95:	83 45 fc 01          	addl   $0x1,-0x4(%rbp)
ffffffff80103f99:	48 83 7d f0 00       	cmpq   $0x0,-0x10(%rbp)
ffffffff80103f9e:	0f 85 cf fd ff ff    	jne    ffffffff80103d73 <read_dir+0x110>
ffffffff80103fa4:	48 8b 45 e0          	mov    -0x20(%rbp),%rax
ffffffff80103fa8:	48 89 c7             	mov    %rax,%rdi
ffffffff80103fab:	e8 78 e3 ff ff       	callq  ffffffff80102328 <kfree>
ffffffff80103fb0:	48 8b 45 b8          	mov    -0x48(%rbp),%rax
ffffffff80103fb4:	48 89 c2             	mov    %rax,%rdx
ffffffff80103fb7:	48 c7 c6 f2 c1 10 80 	mov    $0xffffffff8010c1f2,%rsi
ffffffff80103fbe:	48 c7 c7 e2 c1 10 80 	mov    $0xffffffff8010c1e2,%rdi
ffffffff80103fc5:	b8 00 00 00 00       	mov    $0x0,%eax
ffffffff80103fca:	e8 96 4a 00 00       	callq  ffffffff80108a65 <kprintf>
ffffffff80103fcf:	b8 00 00 00 00       	mov    $0x0,%eax
ffffffff80103fd4:	c9                   	leaveq 
ffffffff80103fd5:	c3                   	retq   

ffffffff80103fd6 <check_fs_fat32>:
ffffffff80103fd6:	55                   	push   %rbp
ffffffff80103fd7:	48 89 e5             	mov    %rsp,%rbp
ffffffff80103fda:	48 83 ec 10          	sub    $0x10,%rsp
ffffffff80103fde:	48 89 7d f8          	mov    %rdi,-0x8(%rbp)
ffffffff80103fe2:	48 8b 45 f8          	mov    -0x8(%rbp),%rax
ffffffff80103fe6:	48 c7 c1 40 80 11 80 	mov    $0xffffffff80118040,%rcx
ffffffff80103fed:	ba 5a 00 00 00       	mov    $0x5a,%edx
ffffffff80103ff2:	be 00 00 00 00       	mov    $0x0,%esi
ffffffff80103ff7:	48 89 c7             	mov    %rax,%rdi
ffffffff80103ffa:	e8 88 6c 00 00       	callq  ffffffff8010ac87 <partition_read>
ffffffff80103fff:	0f b6 05 7c 40 01 00 	movzbl 0x1407c(%rip),%eax        # ffffffff80118082 <bpb+0x42>
ffffffff80104006:	3c 28                	cmp    $0x28,%al
ffffffff80104008:	74 15                	je     ffffffff8010401f <check_fs_fat32+0x49>
ffffffff8010400a:	0f b6 05 71 40 01 00 	movzbl 0x14071(%rip),%eax        # ffffffff80118082 <bpb+0x42>
ffffffff80104011:	3c 29                	cmp    $0x29,%al
ffffffff80104013:	74 0a                	je     ffffffff8010401f <check_fs_fat32+0x49>
ffffffff80104015:	b8 00 00 00 00       	mov    $0x0,%eax
ffffffff8010401a:	e9 a3 00 00 00       	jmpq   ffffffff801040c2 <check_fs_fat32+0xec>
ffffffff8010401f:	48 c7 c7 ff c1 10 80 	mov    $0xffffffff8010c1ff,%rdi
ffffffff80104026:	e8 25 45 00 00       	callq  ffffffff80108550 <strlen>
ffffffff8010402b:	48 89 c2             	mov    %rax,%rdx
ffffffff8010402e:	48 c7 c6 ff c1 10 80 	mov    $0xffffffff8010c1ff,%rsi
ffffffff80104035:	48 c7 c7 92 80 11 80 	mov    $0xffffffff80118092,%rdi
ffffffff8010403c:	e8 95 45 00 00       	callq  ffffffff801085d6 <strncmp>
ffffffff80104041:	85 c0                	test   %eax,%eax
ffffffff80104043:	74 07                	je     ffffffff8010404c <check_fs_fat32+0x76>
ffffffff80104045:	b8 00 00 00 00       	mov    $0x0,%eax
ffffffff8010404a:	eb 76                	jmp    ffffffff801040c2 <check_fs_fat32+0xec>
ffffffff8010404c:	0f b7 05 f8 3f 01 00 	movzwl 0x13ff8(%rip),%eax        # ffffffff8011804b <bpb+0xb>
ffffffff80104053:	0f b7 d0             	movzwl %ax,%edx
ffffffff80104056:	48 8b 45 f8          	mov    -0x8(%rbp),%rax
ffffffff8010405a:	48 89 50 18          	mov    %rdx,0x18(%rax)
ffffffff8010405e:	0f b7 05 0b 40 01 00 	movzwl 0x1400b(%rip),%eax        # ffffffff80118070 <bpb+0x30>
ffffffff80104065:	0f b7 d0             	movzwl %ax,%edx
ffffffff80104068:	48 8b 45 f8          	mov    -0x8(%rbp),%rax
ffffffff8010406c:	48 8b 40 18          	mov    0x18(%rax),%rax
ffffffff80104070:	48 89 d6             	mov    %rdx,%rsi
ffffffff80104073:	48 0f af f0          	imul   %rax,%rsi
ffffffff80104077:	48 8b 45 f8          	mov    -0x8(%rbp),%rax
ffffffff8010407b:	48 c7 c1 a0 80 11 80 	mov    $0xffffffff801180a0,%rcx
ffffffff80104082:	ba 00 02 00 00       	mov    $0x200,%edx
ffffffff80104087:	48 89 c7             	mov    %rax,%rdi
ffffffff8010408a:	e8 f8 6b 00 00       	callq  ffffffff8010ac87 <partition_read>
ffffffff8010408f:	8b 05 0b 40 01 00    	mov    0x1400b(%rip),%eax        # ffffffff801180a0 <fsinfo>
ffffffff80104095:	3d 52 52 61 41       	cmp    $0x41615252,%eax
ffffffff8010409a:	75 1a                	jne    ffffffff801040b6 <check_fs_fat32+0xe0>
ffffffff8010409c:	8b 05 e2 41 01 00    	mov    0x141e2(%rip),%eax        # ffffffff80118284 <fsinfo+0x1e4>
ffffffff801040a2:	3d 72 72 41 61       	cmp    $0x61417272,%eax
ffffffff801040a7:	75 0d                	jne    ffffffff801040b6 <check_fs_fat32+0xe0>
ffffffff801040a9:	8b 05 ed 41 01 00    	mov    0x141ed(%rip),%eax        # ffffffff8011829c <fsinfo+0x1fc>
ffffffff801040af:	3d 00 00 55 aa       	cmp    $0xaa550000,%eax
ffffffff801040b4:	74 07                	je     ffffffff801040bd <check_fs_fat32+0xe7>
ffffffff801040b6:	b8 00 00 00 00       	mov    $0x0,%eax
ffffffff801040bb:	eb 05                	jmp    ffffffff801040c2 <check_fs_fat32+0xec>
ffffffff801040bd:	b8 01 00 00 00       	mov    $0x1,%eax
ffffffff801040c2:	c9                   	leaveq 
ffffffff801040c3:	c3                   	retq   

ffffffff801040c4 <alloc_fd>:
ffffffff801040c4:	55                   	push   %rbp
ffffffff801040c5:	48 89 e5             	mov    %rsp,%rbp
ffffffff801040c8:	48 83 ec 10          	sub    $0x10,%rsp
ffffffff801040cc:	48 c7 45 f8 00 00 00 	movq   $0x0,-0x8(%rbp)
ffffffff801040d3:	00 
ffffffff801040d4:	eb 54                	jmp    ffffffff8010412a <alloc_fd+0x66>
ffffffff801040d6:	48 8b 0d c3 41 01 00 	mov    0x141c3(%rip),%rcx        # ffffffff801182a0 <fd>
ffffffff801040dd:	48 8b 55 f8          	mov    -0x8(%rbp),%rdx
ffffffff801040e1:	48 89 d0             	mov    %rdx,%rax
ffffffff801040e4:	48 c1 e0 02          	shl    $0x2,%rax
ffffffff801040e8:	48 01 d0             	add    %rdx,%rax
ffffffff801040eb:	48 c1 e0 03          	shl    $0x3,%rax
ffffffff801040ef:	48 01 c8             	add    %rcx,%rax
ffffffff801040f2:	48 8b 40 10          	mov    0x10(%rax),%rax
ffffffff801040f6:	48 85 c0             	test   %rax,%rax
ffffffff801040f9:	75 2a                	jne    ffffffff80104125 <alloc_fd+0x61>
ffffffff801040fb:	48 8b 0d 9e 41 01 00 	mov    0x1419e(%rip),%rcx        # ffffffff801182a0 <fd>
ffffffff80104102:	48 8b 55 f8          	mov    -0x8(%rbp),%rdx
ffffffff80104106:	48 89 d0             	mov    %rdx,%rax
ffffffff80104109:	48 c1 e0 02          	shl    $0x2,%rax
ffffffff8010410d:	48 01 d0             	add    %rdx,%rax
ffffffff80104110:	48 c1 e0 03          	shl    $0x3,%rax
ffffffff80104114:	48 01 c8             	add    %rcx,%rax
ffffffff80104117:	48 c7 40 10 01 00 00 	movq   $0x1,0x10(%rax)
ffffffff8010411e:	00 
ffffffff8010411f:	48 8b 45 f8          	mov    -0x8(%rbp),%rax
ffffffff80104123:	eb 17                	jmp    ffffffff8010413c <alloc_fd+0x78>
ffffffff80104125:	48 83 45 f8 01       	addq   $0x1,-0x8(%rbp)
ffffffff8010412a:	48 8b 05 cf 9e 00 00 	mov    0x9ecf(%rip),%rax        # ffffffff8010e000 <max_fd>
ffffffff80104131:	48 39 45 f8          	cmp    %rax,-0x8(%rbp)
ffffffff80104135:	72 9f                	jb     ffffffff801040d6 <alloc_fd+0x12>
ffffffff80104137:	b8 ff ff ff ff       	mov    $0xffffffff,%eax
ffffffff8010413c:	c9                   	leaveq 
ffffffff8010413d:	c3                   	retq   

ffffffff8010413e <create_fd>:
ffffffff8010413e:	55                   	push   %rbp
ffffffff8010413f:	48 89 e5             	mov    %rsp,%rbp
ffffffff80104142:	48 83 ec 10          	sub    $0x10,%rsp
ffffffff80104146:	48 89 7d f8          	mov    %rdi,-0x8(%rbp)
ffffffff8010414a:	48 8b 15 af 9e 00 00 	mov    0x9eaf(%rip),%rdx        # ffffffff8010e000 <max_fd>
ffffffff80104151:	48 8b 45 f8          	mov    -0x8(%rbp),%rax
ffffffff80104155:	48 01 d0             	add    %rdx,%rax
ffffffff80104158:	48 89 05 a1 9e 00 00 	mov    %rax,0x9ea1(%rip)        # ffffffff8010e000 <max_fd>
ffffffff8010415f:	48 8b 15 9a 9e 00 00 	mov    0x9e9a(%rip),%rdx        # ffffffff8010e000 <max_fd>
ffffffff80104166:	48 89 d0             	mov    %rdx,%rax
ffffffff80104169:	48 c1 e0 02          	shl    $0x2,%rax
ffffffff8010416d:	48 01 d0             	add    %rdx,%rax
ffffffff80104170:	48 c1 e0 03          	shl    $0x3,%rax
ffffffff80104174:	48 89 c2             	mov    %rax,%rdx
ffffffff80104177:	48 8b 05 22 41 01 00 	mov    0x14122(%rip),%rax        # ffffffff801182a0 <fd>
ffffffff8010417e:	48 89 d6             	mov    %rdx,%rsi
ffffffff80104181:	48 89 c7             	mov    %rax,%rdi
ffffffff80104184:	e8 b3 e2 ff ff       	callq  ffffffff8010243c <krealloc>
ffffffff80104189:	48 89 05 10 41 01 00 	mov    %rax,0x14110(%rip)        # ffffffff801182a0 <fd>
ffffffff80104190:	90                   	nop
ffffffff80104191:	c9                   	leaveq 
ffffffff80104192:	c3                   	retq   

ffffffff80104193 <is_valid_fd>:
ffffffff80104193:	55                   	push   %rbp
ffffffff80104194:	48 89 e5             	mov    %rsp,%rbp
ffffffff80104197:	48 83 ec 08          	sub    $0x8,%rsp
ffffffff8010419b:	89 7d fc             	mov    %edi,-0x4(%rbp)
ffffffff8010419e:	83 7d fc 00          	cmpl   $0x0,-0x4(%rbp)
ffffffff801041a2:	79 0c                	jns    ffffffff801041b0 <is_valid_fd+0x1d>
ffffffff801041a4:	48 8b 05 55 9e 00 00 	mov    0x9e55(%rip),%rax        # ffffffff8010e000 <max_fd>
ffffffff801041ab:	39 45 fc             	cmp    %eax,-0x4(%rbp)
ffffffff801041ae:	7f 07                	jg     ffffffff801041b7 <is_valid_fd+0x24>
ffffffff801041b0:	b8 00 00 00 00       	mov    $0x0,%eax
ffffffff801041b5:	eb 05                	jmp    ffffffff801041bc <is_valid_fd+0x29>
ffffffff801041b7:	b8 ff ff ff ff       	mov    $0xffffffff,%eax
ffffffff801041bc:	c9                   	leaveq 
ffffffff801041bd:	c3                   	retq   

ffffffff801041be <open>:
ffffffff801041be:	55                   	push   %rbp
ffffffff801041bf:	48 89 e5             	mov    %rsp,%rbp
ffffffff801041c2:	48 83 ec 40          	sub    $0x40,%rsp
ffffffff801041c6:	48 89 7d c8          	mov    %rdi,-0x38(%rbp)
ffffffff801041ca:	89 75 c4             	mov    %esi,-0x3c(%rbp)
ffffffff801041cd:	b8 00 00 00 00       	mov    $0x0,%eax
ffffffff801041d2:	e8 ed fe ff ff       	callq  ffffffff801040c4 <alloc_fd>
ffffffff801041d7:	89 45 fc             	mov    %eax,-0x4(%rbp)
ffffffff801041da:	83 7d fc ff          	cmpl   $0xffffffff,-0x4(%rbp)
ffffffff801041de:	75 17                	jne    ffffffff801041f7 <open+0x39>
ffffffff801041e0:	bf 00 02 00 00       	mov    $0x200,%edi
ffffffff801041e5:	e8 54 ff ff ff       	callq  ffffffff8010413e <create_fd>
ffffffff801041ea:	b8 00 00 00 00       	mov    $0x0,%eax
ffffffff801041ef:	e8 d0 fe ff ff       	callq  ffffffff801040c4 <alloc_fd>
ffffffff801041f4:	89 45 fc             	mov    %eax,-0x4(%rbp)
ffffffff801041f7:	48 8b 0d a2 40 01 00 	mov    0x140a2(%rip),%rcx        # ffffffff801182a0 <fd>
ffffffff801041fe:	8b 45 fc             	mov    -0x4(%rbp),%eax
ffffffff80104201:	48 63 d0             	movslq %eax,%rdx
ffffffff80104204:	48 89 d0             	mov    %rdx,%rax
ffffffff80104207:	48 c1 e0 02          	shl    $0x2,%rax
ffffffff8010420b:	48 01 d0             	add    %rdx,%rax
ffffffff8010420e:	48 c1 e0 03          	shl    $0x3,%rax
ffffffff80104212:	48 01 c8             	add    %rcx,%rax
ffffffff80104215:	8b 55 c4             	mov    -0x3c(%rbp),%edx
ffffffff80104218:	48 63 ca             	movslq %edx,%rcx
ffffffff8010421b:	8b 55 fc             	mov    -0x4(%rbp),%edx
ffffffff8010421e:	48 63 d2             	movslq %edx,%rdx
ffffffff80104221:	48 c7 00 00 00 00 00 	movq   $0x0,(%rax)
ffffffff80104228:	48 c7 40 08 00 00 00 	movq   $0x0,0x8(%rax)
ffffffff8010422f:	00 
ffffffff80104230:	48 c7 40 10 00 00 00 	movq   $0x0,0x10(%rax)
ffffffff80104237:	00 
ffffffff80104238:	48 c7 40 18 00 00 00 	movq   $0x0,0x18(%rax)
ffffffff8010423f:	00 
ffffffff80104240:	48 c7 40 20 00 00 00 	movq   $0x0,0x20(%rax)
ffffffff80104247:	00 
ffffffff80104248:	48 89 08             	mov    %rcx,(%rax)
ffffffff8010424b:	48 89 50 08          	mov    %rdx,0x8(%rax)
ffffffff8010424f:	48 c7 40 10 01 00 00 	movq   $0x1,0x10(%rax)
ffffffff80104256:	00 
ffffffff80104257:	48 8b 55 c8          	mov    -0x38(%rbp),%rdx
ffffffff8010425b:	48 89 50 20          	mov    %rdx,0x20(%rax)
ffffffff8010425f:	8b 45 fc             	mov    -0x4(%rbp),%eax
ffffffff80104262:	c9                   	leaveq 
ffffffff80104263:	c3                   	retq   

ffffffff80104264 <close>:
ffffffff80104264:	55                   	push   %rbp
ffffffff80104265:	48 89 e5             	mov    %rsp,%rbp
ffffffff80104268:	48 83 ec 08          	sub    $0x8,%rsp
ffffffff8010426c:	89 7d fc             	mov    %edi,-0x4(%rbp)
ffffffff8010426f:	8b 45 fc             	mov    -0x4(%rbp),%eax
ffffffff80104272:	89 c7                	mov    %eax,%edi
ffffffff80104274:	e8 1a ff ff ff       	callq  ffffffff80104193 <is_valid_fd>
ffffffff80104279:	83 f8 ff             	cmp    $0xffffffff,%eax
ffffffff8010427c:	75 07                	jne    ffffffff80104285 <close+0x21>
ffffffff8010427e:	b8 ff ff ff ff       	mov    $0xffffffff,%eax
ffffffff80104283:	eb 2b                	jmp    ffffffff801042b0 <close+0x4c>
ffffffff80104285:	48 8b 0d 14 40 01 00 	mov    0x14014(%rip),%rcx        # ffffffff801182a0 <fd>
ffffffff8010428c:	8b 45 fc             	mov    -0x4(%rbp),%eax
ffffffff8010428f:	48 63 d0             	movslq %eax,%rdx
ffffffff80104292:	48 89 d0             	mov    %rdx,%rax
ffffffff80104295:	48 c1 e0 02          	shl    $0x2,%rax
ffffffff80104299:	48 01 d0             	add    %rdx,%rax
ffffffff8010429c:	48 c1 e0 03          	shl    $0x3,%rax
ffffffff801042a0:	48 01 c8             	add    %rcx,%rax
ffffffff801042a3:	48 c7 40 10 00 00 00 	movq   $0x0,0x10(%rax)
ffffffff801042aa:	00 
ffffffff801042ab:	b8 00 00 00 00       	mov    $0x0,%eax
ffffffff801042b0:	c9                   	leaveq 
ffffffff801042b1:	c3                   	retq   

ffffffff801042b2 <read>:
ffffffff801042b2:	55                   	push   %rbp
ffffffff801042b3:	48 89 e5             	mov    %rsp,%rbp
ffffffff801042b6:	48 83 ec 30          	sub    $0x30,%rsp
ffffffff801042ba:	89 7d ec             	mov    %edi,-0x14(%rbp)
ffffffff801042bd:	48 89 75 e0          	mov    %rsi,-0x20(%rbp)
ffffffff801042c1:	48 89 55 d8          	mov    %rdx,-0x28(%rbp)
ffffffff801042c5:	8b 45 ec             	mov    -0x14(%rbp),%eax
ffffffff801042c8:	89 c7                	mov    %eax,%edi
ffffffff801042ca:	e8 c4 fe ff ff       	callq  ffffffff80104193 <is_valid_fd>
ffffffff801042cf:	83 f8 ff             	cmp    $0xffffffff,%eax
ffffffff801042d2:	75 0a                	jne    ffffffff801042de <read+0x2c>
ffffffff801042d4:	b8 ff ff ff ff       	mov    $0xffffffff,%eax
ffffffff801042d9:	e9 a5 00 00 00       	jmpq   ffffffff80104383 <read+0xd1>
ffffffff801042de:	48 8b 0d bb 3f 01 00 	mov    0x13fbb(%rip),%rcx        # ffffffff801182a0 <fd>
ffffffff801042e5:	8b 45 ec             	mov    -0x14(%rbp),%eax
ffffffff801042e8:	48 63 d0             	movslq %eax,%rdx
ffffffff801042eb:	48 89 d0             	mov    %rdx,%rax
ffffffff801042ee:	48 c1 e0 02          	shl    $0x2,%rax
ffffffff801042f2:	48 01 d0             	add    %rdx,%rax
ffffffff801042f5:	48 c1 e0 03          	shl    $0x3,%rax
ffffffff801042f9:	48 01 c8             	add    %rcx,%rax
ffffffff801042fc:	48 8b 70 18          	mov    0x18(%rax),%rsi
ffffffff80104300:	48 8b 0d 99 3f 01 00 	mov    0x13f99(%rip),%rcx        # ffffffff801182a0 <fd>
ffffffff80104307:	8b 45 ec             	mov    -0x14(%rbp),%eax
ffffffff8010430a:	48 63 d0             	movslq %eax,%rdx
ffffffff8010430d:	48 89 d0             	mov    %rdx,%rax
ffffffff80104310:	48 c1 e0 02          	shl    $0x2,%rax
ffffffff80104314:	48 01 d0             	add    %rdx,%rax
ffffffff80104317:	48 c1 e0 03          	shl    $0x3,%rax
ffffffff8010431b:	48 01 c8             	add    %rcx,%rax
ffffffff8010431e:	48 8b 40 20          	mov    0x20(%rax),%rax
ffffffff80104322:	48 8b 4d e0          	mov    -0x20(%rbp),%rcx
ffffffff80104326:	48 8b 55 d8          	mov    -0x28(%rbp),%rdx
ffffffff8010432a:	48 89 c7             	mov    %rax,%rdi
ffffffff8010432d:	e8 6e 65 00 00       	callq  ffffffff8010a8a0 <fs_read>
ffffffff80104332:	89 45 fc             	mov    %eax,-0x4(%rbp)
ffffffff80104335:	48 8b 0d 64 3f 01 00 	mov    0x13f64(%rip),%rcx        # ffffffff801182a0 <fd>
ffffffff8010433c:	8b 45 ec             	mov    -0x14(%rbp),%eax
ffffffff8010433f:	48 63 d0             	movslq %eax,%rdx
ffffffff80104342:	48 89 d0             	mov    %rdx,%rax
ffffffff80104345:	48 c1 e0 02          	shl    $0x2,%rax
ffffffff80104349:	48 01 d0             	add    %rdx,%rax
ffffffff8010434c:	48 c1 e0 03          	shl    $0x3,%rax
ffffffff80104350:	48 01 c8             	add    %rcx,%rax
ffffffff80104353:	48 8b 48 18          	mov    0x18(%rax),%rcx
ffffffff80104357:	48 8b 35 42 3f 01 00 	mov    0x13f42(%rip),%rsi        # ffffffff801182a0 <fd>
ffffffff8010435e:	8b 45 ec             	mov    -0x14(%rbp),%eax
ffffffff80104361:	48 63 d0             	movslq %eax,%rdx
ffffffff80104364:	48 89 d0             	mov    %rdx,%rax
ffffffff80104367:	48 c1 e0 02          	shl    $0x2,%rax
ffffffff8010436b:	48 01 d0             	add    %rdx,%rax
ffffffff8010436e:	48 c1 e0 03          	shl    $0x3,%rax
ffffffff80104372:	48 01 f0             	add    %rsi,%rax
ffffffff80104375:	48 8b 55 d8          	mov    -0x28(%rbp),%rdx
ffffffff80104379:	48 01 ca             	add    %rcx,%rdx
ffffffff8010437c:	48 89 50 18          	mov    %rdx,0x18(%rax)
ffffffff80104380:	8b 45 fc             	mov    -0x4(%rbp),%eax
ffffffff80104383:	c9                   	leaveq 
ffffffff80104384:	c3                   	retq   

ffffffff80104385 <write>:
ffffffff80104385:	55                   	push   %rbp
ffffffff80104386:	48 89 e5             	mov    %rsp,%rbp
ffffffff80104389:	48 83 ec 30          	sub    $0x30,%rsp
ffffffff8010438d:	89 7d ec             	mov    %edi,-0x14(%rbp)
ffffffff80104390:	48 89 75 e0          	mov    %rsi,-0x20(%rbp)
ffffffff80104394:	48 89 55 d8          	mov    %rdx,-0x28(%rbp)
ffffffff80104398:	8b 45 ec             	mov    -0x14(%rbp),%eax
ffffffff8010439b:	89 c7                	mov    %eax,%edi
ffffffff8010439d:	e8 f1 fd ff ff       	callq  ffffffff80104193 <is_valid_fd>
ffffffff801043a2:	83 f8 ff             	cmp    $0xffffffff,%eax
ffffffff801043a5:	75 0a                	jne    ffffffff801043b1 <write+0x2c>
ffffffff801043a7:	b8 ff ff ff ff       	mov    $0xffffffff,%eax
ffffffff801043ac:	e9 a5 00 00 00       	jmpq   ffffffff80104456 <write+0xd1>
ffffffff801043b1:	48 8b 0d e8 3e 01 00 	mov    0x13ee8(%rip),%rcx        # ffffffff801182a0 <fd>
ffffffff801043b8:	8b 45 ec             	mov    -0x14(%rbp),%eax
ffffffff801043bb:	48 63 d0             	movslq %eax,%rdx
ffffffff801043be:	48 89 d0             	mov    %rdx,%rax
ffffffff801043c1:	48 c1 e0 02          	shl    $0x2,%rax
ffffffff801043c5:	48 01 d0             	add    %rdx,%rax
ffffffff801043c8:	48 c1 e0 03          	shl    $0x3,%rax
ffffffff801043cc:	48 01 c8             	add    %rcx,%rax
ffffffff801043cf:	48 8b 70 18          	mov    0x18(%rax),%rsi
ffffffff801043d3:	48 8b 0d c6 3e 01 00 	mov    0x13ec6(%rip),%rcx        # ffffffff801182a0 <fd>
ffffffff801043da:	8b 45 ec             	mov    -0x14(%rbp),%eax
ffffffff801043dd:	48 63 d0             	movslq %eax,%rdx
ffffffff801043e0:	48 89 d0             	mov    %rdx,%rax
ffffffff801043e3:	48 c1 e0 02          	shl    $0x2,%rax
ffffffff801043e7:	48 01 d0             	add    %rdx,%rax
ffffffff801043ea:	48 c1 e0 03          	shl    $0x3,%rax
ffffffff801043ee:	48 01 c8             	add    %rcx,%rax
ffffffff801043f1:	48 8b 40 20          	mov    0x20(%rax),%rax
ffffffff801043f5:	48 8b 4d e0          	mov    -0x20(%rbp),%rcx
ffffffff801043f9:	48 8b 55 d8          	mov    -0x28(%rbp),%rdx
ffffffff801043fd:	48 89 c7             	mov    %rax,%rdi
ffffffff80104400:	e8 ea 64 00 00       	callq  ffffffff8010a8ef <fs_write>
ffffffff80104405:	89 45 fc             	mov    %eax,-0x4(%rbp)
ffffffff80104408:	48 8b 0d 91 3e 01 00 	mov    0x13e91(%rip),%rcx        # ffffffff801182a0 <fd>
ffffffff8010440f:	8b 45 ec             	mov    -0x14(%rbp),%eax
ffffffff80104412:	48 63 d0             	movslq %eax,%rdx
ffffffff80104415:	48 89 d0             	mov    %rdx,%rax
ffffffff80104418:	48 c1 e0 02          	shl    $0x2,%rax
ffffffff8010441c:	48 01 d0             	add    %rdx,%rax
ffffffff8010441f:	48 c1 e0 03          	shl    $0x3,%rax
ffffffff80104423:	48 01 c8             	add    %rcx,%rax
ffffffff80104426:	48 8b 48 18          	mov    0x18(%rax),%rcx
ffffffff8010442a:	48 8b 35 6f 3e 01 00 	mov    0x13e6f(%rip),%rsi        # ffffffff801182a0 <fd>
ffffffff80104431:	8b 45 ec             	mov    -0x14(%rbp),%eax
ffffffff80104434:	48 63 d0             	movslq %eax,%rdx
ffffffff80104437:	48 89 d0             	mov    %rdx,%rax
ffffffff8010443a:	48 c1 e0 02          	shl    $0x2,%rax
ffffffff8010443e:	48 01 d0             	add    %rdx,%rax
ffffffff80104441:	48 c1 e0 03          	shl    $0x3,%rax
ffffffff80104445:	48 01 f0             	add    %rsi,%rax
ffffffff80104448:	48 8b 55 d8          	mov    -0x28(%rbp),%rdx
ffffffff8010444c:	48 01 ca             	add    %rcx,%rdx
ffffffff8010444f:	48 89 50 18          	mov    %rdx,0x18(%rax)
ffffffff80104453:	8b 45 fc             	mov    -0x4(%rbp),%eax
ffffffff80104456:	c9                   	leaveq 
ffffffff80104457:	c3                   	retq   

ffffffff80104458 <lseek>:
ffffffff80104458:	55                   	push   %rbp
ffffffff80104459:	48 89 e5             	mov    %rsp,%rbp
ffffffff8010445c:	48 83 ec 10          	sub    $0x10,%rsp
ffffffff80104460:	89 7d fc             	mov    %edi,-0x4(%rbp)
ffffffff80104463:	48 89 75 f0          	mov    %rsi,-0x10(%rbp)
ffffffff80104467:	89 55 f8             	mov    %edx,-0x8(%rbp)
ffffffff8010446a:	8b 45 fc             	mov    -0x4(%rbp),%eax
ffffffff8010446d:	89 c7                	mov    %eax,%edi
ffffffff8010446f:	e8 1f fd ff ff       	callq  ffffffff80104193 <is_valid_fd>
ffffffff80104474:	83 f8 ff             	cmp    $0xffffffff,%eax
ffffffff80104477:	75 0a                	jne    ffffffff80104483 <lseek+0x2b>
ffffffff80104479:	b8 ff ff ff ff       	mov    $0xffffffff,%eax
ffffffff8010447e:	e9 c3 00 00 00       	jmpq   ffffffff80104546 <lseek+0xee>
ffffffff80104483:	83 7d f8 03          	cmpl   $0x3,-0x8(%rbp)
ffffffff80104487:	0f 84 96 00 00 00    	je     ffffffff80104523 <lseek+0xcb>
ffffffff8010448d:	83 7d f8 03          	cmpl   $0x3,-0x8(%rbp)
ffffffff80104491:	0f 8f 85 00 00 00    	jg     ffffffff8010451c <lseek+0xc4>
ffffffff80104497:	83 7d f8 01          	cmpl   $0x1,-0x8(%rbp)
ffffffff8010449b:	74 08                	je     ffffffff801044a5 <lseek+0x4d>
ffffffff8010449d:	83 7d f8 02          	cmpl   $0x2,-0x8(%rbp)
ffffffff801044a1:	74 2b                	je     ffffffff801044ce <lseek+0x76>
ffffffff801044a3:	eb 77                	jmp    ffffffff8010451c <lseek+0xc4>
ffffffff801044a5:	48 8b 0d f4 3d 01 00 	mov    0x13df4(%rip),%rcx        # ffffffff801182a0 <fd>
ffffffff801044ac:	8b 45 fc             	mov    -0x4(%rbp),%eax
ffffffff801044af:	48 63 d0             	movslq %eax,%rdx
ffffffff801044b2:	48 89 d0             	mov    %rdx,%rax
ffffffff801044b5:	48 c1 e0 02          	shl    $0x2,%rax
ffffffff801044b9:	48 01 d0             	add    %rdx,%rax
ffffffff801044bc:	48 c1 e0 03          	shl    $0x3,%rax
ffffffff801044c0:	48 8d 14 01          	lea    (%rcx,%rax,1),%rdx
ffffffff801044c4:	48 8b 45 f0          	mov    -0x10(%rbp),%rax
ffffffff801044c8:	48 89 42 18          	mov    %rax,0x18(%rdx)
ffffffff801044cc:	eb 56                	jmp    ffffffff80104524 <lseek+0xcc>
ffffffff801044ce:	48 8b 0d cb 3d 01 00 	mov    0x13dcb(%rip),%rcx        # ffffffff801182a0 <fd>
ffffffff801044d5:	8b 45 fc             	mov    -0x4(%rbp),%eax
ffffffff801044d8:	48 63 d0             	movslq %eax,%rdx
ffffffff801044db:	48 89 d0             	mov    %rdx,%rax
ffffffff801044de:	48 c1 e0 02          	shl    $0x2,%rax
ffffffff801044e2:	48 01 d0             	add    %rdx,%rax
ffffffff801044e5:	48 c1 e0 03          	shl    $0x3,%rax
ffffffff801044e9:	48 01 c8             	add    %rcx,%rax
ffffffff801044ec:	48 8b 70 18          	mov    0x18(%rax),%rsi
ffffffff801044f0:	48 8b 4d f0          	mov    -0x10(%rbp),%rcx
ffffffff801044f4:	48 8b 3d a5 3d 01 00 	mov    0x13da5(%rip),%rdi        # ffffffff801182a0 <fd>
ffffffff801044fb:	8b 45 fc             	mov    -0x4(%rbp),%eax
ffffffff801044fe:	48 63 d0             	movslq %eax,%rdx
ffffffff80104501:	48 89 d0             	mov    %rdx,%rax
ffffffff80104504:	48 c1 e0 02          	shl    $0x2,%rax
ffffffff80104508:	48 01 d0             	add    %rdx,%rax
ffffffff8010450b:	48 c1 e0 03          	shl    $0x3,%rax
ffffffff8010450f:	48 01 f8             	add    %rdi,%rax
ffffffff80104512:	48 8d 14 0e          	lea    (%rsi,%rcx,1),%rdx
ffffffff80104516:	48 89 50 18          	mov    %rdx,0x18(%rax)
ffffffff8010451a:	eb 08                	jmp    ffffffff80104524 <lseek+0xcc>
ffffffff8010451c:	b8 ff ff ff ff       	mov    $0xffffffff,%eax
ffffffff80104521:	eb 23                	jmp    ffffffff80104546 <lseek+0xee>
ffffffff80104523:	90                   	nop
ffffffff80104524:	48 8b 0d 75 3d 01 00 	mov    0x13d75(%rip),%rcx        # ffffffff801182a0 <fd>
ffffffff8010452b:	8b 45 fc             	mov    -0x4(%rbp),%eax
ffffffff8010452e:	48 63 d0             	movslq %eax,%rdx
ffffffff80104531:	48 89 d0             	mov    %rdx,%rax
ffffffff80104534:	48 c1 e0 02          	shl    $0x2,%rax
ffffffff80104538:	48 01 d0             	add    %rdx,%rax
ffffffff8010453b:	48 c1 e0 03          	shl    $0x3,%rax
ffffffff8010453f:	48 01 c8             	add    %rcx,%rax
ffffffff80104542:	48 8b 40 18          	mov    0x18(%rax),%rax
ffffffff80104546:	c9                   	leaveq 
ffffffff80104547:	c3                   	retq   

ffffffff80104548 <dup>:
ffffffff80104548:	55                   	push   %rbp
ffffffff80104549:	48 89 e5             	mov    %rsp,%rbp
ffffffff8010454c:	48 83 ec 20          	sub    $0x20,%rsp
ffffffff80104550:	89 7d ec             	mov    %edi,-0x14(%rbp)
ffffffff80104553:	b8 00 00 00 00       	mov    $0x0,%eax
ffffffff80104558:	e8 67 fb ff ff       	callq  ffffffff801040c4 <alloc_fd>
ffffffff8010455d:	89 45 fc             	mov    %eax,-0x4(%rbp)
ffffffff80104560:	83 7d fc ff          	cmpl   $0xffffffff,-0x4(%rbp)
ffffffff80104564:	75 17                	jne    ffffffff8010457d <dup+0x35>
ffffffff80104566:	bf 00 10 00 00       	mov    $0x1000,%edi
ffffffff8010456b:	e8 ce fb ff ff       	callq  ffffffff8010413e <create_fd>
ffffffff80104570:	b8 00 00 00 00       	mov    $0x0,%eax
ffffffff80104575:	e8 4a fb ff ff       	callq  ffffffff801040c4 <alloc_fd>
ffffffff8010457a:	89 45 fc             	mov    %eax,-0x4(%rbp)
ffffffff8010457d:	8b 45 ec             	mov    -0x14(%rbp),%eax
ffffffff80104580:	89 c7                	mov    %eax,%edi
ffffffff80104582:	e8 0c fc ff ff       	callq  ffffffff80104193 <is_valid_fd>
ffffffff80104587:	83 f8 ff             	cmp    $0xffffffff,%eax
ffffffff8010458a:	75 07                	jne    ffffffff80104593 <dup+0x4b>
ffffffff8010458c:	b8 ff ff ff ff       	mov    $0xffffffff,%eax
ffffffff80104591:	eb 66                	jmp    ffffffff801045f9 <dup+0xb1>
ffffffff80104593:	48 8b 0d 06 3d 01 00 	mov    0x13d06(%rip),%rcx        # ffffffff801182a0 <fd>
ffffffff8010459a:	8b 45 ec             	mov    -0x14(%rbp),%eax
ffffffff8010459d:	48 63 d0             	movslq %eax,%rdx
ffffffff801045a0:	48 89 d0             	mov    %rdx,%rax
ffffffff801045a3:	48 c1 e0 02          	shl    $0x2,%rax
ffffffff801045a7:	48 01 d0             	add    %rdx,%rax
ffffffff801045aa:	48 c1 e0 03          	shl    $0x3,%rax
ffffffff801045ae:	48 8d 14 01          	lea    (%rcx,%rax,1),%rdx
ffffffff801045b2:	48 8b 35 e7 3c 01 00 	mov    0x13ce7(%rip),%rsi        # ffffffff801182a0 <fd>
ffffffff801045b9:	8b 45 fc             	mov    -0x4(%rbp),%eax
ffffffff801045bc:	48 63 c8             	movslq %eax,%rcx
ffffffff801045bf:	48 89 c8             	mov    %rcx,%rax
ffffffff801045c2:	48 c1 e0 02          	shl    $0x2,%rax
ffffffff801045c6:	48 01 c8             	add    %rcx,%rax
ffffffff801045c9:	48 c1 e0 03          	shl    $0x3,%rax
ffffffff801045cd:	48 01 f0             	add    %rsi,%rax
ffffffff801045d0:	48 8b 0a             	mov    (%rdx),%rcx
ffffffff801045d3:	48 89 08             	mov    %rcx,(%rax)
ffffffff801045d6:	48 8b 4a 08          	mov    0x8(%rdx),%rcx
ffffffff801045da:	48 89 48 08          	mov    %rcx,0x8(%rax)
ffffffff801045de:	48 8b 4a 10          	mov    0x10(%rdx),%rcx
ffffffff801045e2:	48 89 48 10          	mov    %rcx,0x10(%rax)
ffffffff801045e6:	48 8b 4a 18          	mov    0x18(%rdx),%rcx
ffffffff801045ea:	48 89 48 18          	mov    %rcx,0x18(%rax)
ffffffff801045ee:	48 8b 52 20          	mov    0x20(%rdx),%rdx
ffffffff801045f2:	48 89 50 20          	mov    %rdx,0x20(%rax)
ffffffff801045f6:	8b 45 fc             	mov    -0x4(%rbp),%eax
ffffffff801045f9:	c9                   	leaveq 
ffffffff801045fa:	c3                   	retq   

ffffffff801045fb <dup2>:
ffffffff801045fb:	55                   	push   %rbp
ffffffff801045fc:	48 89 e5             	mov    %rsp,%rbp
ffffffff801045ff:	48 83 ec 08          	sub    $0x8,%rsp
ffffffff80104603:	89 7d fc             	mov    %edi,-0x4(%rbp)
ffffffff80104606:	89 75 f8             	mov    %esi,-0x8(%rbp)
ffffffff80104609:	8b 45 fc             	mov    -0x4(%rbp),%eax
ffffffff8010460c:	89 c7                	mov    %eax,%edi
ffffffff8010460e:	e8 80 fb ff ff       	callq  ffffffff80104193 <is_valid_fd>
ffffffff80104613:	83 f8 ff             	cmp    $0xffffffff,%eax
ffffffff80104616:	74 0f                	je     ffffffff80104627 <dup2+0x2c>
ffffffff80104618:	8b 45 f8             	mov    -0x8(%rbp),%eax
ffffffff8010461b:	89 c7                	mov    %eax,%edi
ffffffff8010461d:	e8 71 fb ff ff       	callq  ffffffff80104193 <is_valid_fd>
ffffffff80104622:	83 f8 ff             	cmp    $0xffffffff,%eax
ffffffff80104625:	75 0a                	jne    ffffffff80104631 <dup2+0x36>
ffffffff80104627:	b8 ff ff ff ff       	mov    $0xffffffff,%eax
ffffffff8010462c:	e9 98 00 00 00       	jmpq   ffffffff801046c9 <dup2+0xce>
ffffffff80104631:	48 8b 0d 68 3c 01 00 	mov    0x13c68(%rip),%rcx        # ffffffff801182a0 <fd>
ffffffff80104638:	8b 45 f8             	mov    -0x8(%rbp),%eax
ffffffff8010463b:	48 63 d0             	movslq %eax,%rdx
ffffffff8010463e:	48 89 d0             	mov    %rdx,%rax
ffffffff80104641:	48 c1 e0 02          	shl    $0x2,%rax
ffffffff80104645:	48 01 d0             	add    %rdx,%rax
ffffffff80104648:	48 c1 e0 03          	shl    $0x3,%rax
ffffffff8010464c:	48 01 c8             	add    %rcx,%rax
ffffffff8010464f:	48 8b 40 10          	mov    0x10(%rax),%rax
ffffffff80104653:	48 83 f8 01          	cmp    $0x1,%rax
ffffffff80104657:	75 0a                	jne    ffffffff80104663 <dup2+0x68>
ffffffff80104659:	8b 45 f8             	mov    -0x8(%rbp),%eax
ffffffff8010465c:	89 c7                	mov    %eax,%edi
ffffffff8010465e:	e8 01 fc ff ff       	callq  ffffffff80104264 <close>
ffffffff80104663:	48 8b 0d 36 3c 01 00 	mov    0x13c36(%rip),%rcx        # ffffffff801182a0 <fd>
ffffffff8010466a:	8b 45 fc             	mov    -0x4(%rbp),%eax
ffffffff8010466d:	48 63 d0             	movslq %eax,%rdx
ffffffff80104670:	48 89 d0             	mov    %rdx,%rax
ffffffff80104673:	48 c1 e0 02          	shl    $0x2,%rax
ffffffff80104677:	48 01 d0             	add    %rdx,%rax
ffffffff8010467a:	48 c1 e0 03          	shl    $0x3,%rax
ffffffff8010467e:	48 8d 14 01          	lea    (%rcx,%rax,1),%rdx
ffffffff80104682:	48 8b 35 17 3c 01 00 	mov    0x13c17(%rip),%rsi        # ffffffff801182a0 <fd>
ffffffff80104689:	8b 45 f8             	mov    -0x8(%rbp),%eax
ffffffff8010468c:	48 63 c8             	movslq %eax,%rcx
ffffffff8010468f:	48 89 c8             	mov    %rcx,%rax
ffffffff80104692:	48 c1 e0 02          	shl    $0x2,%rax
ffffffff80104696:	48 01 c8             	add    %rcx,%rax
ffffffff80104699:	48 c1 e0 03          	shl    $0x3,%rax
ffffffff8010469d:	48 01 f0             	add    %rsi,%rax
ffffffff801046a0:	48 8b 0a             	mov    (%rdx),%rcx
ffffffff801046a3:	48 89 08             	mov    %rcx,(%rax)
ffffffff801046a6:	48 8b 4a 08          	mov    0x8(%rdx),%rcx
ffffffff801046aa:	48 89 48 08          	mov    %rcx,0x8(%rax)
ffffffff801046ae:	48 8b 4a 10          	mov    0x10(%rdx),%rcx
ffffffff801046b2:	48 89 48 10          	mov    %rcx,0x10(%rax)
ffffffff801046b6:	48 8b 4a 18          	mov    0x18(%rdx),%rcx
ffffffff801046ba:	48 89 48 18          	mov    %rcx,0x18(%rax)
ffffffff801046be:	48 8b 52 20          	mov    0x20(%rdx),%rdx
ffffffff801046c2:	48 89 50 20          	mov    %rdx,0x20(%rax)
ffffffff801046c6:	8b 45 f8             	mov    -0x8(%rbp),%eax
ffffffff801046c9:	c9                   	leaveq 
ffffffff801046ca:	c3                   	retq   

ffffffff801046cb <init_fd>:
ffffffff801046cb:	55                   	push   %rbp
ffffffff801046cc:	48 89 e5             	mov    %rsp,%rbp
ffffffff801046cf:	bf 00 50 00 00       	mov    $0x5000,%edi
ffffffff801046d4:	e8 bb dd ff ff       	callq  ffffffff80102494 <kcalloc>
ffffffff801046d9:	48 89 05 c0 3b 01 00 	mov    %rax,0x13bc0(%rip)        # ffffffff801182a0 <fd>
ffffffff801046e0:	90                   	nop
ffffffff801046e1:	5d                   	pop    %rbp
ffffffff801046e2:	c3                   	retq   

ffffffff801046e3 <gdt_init>:
ffffffff801046e3:	55                   	push   %rbp
ffffffff801046e4:	48 89 e5             	mov    %rsp,%rbp
ffffffff801046e7:	66 c7 05 d8 3b 01 00 	movw   $0x0,0x13bd8(%rip)        # ffffffff801182c8 <gdt+0x8>
ffffffff801046ee:	00 00 
ffffffff801046f0:	66 c7 05 d1 3b 01 00 	movw   $0x0,0x13bd1(%rip)        # ffffffff801182ca <gdt+0xa>
ffffffff801046f7:	00 00 
ffffffff801046f9:	c6 05 cc 3b 01 00 00 	movb   $0x0,0x13bcc(%rip)        # ffffffff801182cc <gdt+0xc>
ffffffff80104700:	c6 05 c6 3b 01 00 9a 	movb   $0x9a,0x13bc6(%rip)        # ffffffff801182cd <gdt+0xd>
ffffffff80104707:	c6 05 c0 3b 01 00 20 	movb   $0x20,0x13bc0(%rip)        # ffffffff801182ce <gdt+0xe>
ffffffff8010470e:	c6 05 ba 3b 01 00 00 	movb   $0x0,0x13bba(%rip)        # ffffffff801182cf <gdt+0xf>
ffffffff80104715:	66 c7 05 b2 3b 01 00 	movw   $0x0,0x13bb2(%rip)        # ffffffff801182d0 <gdt+0x10>
ffffffff8010471c:	00 00 
ffffffff8010471e:	66 c7 05 ab 3b 01 00 	movw   $0x0,0x13bab(%rip)        # ffffffff801182d2 <gdt+0x12>
ffffffff80104725:	00 00 
ffffffff80104727:	c6 05 a6 3b 01 00 00 	movb   $0x0,0x13ba6(%rip)        # ffffffff801182d4 <gdt+0x14>
ffffffff8010472e:	c6 05 a0 3b 01 00 96 	movb   $0x96,0x13ba0(%rip)        # ffffffff801182d5 <gdt+0x15>
ffffffff80104735:	c6 05 9a 3b 01 00 00 	movb   $0x0,0x13b9a(%rip)        # ffffffff801182d6 <gdt+0x16>
ffffffff8010473c:	c6 05 94 3b 01 00 00 	movb   $0x0,0x13b94(%rip)        # ffffffff801182d7 <gdt+0x17>
ffffffff80104743:	66 c7 05 8c 3b 01 00 	movw   $0x0,0x13b8c(%rip)        # ffffffff801182d8 <gdt+0x18>
ffffffff8010474a:	00 00 
ffffffff8010474c:	66 c7 05 85 3b 01 00 	movw   $0x0,0x13b85(%rip)        # ffffffff801182da <gdt+0x1a>
ffffffff80104753:	00 00 
ffffffff80104755:	c6 05 80 3b 01 00 00 	movb   $0x0,0x13b80(%rip)        # ffffffff801182dc <gdt+0x1c>
ffffffff8010475c:	c6 05 7a 3b 01 00 fd 	movb   $0xfd,0x13b7a(%rip)        # ffffffff801182dd <gdt+0x1d>
ffffffff80104763:	c6 05 74 3b 01 00 af 	movb   $0xaf,0x13b74(%rip)        # ffffffff801182de <gdt+0x1e>
ffffffff8010476a:	c6 05 6e 3b 01 00 00 	movb   $0x0,0x13b6e(%rip)        # ffffffff801182df <gdt+0x1f>
ffffffff80104771:	66 c7 05 66 3b 01 00 	movw   $0x0,0x13b66(%rip)        # ffffffff801182e0 <gdt+0x20>
ffffffff80104778:	00 00 
ffffffff8010477a:	66 c7 05 5f 3b 01 00 	movw   $0x0,0x13b5f(%rip)        # ffffffff801182e2 <gdt+0x22>
ffffffff80104781:	00 00 
ffffffff80104783:	c6 05 5a 3b 01 00 00 	movb   $0x0,0x13b5a(%rip)        # ffffffff801182e4 <gdt+0x24>
ffffffff8010478a:	c6 05 54 3b 01 00 f3 	movb   $0xf3,0x13b54(%rip)        # ffffffff801182e5 <gdt+0x25>
ffffffff80104791:	c6 05 4e 3b 01 00 cf 	movb   $0xcf,0x13b4e(%rip)        # ffffffff801182e6 <gdt+0x26>
ffffffff80104798:	c6 05 48 3b 01 00 00 	movb   $0x0,0x13b48(%rip)        # ffffffff801182e7 <gdt+0x27>
ffffffff8010479f:	48 c7 c0 c0 82 11 80 	mov    $0xffffffff801182c0,%rax
ffffffff801047a6:	48 89 05 3d 3d 01 00 	mov    %rax,0x13d3d(%rip)        # ffffffff801184ea <gdt+0x22a>
ffffffff801047ad:	66 c7 05 32 3d 01 00 	movw   $0x27,0x13d32(%rip)        # ffffffff801184e8 <gdt+0x228>
ffffffff801047b4:	27 00 
ffffffff801047b6:	48 c7 c0 e8 84 11 80 	mov    $0xffffffff801184e8,%rax
ffffffff801047bd:	48 89 c7             	mov    %rax,%rdi
ffffffff801047c0:	e8 9b 01 00 00       	callq  ffffffff80104960 <lgdt>
ffffffff801047c5:	90                   	nop
ffffffff801047c6:	5d                   	pop    %rbp
ffffffff801047c7:	c3                   	retq   

ffffffff801047c8 <gdt_tss_segment>:
ffffffff801047c8:	55                   	push   %rbp
ffffffff801047c9:	48 89 e5             	mov    %rsp,%rbp
ffffffff801047cc:	48 83 ec 10          	sub    $0x10,%rsp
ffffffff801047d0:	48 89 7d f8          	mov    %rdi,-0x8(%rbp)
ffffffff801047d4:	8b 05 1a 3d 01 00    	mov    0x13d1a(%rip),%eax        # ffffffff801184f4 <tss_cnt>
ffffffff801047da:	48 98                	cltq   
ffffffff801047dc:	48 83 c0 02          	add    $0x2,%rax
ffffffff801047e0:	48 c1 e0 04          	shl    $0x4,%rax
ffffffff801047e4:	48 05 c8 82 11 80    	add    $0xffffffff801182c8,%rax
ffffffff801047ea:	66 c7 00 68 00       	movw   $0x68,(%rax)
ffffffff801047ef:	8b 05 ff 3c 01 00    	mov    0x13cff(%rip),%eax        # ffffffff801184f4 <tss_cnt>
ffffffff801047f5:	48 8b 55 f8          	mov    -0x8(%rbp),%rdx
ffffffff801047f9:	48 98                	cltq   
ffffffff801047fb:	48 83 c0 02          	add    $0x2,%rax
ffffffff801047ff:	48 c1 e0 04          	shl    $0x4,%rax
ffffffff80104803:	48 05 ca 82 11 80    	add    $0xffffffff801182ca,%rax
ffffffff80104809:	66 89 10             	mov    %dx,(%rax)
ffffffff8010480c:	48 8b 45 f8          	mov    -0x8(%rbp),%rax
ffffffff80104810:	48 c1 e8 10          	shr    $0x10,%rax
ffffffff80104814:	48 89 c2             	mov    %rax,%rdx
ffffffff80104817:	8b 05 d7 3c 01 00    	mov    0x13cd7(%rip),%eax        # ffffffff801184f4 <tss_cnt>
ffffffff8010481d:	48 98                	cltq   
ffffffff8010481f:	48 83 c0 02          	add    $0x2,%rax
ffffffff80104823:	48 c1 e0 04          	shl    $0x4,%rax
ffffffff80104827:	48 05 cc 82 11 80    	add    $0xffffffff801182cc,%rax
ffffffff8010482d:	88 10                	mov    %dl,(%rax)
ffffffff8010482f:	8b 05 bf 3c 01 00    	mov    0x13cbf(%rip),%eax        # ffffffff801184f4 <tss_cnt>
ffffffff80104835:	48 98                	cltq   
ffffffff80104837:	48 83 c0 02          	add    $0x2,%rax
ffffffff8010483b:	48 c1 e0 04          	shl    $0x4,%rax
ffffffff8010483f:	48 05 cd 82 11 80    	add    $0xffffffff801182cd,%rax
ffffffff80104845:	c6 00 89             	movb   $0x89,(%rax)
ffffffff80104848:	8b 05 a6 3c 01 00    	mov    0x13ca6(%rip),%eax        # ffffffff801184f4 <tss_cnt>
ffffffff8010484e:	48 98                	cltq   
ffffffff80104850:	48 83 c0 02          	add    $0x2,%rax
ffffffff80104854:	48 c1 e0 04          	shl    $0x4,%rax
ffffffff80104858:	48 05 ce 82 11 80    	add    $0xffffffff801182ce,%rax
ffffffff8010485e:	c6 00 00             	movb   $0x0,(%rax)
ffffffff80104861:	48 8b 45 f8          	mov    -0x8(%rbp),%rax
ffffffff80104865:	48 c1 e8 18          	shr    $0x18,%rax
ffffffff80104869:	48 89 c2             	mov    %rax,%rdx
ffffffff8010486c:	8b 05 82 3c 01 00    	mov    0x13c82(%rip),%eax        # ffffffff801184f4 <tss_cnt>
ffffffff80104872:	48 98                	cltq   
ffffffff80104874:	48 83 c0 02          	add    $0x2,%rax
ffffffff80104878:	48 c1 e0 04          	shl    $0x4,%rax
ffffffff8010487c:	48 05 cf 82 11 80    	add    $0xffffffff801182cf,%rax
ffffffff80104882:	88 10                	mov    %dl,(%rax)
ffffffff80104884:	48 8b 45 f8          	mov    -0x8(%rbp),%rax
ffffffff80104888:	48 c1 e8 20          	shr    $0x20,%rax
ffffffff8010488c:	48 89 c1             	mov    %rax,%rcx
ffffffff8010488f:	8b 05 5f 3c 01 00    	mov    0x13c5f(%rip),%eax        # ffffffff801184f4 <tss_cnt>
ffffffff80104895:	8d 50 01             	lea    0x1(%rax),%edx
ffffffff80104898:	89 15 56 3c 01 00    	mov    %edx,0x13c56(%rip)        # ffffffff801184f4 <tss_cnt>
ffffffff8010489e:	89 ca                	mov    %ecx,%edx
ffffffff801048a0:	48 98                	cltq   
ffffffff801048a2:	48 83 c0 02          	add    $0x2,%rax
ffffffff801048a6:	48 c1 e0 04          	shl    $0x4,%rax
ffffffff801048aa:	48 05 d0 82 11 80    	add    $0xffffffff801182d0,%rax
ffffffff801048b0:	89 10                	mov    %edx,(%rax)
ffffffff801048b2:	0f b7 05 2f 3c 01 00 	movzwl 0x13c2f(%rip),%eax        # ffffffff801184e8 <gdt+0x228>
ffffffff801048b9:	83 c0 10             	add    $0x10,%eax
ffffffff801048bc:	66 89 05 25 3c 01 00 	mov    %ax,0x13c25(%rip)        # ffffffff801184e8 <gdt+0x228>
ffffffff801048c3:	48 c7 c0 e8 84 11 80 	mov    $0xffffffff801184e8,%rax
ffffffff801048ca:	48 89 c7             	mov    %rax,%rdi
ffffffff801048cd:	e8 8e 00 00 00       	callq  ffffffff80104960 <lgdt>
ffffffff801048d2:	0f b7 05 0f 3c 01 00 	movzwl 0x13c0f(%rip),%eax        # ffffffff801184e8 <gdt+0x228>
ffffffff801048d9:	0f b7 c0             	movzwl %ax,%eax
ffffffff801048dc:	48 83 e8 0f          	sub    $0xf,%rax
ffffffff801048e0:	48 89 c7             	mov    %rax,%rdi
ffffffff801048e3:	e8 9a 00 00 00       	callq  ffffffff80104982 <ltr>
ffffffff801048e8:	90                   	nop
ffffffff801048e9:	c9                   	leaveq 
ffffffff801048ea:	c3                   	retq   

ffffffff801048eb <create_generic_tss>:
ffffffff801048eb:	55                   	push   %rbp
ffffffff801048ec:	48 89 e5             	mov    %rsp,%rbp
ffffffff801048ef:	48 83 ec 10          	sub    $0x10,%rsp
ffffffff801048f3:	bf 68 00 00 00       	mov    $0x68,%edi
ffffffff801048f8:	e8 7f d8 ff ff       	callq  ffffffff8010217c <kmalloc>
ffffffff801048fd:	48 89 45 f8          	mov    %rax,-0x8(%rbp)
ffffffff80104901:	bf 02 00 00 00       	mov    $0x2,%edi
ffffffff80104906:	e8 2f 52 00 00       	callq  ffffffff80109b3a <pmm_alloc>
ffffffff8010490b:	48 8d 90 00 20 00 00 	lea    0x2000(%rax),%rdx
ffffffff80104912:	48 8b 45 f8          	mov    -0x8(%rbp),%rax
ffffffff80104916:	48 89 50 04          	mov    %rdx,0x4(%rax)
ffffffff8010491a:	bf 02 00 00 00       	mov    $0x2,%edi
ffffffff8010491f:	e8 16 52 00 00       	callq  ffffffff80109b3a <pmm_alloc>
ffffffff80104924:	48 8d 90 00 20 00 00 	lea    0x2000(%rax),%rdx
ffffffff8010492b:	48 8b 45 f8          	mov    -0x8(%rbp),%rax
ffffffff8010492f:	48 89 50 0c          	mov    %rdx,0xc(%rax)
ffffffff80104933:	bf 02 00 00 00       	mov    $0x2,%edi
ffffffff80104938:	e8 fd 51 00 00       	callq  ffffffff80109b3a <pmm_alloc>
ffffffff8010493d:	48 8d 90 00 20 00 00 	lea    0x2000(%rax),%rdx
ffffffff80104944:	48 8b 45 f8          	mov    -0x8(%rbp),%rax
ffffffff80104948:	48 89 50 14          	mov    %rdx,0x14(%rax)
ffffffff8010494c:	48 8b 45 f8          	mov    -0x8(%rbp),%rax
ffffffff80104950:	48 89 c7             	mov    %rax,%rdi
ffffffff80104953:	e8 70 fe ff ff       	callq  ffffffff801047c8 <gdt_tss_segment>
ffffffff80104958:	90                   	nop
ffffffff80104959:	c9                   	leaveq 
ffffffff8010495a:	c3                   	retq   
ffffffff8010495b:	0f 1f 44 00 00       	nopl   0x0(%rax,%rax,1)

ffffffff80104960 <lgdt>:
ffffffff80104960:	0f 01 17             	lgdt   (%rdi)
ffffffff80104963:	55                   	push   %rbp
ffffffff80104964:	48 89 e5             	mov    %rsp,%rbp
ffffffff80104967:	6a 10                	pushq  $0x10
ffffffff80104969:	55                   	push   %rbp
ffffffff8010496a:	9c                   	pushfq 
ffffffff8010496b:	6a 08                	pushq  $0x8
ffffffff8010496d:	68 74 49 10 80       	pushq  $0xffffffff80104974
ffffffff80104972:	48 cf                	iretq  

ffffffff80104974 <entry>:
ffffffff80104974:	5d                   	pop    %rbp
ffffffff80104975:	66 b8 10 00          	mov    $0x10,%ax
ffffffff80104979:	8e d8                	mov    %eax,%ds
ffffffff8010497b:	8e c0                	mov    %eax,%es
ffffffff8010497d:	8e e8                	mov    %eax,%gs
ffffffff8010497f:	8e d0                	mov    %eax,%ss
ffffffff80104981:	c3                   	retq   

ffffffff80104982 <ltr>:
ffffffff80104982:	0f 00 df             	ltr    %di
ffffffff80104985:	c3                   	retq   

ffffffff80104986 <init_graphics>:
ffffffff80104986:	55                   	push   %rbp
ffffffff80104987:	48 89 e5             	mov    %rsp,%rbp
ffffffff8010498a:	48 83 ec 10          	sub    $0x10,%rsp
ffffffff8010498e:	48 89 7d f8          	mov    %rdi,-0x8(%rbp)
ffffffff80104992:	48 8b 45 f8          	mov    -0x8(%rbp),%rax
ffffffff80104996:	48 8b 40 18          	mov    0x18(%rax),%rax
ffffffff8010499a:	48 89 05 57 3b 01 00 	mov    %rax,0x13b57(%rip)        # ffffffff801184f8 <framebuffer>
ffffffff801049a1:	48 8b 45 f8          	mov    -0x8(%rbp),%rax
ffffffff801049a5:	0f b7 40 24          	movzwl 0x24(%rax),%eax
ffffffff801049a9:	0f b7 c0             	movzwl %ax,%eax
ffffffff801049ac:	89 05 4e 3b 01 00    	mov    %eax,0x13b4e(%rip)        # ffffffff80118500 <fb_height>
ffffffff801049b2:	48 8b 45 f8          	mov    -0x8(%rbp),%rax
ffffffff801049b6:	0f b7 40 22          	movzwl 0x22(%rax),%eax
ffffffff801049ba:	0f b7 c0             	movzwl %ax,%eax
ffffffff801049bd:	89 05 41 3b 01 00    	mov    %eax,0x13b41(%rip)        # ffffffff80118504 <fb_width>
ffffffff801049c3:	48 8b 45 f8          	mov    -0x8(%rbp),%rax
ffffffff801049c7:	0f b7 40 26          	movzwl 0x26(%rax),%eax
ffffffff801049cb:	0f b7 c0             	movzwl %ax,%eax
ffffffff801049ce:	89 05 38 3b 01 00    	mov    %eax,0x13b38(%rip)        # ffffffff8011850c <fb_bpp>
ffffffff801049d4:	48 8b 45 f8          	mov    -0x8(%rbp),%rax
ffffffff801049d8:	0f b7 40 20          	movzwl 0x20(%rax),%eax
ffffffff801049dc:	0f b7 c0             	movzwl %ax,%eax
ffffffff801049df:	89 05 23 3b 01 00    	mov    %eax,0x13b23(%rip)        # ffffffff80118508 <fb_pitch>
ffffffff801049e5:	8b 15 15 3b 01 00    	mov    0x13b15(%rip),%edx        # ffffffff80118500 <fb_height>
ffffffff801049eb:	8b 05 17 3b 01 00    	mov    0x13b17(%rip),%eax        # ffffffff80118508 <fb_pitch>
ffffffff801049f1:	0f af c2             	imul   %edx,%eax
ffffffff801049f4:	89 05 1e 3b 01 00    	mov    %eax,0x13b1e(%rip)        # ffffffff80118518 <fb_size>
ffffffff801049fa:	8b 15 00 3b 01 00    	mov    0x13b00(%rip),%edx        # ffffffff80118500 <fb_height>
ffffffff80104a00:	8b 05 fe 3a 01 00    	mov    0x13afe(%rip),%eax        # ffffffff80118504 <fb_width>
ffffffff80104a06:	0f af c2             	imul   %edx,%eax
ffffffff80104a09:	89 c2                	mov    %eax,%edx
ffffffff80104a0b:	8b 05 fb 3a 01 00    	mov    0x13afb(%rip),%eax        # ffffffff8011850c <fb_bpp>
ffffffff80104a11:	c1 e8 02             	shr    $0x2,%eax
ffffffff80104a14:	89 c0                	mov    %eax,%eax
ffffffff80104a16:	48 0f af c2          	imul   %rdx,%rax
ffffffff80104a1a:	48 05 ff 0f 00 00    	add    $0xfff,%rax
ffffffff80104a20:	48 c1 e8 0c          	shr    $0xc,%rax
ffffffff80104a24:	48 89 c7             	mov    %rax,%rdi
ffffffff80104a27:	e8 51 52 00 00       	callq  ffffffff80109c7d <pmm_calloc>
ffffffff80104a2c:	48 ba 00 00 00 00 00 	movabs $0xffff800000000000,%rdx
ffffffff80104a33:	80 ff ff 
ffffffff80104a36:	48 01 d0             	add    %rdx,%rax
ffffffff80104a39:	48 89 05 d0 3a 01 00 	mov    %rax,0x13ad0(%rip)        # ffffffff80118510 <double_buffer>
ffffffff80104a40:	bf ff ff ff 00       	mov    $0xffffff,%edi
ffffffff80104a45:	e8 e4 01 00 00       	callq  ffffffff80104c2e <clear_screen>
ffffffff80104a4a:	90                   	nop
ffffffff80104a4b:	c9                   	leaveq 
ffffffff80104a4c:	c3                   	retq   

ffffffff80104a4d <set_pixel>:
ffffffff80104a4d:	55                   	push   %rbp
ffffffff80104a4e:	48 89 e5             	mov    %rsp,%rbp
ffffffff80104a51:	48 83 ec 10          	sub    $0x10,%rsp
ffffffff80104a55:	89 7d fc             	mov    %edi,-0x4(%rbp)
ffffffff80104a58:	89 75 f8             	mov    %esi,-0x8(%rbp)
ffffffff80104a5b:	89 55 f4             	mov    %edx,-0xc(%rbp)
ffffffff80104a5e:	8b 05 a4 3a 01 00    	mov    0x13aa4(%rip),%eax        # ffffffff80118508 <fb_pitch>
ffffffff80104a64:	0f af 45 f8          	imul   -0x8(%rbp),%eax
ffffffff80104a68:	89 c2                	mov    %eax,%edx
ffffffff80104a6a:	8b 05 9c 3a 01 00    	mov    0x13a9c(%rip),%eax        # ffffffff8011850c <fb_bpp>
ffffffff80104a70:	0f af 45 fc          	imul   -0x4(%rbp),%eax
ffffffff80104a74:	c1 e8 03             	shr    $0x3,%eax
ffffffff80104a77:	01 d0                	add    %edx,%eax
ffffffff80104a79:	89 c2                	mov    %eax,%edx
ffffffff80104a7b:	48 8b 05 76 3a 01 00 	mov    0x13a76(%rip),%rax        # ffffffff801184f8 <framebuffer>
ffffffff80104a82:	48 01 c2             	add    %rax,%rdx
ffffffff80104a85:	48 b8 00 00 00 00 00 	movabs $0xffff800000000000,%rax
ffffffff80104a8c:	80 ff ff 
ffffffff80104a8f:	48 01 d0             	add    %rdx,%rax
ffffffff80104a92:	48 89 c2             	mov    %rax,%rdx
ffffffff80104a95:	8b 45 f4             	mov    -0xc(%rbp),%eax
ffffffff80104a98:	89 02                	mov    %eax,(%rdx)
ffffffff80104a9a:	8b 05 68 3a 01 00    	mov    0x13a68(%rip),%eax        # ffffffff80118508 <fb_pitch>
ffffffff80104aa0:	0f af 45 f8          	imul   -0x8(%rbp),%eax
ffffffff80104aa4:	89 c2                	mov    %eax,%edx
ffffffff80104aa6:	8b 05 60 3a 01 00    	mov    0x13a60(%rip),%eax        # ffffffff8011850c <fb_bpp>
ffffffff80104aac:	0f af 45 fc          	imul   -0x4(%rbp),%eax
ffffffff80104ab0:	c1 e8 03             	shr    $0x3,%eax
ffffffff80104ab3:	01 d0                	add    %edx,%eax
ffffffff80104ab5:	89 c2                	mov    %eax,%edx
ffffffff80104ab7:	48 8b 05 52 3a 01 00 	mov    0x13a52(%rip),%rax        # ffffffff80118510 <double_buffer>
ffffffff80104abe:	48 01 d0             	add    %rdx,%rax
ffffffff80104ac1:	48 89 c2             	mov    %rax,%rdx
ffffffff80104ac4:	8b 45 f4             	mov    -0xc(%rbp),%eax
ffffffff80104ac7:	89 02                	mov    %eax,(%rdx)
ffffffff80104ac9:	90                   	nop
ffffffff80104aca:	c9                   	leaveq 
ffffffff80104acb:	c3                   	retq   

ffffffff80104acc <get_pixel>:
ffffffff80104acc:	55                   	push   %rbp
ffffffff80104acd:	48 89 e5             	mov    %rsp,%rbp
ffffffff80104ad0:	48 83 ec 08          	sub    $0x8,%rsp
ffffffff80104ad4:	89 7d fc             	mov    %edi,-0x4(%rbp)
ffffffff80104ad7:	89 75 f8             	mov    %esi,-0x8(%rbp)
ffffffff80104ada:	8b 05 28 3a 01 00    	mov    0x13a28(%rip),%eax        # ffffffff80118508 <fb_pitch>
ffffffff80104ae0:	0f af 45 f8          	imul   -0x8(%rbp),%eax
ffffffff80104ae4:	89 c2                	mov    %eax,%edx
ffffffff80104ae6:	8b 05 20 3a 01 00    	mov    0x13a20(%rip),%eax        # ffffffff8011850c <fb_bpp>
ffffffff80104aec:	0f af 45 fc          	imul   -0x4(%rbp),%eax
ffffffff80104af0:	c1 e8 03             	shr    $0x3,%eax
ffffffff80104af3:	01 d0                	add    %edx,%eax
ffffffff80104af5:	89 c2                	mov    %eax,%edx
ffffffff80104af7:	48 8b 05 12 3a 01 00 	mov    0x13a12(%rip),%rax        # ffffffff80118510 <double_buffer>
ffffffff80104afe:	48 01 d0             	add    %rdx,%rax
ffffffff80104b01:	8b 00                	mov    (%rax),%eax
ffffffff80104b03:	c9                   	leaveq 
ffffffff80104b04:	c3                   	retq   

ffffffff80104b05 <scroll>:
ffffffff80104b05:	55                   	push   %rbp
ffffffff80104b06:	48 89 e5             	mov    %rsp,%rbp
ffffffff80104b09:	48 83 ec 10          	sub    $0x10,%rsp
ffffffff80104b0d:	89 7d fc             	mov    %edi,-0x4(%rbp)
ffffffff80104b10:	89 75 f8             	mov    %esi,-0x8(%rbp)
ffffffff80104b13:	8b 15 ff 39 01 00    	mov    0x139ff(%rip),%edx        # ffffffff80118518 <fb_size>
ffffffff80104b19:	8b 05 e9 39 01 00    	mov    0x139e9(%rip),%eax        # ffffffff80118508 <fb_pitch>
ffffffff80104b1f:	0f af 45 f8          	imul   -0x8(%rbp),%eax
ffffffff80104b23:	89 c1                	mov    %eax,%ecx
ffffffff80104b25:	89 d0                	mov    %edx,%eax
ffffffff80104b27:	29 c8                	sub    %ecx,%eax
ffffffff80104b29:	c1 e8 03             	shr    $0x3,%eax
ffffffff80104b2c:	89 c2                	mov    %eax,%edx
ffffffff80104b2e:	8b 05 d4 39 01 00    	mov    0x139d4(%rip),%eax        # ffffffff80118508 <fb_pitch>
ffffffff80104b34:	0f af 45 f8          	imul   -0x8(%rbp),%eax
ffffffff80104b38:	89 c1                	mov    %eax,%ecx
ffffffff80104b3a:	48 8b 05 cf 39 01 00 	mov    0x139cf(%rip),%rax        # ffffffff80118510 <double_buffer>
ffffffff80104b41:	48 01 c8             	add    %rcx,%rax
ffffffff80104b44:	48 89 c1             	mov    %rax,%rcx
ffffffff80104b47:	48 8b 05 aa 39 01 00 	mov    0x139aa(%rip),%rax        # ffffffff801184f8 <framebuffer>
ffffffff80104b4e:	48 89 ce             	mov    %rcx,%rsi
ffffffff80104b51:	48 89 c7             	mov    %rax,%rdi
ffffffff80104b54:	e8 3b 39 00 00       	callq  ffffffff80108494 <memcpy64>
ffffffff80104b59:	8b 15 b9 39 01 00    	mov    0x139b9(%rip),%edx        # ffffffff80118518 <fb_size>
ffffffff80104b5f:	8b 05 a3 39 01 00    	mov    0x139a3(%rip),%eax        # ffffffff80118508 <fb_pitch>
ffffffff80104b65:	0f af 45 f8          	imul   -0x8(%rbp),%eax
ffffffff80104b69:	89 c1                	mov    %eax,%ecx
ffffffff80104b6b:	89 d0                	mov    %edx,%eax
ffffffff80104b6d:	29 c8                	sub    %ecx,%eax
ffffffff80104b6f:	c1 e8 03             	shr    $0x3,%eax
ffffffff80104b72:	89 c2                	mov    %eax,%edx
ffffffff80104b74:	8b 05 8e 39 01 00    	mov    0x1398e(%rip),%eax        # ffffffff80118508 <fb_pitch>
ffffffff80104b7a:	0f af 45 f8          	imul   -0x8(%rbp),%eax
ffffffff80104b7e:	89 c1                	mov    %eax,%ecx
ffffffff80104b80:	48 8b 05 89 39 01 00 	mov    0x13989(%rip),%rax        # ffffffff80118510 <double_buffer>
ffffffff80104b87:	48 01 c8             	add    %rcx,%rax
ffffffff80104b8a:	48 89 c1             	mov    %rax,%rcx
ffffffff80104b8d:	48 8b 05 7c 39 01 00 	mov    0x1397c(%rip),%rax        # ffffffff80118510 <double_buffer>
ffffffff80104b94:	48 89 ce             	mov    %rcx,%rsi
ffffffff80104b97:	48 89 c7             	mov    %rax,%rdi
ffffffff80104b9a:	e8 f5 38 00 00       	callq  ffffffff80108494 <memcpy64>
ffffffff80104b9f:	8b 05 63 39 01 00    	mov    0x13963(%rip),%eax        # ffffffff80118508 <fb_pitch>
ffffffff80104ba5:	0f af 45 f8          	imul   -0x8(%rbp),%eax
ffffffff80104ba9:	c1 e8 02             	shr    $0x2,%eax
ffffffff80104bac:	89 c6                	mov    %eax,%esi
ffffffff80104bae:	8b 05 64 39 01 00    	mov    0x13964(%rip),%eax        # ffffffff80118518 <fb_size>
ffffffff80104bb4:	89 c2                	mov    %eax,%edx
ffffffff80104bb6:	48 8b 05 3b 39 01 00 	mov    0x1393b(%rip),%rax        # ffffffff801184f8 <framebuffer>
ffffffff80104bbd:	48 01 c2             	add    %rax,%rdx
ffffffff80104bc0:	8b 05 42 39 01 00    	mov    0x13942(%rip),%eax        # ffffffff80118508 <fb_pitch>
ffffffff80104bc6:	0f af 45 f8          	imul   -0x8(%rbp),%eax
ffffffff80104bca:	89 c1                	mov    %eax,%ecx
ffffffff80104bcc:	48 89 d0             	mov    %rdx,%rax
ffffffff80104bcf:	48 29 c8             	sub    %rcx,%rax
ffffffff80104bd2:	48 89 c1             	mov    %rax,%rcx
ffffffff80104bd5:	8b 45 fc             	mov    -0x4(%rbp),%eax
ffffffff80104bd8:	48 89 f2             	mov    %rsi,%rdx
ffffffff80104bdb:	89 c6                	mov    %eax,%esi
ffffffff80104bdd:	48 89 cf             	mov    %rcx,%rdi
ffffffff80104be0:	e8 2e 37 00 00       	callq  ffffffff80108313 <memset32>
ffffffff80104be5:	8b 05 1d 39 01 00    	mov    0x1391d(%rip),%eax        # ffffffff80118508 <fb_pitch>
ffffffff80104beb:	0f af 45 f8          	imul   -0x8(%rbp),%eax
ffffffff80104bef:	c1 e8 02             	shr    $0x2,%eax
ffffffff80104bf2:	89 c6                	mov    %eax,%esi
ffffffff80104bf4:	8b 05 1e 39 01 00    	mov    0x1391e(%rip),%eax        # ffffffff80118518 <fb_size>
ffffffff80104bfa:	89 c2                	mov    %eax,%edx
ffffffff80104bfc:	48 8b 05 0d 39 01 00 	mov    0x1390d(%rip),%rax        # ffffffff80118510 <double_buffer>
ffffffff80104c03:	48 01 c2             	add    %rax,%rdx
ffffffff80104c06:	8b 05 fc 38 01 00    	mov    0x138fc(%rip),%eax        # ffffffff80118508 <fb_pitch>
ffffffff80104c0c:	0f af 45 f8          	imul   -0x8(%rbp),%eax
ffffffff80104c10:	89 c1                	mov    %eax,%ecx
ffffffff80104c12:	48 89 d0             	mov    %rdx,%rax
ffffffff80104c15:	48 29 c8             	sub    %rcx,%rax
ffffffff80104c18:	48 89 c1             	mov    %rax,%rcx
ffffffff80104c1b:	8b 45 fc             	mov    -0x4(%rbp),%eax
ffffffff80104c1e:	48 89 f2             	mov    %rsi,%rdx
ffffffff80104c21:	89 c6                	mov    %eax,%esi
ffffffff80104c23:	48 89 cf             	mov    %rcx,%rdi
ffffffff80104c26:	e8 e8 36 00 00       	callq  ffffffff80108313 <memset32>
ffffffff80104c2b:	90                   	nop
ffffffff80104c2c:	c9                   	leaveq 
ffffffff80104c2d:	c3                   	retq   

ffffffff80104c2e <clear_screen>:
ffffffff80104c2e:	55                   	push   %rbp
ffffffff80104c2f:	48 89 e5             	mov    %rsp,%rbp
ffffffff80104c32:	48 83 ec 10          	sub    $0x10,%rsp
ffffffff80104c36:	89 7d fc             	mov    %edi,-0x4(%rbp)
ffffffff80104c39:	8b 05 d9 38 01 00    	mov    0x138d9(%rip),%eax        # ffffffff80118518 <fb_size>
ffffffff80104c3f:	c1 e8 02             	shr    $0x2,%eax
ffffffff80104c42:	89 c2                	mov    %eax,%edx
ffffffff80104c44:	48 8b 05 ad 38 01 00 	mov    0x138ad(%rip),%rax        # ffffffff801184f8 <framebuffer>
ffffffff80104c4b:	8b 4d fc             	mov    -0x4(%rbp),%ecx
ffffffff80104c4e:	89 ce                	mov    %ecx,%esi
ffffffff80104c50:	48 89 c7             	mov    %rax,%rdi
ffffffff80104c53:	e8 bb 36 00 00       	callq  ffffffff80108313 <memset32>
ffffffff80104c58:	8b 05 ba 38 01 00    	mov    0x138ba(%rip),%eax        # ffffffff80118518 <fb_size>
ffffffff80104c5e:	c1 e8 02             	shr    $0x2,%eax
ffffffff80104c61:	89 c2                	mov    %eax,%edx
ffffffff80104c63:	48 8b 05 a6 38 01 00 	mov    0x138a6(%rip),%rax        # ffffffff80118510 <double_buffer>
ffffffff80104c6a:	8b 4d fc             	mov    -0x4(%rbp),%ecx
ffffffff80104c6d:	89 ce                	mov    %ecx,%esi
ffffffff80104c6f:	48 89 c7             	mov    %rax,%rdi
ffffffff80104c72:	e8 9c 36 00 00       	callq  ffffffff80108313 <memset32>
ffffffff80104c77:	90                   	nop
ffffffff80104c78:	c9                   	leaveq 
ffffffff80104c79:	c3                   	retq   

ffffffff80104c7a <render_char>:
ffffffff80104c7a:	55                   	push   %rbp
ffffffff80104c7b:	48 89 e5             	mov    %rsp,%rbp
ffffffff80104c7e:	48 83 ec 20          	sub    $0x20,%rsp
ffffffff80104c82:	89 7d ec             	mov    %edi,-0x14(%rbp)
ffffffff80104c85:	89 75 e8             	mov    %esi,-0x18(%rbp)
ffffffff80104c88:	89 55 e4             	mov    %edx,-0x1c(%rbp)
ffffffff80104c8b:	89 c8                	mov    %ecx,%eax
ffffffff80104c8d:	88 45 e0             	mov    %al,-0x20(%rbp)
ffffffff80104c90:	0f b6 45 e0          	movzbl -0x20(%rbp),%eax
ffffffff80104c94:	0f b6 c0             	movzbl %al,%eax
ffffffff80104c97:	83 e8 20             	sub    $0x20,%eax
ffffffff80104c9a:	c1 e0 04             	shl    $0x4,%eax
ffffffff80104c9d:	66 89 45 fa          	mov    %ax,-0x6(%rbp)
ffffffff80104ca1:	c6 45 ff 00          	movb   $0x0,-0x1(%rbp)
ffffffff80104ca5:	c6 45 fe 08          	movb   $0x8,-0x2(%rbp)
ffffffff80104ca9:	eb 71                	jmp    ffffffff80104d1c <render_char+0xa2>
ffffffff80104cab:	c6 45 fd 00          	movb   $0x0,-0x3(%rbp)
ffffffff80104caf:	eb 51                	jmp    ffffffff80104d02 <render_char+0x88>
ffffffff80104cb1:	0f b7 55 fa          	movzwl -0x6(%rbp),%edx
ffffffff80104cb5:	0f b6 45 fd          	movzbl -0x3(%rbp),%eax
ffffffff80104cb9:	01 d0                	add    %edx,%eax
ffffffff80104cbb:	48 98                	cltq   
ffffffff80104cbd:	0f b6 80 20 e0 10 80 	movzbl -0x7fef1fe0(%rax),%eax
ffffffff80104cc4:	0f b6 d0             	movzbl %al,%edx
ffffffff80104cc7:	0f b6 45 ff          	movzbl -0x1(%rbp),%eax
ffffffff80104ccb:	89 c1                	mov    %eax,%ecx
ffffffff80104ccd:	d3 fa                	sar    %cl,%edx
ffffffff80104ccf:	89 d0                	mov    %edx,%eax
ffffffff80104cd1:	83 e0 01             	and    $0x1,%eax
ffffffff80104cd4:	85 c0                	test   %eax,%eax
ffffffff80104cd6:	74 20                	je     ffffffff80104cf8 <render_char+0x7e>
ffffffff80104cd8:	0f b6 55 fd          	movzbl -0x3(%rbp),%edx
ffffffff80104cdc:	8b 45 e8             	mov    -0x18(%rbp),%eax
ffffffff80104cdf:	8d 34 02             	lea    (%rdx,%rax,1),%esi
ffffffff80104ce2:	0f b6 55 fe          	movzbl -0x2(%rbp),%edx
ffffffff80104ce6:	8b 45 ec             	mov    -0x14(%rbp),%eax
ffffffff80104ce9:	8d 0c 02             	lea    (%rdx,%rax,1),%ecx
ffffffff80104cec:	8b 45 e4             	mov    -0x1c(%rbp),%eax
ffffffff80104cef:	89 c2                	mov    %eax,%edx
ffffffff80104cf1:	89 cf                	mov    %ecx,%edi
ffffffff80104cf3:	e8 55 fd ff ff       	callq  ffffffff80104a4d <set_pixel>
ffffffff80104cf8:	0f b6 45 fd          	movzbl -0x3(%rbp),%eax
ffffffff80104cfc:	83 c0 01             	add    $0x1,%eax
ffffffff80104cff:	88 45 fd             	mov    %al,-0x3(%rbp)
ffffffff80104d02:	80 7d fd 0f          	cmpb   $0xf,-0x3(%rbp)
ffffffff80104d06:	76 a9                	jbe    ffffffff80104cb1 <render_char+0x37>
ffffffff80104d08:	0f b6 45 ff          	movzbl -0x1(%rbp),%eax
ffffffff80104d0c:	83 c0 01             	add    $0x1,%eax
ffffffff80104d0f:	88 45 ff             	mov    %al,-0x1(%rbp)
ffffffff80104d12:	0f b6 45 fe          	movzbl -0x2(%rbp),%eax
ffffffff80104d16:	83 e8 01             	sub    $0x1,%eax
ffffffff80104d19:	88 45 fe             	mov    %al,-0x2(%rbp)
ffffffff80104d1c:	80 7d ff 07          	cmpb   $0x7,-0x1(%rbp)
ffffffff80104d20:	77 06                	ja     ffffffff80104d28 <render_char+0xae>
ffffffff80104d22:	80 7d fe 00          	cmpb   $0x0,-0x2(%rbp)
ffffffff80104d26:	75 83                	jne    ffffffff80104cab <render_char+0x31>
ffffffff80104d28:	90                   	nop
ffffffff80104d29:	c9                   	leaveq 
ffffffff80104d2a:	c3                   	retq   

ffffffff80104d2b <ksleep>:
ffffffff80104d2b:	55                   	push   %rbp
ffffffff80104d2c:	48 89 e5             	mov    %rsp,%rbp
ffffffff80104d2f:	48 83 ec 18          	sub    $0x18,%rsp
ffffffff80104d33:	48 89 7d e8          	mov    %rdi,-0x18(%rbp)
ffffffff80104d37:	48 8b 05 ea 37 01 00 	mov    0x137ea(%rip),%rax        # ffffffff80118528 <hpet>
ffffffff80104d3e:	48 8b 88 f0 00 00 00 	mov    0xf0(%rax),%rcx
ffffffff80104d45:	48 8b 45 e8          	mov    -0x18(%rbp),%rax
ffffffff80104d49:	48 ba 00 10 a5 d4 e8 	movabs $0xe8d4a51000,%rdx
ffffffff80104d50:	00 00 00 
ffffffff80104d53:	48 0f af c2          	imul   %rdx,%rax
ffffffff80104d57:	48 8b 15 ca 37 01 00 	mov    0x137ca(%rip),%rdx        # ffffffff80118528 <hpet>
ffffffff80104d5e:	48 8b 12             	mov    (%rdx),%rdx
ffffffff80104d61:	48 c1 ea 20          	shr    $0x20,%rdx
ffffffff80104d65:	89 d6                	mov    %edx,%esi
ffffffff80104d67:	ba 00 00 00 00       	mov    $0x0,%edx
ffffffff80104d6c:	48 f7 f6             	div    %rsi
ffffffff80104d6f:	48 01 c8             	add    %rcx,%rax
ffffffff80104d72:	48 89 45 f8          	mov    %rax,-0x8(%rbp)
ffffffff80104d76:	90                   	nop
ffffffff80104d77:	48 8b 05 aa 37 01 00 	mov    0x137aa(%rip),%rax        # ffffffff80118528 <hpet>
ffffffff80104d7e:	48 8b 80 f0 00 00 00 	mov    0xf0(%rax),%rax
ffffffff80104d85:	48 39 45 f8          	cmp    %rax,-0x8(%rbp)
ffffffff80104d89:	77 ec                	ja     ffffffff80104d77 <ksleep+0x4c>
ffffffff80104d8b:	90                   	nop
ffffffff80104d8c:	90                   	nop
ffffffff80104d8d:	c9                   	leaveq 
ffffffff80104d8e:	c3                   	retq   

ffffffff80104d8f <init_hpet>:
ffffffff80104d8f:	55                   	push   %rbp
ffffffff80104d90:	48 89 e5             	mov    %rsp,%rbp
ffffffff80104d93:	48 c7 c7 06 c2 10 80 	mov    $0xffffffff8010c206,%rdi
ffffffff80104d9a:	e8 cd 52 00 00       	callq  ffffffff8010a06c <find_SDT>
ffffffff80104d9f:	48 89 05 7a 37 01 00 	mov    %rax,0x1377a(%rip)        # ffffffff80118520 <hpet_table>
ffffffff80104da6:	48 8b 05 73 37 01 00 	mov    0x13773(%rip),%rax        # ffffffff80118520 <hpet_table>
ffffffff80104dad:	48 8b 40 2c          	mov    0x2c(%rax),%rax
ffffffff80104db1:	48 ba 10 00 00 00 00 	movabs $0xffff800000000010,%rdx
ffffffff80104db8:	80 ff ff 
ffffffff80104dbb:	48 01 d0             	add    %rdx,%rax
ffffffff80104dbe:	48 c7 00 01 00 00 00 	movq   $0x1,(%rax)
ffffffff80104dc5:	48 8b 05 54 37 01 00 	mov    0x13754(%rip),%rax        # ffffffff80118520 <hpet_table>
ffffffff80104dcc:	48 8b 40 2c          	mov    0x2c(%rax),%rax
ffffffff80104dd0:	48 ba 00 00 00 00 00 	movabs $0xffff800000000000,%rdx
ffffffff80104dd7:	80 ff ff 
ffffffff80104dda:	48 01 d0             	add    %rdx,%rax
ffffffff80104ddd:	48 89 05 44 37 01 00 	mov    %rax,0x13744(%rip)        # ffffffff80118528 <hpet>
ffffffff80104de4:	90                   	nop
ffffffff80104de5:	5d                   	pop    %rbp
ffffffff80104de6:	c3                   	retq   

ffffffff80104de7 <isr_handler_main>:
ffffffff80104de7:	55                   	push   %rbp
ffffffff80104de8:	48 89 e5             	mov    %rsp,%rbp
ffffffff80104deb:	48 83 ec 20          	sub    $0x20,%rsp
ffffffff80104def:	48 89 7d e8          	mov    %rdi,-0x18(%rbp)
ffffffff80104df3:	48 8b 45 e8          	mov    -0x18(%rbp),%rax
ffffffff80104df7:	48 8b 40 78          	mov    0x78(%rax),%rax
ffffffff80104dfb:	48 83 f8 1f          	cmp    $0x1f,%rax
ffffffff80104dff:	0f 87 62 01 00 00    	ja     ffffffff80104f67 <isr_handler_main+0x180>
ffffffff80104e05:	0f 20 d0             	mov    %cr2,%rax
ffffffff80104e08:	48 89 45 f8          	mov    %rax,-0x8(%rbp)
ffffffff80104e0c:	48 8b 45 e8          	mov    -0x18(%rbp),%rax
ffffffff80104e10:	48 8b 90 80 00 00 00 	mov    0x80(%rax),%rdx
ffffffff80104e17:	48 8b 45 e8          	mov    -0x18(%rbp),%rax
ffffffff80104e1b:	48 8b 40 78          	mov    0x78(%rax),%rax
ffffffff80104e1f:	48 8b 04 c5 20 e6 10 	mov    -0x7fef19e0(,%rax,8),%rax
ffffffff80104e26:	80 
ffffffff80104e27:	48 89 c6             	mov    %rax,%rsi
ffffffff80104e2a:	48 c7 c7 98 c3 10 80 	mov    $0xffffffff8010c398,%rdi
ffffffff80104e31:	b8 00 00 00 00       	mov    $0x0,%eax
ffffffff80104e36:	e8 43 3d 00 00       	callq  ffffffff80108b7e <kvprintf>
ffffffff80104e3b:	48 8b 45 e8          	mov    -0x18(%rbp),%rax
ffffffff80104e3f:	48 8b 70 58          	mov    0x58(%rax),%rsi
ffffffff80104e43:	48 8b 45 e8          	mov    -0x18(%rbp),%rax
ffffffff80104e47:	48 8b 48 60          	mov    0x60(%rax),%rcx
ffffffff80104e4b:	48 8b 45 e8          	mov    -0x18(%rbp),%rax
ffffffff80104e4f:	48 8b 50 68          	mov    0x68(%rax),%rdx
ffffffff80104e53:	48 8b 45 e8          	mov    -0x18(%rbp),%rax
ffffffff80104e57:	48 8b 40 70          	mov    0x70(%rax),%rax
ffffffff80104e5b:	49 89 f0             	mov    %rsi,%r8
ffffffff80104e5e:	48 89 c6             	mov    %rax,%rsi
ffffffff80104e61:	48 c7 c7 c0 c3 10 80 	mov    $0xffffffff8010c3c0,%rdi
ffffffff80104e68:	b8 00 00 00 00       	mov    $0x0,%eax
ffffffff80104e6d:	e8 0c 3d 00 00       	callq  ffffffff80108b7e <kvprintf>
ffffffff80104e72:	48 8b 45 e8          	mov    -0x18(%rbp),%rax
ffffffff80104e76:	48 8b b0 a0 00 00 00 	mov    0xa0(%rax),%rsi
ffffffff80104e7d:	48 8b 45 e8          	mov    -0x18(%rbp),%rax
ffffffff80104e81:	48 8b 48 50          	mov    0x50(%rax),%rcx
ffffffff80104e85:	48 8b 45 e8          	mov    -0x18(%rbp),%rax
ffffffff80104e89:	48 8b 50 48          	mov    0x48(%rax),%rdx
ffffffff80104e8d:	48 8b 45 e8          	mov    -0x18(%rbp),%rax
ffffffff80104e91:	48 8b 40 40          	mov    0x40(%rax),%rax
ffffffff80104e95:	49 89 f0             	mov    %rsi,%r8
ffffffff80104e98:	48 89 c6             	mov    %rax,%rsi
ffffffff80104e9b:	48 c7 c7 e8 c3 10 80 	mov    $0xffffffff8010c3e8,%rdi
ffffffff80104ea2:	b8 00 00 00 00       	mov    $0x0,%eax
ffffffff80104ea7:	e8 d2 3c 00 00       	callq  ffffffff80108b7e <kvprintf>
ffffffff80104eac:	48 8b 45 e8          	mov    -0x18(%rbp),%rax
ffffffff80104eb0:	48 8b 70 20          	mov    0x20(%rax),%rsi
ffffffff80104eb4:	48 8b 45 e8          	mov    -0x18(%rbp),%rax
ffffffff80104eb8:	48 8b 48 28          	mov    0x28(%rax),%rcx
ffffffff80104ebc:	48 8b 45 e8          	mov    -0x18(%rbp),%rax
ffffffff80104ec0:	48 8b 50 30          	mov    0x30(%rax),%rdx
ffffffff80104ec4:	48 8b 45 e8          	mov    -0x18(%rbp),%rax
ffffffff80104ec8:	48 8b 40 38          	mov    0x38(%rax),%rax
ffffffff80104ecc:	49 89 f0             	mov    %rsi,%r8
ffffffff80104ecf:	48 89 c6             	mov    %rax,%rsi
ffffffff80104ed2:	48 c7 c7 10 c4 10 80 	mov    $0xffffffff8010c410,%rdi
ffffffff80104ed9:	b8 00 00 00 00       	mov    $0x0,%eax
ffffffff80104ede:	e8 9b 3c 00 00       	callq  ffffffff80108b7e <kvprintf>
ffffffff80104ee3:	48 8b 45 e8          	mov    -0x18(%rbp),%rax
ffffffff80104ee7:	48 8b 30             	mov    (%rax),%rsi
ffffffff80104eea:	48 8b 45 e8          	mov    -0x18(%rbp),%rax
ffffffff80104eee:	48 8b 48 08          	mov    0x8(%rax),%rcx
ffffffff80104ef2:	48 8b 45 e8          	mov    -0x18(%rbp),%rax
ffffffff80104ef6:	48 8b 50 10          	mov    0x10(%rax),%rdx
ffffffff80104efa:	48 8b 45 e8          	mov    -0x18(%rbp),%rax
ffffffff80104efe:	48 8b 40 18          	mov    0x18(%rax),%rax
ffffffff80104f02:	49 89 f0             	mov    %rsi,%r8
ffffffff80104f05:	48 89 c6             	mov    %rax,%rsi
ffffffff80104f08:	48 c7 c7 38 c4 10 80 	mov    $0xffffffff8010c438,%rdi
ffffffff80104f0f:	b8 00 00 00 00       	mov    $0x0,%eax
ffffffff80104f14:	e8 65 3c 00 00       	callq  ffffffff80108b7e <kvprintf>
ffffffff80104f19:	48 8b 45 e8          	mov    -0x18(%rbp),%rax
ffffffff80104f1d:	48 8b b0 88 00 00 00 	mov    0x88(%rax),%rsi
ffffffff80104f24:	48 8b 45 e8          	mov    -0x18(%rbp),%rax
ffffffff80104f28:	48 8b 90 a8 00 00 00 	mov    0xa8(%rax),%rdx
ffffffff80104f2f:	48 8b 45 e8          	mov    -0x18(%rbp),%rax
ffffffff80104f33:	48 8b 80 90 00 00 00 	mov    0x90(%rax),%rax
ffffffff80104f3a:	48 8b 4d f8          	mov    -0x8(%rbp),%rcx
ffffffff80104f3e:	49 89 f0             	mov    %rsi,%r8
ffffffff80104f41:	48 89 c6             	mov    %rax,%rsi
ffffffff80104f44:	48 c7 c7 60 c4 10 80 	mov    $0xffffffff8010c460,%rdi
ffffffff80104f4b:	b8 00 00 00 00       	mov    $0x0,%eax
ffffffff80104f50:	e8 29 3c 00 00       	callq  ffffffff80108b7e <kvprintf>
ffffffff80104f55:	48 8b 45 e8          	mov    -0x18(%rbp),%rax
ffffffff80104f59:	48 8b 40 50          	mov    0x50(%rax),%rax
ffffffff80104f5d:	48 89 c7             	mov    %rax,%rdi
ffffffff80104f60:	e8 5d 42 00 00       	callq  ffffffff801091c2 <stacktrace>
ffffffff80104f65:	eb fe                	jmp    ffffffff80104f65 <isr_handler_main+0x17e>
ffffffff80104f67:	48 8b 45 e8          	mov    -0x18(%rbp),%rax
ffffffff80104f6b:	48 8b 40 78          	mov    0x78(%rax),%rax
ffffffff80104f6f:	48 8b 04 c5 40 e7 10 	mov    -0x7fef18c0(,%rax,8),%rax
ffffffff80104f76:	80 
ffffffff80104f77:	48 85 c0             	test   %rax,%rax
ffffffff80104f7a:	74 19                	je     ffffffff80104f95 <isr_handler_main+0x1ae>
ffffffff80104f7c:	48 8b 45 e8          	mov    -0x18(%rbp),%rax
ffffffff80104f80:	48 8b 40 78          	mov    0x78(%rax),%rax
ffffffff80104f84:	48 8b 14 c5 40 e7 10 	mov    -0x7fef18c0(,%rax,8),%rdx
ffffffff80104f8b:	80 
ffffffff80104f8c:	48 8b 45 e8          	mov    -0x18(%rbp),%rax
ffffffff80104f90:	48 89 c7             	mov    %rax,%rdi
ffffffff80104f93:	ff d2                	callq  *%rdx
ffffffff80104f95:	be 00 00 00 00       	mov    $0x0,%esi
ffffffff80104f9a:	bf b0 00 00 00       	mov    $0xb0,%edi
ffffffff80104f9f:	e8 0e cb ff ff       	callq  ffffffff80101ab2 <lapic_write>
ffffffff80104fa4:	90                   	nop
ffffffff80104fa5:	c9                   	leaveq 
ffffffff80104fa6:	c3                   	retq   

ffffffff80104fa7 <set_idt_entry>:
ffffffff80104fa7:	55                   	push   %rbp
ffffffff80104fa8:	48 89 e5             	mov    %rsp,%rbp
ffffffff80104fab:	48 83 ec 18          	sub    $0x18,%rsp
ffffffff80104faf:	89 f8                	mov    %edi,%eax
ffffffff80104fb1:	48 89 4d e8          	mov    %rcx,-0x18(%rbp)
ffffffff80104fb5:	44 89 c1             	mov    %r8d,%ecx
ffffffff80104fb8:	66 89 45 fc          	mov    %ax,-0x4(%rbp)
ffffffff80104fbc:	89 f0                	mov    %esi,%eax
ffffffff80104fbe:	88 45 f8             	mov    %al,-0x8(%rbp)
ffffffff80104fc1:	89 d0                	mov    %edx,%eax
ffffffff80104fc3:	88 45 f4             	mov    %al,-0xc(%rbp)
ffffffff80104fc6:	89 c8                	mov    %ecx,%eax
ffffffff80104fc8:	88 45 f0             	mov    %al,-0x10(%rbp)
ffffffff80104fcb:	0f b6 45 f0          	movzbl -0x10(%rbp),%eax
ffffffff80104fcf:	48 8b 55 e8          	mov    -0x18(%rbp),%rdx
ffffffff80104fd3:	89 d1                	mov    %edx,%ecx
ffffffff80104fd5:	48 8b 55 e8          	mov    -0x18(%rbp),%rdx
ffffffff80104fd9:	48 c1 ea 10          	shr    $0x10,%rdx
ffffffff80104fdd:	89 d7                	mov    %edx,%edi
ffffffff80104fdf:	48 8b 55 e8          	mov    -0x18(%rbp),%rdx
ffffffff80104fe3:	48 c1 ea 20          	shr    $0x20,%rdx
ffffffff80104fe7:	89 d6                	mov    %edx,%esi
ffffffff80104fe9:	48 63 d0             	movslq %eax,%rdx
ffffffff80104fec:	48 c1 e2 04          	shl    $0x4,%rdx
ffffffff80104ff0:	48 81 c2 40 85 11 80 	add    $0xffffffff80118540,%rdx
ffffffff80104ff7:	66 89 0a             	mov    %cx,(%rdx)
ffffffff80104ffa:	48 63 d0             	movslq %eax,%rdx
ffffffff80104ffd:	48 c1 e2 04          	shl    $0x4,%rdx
ffffffff80105001:	48 8d 8a 42 85 11 80 	lea    -0x7fee7abe(%rdx),%rcx
ffffffff80105008:	0f b7 55 fc          	movzwl -0x4(%rbp),%edx
ffffffff8010500c:	66 89 11             	mov    %dx,(%rcx)
ffffffff8010500f:	48 63 d0             	movslq %eax,%rdx
ffffffff80105012:	48 c1 e2 04          	shl    $0x4,%rdx
ffffffff80105016:	48 8d 8a 44 85 11 80 	lea    -0x7fee7abc(%rdx),%rcx
ffffffff8010501d:	0f b6 55 f8          	movzbl -0x8(%rbp),%edx
ffffffff80105021:	88 11                	mov    %dl,(%rcx)
ffffffff80105023:	48 63 d0             	movslq %eax,%rdx
ffffffff80105026:	48 c1 e2 04          	shl    $0x4,%rdx
ffffffff8010502a:	48 8d 8a 45 85 11 80 	lea    -0x7fee7abb(%rdx),%rcx
ffffffff80105031:	0f b6 55 f4          	movzbl -0xc(%rbp),%edx
ffffffff80105035:	88 11                	mov    %dl,(%rcx)
ffffffff80105037:	48 63 d0             	movslq %eax,%rdx
ffffffff8010503a:	48 c1 e2 04          	shl    $0x4,%rdx
ffffffff8010503e:	48 81 c2 46 85 11 80 	add    $0xffffffff80118546,%rdx
ffffffff80105045:	66 89 3a             	mov    %di,(%rdx)
ffffffff80105048:	48 63 d0             	movslq %eax,%rdx
ffffffff8010504b:	48 c1 e2 04          	shl    $0x4,%rdx
ffffffff8010504f:	48 81 c2 48 85 11 80 	add    $0xffffffff80118548,%rdx
ffffffff80105056:	89 32                	mov    %esi,(%rdx)
ffffffff80105058:	48 98                	cltq   
ffffffff8010505a:	48 c1 e0 04          	shl    $0x4,%rax
ffffffff8010505e:	48 05 4c 85 11 80    	add    $0xffffffff8011854c,%rax
ffffffff80105064:	c7 00 00 00 00 00    	movl   $0x0,(%rax)
ffffffff8010506a:	90                   	nop
ffffffff8010506b:	c9                   	leaveq 
ffffffff8010506c:	c3                   	retq   

ffffffff8010506d <idt_init>:
ffffffff8010506d:	55                   	push   %rbp
ffffffff8010506e:	48 89 e5             	mov    %rsp,%rbp
ffffffff80105071:	48 83 ec 10          	sub    $0x10,%rsp
ffffffff80105075:	48 c7 c0 dd 74 10 80 	mov    $0xffffffff801074dd,%rax
ffffffff8010507c:	41 b8 00 00 00 00    	mov    $0x0,%r8d
ffffffff80105082:	48 89 c1             	mov    %rax,%rcx
ffffffff80105085:	ba 8e 00 00 00       	mov    $0x8e,%edx
ffffffff8010508a:	be 00 00 00 00       	mov    $0x0,%esi
ffffffff8010508f:	bf 08 00 00 00       	mov    $0x8,%edi
ffffffff80105094:	e8 0e ff ff ff       	callq  ffffffff80104fa7 <set_idt_entry>
ffffffff80105099:	48 c7 c0 e3 74 10 80 	mov    $0xffffffff801074e3,%rax
ffffffff801050a0:	41 b8 01 00 00 00    	mov    $0x1,%r8d
ffffffff801050a6:	48 89 c1             	mov    %rax,%rcx
ffffffff801050a9:	ba 8e 00 00 00       	mov    $0x8e,%edx
ffffffff801050ae:	be 00 00 00 00       	mov    $0x0,%esi
ffffffff801050b3:	bf 08 00 00 00       	mov    $0x8,%edi
ffffffff801050b8:	e8 ea fe ff ff       	callq  ffffffff80104fa7 <set_idt_entry>
ffffffff801050bd:	48 c7 c0 e9 74 10 80 	mov    $0xffffffff801074e9,%rax
ffffffff801050c4:	41 b8 02 00 00 00    	mov    $0x2,%r8d
ffffffff801050ca:	48 89 c1             	mov    %rax,%rcx
ffffffff801050cd:	ba 8e 00 00 00       	mov    $0x8e,%edx
ffffffff801050d2:	be 00 00 00 00       	mov    $0x0,%esi
ffffffff801050d7:	bf 08 00 00 00       	mov    $0x8,%edi
ffffffff801050dc:	e8 c6 fe ff ff       	callq  ffffffff80104fa7 <set_idt_entry>
ffffffff801050e1:	48 c7 c0 ef 74 10 80 	mov    $0xffffffff801074ef,%rax
ffffffff801050e8:	41 b8 03 00 00 00    	mov    $0x3,%r8d
ffffffff801050ee:	48 89 c1             	mov    %rax,%rcx
ffffffff801050f1:	ba 8e 00 00 00       	mov    $0x8e,%edx
ffffffff801050f6:	be 00 00 00 00       	mov    $0x0,%esi
ffffffff801050fb:	bf 08 00 00 00       	mov    $0x8,%edi
ffffffff80105100:	e8 a2 fe ff ff       	callq  ffffffff80104fa7 <set_idt_entry>
ffffffff80105105:	48 c7 c0 f5 74 10 80 	mov    $0xffffffff801074f5,%rax
ffffffff8010510c:	41 b8 04 00 00 00    	mov    $0x4,%r8d
ffffffff80105112:	48 89 c1             	mov    %rax,%rcx
ffffffff80105115:	ba 8e 00 00 00       	mov    $0x8e,%edx
ffffffff8010511a:	be 00 00 00 00       	mov    $0x0,%esi
ffffffff8010511f:	bf 08 00 00 00       	mov    $0x8,%edi
ffffffff80105124:	e8 7e fe ff ff       	callq  ffffffff80104fa7 <set_idt_entry>
ffffffff80105129:	48 c7 c0 fb 74 10 80 	mov    $0xffffffff801074fb,%rax
ffffffff80105130:	41 b8 05 00 00 00    	mov    $0x5,%r8d
ffffffff80105136:	48 89 c1             	mov    %rax,%rcx
ffffffff80105139:	ba 8e 00 00 00       	mov    $0x8e,%edx
ffffffff8010513e:	be 00 00 00 00       	mov    $0x0,%esi
ffffffff80105143:	bf 08 00 00 00       	mov    $0x8,%edi
ffffffff80105148:	e8 5a fe ff ff       	callq  ffffffff80104fa7 <set_idt_entry>
ffffffff8010514d:	48 c7 c0 01 75 10 80 	mov    $0xffffffff80107501,%rax
ffffffff80105154:	41 b8 06 00 00 00    	mov    $0x6,%r8d
ffffffff8010515a:	48 89 c1             	mov    %rax,%rcx
ffffffff8010515d:	ba 8e 00 00 00       	mov    $0x8e,%edx
ffffffff80105162:	be 00 00 00 00       	mov    $0x0,%esi
ffffffff80105167:	bf 08 00 00 00       	mov    $0x8,%edi
ffffffff8010516c:	e8 36 fe ff ff       	callq  ffffffff80104fa7 <set_idt_entry>
ffffffff80105171:	48 c7 c0 07 75 10 80 	mov    $0xffffffff80107507,%rax
ffffffff80105178:	41 b8 07 00 00 00    	mov    $0x7,%r8d
ffffffff8010517e:	48 89 c1             	mov    %rax,%rcx
ffffffff80105181:	ba 8e 00 00 00       	mov    $0x8e,%edx
ffffffff80105186:	be 00 00 00 00       	mov    $0x0,%esi
ffffffff8010518b:	bf 08 00 00 00       	mov    $0x8,%edi
ffffffff80105190:	e8 12 fe ff ff       	callq  ffffffff80104fa7 <set_idt_entry>
ffffffff80105195:	48 c7 c0 0d 75 10 80 	mov    $0xffffffff8010750d,%rax
ffffffff8010519c:	41 b8 08 00 00 00    	mov    $0x8,%r8d
ffffffff801051a2:	48 89 c1             	mov    %rax,%rcx
ffffffff801051a5:	ba 8e 00 00 00       	mov    $0x8e,%edx
ffffffff801051aa:	be 00 00 00 00       	mov    $0x0,%esi
ffffffff801051af:	bf 08 00 00 00       	mov    $0x8,%edi
ffffffff801051b4:	e8 ee fd ff ff       	callq  ffffffff80104fa7 <set_idt_entry>
ffffffff801051b9:	48 c7 c0 11 75 10 80 	mov    $0xffffffff80107511,%rax
ffffffff801051c0:	41 b8 09 00 00 00    	mov    $0x9,%r8d
ffffffff801051c6:	48 89 c1             	mov    %rax,%rcx
ffffffff801051c9:	ba 8e 00 00 00       	mov    $0x8e,%edx
ffffffff801051ce:	be 00 00 00 00       	mov    $0x0,%esi
ffffffff801051d3:	bf 08 00 00 00       	mov    $0x8,%edi
ffffffff801051d8:	e8 ca fd ff ff       	callq  ffffffff80104fa7 <set_idt_entry>
ffffffff801051dd:	48 c7 c0 17 75 10 80 	mov    $0xffffffff80107517,%rax
ffffffff801051e4:	41 b8 0a 00 00 00    	mov    $0xa,%r8d
ffffffff801051ea:	48 89 c1             	mov    %rax,%rcx
ffffffff801051ed:	ba 8e 00 00 00       	mov    $0x8e,%edx
ffffffff801051f2:	be 00 00 00 00       	mov    $0x0,%esi
ffffffff801051f7:	bf 08 00 00 00       	mov    $0x8,%edi
ffffffff801051fc:	e8 a6 fd ff ff       	callq  ffffffff80104fa7 <set_idt_entry>
ffffffff80105201:	48 c7 c0 1b 75 10 80 	mov    $0xffffffff8010751b,%rax
ffffffff80105208:	41 b8 0b 00 00 00    	mov    $0xb,%r8d
ffffffff8010520e:	48 89 c1             	mov    %rax,%rcx
ffffffff80105211:	ba 8e 00 00 00       	mov    $0x8e,%edx
ffffffff80105216:	be 00 00 00 00       	mov    $0x0,%esi
ffffffff8010521b:	bf 08 00 00 00       	mov    $0x8,%edi
ffffffff80105220:	e8 82 fd ff ff       	callq  ffffffff80104fa7 <set_idt_entry>
ffffffff80105225:	48 c7 c0 1f 75 10 80 	mov    $0xffffffff8010751f,%rax
ffffffff8010522c:	41 b8 0c 00 00 00    	mov    $0xc,%r8d
ffffffff80105232:	48 89 c1             	mov    %rax,%rcx
ffffffff80105235:	ba 8e 00 00 00       	mov    $0x8e,%edx
ffffffff8010523a:	be 00 00 00 00       	mov    $0x0,%esi
ffffffff8010523f:	bf 08 00 00 00       	mov    $0x8,%edi
ffffffff80105244:	e8 5e fd ff ff       	callq  ffffffff80104fa7 <set_idt_entry>
ffffffff80105249:	48 c7 c0 26 75 10 80 	mov    $0xffffffff80107526,%rax
ffffffff80105250:	41 b8 0d 00 00 00    	mov    $0xd,%r8d
ffffffff80105256:	48 89 c1             	mov    %rax,%rcx
ffffffff80105259:	ba 8e 00 00 00       	mov    $0x8e,%edx
ffffffff8010525e:	be 00 00 00 00       	mov    $0x0,%esi
ffffffff80105263:	bf 08 00 00 00       	mov    $0x8,%edi
ffffffff80105268:	e8 3a fd ff ff       	callq  ffffffff80104fa7 <set_idt_entry>
ffffffff8010526d:	48 c7 c0 2d 75 10 80 	mov    $0xffffffff8010752d,%rax
ffffffff80105274:	41 b8 0e 00 00 00    	mov    $0xe,%r8d
ffffffff8010527a:	48 89 c1             	mov    %rax,%rcx
ffffffff8010527d:	ba 8e 00 00 00       	mov    $0x8e,%edx
ffffffff80105282:	be 00 00 00 00       	mov    $0x0,%esi
ffffffff80105287:	bf 08 00 00 00       	mov    $0x8,%edi
ffffffff8010528c:	e8 16 fd ff ff       	callq  ffffffff80104fa7 <set_idt_entry>
ffffffff80105291:	48 c7 c0 34 75 10 80 	mov    $0xffffffff80107534,%rax
ffffffff80105298:	41 b8 0f 00 00 00    	mov    $0xf,%r8d
ffffffff8010529e:	48 89 c1             	mov    %rax,%rcx
ffffffff801052a1:	ba 8e 00 00 00       	mov    $0x8e,%edx
ffffffff801052a6:	be 00 00 00 00       	mov    $0x0,%esi
ffffffff801052ab:	bf 08 00 00 00       	mov    $0x8,%edi
ffffffff801052b0:	e8 f2 fc ff ff       	callq  ffffffff80104fa7 <set_idt_entry>
ffffffff801052b5:	48 c7 c0 3d 75 10 80 	mov    $0xffffffff8010753d,%rax
ffffffff801052bc:	41 b8 10 00 00 00    	mov    $0x10,%r8d
ffffffff801052c2:	48 89 c1             	mov    %rax,%rcx
ffffffff801052c5:	ba 8e 00 00 00       	mov    $0x8e,%edx
ffffffff801052ca:	be 00 00 00 00       	mov    $0x0,%esi
ffffffff801052cf:	bf 08 00 00 00       	mov    $0x8,%edi
ffffffff801052d4:	e8 ce fc ff ff       	callq  ffffffff80104fa7 <set_idt_entry>
ffffffff801052d9:	48 c7 c0 46 75 10 80 	mov    $0xffffffff80107546,%rax
ffffffff801052e0:	41 b8 11 00 00 00    	mov    $0x11,%r8d
ffffffff801052e6:	48 89 c1             	mov    %rax,%rcx
ffffffff801052e9:	ba 8e 00 00 00       	mov    $0x8e,%edx
ffffffff801052ee:	be 00 00 00 00       	mov    $0x0,%esi
ffffffff801052f3:	bf 08 00 00 00       	mov    $0x8,%edi
ffffffff801052f8:	e8 aa fc ff ff       	callq  ffffffff80104fa7 <set_idt_entry>
ffffffff801052fd:	48 c7 c0 4f 75 10 80 	mov    $0xffffffff8010754f,%rax
ffffffff80105304:	41 b8 12 00 00 00    	mov    $0x12,%r8d
ffffffff8010530a:	48 89 c1             	mov    %rax,%rcx
ffffffff8010530d:	ba 8e 00 00 00       	mov    $0x8e,%edx
ffffffff80105312:	be 00 00 00 00       	mov    $0x0,%esi
ffffffff80105317:	bf 08 00 00 00       	mov    $0x8,%edi
ffffffff8010531c:	e8 86 fc ff ff       	callq  ffffffff80104fa7 <set_idt_entry>
ffffffff80105321:	48 c7 c0 58 75 10 80 	mov    $0xffffffff80107558,%rax
ffffffff80105328:	41 b8 13 00 00 00    	mov    $0x13,%r8d
ffffffff8010532e:	48 89 c1             	mov    %rax,%rcx
ffffffff80105331:	ba 8e 00 00 00       	mov    $0x8e,%edx
ffffffff80105336:	be 00 00 00 00       	mov    $0x0,%esi
ffffffff8010533b:	bf 08 00 00 00       	mov    $0x8,%edi
ffffffff80105340:	e8 62 fc ff ff       	callq  ffffffff80104fa7 <set_idt_entry>
ffffffff80105345:	48 c7 c0 61 75 10 80 	mov    $0xffffffff80107561,%rax
ffffffff8010534c:	41 b8 14 00 00 00    	mov    $0x14,%r8d
ffffffff80105352:	48 89 c1             	mov    %rax,%rcx
ffffffff80105355:	ba 8e 00 00 00       	mov    $0x8e,%edx
ffffffff8010535a:	be 00 00 00 00       	mov    $0x0,%esi
ffffffff8010535f:	bf 08 00 00 00       	mov    $0x8,%edi
ffffffff80105364:	e8 3e fc ff ff       	callq  ffffffff80104fa7 <set_idt_entry>
ffffffff80105369:	48 c7 c0 6a 75 10 80 	mov    $0xffffffff8010756a,%rax
ffffffff80105370:	41 b8 15 00 00 00    	mov    $0x15,%r8d
ffffffff80105376:	48 89 c1             	mov    %rax,%rcx
ffffffff80105379:	ba 8e 00 00 00       	mov    $0x8e,%edx
ffffffff8010537e:	be 00 00 00 00       	mov    $0x0,%esi
ffffffff80105383:	bf 08 00 00 00       	mov    $0x8,%edi
ffffffff80105388:	e8 1a fc ff ff       	callq  ffffffff80104fa7 <set_idt_entry>
ffffffff8010538d:	48 c7 c0 73 75 10 80 	mov    $0xffffffff80107573,%rax
ffffffff80105394:	41 b8 16 00 00 00    	mov    $0x16,%r8d
ffffffff8010539a:	48 89 c1             	mov    %rax,%rcx
ffffffff8010539d:	ba 8e 00 00 00       	mov    $0x8e,%edx
ffffffff801053a2:	be 00 00 00 00       	mov    $0x0,%esi
ffffffff801053a7:	bf 08 00 00 00       	mov    $0x8,%edi
ffffffff801053ac:	e8 f6 fb ff ff       	callq  ffffffff80104fa7 <set_idt_entry>
ffffffff801053b1:	48 c7 c0 7c 75 10 80 	mov    $0xffffffff8010757c,%rax
ffffffff801053b8:	41 b8 17 00 00 00    	mov    $0x17,%r8d
ffffffff801053be:	48 89 c1             	mov    %rax,%rcx
ffffffff801053c1:	ba 8e 00 00 00       	mov    $0x8e,%edx
ffffffff801053c6:	be 00 00 00 00       	mov    $0x0,%esi
ffffffff801053cb:	bf 08 00 00 00       	mov    $0x8,%edi
ffffffff801053d0:	e8 d2 fb ff ff       	callq  ffffffff80104fa7 <set_idt_entry>
ffffffff801053d5:	48 c7 c0 85 75 10 80 	mov    $0xffffffff80107585,%rax
ffffffff801053dc:	41 b8 18 00 00 00    	mov    $0x18,%r8d
ffffffff801053e2:	48 89 c1             	mov    %rax,%rcx
ffffffff801053e5:	ba 8e 00 00 00       	mov    $0x8e,%edx
ffffffff801053ea:	be 00 00 00 00       	mov    $0x0,%esi
ffffffff801053ef:	bf 08 00 00 00       	mov    $0x8,%edi
ffffffff801053f4:	e8 ae fb ff ff       	callq  ffffffff80104fa7 <set_idt_entry>
ffffffff801053f9:	48 c7 c0 8e 75 10 80 	mov    $0xffffffff8010758e,%rax
ffffffff80105400:	41 b8 19 00 00 00    	mov    $0x19,%r8d
ffffffff80105406:	48 89 c1             	mov    %rax,%rcx
ffffffff80105409:	ba 8e 00 00 00       	mov    $0x8e,%edx
ffffffff8010540e:	be 00 00 00 00       	mov    $0x0,%esi
ffffffff80105413:	bf 08 00 00 00       	mov    $0x8,%edi
ffffffff80105418:	e8 8a fb ff ff       	callq  ffffffff80104fa7 <set_idt_entry>
ffffffff8010541d:	48 c7 c0 97 75 10 80 	mov    $0xffffffff80107597,%rax
ffffffff80105424:	41 b8 1a 00 00 00    	mov    $0x1a,%r8d
ffffffff8010542a:	48 89 c1             	mov    %rax,%rcx
ffffffff8010542d:	ba 8e 00 00 00       	mov    $0x8e,%edx
ffffffff80105432:	be 00 00 00 00       	mov    $0x0,%esi
ffffffff80105437:	bf 08 00 00 00       	mov    $0x8,%edi
ffffffff8010543c:	e8 66 fb ff ff       	callq  ffffffff80104fa7 <set_idt_entry>
ffffffff80105441:	48 c7 c0 a0 75 10 80 	mov    $0xffffffff801075a0,%rax
ffffffff80105448:	41 b8 1b 00 00 00    	mov    $0x1b,%r8d
ffffffff8010544e:	48 89 c1             	mov    %rax,%rcx
ffffffff80105451:	ba 8e 00 00 00       	mov    $0x8e,%edx
ffffffff80105456:	be 00 00 00 00       	mov    $0x0,%esi
ffffffff8010545b:	bf 08 00 00 00       	mov    $0x8,%edi
ffffffff80105460:	e8 42 fb ff ff       	callq  ffffffff80104fa7 <set_idt_entry>
ffffffff80105465:	48 c7 c0 a9 75 10 80 	mov    $0xffffffff801075a9,%rax
ffffffff8010546c:	41 b8 1c 00 00 00    	mov    $0x1c,%r8d
ffffffff80105472:	48 89 c1             	mov    %rax,%rcx
ffffffff80105475:	ba 8e 00 00 00       	mov    $0x8e,%edx
ffffffff8010547a:	be 00 00 00 00       	mov    $0x0,%esi
ffffffff8010547f:	bf 08 00 00 00       	mov    $0x8,%edi
ffffffff80105484:	e8 1e fb ff ff       	callq  ffffffff80104fa7 <set_idt_entry>
ffffffff80105489:	48 c7 c0 b2 75 10 80 	mov    $0xffffffff801075b2,%rax
ffffffff80105490:	41 b8 1d 00 00 00    	mov    $0x1d,%r8d
ffffffff80105496:	48 89 c1             	mov    %rax,%rcx
ffffffff80105499:	ba 8e 00 00 00       	mov    $0x8e,%edx
ffffffff8010549e:	be 00 00 00 00       	mov    $0x0,%esi
ffffffff801054a3:	bf 08 00 00 00       	mov    $0x8,%edi
ffffffff801054a8:	e8 fa fa ff ff       	callq  ffffffff80104fa7 <set_idt_entry>
ffffffff801054ad:	48 c7 c0 bb 75 10 80 	mov    $0xffffffff801075bb,%rax
ffffffff801054b4:	41 b8 1e 00 00 00    	mov    $0x1e,%r8d
ffffffff801054ba:	48 89 c1             	mov    %rax,%rcx
ffffffff801054bd:	ba 8e 00 00 00       	mov    $0x8e,%edx
ffffffff801054c2:	be 00 00 00 00       	mov    $0x0,%esi
ffffffff801054c7:	bf 08 00 00 00       	mov    $0x8,%edi
ffffffff801054cc:	e8 d6 fa ff ff       	callq  ffffffff80104fa7 <set_idt_entry>
ffffffff801054d1:	48 c7 c0 c4 75 10 80 	mov    $0xffffffff801075c4,%rax
ffffffff801054d8:	41 b8 1f 00 00 00    	mov    $0x1f,%r8d
ffffffff801054de:	48 89 c1             	mov    %rax,%rcx
ffffffff801054e1:	ba 8e 00 00 00       	mov    $0x8e,%edx
ffffffff801054e6:	be 00 00 00 00       	mov    $0x0,%esi
ffffffff801054eb:	bf 08 00 00 00       	mov    $0x8,%edi
ffffffff801054f0:	e8 b2 fa ff ff       	callq  ffffffff80104fa7 <set_idt_entry>
ffffffff801054f5:	48 c7 c0 cd 75 10 80 	mov    $0xffffffff801075cd,%rax
ffffffff801054fc:	41 b8 20 00 00 00    	mov    $0x20,%r8d
ffffffff80105502:	48 89 c1             	mov    %rax,%rcx
ffffffff80105505:	ba 8e 00 00 00       	mov    $0x8e,%edx
ffffffff8010550a:	be 00 00 00 00       	mov    $0x0,%esi
ffffffff8010550f:	bf 08 00 00 00       	mov    $0x8,%edi
ffffffff80105514:	e8 8e fa ff ff       	callq  ffffffff80104fa7 <set_idt_entry>
ffffffff80105519:	48 c7 c0 d6 75 10 80 	mov    $0xffffffff801075d6,%rax
ffffffff80105520:	41 b8 21 00 00 00    	mov    $0x21,%r8d
ffffffff80105526:	48 89 c1             	mov    %rax,%rcx
ffffffff80105529:	ba 8e 00 00 00       	mov    $0x8e,%edx
ffffffff8010552e:	be 00 00 00 00       	mov    $0x0,%esi
ffffffff80105533:	bf 08 00 00 00       	mov    $0x8,%edi
ffffffff80105538:	e8 6a fa ff ff       	callq  ffffffff80104fa7 <set_idt_entry>
ffffffff8010553d:	48 c7 c0 df 75 10 80 	mov    $0xffffffff801075df,%rax
ffffffff80105544:	41 b8 22 00 00 00    	mov    $0x22,%r8d
ffffffff8010554a:	48 89 c1             	mov    %rax,%rcx
ffffffff8010554d:	ba 8e 00 00 00       	mov    $0x8e,%edx
ffffffff80105552:	be 00 00 00 00       	mov    $0x0,%esi
ffffffff80105557:	bf 08 00 00 00       	mov    $0x8,%edi
ffffffff8010555c:	e8 46 fa ff ff       	callq  ffffffff80104fa7 <set_idt_entry>
ffffffff80105561:	48 c7 c0 e8 75 10 80 	mov    $0xffffffff801075e8,%rax
ffffffff80105568:	41 b8 23 00 00 00    	mov    $0x23,%r8d
ffffffff8010556e:	48 89 c1             	mov    %rax,%rcx
ffffffff80105571:	ba 8e 00 00 00       	mov    $0x8e,%edx
ffffffff80105576:	be 00 00 00 00       	mov    $0x0,%esi
ffffffff8010557b:	bf 08 00 00 00       	mov    $0x8,%edi
ffffffff80105580:	e8 22 fa ff ff       	callq  ffffffff80104fa7 <set_idt_entry>
ffffffff80105585:	48 c7 c0 f1 75 10 80 	mov    $0xffffffff801075f1,%rax
ffffffff8010558c:	41 b8 24 00 00 00    	mov    $0x24,%r8d
ffffffff80105592:	48 89 c1             	mov    %rax,%rcx
ffffffff80105595:	ba 8e 00 00 00       	mov    $0x8e,%edx
ffffffff8010559a:	be 00 00 00 00       	mov    $0x0,%esi
ffffffff8010559f:	bf 08 00 00 00       	mov    $0x8,%edi
ffffffff801055a4:	e8 fe f9 ff ff       	callq  ffffffff80104fa7 <set_idt_entry>
ffffffff801055a9:	48 c7 c0 fa 75 10 80 	mov    $0xffffffff801075fa,%rax
ffffffff801055b0:	41 b8 25 00 00 00    	mov    $0x25,%r8d
ffffffff801055b6:	48 89 c1             	mov    %rax,%rcx
ffffffff801055b9:	ba 8e 00 00 00       	mov    $0x8e,%edx
ffffffff801055be:	be 00 00 00 00       	mov    $0x0,%esi
ffffffff801055c3:	bf 08 00 00 00       	mov    $0x8,%edi
ffffffff801055c8:	e8 da f9 ff ff       	callq  ffffffff80104fa7 <set_idt_entry>
ffffffff801055cd:	48 c7 c0 03 76 10 80 	mov    $0xffffffff80107603,%rax
ffffffff801055d4:	41 b8 26 00 00 00    	mov    $0x26,%r8d
ffffffff801055da:	48 89 c1             	mov    %rax,%rcx
ffffffff801055dd:	ba 8e 00 00 00       	mov    $0x8e,%edx
ffffffff801055e2:	be 00 00 00 00       	mov    $0x0,%esi
ffffffff801055e7:	bf 08 00 00 00       	mov    $0x8,%edi
ffffffff801055ec:	e8 b6 f9 ff ff       	callq  ffffffff80104fa7 <set_idt_entry>
ffffffff801055f1:	48 c7 c0 0c 76 10 80 	mov    $0xffffffff8010760c,%rax
ffffffff801055f8:	41 b8 27 00 00 00    	mov    $0x27,%r8d
ffffffff801055fe:	48 89 c1             	mov    %rax,%rcx
ffffffff80105601:	ba 8e 00 00 00       	mov    $0x8e,%edx
ffffffff80105606:	be 00 00 00 00       	mov    $0x0,%esi
ffffffff8010560b:	bf 08 00 00 00       	mov    $0x8,%edi
ffffffff80105610:	e8 92 f9 ff ff       	callq  ffffffff80104fa7 <set_idt_entry>
ffffffff80105615:	48 c7 c0 15 76 10 80 	mov    $0xffffffff80107615,%rax
ffffffff8010561c:	41 b8 28 00 00 00    	mov    $0x28,%r8d
ffffffff80105622:	48 89 c1             	mov    %rax,%rcx
ffffffff80105625:	ba 8e 00 00 00       	mov    $0x8e,%edx
ffffffff8010562a:	be 00 00 00 00       	mov    $0x0,%esi
ffffffff8010562f:	bf 08 00 00 00       	mov    $0x8,%edi
ffffffff80105634:	e8 6e f9 ff ff       	callq  ffffffff80104fa7 <set_idt_entry>
ffffffff80105639:	48 c7 c0 1e 76 10 80 	mov    $0xffffffff8010761e,%rax
ffffffff80105640:	41 b8 29 00 00 00    	mov    $0x29,%r8d
ffffffff80105646:	48 89 c1             	mov    %rax,%rcx
ffffffff80105649:	ba 8e 00 00 00       	mov    $0x8e,%edx
ffffffff8010564e:	be 00 00 00 00       	mov    $0x0,%esi
ffffffff80105653:	bf 08 00 00 00       	mov    $0x8,%edi
ffffffff80105658:	e8 4a f9 ff ff       	callq  ffffffff80104fa7 <set_idt_entry>
ffffffff8010565d:	48 c7 c0 27 76 10 80 	mov    $0xffffffff80107627,%rax
ffffffff80105664:	41 b8 2a 00 00 00    	mov    $0x2a,%r8d
ffffffff8010566a:	48 89 c1             	mov    %rax,%rcx
ffffffff8010566d:	ba 8e 00 00 00       	mov    $0x8e,%edx
ffffffff80105672:	be 00 00 00 00       	mov    $0x0,%esi
ffffffff80105677:	bf 08 00 00 00       	mov    $0x8,%edi
ffffffff8010567c:	e8 26 f9 ff ff       	callq  ffffffff80104fa7 <set_idt_entry>
ffffffff80105681:	48 c7 c0 30 76 10 80 	mov    $0xffffffff80107630,%rax
ffffffff80105688:	41 b8 2b 00 00 00    	mov    $0x2b,%r8d
ffffffff8010568e:	48 89 c1             	mov    %rax,%rcx
ffffffff80105691:	ba 8e 00 00 00       	mov    $0x8e,%edx
ffffffff80105696:	be 00 00 00 00       	mov    $0x0,%esi
ffffffff8010569b:	bf 08 00 00 00       	mov    $0x8,%edi
ffffffff801056a0:	e8 02 f9 ff ff       	callq  ffffffff80104fa7 <set_idt_entry>
ffffffff801056a5:	48 c7 c0 39 76 10 80 	mov    $0xffffffff80107639,%rax
ffffffff801056ac:	41 b8 2c 00 00 00    	mov    $0x2c,%r8d
ffffffff801056b2:	48 89 c1             	mov    %rax,%rcx
ffffffff801056b5:	ba 8e 00 00 00       	mov    $0x8e,%edx
ffffffff801056ba:	be 00 00 00 00       	mov    $0x0,%esi
ffffffff801056bf:	bf 08 00 00 00       	mov    $0x8,%edi
ffffffff801056c4:	e8 de f8 ff ff       	callq  ffffffff80104fa7 <set_idt_entry>
ffffffff801056c9:	48 c7 c0 42 76 10 80 	mov    $0xffffffff80107642,%rax
ffffffff801056d0:	41 b8 2d 00 00 00    	mov    $0x2d,%r8d
ffffffff801056d6:	48 89 c1             	mov    %rax,%rcx
ffffffff801056d9:	ba 8e 00 00 00       	mov    $0x8e,%edx
ffffffff801056de:	be 00 00 00 00       	mov    $0x0,%esi
ffffffff801056e3:	bf 08 00 00 00       	mov    $0x8,%edi
ffffffff801056e8:	e8 ba f8 ff ff       	callq  ffffffff80104fa7 <set_idt_entry>
ffffffff801056ed:	48 c7 c0 4b 76 10 80 	mov    $0xffffffff8010764b,%rax
ffffffff801056f4:	41 b8 2e 00 00 00    	mov    $0x2e,%r8d
ffffffff801056fa:	48 89 c1             	mov    %rax,%rcx
ffffffff801056fd:	ba 8e 00 00 00       	mov    $0x8e,%edx
ffffffff80105702:	be 00 00 00 00       	mov    $0x0,%esi
ffffffff80105707:	bf 08 00 00 00       	mov    $0x8,%edi
ffffffff8010570c:	e8 96 f8 ff ff       	callq  ffffffff80104fa7 <set_idt_entry>
ffffffff80105711:	48 c7 c0 54 76 10 80 	mov    $0xffffffff80107654,%rax
ffffffff80105718:	41 b8 2f 00 00 00    	mov    $0x2f,%r8d
ffffffff8010571e:	48 89 c1             	mov    %rax,%rcx
ffffffff80105721:	ba 8e 00 00 00       	mov    $0x8e,%edx
ffffffff80105726:	be 00 00 00 00       	mov    $0x0,%esi
ffffffff8010572b:	bf 08 00 00 00       	mov    $0x8,%edi
ffffffff80105730:	e8 72 f8 ff ff       	callq  ffffffff80104fa7 <set_idt_entry>
ffffffff80105735:	48 c7 c0 5d 76 10 80 	mov    $0xffffffff8010765d,%rax
ffffffff8010573c:	41 b8 30 00 00 00    	mov    $0x30,%r8d
ffffffff80105742:	48 89 c1             	mov    %rax,%rcx
ffffffff80105745:	ba 8e 00 00 00       	mov    $0x8e,%edx
ffffffff8010574a:	be 00 00 00 00       	mov    $0x0,%esi
ffffffff8010574f:	bf 08 00 00 00       	mov    $0x8,%edi
ffffffff80105754:	e8 4e f8 ff ff       	callq  ffffffff80104fa7 <set_idt_entry>
ffffffff80105759:	48 c7 c0 66 76 10 80 	mov    $0xffffffff80107666,%rax
ffffffff80105760:	41 b8 31 00 00 00    	mov    $0x31,%r8d
ffffffff80105766:	48 89 c1             	mov    %rax,%rcx
ffffffff80105769:	ba 8e 00 00 00       	mov    $0x8e,%edx
ffffffff8010576e:	be 00 00 00 00       	mov    $0x0,%esi
ffffffff80105773:	bf 08 00 00 00       	mov    $0x8,%edi
ffffffff80105778:	e8 2a f8 ff ff       	callq  ffffffff80104fa7 <set_idt_entry>
ffffffff8010577d:	48 c7 c0 6f 76 10 80 	mov    $0xffffffff8010766f,%rax
ffffffff80105784:	41 b8 32 00 00 00    	mov    $0x32,%r8d
ffffffff8010578a:	48 89 c1             	mov    %rax,%rcx
ffffffff8010578d:	ba 8e 00 00 00       	mov    $0x8e,%edx
ffffffff80105792:	be 00 00 00 00       	mov    $0x0,%esi
ffffffff80105797:	bf 08 00 00 00       	mov    $0x8,%edi
ffffffff8010579c:	e8 06 f8 ff ff       	callq  ffffffff80104fa7 <set_idt_entry>
ffffffff801057a1:	48 c7 c0 78 76 10 80 	mov    $0xffffffff80107678,%rax
ffffffff801057a8:	41 b8 33 00 00 00    	mov    $0x33,%r8d
ffffffff801057ae:	48 89 c1             	mov    %rax,%rcx
ffffffff801057b1:	ba 8e 00 00 00       	mov    $0x8e,%edx
ffffffff801057b6:	be 00 00 00 00       	mov    $0x0,%esi
ffffffff801057bb:	bf 08 00 00 00       	mov    $0x8,%edi
ffffffff801057c0:	e8 e2 f7 ff ff       	callq  ffffffff80104fa7 <set_idt_entry>
ffffffff801057c5:	48 c7 c0 81 76 10 80 	mov    $0xffffffff80107681,%rax
ffffffff801057cc:	41 b8 34 00 00 00    	mov    $0x34,%r8d
ffffffff801057d2:	48 89 c1             	mov    %rax,%rcx
ffffffff801057d5:	ba 8e 00 00 00       	mov    $0x8e,%edx
ffffffff801057da:	be 00 00 00 00       	mov    $0x0,%esi
ffffffff801057df:	bf 08 00 00 00       	mov    $0x8,%edi
ffffffff801057e4:	e8 be f7 ff ff       	callq  ffffffff80104fa7 <set_idt_entry>
ffffffff801057e9:	48 c7 c0 8a 76 10 80 	mov    $0xffffffff8010768a,%rax
ffffffff801057f0:	41 b8 35 00 00 00    	mov    $0x35,%r8d
ffffffff801057f6:	48 89 c1             	mov    %rax,%rcx
ffffffff801057f9:	ba 8e 00 00 00       	mov    $0x8e,%edx
ffffffff801057fe:	be 00 00 00 00       	mov    $0x0,%esi
ffffffff80105803:	bf 08 00 00 00       	mov    $0x8,%edi
ffffffff80105808:	e8 9a f7 ff ff       	callq  ffffffff80104fa7 <set_idt_entry>
ffffffff8010580d:	48 c7 c0 93 76 10 80 	mov    $0xffffffff80107693,%rax
ffffffff80105814:	41 b8 36 00 00 00    	mov    $0x36,%r8d
ffffffff8010581a:	48 89 c1             	mov    %rax,%rcx
ffffffff8010581d:	ba 8e 00 00 00       	mov    $0x8e,%edx
ffffffff80105822:	be 00 00 00 00       	mov    $0x0,%esi
ffffffff80105827:	bf 08 00 00 00       	mov    $0x8,%edi
ffffffff8010582c:	e8 76 f7 ff ff       	callq  ffffffff80104fa7 <set_idt_entry>
ffffffff80105831:	48 c7 c0 9c 76 10 80 	mov    $0xffffffff8010769c,%rax
ffffffff80105838:	41 b8 37 00 00 00    	mov    $0x37,%r8d
ffffffff8010583e:	48 89 c1             	mov    %rax,%rcx
ffffffff80105841:	ba 8e 00 00 00       	mov    $0x8e,%edx
ffffffff80105846:	be 00 00 00 00       	mov    $0x0,%esi
ffffffff8010584b:	bf 08 00 00 00       	mov    $0x8,%edi
ffffffff80105850:	e8 52 f7 ff ff       	callq  ffffffff80104fa7 <set_idt_entry>
ffffffff80105855:	48 c7 c0 a5 76 10 80 	mov    $0xffffffff801076a5,%rax
ffffffff8010585c:	41 b8 38 00 00 00    	mov    $0x38,%r8d
ffffffff80105862:	48 89 c1             	mov    %rax,%rcx
ffffffff80105865:	ba 8e 00 00 00       	mov    $0x8e,%edx
ffffffff8010586a:	be 00 00 00 00       	mov    $0x0,%esi
ffffffff8010586f:	bf 08 00 00 00       	mov    $0x8,%edi
ffffffff80105874:	e8 2e f7 ff ff       	callq  ffffffff80104fa7 <set_idt_entry>
ffffffff80105879:	48 c7 c0 ae 76 10 80 	mov    $0xffffffff801076ae,%rax
ffffffff80105880:	41 b8 39 00 00 00    	mov    $0x39,%r8d
ffffffff80105886:	48 89 c1             	mov    %rax,%rcx
ffffffff80105889:	ba 8e 00 00 00       	mov    $0x8e,%edx
ffffffff8010588e:	be 00 00 00 00       	mov    $0x0,%esi
ffffffff80105893:	bf 08 00 00 00       	mov    $0x8,%edi
ffffffff80105898:	e8 0a f7 ff ff       	callq  ffffffff80104fa7 <set_idt_entry>
ffffffff8010589d:	48 c7 c0 b7 76 10 80 	mov    $0xffffffff801076b7,%rax
ffffffff801058a4:	41 b8 3a 00 00 00    	mov    $0x3a,%r8d
ffffffff801058aa:	48 89 c1             	mov    %rax,%rcx
ffffffff801058ad:	ba 8e 00 00 00       	mov    $0x8e,%edx
ffffffff801058b2:	be 00 00 00 00       	mov    $0x0,%esi
ffffffff801058b7:	bf 08 00 00 00       	mov    $0x8,%edi
ffffffff801058bc:	e8 e6 f6 ff ff       	callq  ffffffff80104fa7 <set_idt_entry>
ffffffff801058c1:	48 c7 c0 c0 76 10 80 	mov    $0xffffffff801076c0,%rax
ffffffff801058c8:	41 b8 3b 00 00 00    	mov    $0x3b,%r8d
ffffffff801058ce:	48 89 c1             	mov    %rax,%rcx
ffffffff801058d1:	ba 8e 00 00 00       	mov    $0x8e,%edx
ffffffff801058d6:	be 00 00 00 00       	mov    $0x0,%esi
ffffffff801058db:	bf 08 00 00 00       	mov    $0x8,%edi
ffffffff801058e0:	e8 c2 f6 ff ff       	callq  ffffffff80104fa7 <set_idt_entry>
ffffffff801058e5:	48 c7 c0 c9 76 10 80 	mov    $0xffffffff801076c9,%rax
ffffffff801058ec:	41 b8 3c 00 00 00    	mov    $0x3c,%r8d
ffffffff801058f2:	48 89 c1             	mov    %rax,%rcx
ffffffff801058f5:	ba 8e 00 00 00       	mov    $0x8e,%edx
ffffffff801058fa:	be 00 00 00 00       	mov    $0x0,%esi
ffffffff801058ff:	bf 08 00 00 00       	mov    $0x8,%edi
ffffffff80105904:	e8 9e f6 ff ff       	callq  ffffffff80104fa7 <set_idt_entry>
ffffffff80105909:	48 c7 c0 d2 76 10 80 	mov    $0xffffffff801076d2,%rax
ffffffff80105910:	41 b8 3d 00 00 00    	mov    $0x3d,%r8d
ffffffff80105916:	48 89 c1             	mov    %rax,%rcx
ffffffff80105919:	ba 8e 00 00 00       	mov    $0x8e,%edx
ffffffff8010591e:	be 00 00 00 00       	mov    $0x0,%esi
ffffffff80105923:	bf 08 00 00 00       	mov    $0x8,%edi
ffffffff80105928:	e8 7a f6 ff ff       	callq  ffffffff80104fa7 <set_idt_entry>
ffffffff8010592d:	48 c7 c0 db 76 10 80 	mov    $0xffffffff801076db,%rax
ffffffff80105934:	41 b8 3e 00 00 00    	mov    $0x3e,%r8d
ffffffff8010593a:	48 89 c1             	mov    %rax,%rcx
ffffffff8010593d:	ba 8e 00 00 00       	mov    $0x8e,%edx
ffffffff80105942:	be 00 00 00 00       	mov    $0x0,%esi
ffffffff80105947:	bf 08 00 00 00       	mov    $0x8,%edi
ffffffff8010594c:	e8 56 f6 ff ff       	callq  ffffffff80104fa7 <set_idt_entry>
ffffffff80105951:	48 c7 c0 e4 76 10 80 	mov    $0xffffffff801076e4,%rax
ffffffff80105958:	41 b8 3f 00 00 00    	mov    $0x3f,%r8d
ffffffff8010595e:	48 89 c1             	mov    %rax,%rcx
ffffffff80105961:	ba 8e 00 00 00       	mov    $0x8e,%edx
ffffffff80105966:	be 00 00 00 00       	mov    $0x0,%esi
ffffffff8010596b:	bf 08 00 00 00       	mov    $0x8,%edi
ffffffff80105970:	e8 32 f6 ff ff       	callq  ffffffff80104fa7 <set_idt_entry>
ffffffff80105975:	48 c7 c0 ed 76 10 80 	mov    $0xffffffff801076ed,%rax
ffffffff8010597c:	41 b8 40 00 00 00    	mov    $0x40,%r8d
ffffffff80105982:	48 89 c1             	mov    %rax,%rcx
ffffffff80105985:	ba 8e 00 00 00       	mov    $0x8e,%edx
ffffffff8010598a:	be 00 00 00 00       	mov    $0x0,%esi
ffffffff8010598f:	bf 08 00 00 00       	mov    $0x8,%edi
ffffffff80105994:	e8 0e f6 ff ff       	callq  ffffffff80104fa7 <set_idt_entry>
ffffffff80105999:	48 c7 c0 f6 76 10 80 	mov    $0xffffffff801076f6,%rax
ffffffff801059a0:	41 b8 41 00 00 00    	mov    $0x41,%r8d
ffffffff801059a6:	48 89 c1             	mov    %rax,%rcx
ffffffff801059a9:	ba 8e 00 00 00       	mov    $0x8e,%edx
ffffffff801059ae:	be 00 00 00 00       	mov    $0x0,%esi
ffffffff801059b3:	bf 08 00 00 00       	mov    $0x8,%edi
ffffffff801059b8:	e8 ea f5 ff ff       	callq  ffffffff80104fa7 <set_idt_entry>
ffffffff801059bd:	48 c7 c0 ff 76 10 80 	mov    $0xffffffff801076ff,%rax
ffffffff801059c4:	41 b8 42 00 00 00    	mov    $0x42,%r8d
ffffffff801059ca:	48 89 c1             	mov    %rax,%rcx
ffffffff801059cd:	ba 8e 00 00 00       	mov    $0x8e,%edx
ffffffff801059d2:	be 00 00 00 00       	mov    $0x0,%esi
ffffffff801059d7:	bf 08 00 00 00       	mov    $0x8,%edi
ffffffff801059dc:	e8 c6 f5 ff ff       	callq  ffffffff80104fa7 <set_idt_entry>
ffffffff801059e1:	48 c7 c0 08 77 10 80 	mov    $0xffffffff80107708,%rax
ffffffff801059e8:	41 b8 43 00 00 00    	mov    $0x43,%r8d
ffffffff801059ee:	48 89 c1             	mov    %rax,%rcx
ffffffff801059f1:	ba 8e 00 00 00       	mov    $0x8e,%edx
ffffffff801059f6:	be 00 00 00 00       	mov    $0x0,%esi
ffffffff801059fb:	bf 08 00 00 00       	mov    $0x8,%edi
ffffffff80105a00:	e8 a2 f5 ff ff       	callq  ffffffff80104fa7 <set_idt_entry>
ffffffff80105a05:	48 c7 c0 11 77 10 80 	mov    $0xffffffff80107711,%rax
ffffffff80105a0c:	41 b8 44 00 00 00    	mov    $0x44,%r8d
ffffffff80105a12:	48 89 c1             	mov    %rax,%rcx
ffffffff80105a15:	ba 8e 00 00 00       	mov    $0x8e,%edx
ffffffff80105a1a:	be 00 00 00 00       	mov    $0x0,%esi
ffffffff80105a1f:	bf 08 00 00 00       	mov    $0x8,%edi
ffffffff80105a24:	e8 7e f5 ff ff       	callq  ffffffff80104fa7 <set_idt_entry>
ffffffff80105a29:	48 c7 c0 1a 77 10 80 	mov    $0xffffffff8010771a,%rax
ffffffff80105a30:	41 b8 45 00 00 00    	mov    $0x45,%r8d
ffffffff80105a36:	48 89 c1             	mov    %rax,%rcx
ffffffff80105a39:	ba 8e 00 00 00       	mov    $0x8e,%edx
ffffffff80105a3e:	be 00 00 00 00       	mov    $0x0,%esi
ffffffff80105a43:	bf 08 00 00 00       	mov    $0x8,%edi
ffffffff80105a48:	e8 5a f5 ff ff       	callq  ffffffff80104fa7 <set_idt_entry>
ffffffff80105a4d:	48 c7 c0 23 77 10 80 	mov    $0xffffffff80107723,%rax
ffffffff80105a54:	41 b8 46 00 00 00    	mov    $0x46,%r8d
ffffffff80105a5a:	48 89 c1             	mov    %rax,%rcx
ffffffff80105a5d:	ba 8e 00 00 00       	mov    $0x8e,%edx
ffffffff80105a62:	be 00 00 00 00       	mov    $0x0,%esi
ffffffff80105a67:	bf 08 00 00 00       	mov    $0x8,%edi
ffffffff80105a6c:	e8 36 f5 ff ff       	callq  ffffffff80104fa7 <set_idt_entry>
ffffffff80105a71:	48 c7 c0 2c 77 10 80 	mov    $0xffffffff8010772c,%rax
ffffffff80105a78:	41 b8 47 00 00 00    	mov    $0x47,%r8d
ffffffff80105a7e:	48 89 c1             	mov    %rax,%rcx
ffffffff80105a81:	ba 8e 00 00 00       	mov    $0x8e,%edx
ffffffff80105a86:	be 00 00 00 00       	mov    $0x0,%esi
ffffffff80105a8b:	bf 08 00 00 00       	mov    $0x8,%edi
ffffffff80105a90:	e8 12 f5 ff ff       	callq  ffffffff80104fa7 <set_idt_entry>
ffffffff80105a95:	48 c7 c0 35 77 10 80 	mov    $0xffffffff80107735,%rax
ffffffff80105a9c:	41 b8 48 00 00 00    	mov    $0x48,%r8d
ffffffff80105aa2:	48 89 c1             	mov    %rax,%rcx
ffffffff80105aa5:	ba 8e 00 00 00       	mov    $0x8e,%edx
ffffffff80105aaa:	be 00 00 00 00       	mov    $0x0,%esi
ffffffff80105aaf:	bf 08 00 00 00       	mov    $0x8,%edi
ffffffff80105ab4:	e8 ee f4 ff ff       	callq  ffffffff80104fa7 <set_idt_entry>
ffffffff80105ab9:	48 c7 c0 3e 77 10 80 	mov    $0xffffffff8010773e,%rax
ffffffff80105ac0:	41 b8 49 00 00 00    	mov    $0x49,%r8d
ffffffff80105ac6:	48 89 c1             	mov    %rax,%rcx
ffffffff80105ac9:	ba 8e 00 00 00       	mov    $0x8e,%edx
ffffffff80105ace:	be 00 00 00 00       	mov    $0x0,%esi
ffffffff80105ad3:	bf 08 00 00 00       	mov    $0x8,%edi
ffffffff80105ad8:	e8 ca f4 ff ff       	callq  ffffffff80104fa7 <set_idt_entry>
ffffffff80105add:	48 c7 c0 47 77 10 80 	mov    $0xffffffff80107747,%rax
ffffffff80105ae4:	41 b8 4a 00 00 00    	mov    $0x4a,%r8d
ffffffff80105aea:	48 89 c1             	mov    %rax,%rcx
ffffffff80105aed:	ba 8e 00 00 00       	mov    $0x8e,%edx
ffffffff80105af2:	be 00 00 00 00       	mov    $0x0,%esi
ffffffff80105af7:	bf 08 00 00 00       	mov    $0x8,%edi
ffffffff80105afc:	e8 a6 f4 ff ff       	callq  ffffffff80104fa7 <set_idt_entry>
ffffffff80105b01:	48 c7 c0 50 77 10 80 	mov    $0xffffffff80107750,%rax
ffffffff80105b08:	41 b8 4b 00 00 00    	mov    $0x4b,%r8d
ffffffff80105b0e:	48 89 c1             	mov    %rax,%rcx
ffffffff80105b11:	ba 8e 00 00 00       	mov    $0x8e,%edx
ffffffff80105b16:	be 00 00 00 00       	mov    $0x0,%esi
ffffffff80105b1b:	bf 08 00 00 00       	mov    $0x8,%edi
ffffffff80105b20:	e8 82 f4 ff ff       	callq  ffffffff80104fa7 <set_idt_entry>
ffffffff80105b25:	48 c7 c0 59 77 10 80 	mov    $0xffffffff80107759,%rax
ffffffff80105b2c:	41 b8 4c 00 00 00    	mov    $0x4c,%r8d
ffffffff80105b32:	48 89 c1             	mov    %rax,%rcx
ffffffff80105b35:	ba 8e 00 00 00       	mov    $0x8e,%edx
ffffffff80105b3a:	be 00 00 00 00       	mov    $0x0,%esi
ffffffff80105b3f:	bf 08 00 00 00       	mov    $0x8,%edi
ffffffff80105b44:	e8 5e f4 ff ff       	callq  ffffffff80104fa7 <set_idt_entry>
ffffffff80105b49:	48 c7 c0 62 77 10 80 	mov    $0xffffffff80107762,%rax
ffffffff80105b50:	41 b8 4d 00 00 00    	mov    $0x4d,%r8d
ffffffff80105b56:	48 89 c1             	mov    %rax,%rcx
ffffffff80105b59:	ba 8e 00 00 00       	mov    $0x8e,%edx
ffffffff80105b5e:	be 00 00 00 00       	mov    $0x0,%esi
ffffffff80105b63:	bf 08 00 00 00       	mov    $0x8,%edi
ffffffff80105b68:	e8 3a f4 ff ff       	callq  ffffffff80104fa7 <set_idt_entry>
ffffffff80105b6d:	48 c7 c0 6b 77 10 80 	mov    $0xffffffff8010776b,%rax
ffffffff80105b74:	41 b8 4e 00 00 00    	mov    $0x4e,%r8d
ffffffff80105b7a:	48 89 c1             	mov    %rax,%rcx
ffffffff80105b7d:	ba 8e 00 00 00       	mov    $0x8e,%edx
ffffffff80105b82:	be 00 00 00 00       	mov    $0x0,%esi
ffffffff80105b87:	bf 08 00 00 00       	mov    $0x8,%edi
ffffffff80105b8c:	e8 16 f4 ff ff       	callq  ffffffff80104fa7 <set_idt_entry>
ffffffff80105b91:	48 c7 c0 74 77 10 80 	mov    $0xffffffff80107774,%rax
ffffffff80105b98:	41 b8 4f 00 00 00    	mov    $0x4f,%r8d
ffffffff80105b9e:	48 89 c1             	mov    %rax,%rcx
ffffffff80105ba1:	ba 8e 00 00 00       	mov    $0x8e,%edx
ffffffff80105ba6:	be 00 00 00 00       	mov    $0x0,%esi
ffffffff80105bab:	bf 08 00 00 00       	mov    $0x8,%edi
ffffffff80105bb0:	e8 f2 f3 ff ff       	callq  ffffffff80104fa7 <set_idt_entry>
ffffffff80105bb5:	48 c7 c0 7d 77 10 80 	mov    $0xffffffff8010777d,%rax
ffffffff80105bbc:	41 b8 50 00 00 00    	mov    $0x50,%r8d
ffffffff80105bc2:	48 89 c1             	mov    %rax,%rcx
ffffffff80105bc5:	ba 8e 00 00 00       	mov    $0x8e,%edx
ffffffff80105bca:	be 00 00 00 00       	mov    $0x0,%esi
ffffffff80105bcf:	bf 08 00 00 00       	mov    $0x8,%edi
ffffffff80105bd4:	e8 ce f3 ff ff       	callq  ffffffff80104fa7 <set_idt_entry>
ffffffff80105bd9:	48 c7 c0 86 77 10 80 	mov    $0xffffffff80107786,%rax
ffffffff80105be0:	41 b8 51 00 00 00    	mov    $0x51,%r8d
ffffffff80105be6:	48 89 c1             	mov    %rax,%rcx
ffffffff80105be9:	ba 8e 00 00 00       	mov    $0x8e,%edx
ffffffff80105bee:	be 00 00 00 00       	mov    $0x0,%esi
ffffffff80105bf3:	bf 08 00 00 00       	mov    $0x8,%edi
ffffffff80105bf8:	e8 aa f3 ff ff       	callq  ffffffff80104fa7 <set_idt_entry>
ffffffff80105bfd:	48 c7 c0 8f 77 10 80 	mov    $0xffffffff8010778f,%rax
ffffffff80105c04:	41 b8 52 00 00 00    	mov    $0x52,%r8d
ffffffff80105c0a:	48 89 c1             	mov    %rax,%rcx
ffffffff80105c0d:	ba 8e 00 00 00       	mov    $0x8e,%edx
ffffffff80105c12:	be 00 00 00 00       	mov    $0x0,%esi
ffffffff80105c17:	bf 08 00 00 00       	mov    $0x8,%edi
ffffffff80105c1c:	e8 86 f3 ff ff       	callq  ffffffff80104fa7 <set_idt_entry>
ffffffff80105c21:	48 c7 c0 98 77 10 80 	mov    $0xffffffff80107798,%rax
ffffffff80105c28:	41 b8 53 00 00 00    	mov    $0x53,%r8d
ffffffff80105c2e:	48 89 c1             	mov    %rax,%rcx
ffffffff80105c31:	ba 8e 00 00 00       	mov    $0x8e,%edx
ffffffff80105c36:	be 00 00 00 00       	mov    $0x0,%esi
ffffffff80105c3b:	bf 08 00 00 00       	mov    $0x8,%edi
ffffffff80105c40:	e8 62 f3 ff ff       	callq  ffffffff80104fa7 <set_idt_entry>
ffffffff80105c45:	48 c7 c0 a1 77 10 80 	mov    $0xffffffff801077a1,%rax
ffffffff80105c4c:	41 b8 54 00 00 00    	mov    $0x54,%r8d
ffffffff80105c52:	48 89 c1             	mov    %rax,%rcx
ffffffff80105c55:	ba 8e 00 00 00       	mov    $0x8e,%edx
ffffffff80105c5a:	be 00 00 00 00       	mov    $0x0,%esi
ffffffff80105c5f:	bf 08 00 00 00       	mov    $0x8,%edi
ffffffff80105c64:	e8 3e f3 ff ff       	callq  ffffffff80104fa7 <set_idt_entry>
ffffffff80105c69:	48 c7 c0 aa 77 10 80 	mov    $0xffffffff801077aa,%rax
ffffffff80105c70:	41 b8 55 00 00 00    	mov    $0x55,%r8d
ffffffff80105c76:	48 89 c1             	mov    %rax,%rcx
ffffffff80105c79:	ba 8e 00 00 00       	mov    $0x8e,%edx
ffffffff80105c7e:	be 00 00 00 00       	mov    $0x0,%esi
ffffffff80105c83:	bf 08 00 00 00       	mov    $0x8,%edi
ffffffff80105c88:	e8 1a f3 ff ff       	callq  ffffffff80104fa7 <set_idt_entry>
ffffffff80105c8d:	48 c7 c0 b3 77 10 80 	mov    $0xffffffff801077b3,%rax
ffffffff80105c94:	41 b8 56 00 00 00    	mov    $0x56,%r8d
ffffffff80105c9a:	48 89 c1             	mov    %rax,%rcx
ffffffff80105c9d:	ba 8e 00 00 00       	mov    $0x8e,%edx
ffffffff80105ca2:	be 00 00 00 00       	mov    $0x0,%esi
ffffffff80105ca7:	bf 08 00 00 00       	mov    $0x8,%edi
ffffffff80105cac:	e8 f6 f2 ff ff       	callq  ffffffff80104fa7 <set_idt_entry>
ffffffff80105cb1:	48 c7 c0 bc 77 10 80 	mov    $0xffffffff801077bc,%rax
ffffffff80105cb8:	41 b8 57 00 00 00    	mov    $0x57,%r8d
ffffffff80105cbe:	48 89 c1             	mov    %rax,%rcx
ffffffff80105cc1:	ba 8e 00 00 00       	mov    $0x8e,%edx
ffffffff80105cc6:	be 00 00 00 00       	mov    $0x0,%esi
ffffffff80105ccb:	bf 08 00 00 00       	mov    $0x8,%edi
ffffffff80105cd0:	e8 d2 f2 ff ff       	callq  ffffffff80104fa7 <set_idt_entry>
ffffffff80105cd5:	48 c7 c0 c5 77 10 80 	mov    $0xffffffff801077c5,%rax
ffffffff80105cdc:	41 b8 58 00 00 00    	mov    $0x58,%r8d
ffffffff80105ce2:	48 89 c1             	mov    %rax,%rcx
ffffffff80105ce5:	ba 8e 00 00 00       	mov    $0x8e,%edx
ffffffff80105cea:	be 00 00 00 00       	mov    $0x0,%esi
ffffffff80105cef:	bf 08 00 00 00       	mov    $0x8,%edi
ffffffff80105cf4:	e8 ae f2 ff ff       	callq  ffffffff80104fa7 <set_idt_entry>
ffffffff80105cf9:	48 c7 c0 ce 77 10 80 	mov    $0xffffffff801077ce,%rax
ffffffff80105d00:	41 b8 59 00 00 00    	mov    $0x59,%r8d
ffffffff80105d06:	48 89 c1             	mov    %rax,%rcx
ffffffff80105d09:	ba 8e 00 00 00       	mov    $0x8e,%edx
ffffffff80105d0e:	be 00 00 00 00       	mov    $0x0,%esi
ffffffff80105d13:	bf 08 00 00 00       	mov    $0x8,%edi
ffffffff80105d18:	e8 8a f2 ff ff       	callq  ffffffff80104fa7 <set_idt_entry>
ffffffff80105d1d:	48 c7 c0 d7 77 10 80 	mov    $0xffffffff801077d7,%rax
ffffffff80105d24:	41 b8 5a 00 00 00    	mov    $0x5a,%r8d
ffffffff80105d2a:	48 89 c1             	mov    %rax,%rcx
ffffffff80105d2d:	ba 8e 00 00 00       	mov    $0x8e,%edx
ffffffff80105d32:	be 00 00 00 00       	mov    $0x0,%esi
ffffffff80105d37:	bf 08 00 00 00       	mov    $0x8,%edi
ffffffff80105d3c:	e8 66 f2 ff ff       	callq  ffffffff80104fa7 <set_idt_entry>
ffffffff80105d41:	48 c7 c0 e0 77 10 80 	mov    $0xffffffff801077e0,%rax
ffffffff80105d48:	41 b8 5b 00 00 00    	mov    $0x5b,%r8d
ffffffff80105d4e:	48 89 c1             	mov    %rax,%rcx
ffffffff80105d51:	ba 8e 00 00 00       	mov    $0x8e,%edx
ffffffff80105d56:	be 00 00 00 00       	mov    $0x0,%esi
ffffffff80105d5b:	bf 08 00 00 00       	mov    $0x8,%edi
ffffffff80105d60:	e8 42 f2 ff ff       	callq  ffffffff80104fa7 <set_idt_entry>
ffffffff80105d65:	48 c7 c0 e9 77 10 80 	mov    $0xffffffff801077e9,%rax
ffffffff80105d6c:	41 b8 5c 00 00 00    	mov    $0x5c,%r8d
ffffffff80105d72:	48 89 c1             	mov    %rax,%rcx
ffffffff80105d75:	ba 8e 00 00 00       	mov    $0x8e,%edx
ffffffff80105d7a:	be 00 00 00 00       	mov    $0x0,%esi
ffffffff80105d7f:	bf 08 00 00 00       	mov    $0x8,%edi
ffffffff80105d84:	e8 1e f2 ff ff       	callq  ffffffff80104fa7 <set_idt_entry>
ffffffff80105d89:	48 c7 c0 f2 77 10 80 	mov    $0xffffffff801077f2,%rax
ffffffff80105d90:	41 b8 5d 00 00 00    	mov    $0x5d,%r8d
ffffffff80105d96:	48 89 c1             	mov    %rax,%rcx
ffffffff80105d99:	ba 8e 00 00 00       	mov    $0x8e,%edx
ffffffff80105d9e:	be 00 00 00 00       	mov    $0x0,%esi
ffffffff80105da3:	bf 08 00 00 00       	mov    $0x8,%edi
ffffffff80105da8:	e8 fa f1 ff ff       	callq  ffffffff80104fa7 <set_idt_entry>
ffffffff80105dad:	48 c7 c0 fb 77 10 80 	mov    $0xffffffff801077fb,%rax
ffffffff80105db4:	41 b8 5e 00 00 00    	mov    $0x5e,%r8d
ffffffff80105dba:	48 89 c1             	mov    %rax,%rcx
ffffffff80105dbd:	ba 8e 00 00 00       	mov    $0x8e,%edx
ffffffff80105dc2:	be 00 00 00 00       	mov    $0x0,%esi
ffffffff80105dc7:	bf 08 00 00 00       	mov    $0x8,%edi
ffffffff80105dcc:	e8 d6 f1 ff ff       	callq  ffffffff80104fa7 <set_idt_entry>
ffffffff80105dd1:	48 c7 c0 04 78 10 80 	mov    $0xffffffff80107804,%rax
ffffffff80105dd8:	41 b8 5f 00 00 00    	mov    $0x5f,%r8d
ffffffff80105dde:	48 89 c1             	mov    %rax,%rcx
ffffffff80105de1:	ba 8e 00 00 00       	mov    $0x8e,%edx
ffffffff80105de6:	be 00 00 00 00       	mov    $0x0,%esi
ffffffff80105deb:	bf 08 00 00 00       	mov    $0x8,%edi
ffffffff80105df0:	e8 b2 f1 ff ff       	callq  ffffffff80104fa7 <set_idt_entry>
ffffffff80105df5:	48 c7 c0 0d 78 10 80 	mov    $0xffffffff8010780d,%rax
ffffffff80105dfc:	41 b8 60 00 00 00    	mov    $0x60,%r8d
ffffffff80105e02:	48 89 c1             	mov    %rax,%rcx
ffffffff80105e05:	ba 8e 00 00 00       	mov    $0x8e,%edx
ffffffff80105e0a:	be 00 00 00 00       	mov    $0x0,%esi
ffffffff80105e0f:	bf 08 00 00 00       	mov    $0x8,%edi
ffffffff80105e14:	e8 8e f1 ff ff       	callq  ffffffff80104fa7 <set_idt_entry>
ffffffff80105e19:	48 c7 c0 16 78 10 80 	mov    $0xffffffff80107816,%rax
ffffffff80105e20:	41 b8 61 00 00 00    	mov    $0x61,%r8d
ffffffff80105e26:	48 89 c1             	mov    %rax,%rcx
ffffffff80105e29:	ba 8e 00 00 00       	mov    $0x8e,%edx
ffffffff80105e2e:	be 00 00 00 00       	mov    $0x0,%esi
ffffffff80105e33:	bf 08 00 00 00       	mov    $0x8,%edi
ffffffff80105e38:	e8 6a f1 ff ff       	callq  ffffffff80104fa7 <set_idt_entry>
ffffffff80105e3d:	48 c7 c0 1f 78 10 80 	mov    $0xffffffff8010781f,%rax
ffffffff80105e44:	41 b8 62 00 00 00    	mov    $0x62,%r8d
ffffffff80105e4a:	48 89 c1             	mov    %rax,%rcx
ffffffff80105e4d:	ba 8e 00 00 00       	mov    $0x8e,%edx
ffffffff80105e52:	be 00 00 00 00       	mov    $0x0,%esi
ffffffff80105e57:	bf 08 00 00 00       	mov    $0x8,%edi
ffffffff80105e5c:	e8 46 f1 ff ff       	callq  ffffffff80104fa7 <set_idt_entry>
ffffffff80105e61:	48 c7 c0 28 78 10 80 	mov    $0xffffffff80107828,%rax
ffffffff80105e68:	41 b8 63 00 00 00    	mov    $0x63,%r8d
ffffffff80105e6e:	48 89 c1             	mov    %rax,%rcx
ffffffff80105e71:	ba 8e 00 00 00       	mov    $0x8e,%edx
ffffffff80105e76:	be 00 00 00 00       	mov    $0x0,%esi
ffffffff80105e7b:	bf 08 00 00 00       	mov    $0x8,%edi
ffffffff80105e80:	e8 22 f1 ff ff       	callq  ffffffff80104fa7 <set_idt_entry>
ffffffff80105e85:	48 c7 c0 31 78 10 80 	mov    $0xffffffff80107831,%rax
ffffffff80105e8c:	41 b8 64 00 00 00    	mov    $0x64,%r8d
ffffffff80105e92:	48 89 c1             	mov    %rax,%rcx
ffffffff80105e95:	ba 8e 00 00 00       	mov    $0x8e,%edx
ffffffff80105e9a:	be 00 00 00 00       	mov    $0x0,%esi
ffffffff80105e9f:	bf 08 00 00 00       	mov    $0x8,%edi
ffffffff80105ea4:	e8 fe f0 ff ff       	callq  ffffffff80104fa7 <set_idt_entry>
ffffffff80105ea9:	48 c7 c0 3a 78 10 80 	mov    $0xffffffff8010783a,%rax
ffffffff80105eb0:	41 b8 65 00 00 00    	mov    $0x65,%r8d
ffffffff80105eb6:	48 89 c1             	mov    %rax,%rcx
ffffffff80105eb9:	ba 8e 00 00 00       	mov    $0x8e,%edx
ffffffff80105ebe:	be 00 00 00 00       	mov    $0x0,%esi
ffffffff80105ec3:	bf 08 00 00 00       	mov    $0x8,%edi
ffffffff80105ec8:	e8 da f0 ff ff       	callq  ffffffff80104fa7 <set_idt_entry>
ffffffff80105ecd:	48 c7 c0 43 78 10 80 	mov    $0xffffffff80107843,%rax
ffffffff80105ed4:	41 b8 66 00 00 00    	mov    $0x66,%r8d
ffffffff80105eda:	48 89 c1             	mov    %rax,%rcx
ffffffff80105edd:	ba 8e 00 00 00       	mov    $0x8e,%edx
ffffffff80105ee2:	be 00 00 00 00       	mov    $0x0,%esi
ffffffff80105ee7:	bf 08 00 00 00       	mov    $0x8,%edi
ffffffff80105eec:	e8 b6 f0 ff ff       	callq  ffffffff80104fa7 <set_idt_entry>
ffffffff80105ef1:	48 c7 c0 4c 78 10 80 	mov    $0xffffffff8010784c,%rax
ffffffff80105ef8:	41 b8 67 00 00 00    	mov    $0x67,%r8d
ffffffff80105efe:	48 89 c1             	mov    %rax,%rcx
ffffffff80105f01:	ba 8e 00 00 00       	mov    $0x8e,%edx
ffffffff80105f06:	be 00 00 00 00       	mov    $0x0,%esi
ffffffff80105f0b:	bf 08 00 00 00       	mov    $0x8,%edi
ffffffff80105f10:	e8 92 f0 ff ff       	callq  ffffffff80104fa7 <set_idt_entry>
ffffffff80105f15:	48 c7 c0 55 78 10 80 	mov    $0xffffffff80107855,%rax
ffffffff80105f1c:	41 b8 68 00 00 00    	mov    $0x68,%r8d
ffffffff80105f22:	48 89 c1             	mov    %rax,%rcx
ffffffff80105f25:	ba 8e 00 00 00       	mov    $0x8e,%edx
ffffffff80105f2a:	be 00 00 00 00       	mov    $0x0,%esi
ffffffff80105f2f:	bf 08 00 00 00       	mov    $0x8,%edi
ffffffff80105f34:	e8 6e f0 ff ff       	callq  ffffffff80104fa7 <set_idt_entry>
ffffffff80105f39:	48 c7 c0 5e 78 10 80 	mov    $0xffffffff8010785e,%rax
ffffffff80105f40:	41 b8 69 00 00 00    	mov    $0x69,%r8d
ffffffff80105f46:	48 89 c1             	mov    %rax,%rcx
ffffffff80105f49:	ba 8e 00 00 00       	mov    $0x8e,%edx
ffffffff80105f4e:	be 00 00 00 00       	mov    $0x0,%esi
ffffffff80105f53:	bf 08 00 00 00       	mov    $0x8,%edi
ffffffff80105f58:	e8 4a f0 ff ff       	callq  ffffffff80104fa7 <set_idt_entry>
ffffffff80105f5d:	48 c7 c0 67 78 10 80 	mov    $0xffffffff80107867,%rax
ffffffff80105f64:	41 b8 6a 00 00 00    	mov    $0x6a,%r8d
ffffffff80105f6a:	48 89 c1             	mov    %rax,%rcx
ffffffff80105f6d:	ba 8e 00 00 00       	mov    $0x8e,%edx
ffffffff80105f72:	be 00 00 00 00       	mov    $0x0,%esi
ffffffff80105f77:	bf 08 00 00 00       	mov    $0x8,%edi
ffffffff80105f7c:	e8 26 f0 ff ff       	callq  ffffffff80104fa7 <set_idt_entry>
ffffffff80105f81:	48 c7 c0 70 78 10 80 	mov    $0xffffffff80107870,%rax
ffffffff80105f88:	41 b8 6b 00 00 00    	mov    $0x6b,%r8d
ffffffff80105f8e:	48 89 c1             	mov    %rax,%rcx
ffffffff80105f91:	ba 8e 00 00 00       	mov    $0x8e,%edx
ffffffff80105f96:	be 00 00 00 00       	mov    $0x0,%esi
ffffffff80105f9b:	bf 08 00 00 00       	mov    $0x8,%edi
ffffffff80105fa0:	e8 02 f0 ff ff       	callq  ffffffff80104fa7 <set_idt_entry>
ffffffff80105fa5:	48 c7 c0 79 78 10 80 	mov    $0xffffffff80107879,%rax
ffffffff80105fac:	41 b8 6c 00 00 00    	mov    $0x6c,%r8d
ffffffff80105fb2:	48 89 c1             	mov    %rax,%rcx
ffffffff80105fb5:	ba 8e 00 00 00       	mov    $0x8e,%edx
ffffffff80105fba:	be 00 00 00 00       	mov    $0x0,%esi
ffffffff80105fbf:	bf 08 00 00 00       	mov    $0x8,%edi
ffffffff80105fc4:	e8 de ef ff ff       	callq  ffffffff80104fa7 <set_idt_entry>
ffffffff80105fc9:	48 c7 c0 82 78 10 80 	mov    $0xffffffff80107882,%rax
ffffffff80105fd0:	41 b8 6d 00 00 00    	mov    $0x6d,%r8d
ffffffff80105fd6:	48 89 c1             	mov    %rax,%rcx
ffffffff80105fd9:	ba 8e 00 00 00       	mov    $0x8e,%edx
ffffffff80105fde:	be 00 00 00 00       	mov    $0x0,%esi
ffffffff80105fe3:	bf 08 00 00 00       	mov    $0x8,%edi
ffffffff80105fe8:	e8 ba ef ff ff       	callq  ffffffff80104fa7 <set_idt_entry>
ffffffff80105fed:	48 c7 c0 8b 78 10 80 	mov    $0xffffffff8010788b,%rax
ffffffff80105ff4:	41 b8 6e 00 00 00    	mov    $0x6e,%r8d
ffffffff80105ffa:	48 89 c1             	mov    %rax,%rcx
ffffffff80105ffd:	ba 8e 00 00 00       	mov    $0x8e,%edx
ffffffff80106002:	be 00 00 00 00       	mov    $0x0,%esi
ffffffff80106007:	bf 08 00 00 00       	mov    $0x8,%edi
ffffffff8010600c:	e8 96 ef ff ff       	callq  ffffffff80104fa7 <set_idt_entry>
ffffffff80106011:	48 c7 c0 94 78 10 80 	mov    $0xffffffff80107894,%rax
ffffffff80106018:	41 b8 6f 00 00 00    	mov    $0x6f,%r8d
ffffffff8010601e:	48 89 c1             	mov    %rax,%rcx
ffffffff80106021:	ba 8e 00 00 00       	mov    $0x8e,%edx
ffffffff80106026:	be 00 00 00 00       	mov    $0x0,%esi
ffffffff8010602b:	bf 08 00 00 00       	mov    $0x8,%edi
ffffffff80106030:	e8 72 ef ff ff       	callq  ffffffff80104fa7 <set_idt_entry>
ffffffff80106035:	48 c7 c0 9d 78 10 80 	mov    $0xffffffff8010789d,%rax
ffffffff8010603c:	41 b8 70 00 00 00    	mov    $0x70,%r8d
ffffffff80106042:	48 89 c1             	mov    %rax,%rcx
ffffffff80106045:	ba 8e 00 00 00       	mov    $0x8e,%edx
ffffffff8010604a:	be 00 00 00 00       	mov    $0x0,%esi
ffffffff8010604f:	bf 08 00 00 00       	mov    $0x8,%edi
ffffffff80106054:	e8 4e ef ff ff       	callq  ffffffff80104fa7 <set_idt_entry>
ffffffff80106059:	48 c7 c0 a6 78 10 80 	mov    $0xffffffff801078a6,%rax
ffffffff80106060:	41 b8 71 00 00 00    	mov    $0x71,%r8d
ffffffff80106066:	48 89 c1             	mov    %rax,%rcx
ffffffff80106069:	ba 8e 00 00 00       	mov    $0x8e,%edx
ffffffff8010606e:	be 00 00 00 00       	mov    $0x0,%esi
ffffffff80106073:	bf 08 00 00 00       	mov    $0x8,%edi
ffffffff80106078:	e8 2a ef ff ff       	callq  ffffffff80104fa7 <set_idt_entry>
ffffffff8010607d:	48 c7 c0 af 78 10 80 	mov    $0xffffffff801078af,%rax
ffffffff80106084:	41 b8 72 00 00 00    	mov    $0x72,%r8d
ffffffff8010608a:	48 89 c1             	mov    %rax,%rcx
ffffffff8010608d:	ba 8e 00 00 00       	mov    $0x8e,%edx
ffffffff80106092:	be 00 00 00 00       	mov    $0x0,%esi
ffffffff80106097:	bf 08 00 00 00       	mov    $0x8,%edi
ffffffff8010609c:	e8 06 ef ff ff       	callq  ffffffff80104fa7 <set_idt_entry>
ffffffff801060a1:	48 c7 c0 b8 78 10 80 	mov    $0xffffffff801078b8,%rax
ffffffff801060a8:	41 b8 73 00 00 00    	mov    $0x73,%r8d
ffffffff801060ae:	48 89 c1             	mov    %rax,%rcx
ffffffff801060b1:	ba 8e 00 00 00       	mov    $0x8e,%edx
ffffffff801060b6:	be 00 00 00 00       	mov    $0x0,%esi
ffffffff801060bb:	bf 08 00 00 00       	mov    $0x8,%edi
ffffffff801060c0:	e8 e2 ee ff ff       	callq  ffffffff80104fa7 <set_idt_entry>
ffffffff801060c5:	48 c7 c0 c1 78 10 80 	mov    $0xffffffff801078c1,%rax
ffffffff801060cc:	41 b8 74 00 00 00    	mov    $0x74,%r8d
ffffffff801060d2:	48 89 c1             	mov    %rax,%rcx
ffffffff801060d5:	ba 8e 00 00 00       	mov    $0x8e,%edx
ffffffff801060da:	be 00 00 00 00       	mov    $0x0,%esi
ffffffff801060df:	bf 08 00 00 00       	mov    $0x8,%edi
ffffffff801060e4:	e8 be ee ff ff       	callq  ffffffff80104fa7 <set_idt_entry>
ffffffff801060e9:	48 c7 c0 ca 78 10 80 	mov    $0xffffffff801078ca,%rax
ffffffff801060f0:	41 b8 75 00 00 00    	mov    $0x75,%r8d
ffffffff801060f6:	48 89 c1             	mov    %rax,%rcx
ffffffff801060f9:	ba 8e 00 00 00       	mov    $0x8e,%edx
ffffffff801060fe:	be 00 00 00 00       	mov    $0x0,%esi
ffffffff80106103:	bf 08 00 00 00       	mov    $0x8,%edi
ffffffff80106108:	e8 9a ee ff ff       	callq  ffffffff80104fa7 <set_idt_entry>
ffffffff8010610d:	48 c7 c0 d3 78 10 80 	mov    $0xffffffff801078d3,%rax
ffffffff80106114:	41 b8 76 00 00 00    	mov    $0x76,%r8d
ffffffff8010611a:	48 89 c1             	mov    %rax,%rcx
ffffffff8010611d:	ba 8e 00 00 00       	mov    $0x8e,%edx
ffffffff80106122:	be 00 00 00 00       	mov    $0x0,%esi
ffffffff80106127:	bf 08 00 00 00       	mov    $0x8,%edi
ffffffff8010612c:	e8 76 ee ff ff       	callq  ffffffff80104fa7 <set_idt_entry>
ffffffff80106131:	48 c7 c0 dc 78 10 80 	mov    $0xffffffff801078dc,%rax
ffffffff80106138:	41 b8 77 00 00 00    	mov    $0x77,%r8d
ffffffff8010613e:	48 89 c1             	mov    %rax,%rcx
ffffffff80106141:	ba 8e 00 00 00       	mov    $0x8e,%edx
ffffffff80106146:	be 00 00 00 00       	mov    $0x0,%esi
ffffffff8010614b:	bf 08 00 00 00       	mov    $0x8,%edi
ffffffff80106150:	e8 52 ee ff ff       	callq  ffffffff80104fa7 <set_idt_entry>
ffffffff80106155:	48 c7 c0 e5 78 10 80 	mov    $0xffffffff801078e5,%rax
ffffffff8010615c:	41 b8 78 00 00 00    	mov    $0x78,%r8d
ffffffff80106162:	48 89 c1             	mov    %rax,%rcx
ffffffff80106165:	ba 8e 00 00 00       	mov    $0x8e,%edx
ffffffff8010616a:	be 00 00 00 00       	mov    $0x0,%esi
ffffffff8010616f:	bf 08 00 00 00       	mov    $0x8,%edi
ffffffff80106174:	e8 2e ee ff ff       	callq  ffffffff80104fa7 <set_idt_entry>
ffffffff80106179:	48 c7 c0 ee 78 10 80 	mov    $0xffffffff801078ee,%rax
ffffffff80106180:	41 b8 79 00 00 00    	mov    $0x79,%r8d
ffffffff80106186:	48 89 c1             	mov    %rax,%rcx
ffffffff80106189:	ba 8e 00 00 00       	mov    $0x8e,%edx
ffffffff8010618e:	be 00 00 00 00       	mov    $0x0,%esi
ffffffff80106193:	bf 08 00 00 00       	mov    $0x8,%edi
ffffffff80106198:	e8 0a ee ff ff       	callq  ffffffff80104fa7 <set_idt_entry>
ffffffff8010619d:	48 c7 c0 f7 78 10 80 	mov    $0xffffffff801078f7,%rax
ffffffff801061a4:	41 b8 7a 00 00 00    	mov    $0x7a,%r8d
ffffffff801061aa:	48 89 c1             	mov    %rax,%rcx
ffffffff801061ad:	ba 8e 00 00 00       	mov    $0x8e,%edx
ffffffff801061b2:	be 00 00 00 00       	mov    $0x0,%esi
ffffffff801061b7:	bf 08 00 00 00       	mov    $0x8,%edi
ffffffff801061bc:	e8 e6 ed ff ff       	callq  ffffffff80104fa7 <set_idt_entry>
ffffffff801061c1:	48 c7 c0 00 79 10 80 	mov    $0xffffffff80107900,%rax
ffffffff801061c8:	41 b8 7b 00 00 00    	mov    $0x7b,%r8d
ffffffff801061ce:	48 89 c1             	mov    %rax,%rcx
ffffffff801061d1:	ba 8e 00 00 00       	mov    $0x8e,%edx
ffffffff801061d6:	be 00 00 00 00       	mov    $0x0,%esi
ffffffff801061db:	bf 08 00 00 00       	mov    $0x8,%edi
ffffffff801061e0:	e8 c2 ed ff ff       	callq  ffffffff80104fa7 <set_idt_entry>
ffffffff801061e5:	48 c7 c0 09 79 10 80 	mov    $0xffffffff80107909,%rax
ffffffff801061ec:	41 b8 7c 00 00 00    	mov    $0x7c,%r8d
ffffffff801061f2:	48 89 c1             	mov    %rax,%rcx
ffffffff801061f5:	ba 8e 00 00 00       	mov    $0x8e,%edx
ffffffff801061fa:	be 00 00 00 00       	mov    $0x0,%esi
ffffffff801061ff:	bf 08 00 00 00       	mov    $0x8,%edi
ffffffff80106204:	e8 9e ed ff ff       	callq  ffffffff80104fa7 <set_idt_entry>
ffffffff80106209:	48 c7 c0 12 79 10 80 	mov    $0xffffffff80107912,%rax
ffffffff80106210:	41 b8 7d 00 00 00    	mov    $0x7d,%r8d
ffffffff80106216:	48 89 c1             	mov    %rax,%rcx
ffffffff80106219:	ba 8e 00 00 00       	mov    $0x8e,%edx
ffffffff8010621e:	be 00 00 00 00       	mov    $0x0,%esi
ffffffff80106223:	bf 08 00 00 00       	mov    $0x8,%edi
ffffffff80106228:	e8 7a ed ff ff       	callq  ffffffff80104fa7 <set_idt_entry>
ffffffff8010622d:	48 c7 c0 1b 79 10 80 	mov    $0xffffffff8010791b,%rax
ffffffff80106234:	41 b8 7e 00 00 00    	mov    $0x7e,%r8d
ffffffff8010623a:	48 89 c1             	mov    %rax,%rcx
ffffffff8010623d:	ba 8e 00 00 00       	mov    $0x8e,%edx
ffffffff80106242:	be 00 00 00 00       	mov    $0x0,%esi
ffffffff80106247:	bf 08 00 00 00       	mov    $0x8,%edi
ffffffff8010624c:	e8 56 ed ff ff       	callq  ffffffff80104fa7 <set_idt_entry>
ffffffff80106251:	48 c7 c0 24 79 10 80 	mov    $0xffffffff80107924,%rax
ffffffff80106258:	41 b8 7f 00 00 00    	mov    $0x7f,%r8d
ffffffff8010625e:	48 89 c1             	mov    %rax,%rcx
ffffffff80106261:	ba 8e 00 00 00       	mov    $0x8e,%edx
ffffffff80106266:	be 00 00 00 00       	mov    $0x0,%esi
ffffffff8010626b:	bf 08 00 00 00       	mov    $0x8,%edi
ffffffff80106270:	e8 32 ed ff ff       	callq  ffffffff80104fa7 <set_idt_entry>
ffffffff80106275:	48 c7 c0 2d 79 10 80 	mov    $0xffffffff8010792d,%rax
ffffffff8010627c:	41 b8 80 00 00 00    	mov    $0x80,%r8d
ffffffff80106282:	48 89 c1             	mov    %rax,%rcx
ffffffff80106285:	ba 8e 00 00 00       	mov    $0x8e,%edx
ffffffff8010628a:	be 00 00 00 00       	mov    $0x0,%esi
ffffffff8010628f:	bf 08 00 00 00       	mov    $0x8,%edi
ffffffff80106294:	e8 0e ed ff ff       	callq  ffffffff80104fa7 <set_idt_entry>
ffffffff80106299:	48 c7 c0 39 79 10 80 	mov    $0xffffffff80107939,%rax
ffffffff801062a0:	41 b8 81 00 00 00    	mov    $0x81,%r8d
ffffffff801062a6:	48 89 c1             	mov    %rax,%rcx
ffffffff801062a9:	ba 8e 00 00 00       	mov    $0x8e,%edx
ffffffff801062ae:	be 00 00 00 00       	mov    $0x0,%esi
ffffffff801062b3:	bf 08 00 00 00       	mov    $0x8,%edi
ffffffff801062b8:	e8 ea ec ff ff       	callq  ffffffff80104fa7 <set_idt_entry>
ffffffff801062bd:	48 c7 c0 45 79 10 80 	mov    $0xffffffff80107945,%rax
ffffffff801062c4:	41 b8 82 00 00 00    	mov    $0x82,%r8d
ffffffff801062ca:	48 89 c1             	mov    %rax,%rcx
ffffffff801062cd:	ba 8e 00 00 00       	mov    $0x8e,%edx
ffffffff801062d2:	be 00 00 00 00       	mov    $0x0,%esi
ffffffff801062d7:	bf 08 00 00 00       	mov    $0x8,%edi
ffffffff801062dc:	e8 c6 ec ff ff       	callq  ffffffff80104fa7 <set_idt_entry>
ffffffff801062e1:	48 c7 c0 51 79 10 80 	mov    $0xffffffff80107951,%rax
ffffffff801062e8:	41 b8 83 00 00 00    	mov    $0x83,%r8d
ffffffff801062ee:	48 89 c1             	mov    %rax,%rcx
ffffffff801062f1:	ba 8e 00 00 00       	mov    $0x8e,%edx
ffffffff801062f6:	be 00 00 00 00       	mov    $0x0,%esi
ffffffff801062fb:	bf 08 00 00 00       	mov    $0x8,%edi
ffffffff80106300:	e8 a2 ec ff ff       	callq  ffffffff80104fa7 <set_idt_entry>
ffffffff80106305:	48 c7 c0 5d 79 10 80 	mov    $0xffffffff8010795d,%rax
ffffffff8010630c:	41 b8 84 00 00 00    	mov    $0x84,%r8d
ffffffff80106312:	48 89 c1             	mov    %rax,%rcx
ffffffff80106315:	ba 8e 00 00 00       	mov    $0x8e,%edx
ffffffff8010631a:	be 00 00 00 00       	mov    $0x0,%esi
ffffffff8010631f:	bf 08 00 00 00       	mov    $0x8,%edi
ffffffff80106324:	e8 7e ec ff ff       	callq  ffffffff80104fa7 <set_idt_entry>
ffffffff80106329:	48 c7 c0 69 79 10 80 	mov    $0xffffffff80107969,%rax
ffffffff80106330:	41 b8 85 00 00 00    	mov    $0x85,%r8d
ffffffff80106336:	48 89 c1             	mov    %rax,%rcx
ffffffff80106339:	ba 8e 00 00 00       	mov    $0x8e,%edx
ffffffff8010633e:	be 00 00 00 00       	mov    $0x0,%esi
ffffffff80106343:	bf 08 00 00 00       	mov    $0x8,%edi
ffffffff80106348:	e8 5a ec ff ff       	callq  ffffffff80104fa7 <set_idt_entry>
ffffffff8010634d:	48 c7 c0 75 79 10 80 	mov    $0xffffffff80107975,%rax
ffffffff80106354:	41 b8 86 00 00 00    	mov    $0x86,%r8d
ffffffff8010635a:	48 89 c1             	mov    %rax,%rcx
ffffffff8010635d:	ba 8e 00 00 00       	mov    $0x8e,%edx
ffffffff80106362:	be 00 00 00 00       	mov    $0x0,%esi
ffffffff80106367:	bf 08 00 00 00       	mov    $0x8,%edi
ffffffff8010636c:	e8 36 ec ff ff       	callq  ffffffff80104fa7 <set_idt_entry>
ffffffff80106371:	48 c7 c0 81 79 10 80 	mov    $0xffffffff80107981,%rax
ffffffff80106378:	41 b8 87 00 00 00    	mov    $0x87,%r8d
ffffffff8010637e:	48 89 c1             	mov    %rax,%rcx
ffffffff80106381:	ba 8e 00 00 00       	mov    $0x8e,%edx
ffffffff80106386:	be 00 00 00 00       	mov    $0x0,%esi
ffffffff8010638b:	bf 08 00 00 00       	mov    $0x8,%edi
ffffffff80106390:	e8 12 ec ff ff       	callq  ffffffff80104fa7 <set_idt_entry>
ffffffff80106395:	48 c7 c0 8d 79 10 80 	mov    $0xffffffff8010798d,%rax
ffffffff8010639c:	41 b8 88 00 00 00    	mov    $0x88,%r8d
ffffffff801063a2:	48 89 c1             	mov    %rax,%rcx
ffffffff801063a5:	ba 8e 00 00 00       	mov    $0x8e,%edx
ffffffff801063aa:	be 00 00 00 00       	mov    $0x0,%esi
ffffffff801063af:	bf 08 00 00 00       	mov    $0x8,%edi
ffffffff801063b4:	e8 ee eb ff ff       	callq  ffffffff80104fa7 <set_idt_entry>
ffffffff801063b9:	48 c7 c0 99 79 10 80 	mov    $0xffffffff80107999,%rax
ffffffff801063c0:	41 b8 89 00 00 00    	mov    $0x89,%r8d
ffffffff801063c6:	48 89 c1             	mov    %rax,%rcx
ffffffff801063c9:	ba 8e 00 00 00       	mov    $0x8e,%edx
ffffffff801063ce:	be 00 00 00 00       	mov    $0x0,%esi
ffffffff801063d3:	bf 08 00 00 00       	mov    $0x8,%edi
ffffffff801063d8:	e8 ca eb ff ff       	callq  ffffffff80104fa7 <set_idt_entry>
ffffffff801063dd:	48 c7 c0 a5 79 10 80 	mov    $0xffffffff801079a5,%rax
ffffffff801063e4:	41 b8 8a 00 00 00    	mov    $0x8a,%r8d
ffffffff801063ea:	48 89 c1             	mov    %rax,%rcx
ffffffff801063ed:	ba 8e 00 00 00       	mov    $0x8e,%edx
ffffffff801063f2:	be 00 00 00 00       	mov    $0x0,%esi
ffffffff801063f7:	bf 08 00 00 00       	mov    $0x8,%edi
ffffffff801063fc:	e8 a6 eb ff ff       	callq  ffffffff80104fa7 <set_idt_entry>
ffffffff80106401:	48 c7 c0 b1 79 10 80 	mov    $0xffffffff801079b1,%rax
ffffffff80106408:	41 b8 8b 00 00 00    	mov    $0x8b,%r8d
ffffffff8010640e:	48 89 c1             	mov    %rax,%rcx
ffffffff80106411:	ba 8e 00 00 00       	mov    $0x8e,%edx
ffffffff80106416:	be 00 00 00 00       	mov    $0x0,%esi
ffffffff8010641b:	bf 08 00 00 00       	mov    $0x8,%edi
ffffffff80106420:	e8 82 eb ff ff       	callq  ffffffff80104fa7 <set_idt_entry>
ffffffff80106425:	48 c7 c0 bd 79 10 80 	mov    $0xffffffff801079bd,%rax
ffffffff8010642c:	41 b8 8c 00 00 00    	mov    $0x8c,%r8d
ffffffff80106432:	48 89 c1             	mov    %rax,%rcx
ffffffff80106435:	ba 8e 00 00 00       	mov    $0x8e,%edx
ffffffff8010643a:	be 00 00 00 00       	mov    $0x0,%esi
ffffffff8010643f:	bf 08 00 00 00       	mov    $0x8,%edi
ffffffff80106444:	e8 5e eb ff ff       	callq  ffffffff80104fa7 <set_idt_entry>
ffffffff80106449:	48 c7 c0 c9 79 10 80 	mov    $0xffffffff801079c9,%rax
ffffffff80106450:	41 b8 8d 00 00 00    	mov    $0x8d,%r8d
ffffffff80106456:	48 89 c1             	mov    %rax,%rcx
ffffffff80106459:	ba 8e 00 00 00       	mov    $0x8e,%edx
ffffffff8010645e:	be 00 00 00 00       	mov    $0x0,%esi
ffffffff80106463:	bf 08 00 00 00       	mov    $0x8,%edi
ffffffff80106468:	e8 3a eb ff ff       	callq  ffffffff80104fa7 <set_idt_entry>
ffffffff8010646d:	48 c7 c0 d5 79 10 80 	mov    $0xffffffff801079d5,%rax
ffffffff80106474:	41 b8 8e 00 00 00    	mov    $0x8e,%r8d
ffffffff8010647a:	48 89 c1             	mov    %rax,%rcx
ffffffff8010647d:	ba 8e 00 00 00       	mov    $0x8e,%edx
ffffffff80106482:	be 00 00 00 00       	mov    $0x0,%esi
ffffffff80106487:	bf 08 00 00 00       	mov    $0x8,%edi
ffffffff8010648c:	e8 16 eb ff ff       	callq  ffffffff80104fa7 <set_idt_entry>
ffffffff80106491:	48 c7 c0 e1 79 10 80 	mov    $0xffffffff801079e1,%rax
ffffffff80106498:	41 b8 8f 00 00 00    	mov    $0x8f,%r8d
ffffffff8010649e:	48 89 c1             	mov    %rax,%rcx
ffffffff801064a1:	ba 8e 00 00 00       	mov    $0x8e,%edx
ffffffff801064a6:	be 00 00 00 00       	mov    $0x0,%esi
ffffffff801064ab:	bf 08 00 00 00       	mov    $0x8,%edi
ffffffff801064b0:	e8 f2 ea ff ff       	callq  ffffffff80104fa7 <set_idt_entry>
ffffffff801064b5:	48 c7 c0 ed 79 10 80 	mov    $0xffffffff801079ed,%rax
ffffffff801064bc:	41 b8 90 00 00 00    	mov    $0x90,%r8d
ffffffff801064c2:	48 89 c1             	mov    %rax,%rcx
ffffffff801064c5:	ba 8e 00 00 00       	mov    $0x8e,%edx
ffffffff801064ca:	be 00 00 00 00       	mov    $0x0,%esi
ffffffff801064cf:	bf 08 00 00 00       	mov    $0x8,%edi
ffffffff801064d4:	e8 ce ea ff ff       	callq  ffffffff80104fa7 <set_idt_entry>
ffffffff801064d9:	48 c7 c0 f9 79 10 80 	mov    $0xffffffff801079f9,%rax
ffffffff801064e0:	41 b8 91 00 00 00    	mov    $0x91,%r8d
ffffffff801064e6:	48 89 c1             	mov    %rax,%rcx
ffffffff801064e9:	ba 8e 00 00 00       	mov    $0x8e,%edx
ffffffff801064ee:	be 00 00 00 00       	mov    $0x0,%esi
ffffffff801064f3:	bf 08 00 00 00       	mov    $0x8,%edi
ffffffff801064f8:	e8 aa ea ff ff       	callq  ffffffff80104fa7 <set_idt_entry>
ffffffff801064fd:	48 c7 c0 05 7a 10 80 	mov    $0xffffffff80107a05,%rax
ffffffff80106504:	41 b8 92 00 00 00    	mov    $0x92,%r8d
ffffffff8010650a:	48 89 c1             	mov    %rax,%rcx
ffffffff8010650d:	ba 8e 00 00 00       	mov    $0x8e,%edx
ffffffff80106512:	be 00 00 00 00       	mov    $0x0,%esi
ffffffff80106517:	bf 08 00 00 00       	mov    $0x8,%edi
ffffffff8010651c:	e8 86 ea ff ff       	callq  ffffffff80104fa7 <set_idt_entry>
ffffffff80106521:	48 c7 c0 11 7a 10 80 	mov    $0xffffffff80107a11,%rax
ffffffff80106528:	41 b8 93 00 00 00    	mov    $0x93,%r8d
ffffffff8010652e:	48 89 c1             	mov    %rax,%rcx
ffffffff80106531:	ba 8e 00 00 00       	mov    $0x8e,%edx
ffffffff80106536:	be 00 00 00 00       	mov    $0x0,%esi
ffffffff8010653b:	bf 08 00 00 00       	mov    $0x8,%edi
ffffffff80106540:	e8 62 ea ff ff       	callq  ffffffff80104fa7 <set_idt_entry>
ffffffff80106545:	48 c7 c0 1d 7a 10 80 	mov    $0xffffffff80107a1d,%rax
ffffffff8010654c:	41 b8 94 00 00 00    	mov    $0x94,%r8d
ffffffff80106552:	48 89 c1             	mov    %rax,%rcx
ffffffff80106555:	ba 8e 00 00 00       	mov    $0x8e,%edx
ffffffff8010655a:	be 00 00 00 00       	mov    $0x0,%esi
ffffffff8010655f:	bf 08 00 00 00       	mov    $0x8,%edi
ffffffff80106564:	e8 3e ea ff ff       	callq  ffffffff80104fa7 <set_idt_entry>
ffffffff80106569:	48 c7 c0 29 7a 10 80 	mov    $0xffffffff80107a29,%rax
ffffffff80106570:	41 b8 95 00 00 00    	mov    $0x95,%r8d
ffffffff80106576:	48 89 c1             	mov    %rax,%rcx
ffffffff80106579:	ba 8e 00 00 00       	mov    $0x8e,%edx
ffffffff8010657e:	be 00 00 00 00       	mov    $0x0,%esi
ffffffff80106583:	bf 08 00 00 00       	mov    $0x8,%edi
ffffffff80106588:	e8 1a ea ff ff       	callq  ffffffff80104fa7 <set_idt_entry>
ffffffff8010658d:	48 c7 c0 35 7a 10 80 	mov    $0xffffffff80107a35,%rax
ffffffff80106594:	41 b8 96 00 00 00    	mov    $0x96,%r8d
ffffffff8010659a:	48 89 c1             	mov    %rax,%rcx
ffffffff8010659d:	ba 8e 00 00 00       	mov    $0x8e,%edx
ffffffff801065a2:	be 00 00 00 00       	mov    $0x0,%esi
ffffffff801065a7:	bf 08 00 00 00       	mov    $0x8,%edi
ffffffff801065ac:	e8 f6 e9 ff ff       	callq  ffffffff80104fa7 <set_idt_entry>
ffffffff801065b1:	48 c7 c0 41 7a 10 80 	mov    $0xffffffff80107a41,%rax
ffffffff801065b8:	41 b8 97 00 00 00    	mov    $0x97,%r8d
ffffffff801065be:	48 89 c1             	mov    %rax,%rcx
ffffffff801065c1:	ba 8e 00 00 00       	mov    $0x8e,%edx
ffffffff801065c6:	be 00 00 00 00       	mov    $0x0,%esi
ffffffff801065cb:	bf 08 00 00 00       	mov    $0x8,%edi
ffffffff801065d0:	e8 d2 e9 ff ff       	callq  ffffffff80104fa7 <set_idt_entry>
ffffffff801065d5:	48 c7 c0 4d 7a 10 80 	mov    $0xffffffff80107a4d,%rax
ffffffff801065dc:	41 b8 98 00 00 00    	mov    $0x98,%r8d
ffffffff801065e2:	48 89 c1             	mov    %rax,%rcx
ffffffff801065e5:	ba 8e 00 00 00       	mov    $0x8e,%edx
ffffffff801065ea:	be 00 00 00 00       	mov    $0x0,%esi
ffffffff801065ef:	bf 08 00 00 00       	mov    $0x8,%edi
ffffffff801065f4:	e8 ae e9 ff ff       	callq  ffffffff80104fa7 <set_idt_entry>
ffffffff801065f9:	48 c7 c0 59 7a 10 80 	mov    $0xffffffff80107a59,%rax
ffffffff80106600:	41 b8 99 00 00 00    	mov    $0x99,%r8d
ffffffff80106606:	48 89 c1             	mov    %rax,%rcx
ffffffff80106609:	ba 8e 00 00 00       	mov    $0x8e,%edx
ffffffff8010660e:	be 00 00 00 00       	mov    $0x0,%esi
ffffffff80106613:	bf 08 00 00 00       	mov    $0x8,%edi
ffffffff80106618:	e8 8a e9 ff ff       	callq  ffffffff80104fa7 <set_idt_entry>
ffffffff8010661d:	48 c7 c0 65 7a 10 80 	mov    $0xffffffff80107a65,%rax
ffffffff80106624:	41 b8 9a 00 00 00    	mov    $0x9a,%r8d
ffffffff8010662a:	48 89 c1             	mov    %rax,%rcx
ffffffff8010662d:	ba 8e 00 00 00       	mov    $0x8e,%edx
ffffffff80106632:	be 00 00 00 00       	mov    $0x0,%esi
ffffffff80106637:	bf 08 00 00 00       	mov    $0x8,%edi
ffffffff8010663c:	e8 66 e9 ff ff       	callq  ffffffff80104fa7 <set_idt_entry>
ffffffff80106641:	48 c7 c0 71 7a 10 80 	mov    $0xffffffff80107a71,%rax
ffffffff80106648:	41 b8 9b 00 00 00    	mov    $0x9b,%r8d
ffffffff8010664e:	48 89 c1             	mov    %rax,%rcx
ffffffff80106651:	ba 8e 00 00 00       	mov    $0x8e,%edx
ffffffff80106656:	be 00 00 00 00       	mov    $0x0,%esi
ffffffff8010665b:	bf 08 00 00 00       	mov    $0x8,%edi
ffffffff80106660:	e8 42 e9 ff ff       	callq  ffffffff80104fa7 <set_idt_entry>
ffffffff80106665:	48 c7 c0 7d 7a 10 80 	mov    $0xffffffff80107a7d,%rax
ffffffff8010666c:	41 b8 9c 00 00 00    	mov    $0x9c,%r8d
ffffffff80106672:	48 89 c1             	mov    %rax,%rcx
ffffffff80106675:	ba 8e 00 00 00       	mov    $0x8e,%edx
ffffffff8010667a:	be 00 00 00 00       	mov    $0x0,%esi
ffffffff8010667f:	bf 08 00 00 00       	mov    $0x8,%edi
ffffffff80106684:	e8 1e e9 ff ff       	callq  ffffffff80104fa7 <set_idt_entry>
ffffffff80106689:	48 c7 c0 89 7a 10 80 	mov    $0xffffffff80107a89,%rax
ffffffff80106690:	41 b8 9d 00 00 00    	mov    $0x9d,%r8d
ffffffff80106696:	48 89 c1             	mov    %rax,%rcx
ffffffff80106699:	ba 8e 00 00 00       	mov    $0x8e,%edx
ffffffff8010669e:	be 00 00 00 00       	mov    $0x0,%esi
ffffffff801066a3:	bf 08 00 00 00       	mov    $0x8,%edi
ffffffff801066a8:	e8 fa e8 ff ff       	callq  ffffffff80104fa7 <set_idt_entry>
ffffffff801066ad:	48 c7 c0 95 7a 10 80 	mov    $0xffffffff80107a95,%rax
ffffffff801066b4:	41 b8 9e 00 00 00    	mov    $0x9e,%r8d
ffffffff801066ba:	48 89 c1             	mov    %rax,%rcx
ffffffff801066bd:	ba 8e 00 00 00       	mov    $0x8e,%edx
ffffffff801066c2:	be 00 00 00 00       	mov    $0x0,%esi
ffffffff801066c7:	bf 08 00 00 00       	mov    $0x8,%edi
ffffffff801066cc:	e8 d6 e8 ff ff       	callq  ffffffff80104fa7 <set_idt_entry>
ffffffff801066d1:	48 c7 c0 a1 7a 10 80 	mov    $0xffffffff80107aa1,%rax
ffffffff801066d8:	41 b8 9f 00 00 00    	mov    $0x9f,%r8d
ffffffff801066de:	48 89 c1             	mov    %rax,%rcx
ffffffff801066e1:	ba 8e 00 00 00       	mov    $0x8e,%edx
ffffffff801066e6:	be 00 00 00 00       	mov    $0x0,%esi
ffffffff801066eb:	bf 08 00 00 00       	mov    $0x8,%edi
ffffffff801066f0:	e8 b2 e8 ff ff       	callq  ffffffff80104fa7 <set_idt_entry>
ffffffff801066f5:	48 c7 c0 ad 7a 10 80 	mov    $0xffffffff80107aad,%rax
ffffffff801066fc:	41 b8 a0 00 00 00    	mov    $0xa0,%r8d
ffffffff80106702:	48 89 c1             	mov    %rax,%rcx
ffffffff80106705:	ba 8e 00 00 00       	mov    $0x8e,%edx
ffffffff8010670a:	be 00 00 00 00       	mov    $0x0,%esi
ffffffff8010670f:	bf 08 00 00 00       	mov    $0x8,%edi
ffffffff80106714:	e8 8e e8 ff ff       	callq  ffffffff80104fa7 <set_idt_entry>
ffffffff80106719:	48 c7 c0 b9 7a 10 80 	mov    $0xffffffff80107ab9,%rax
ffffffff80106720:	41 b8 a1 00 00 00    	mov    $0xa1,%r8d
ffffffff80106726:	48 89 c1             	mov    %rax,%rcx
ffffffff80106729:	ba 8e 00 00 00       	mov    $0x8e,%edx
ffffffff8010672e:	be 00 00 00 00       	mov    $0x0,%esi
ffffffff80106733:	bf 08 00 00 00       	mov    $0x8,%edi
ffffffff80106738:	e8 6a e8 ff ff       	callq  ffffffff80104fa7 <set_idt_entry>
ffffffff8010673d:	48 c7 c0 c5 7a 10 80 	mov    $0xffffffff80107ac5,%rax
ffffffff80106744:	41 b8 a2 00 00 00    	mov    $0xa2,%r8d
ffffffff8010674a:	48 89 c1             	mov    %rax,%rcx
ffffffff8010674d:	ba 8e 00 00 00       	mov    $0x8e,%edx
ffffffff80106752:	be 00 00 00 00       	mov    $0x0,%esi
ffffffff80106757:	bf 08 00 00 00       	mov    $0x8,%edi
ffffffff8010675c:	e8 46 e8 ff ff       	callq  ffffffff80104fa7 <set_idt_entry>
ffffffff80106761:	48 c7 c0 d1 7a 10 80 	mov    $0xffffffff80107ad1,%rax
ffffffff80106768:	41 b8 a3 00 00 00    	mov    $0xa3,%r8d
ffffffff8010676e:	48 89 c1             	mov    %rax,%rcx
ffffffff80106771:	ba 8e 00 00 00       	mov    $0x8e,%edx
ffffffff80106776:	be 00 00 00 00       	mov    $0x0,%esi
ffffffff8010677b:	bf 08 00 00 00       	mov    $0x8,%edi
ffffffff80106780:	e8 22 e8 ff ff       	callq  ffffffff80104fa7 <set_idt_entry>
ffffffff80106785:	48 c7 c0 dd 7a 10 80 	mov    $0xffffffff80107add,%rax
ffffffff8010678c:	41 b8 a4 00 00 00    	mov    $0xa4,%r8d
ffffffff80106792:	48 89 c1             	mov    %rax,%rcx
ffffffff80106795:	ba 8e 00 00 00       	mov    $0x8e,%edx
ffffffff8010679a:	be 00 00 00 00       	mov    $0x0,%esi
ffffffff8010679f:	bf 08 00 00 00       	mov    $0x8,%edi
ffffffff801067a4:	e8 fe e7 ff ff       	callq  ffffffff80104fa7 <set_idt_entry>
ffffffff801067a9:	48 c7 c0 e9 7a 10 80 	mov    $0xffffffff80107ae9,%rax
ffffffff801067b0:	41 b8 a5 00 00 00    	mov    $0xa5,%r8d
ffffffff801067b6:	48 89 c1             	mov    %rax,%rcx
ffffffff801067b9:	ba 8e 00 00 00       	mov    $0x8e,%edx
ffffffff801067be:	be 00 00 00 00       	mov    $0x0,%esi
ffffffff801067c3:	bf 08 00 00 00       	mov    $0x8,%edi
ffffffff801067c8:	e8 da e7 ff ff       	callq  ffffffff80104fa7 <set_idt_entry>
ffffffff801067cd:	48 c7 c0 f5 7a 10 80 	mov    $0xffffffff80107af5,%rax
ffffffff801067d4:	41 b8 a6 00 00 00    	mov    $0xa6,%r8d
ffffffff801067da:	48 89 c1             	mov    %rax,%rcx
ffffffff801067dd:	ba 8e 00 00 00       	mov    $0x8e,%edx
ffffffff801067e2:	be 00 00 00 00       	mov    $0x0,%esi
ffffffff801067e7:	bf 08 00 00 00       	mov    $0x8,%edi
ffffffff801067ec:	e8 b6 e7 ff ff       	callq  ffffffff80104fa7 <set_idt_entry>
ffffffff801067f1:	48 c7 c0 01 7b 10 80 	mov    $0xffffffff80107b01,%rax
ffffffff801067f8:	41 b8 a7 00 00 00    	mov    $0xa7,%r8d
ffffffff801067fe:	48 89 c1             	mov    %rax,%rcx
ffffffff80106801:	ba 8e 00 00 00       	mov    $0x8e,%edx
ffffffff80106806:	be 00 00 00 00       	mov    $0x0,%esi
ffffffff8010680b:	bf 08 00 00 00       	mov    $0x8,%edi
ffffffff80106810:	e8 92 e7 ff ff       	callq  ffffffff80104fa7 <set_idt_entry>
ffffffff80106815:	48 c7 c0 0d 7b 10 80 	mov    $0xffffffff80107b0d,%rax
ffffffff8010681c:	41 b8 a8 00 00 00    	mov    $0xa8,%r8d
ffffffff80106822:	48 89 c1             	mov    %rax,%rcx
ffffffff80106825:	ba 8e 00 00 00       	mov    $0x8e,%edx
ffffffff8010682a:	be 00 00 00 00       	mov    $0x0,%esi
ffffffff8010682f:	bf 08 00 00 00       	mov    $0x8,%edi
ffffffff80106834:	e8 6e e7 ff ff       	callq  ffffffff80104fa7 <set_idt_entry>
ffffffff80106839:	48 c7 c0 19 7b 10 80 	mov    $0xffffffff80107b19,%rax
ffffffff80106840:	41 b8 a9 00 00 00    	mov    $0xa9,%r8d
ffffffff80106846:	48 89 c1             	mov    %rax,%rcx
ffffffff80106849:	ba 8e 00 00 00       	mov    $0x8e,%edx
ffffffff8010684e:	be 00 00 00 00       	mov    $0x0,%esi
ffffffff80106853:	bf 08 00 00 00       	mov    $0x8,%edi
ffffffff80106858:	e8 4a e7 ff ff       	callq  ffffffff80104fa7 <set_idt_entry>
ffffffff8010685d:	48 c7 c0 25 7b 10 80 	mov    $0xffffffff80107b25,%rax
ffffffff80106864:	41 b8 aa 00 00 00    	mov    $0xaa,%r8d
ffffffff8010686a:	48 89 c1             	mov    %rax,%rcx
ffffffff8010686d:	ba 8e 00 00 00       	mov    $0x8e,%edx
ffffffff80106872:	be 00 00 00 00       	mov    $0x0,%esi
ffffffff80106877:	bf 08 00 00 00       	mov    $0x8,%edi
ffffffff8010687c:	e8 26 e7 ff ff       	callq  ffffffff80104fa7 <set_idt_entry>
ffffffff80106881:	48 c7 c0 31 7b 10 80 	mov    $0xffffffff80107b31,%rax
ffffffff80106888:	41 b8 ab 00 00 00    	mov    $0xab,%r8d
ffffffff8010688e:	48 89 c1             	mov    %rax,%rcx
ffffffff80106891:	ba 8e 00 00 00       	mov    $0x8e,%edx
ffffffff80106896:	be 00 00 00 00       	mov    $0x0,%esi
ffffffff8010689b:	bf 08 00 00 00       	mov    $0x8,%edi
ffffffff801068a0:	e8 02 e7 ff ff       	callq  ffffffff80104fa7 <set_idt_entry>
ffffffff801068a5:	48 c7 c0 3d 7b 10 80 	mov    $0xffffffff80107b3d,%rax
ffffffff801068ac:	41 b8 ac 00 00 00    	mov    $0xac,%r8d
ffffffff801068b2:	48 89 c1             	mov    %rax,%rcx
ffffffff801068b5:	ba 8e 00 00 00       	mov    $0x8e,%edx
ffffffff801068ba:	be 00 00 00 00       	mov    $0x0,%esi
ffffffff801068bf:	bf 08 00 00 00       	mov    $0x8,%edi
ffffffff801068c4:	e8 de e6 ff ff       	callq  ffffffff80104fa7 <set_idt_entry>
ffffffff801068c9:	48 c7 c0 49 7b 10 80 	mov    $0xffffffff80107b49,%rax
ffffffff801068d0:	41 b8 ad 00 00 00    	mov    $0xad,%r8d
ffffffff801068d6:	48 89 c1             	mov    %rax,%rcx
ffffffff801068d9:	ba 8e 00 00 00       	mov    $0x8e,%edx
ffffffff801068de:	be 00 00 00 00       	mov    $0x0,%esi
ffffffff801068e3:	bf 08 00 00 00       	mov    $0x8,%edi
ffffffff801068e8:	e8 ba e6 ff ff       	callq  ffffffff80104fa7 <set_idt_entry>
ffffffff801068ed:	48 c7 c0 55 7b 10 80 	mov    $0xffffffff80107b55,%rax
ffffffff801068f4:	41 b8 ae 00 00 00    	mov    $0xae,%r8d
ffffffff801068fa:	48 89 c1             	mov    %rax,%rcx
ffffffff801068fd:	ba 8e 00 00 00       	mov    $0x8e,%edx
ffffffff80106902:	be 00 00 00 00       	mov    $0x0,%esi
ffffffff80106907:	bf 08 00 00 00       	mov    $0x8,%edi
ffffffff8010690c:	e8 96 e6 ff ff       	callq  ffffffff80104fa7 <set_idt_entry>
ffffffff80106911:	48 c7 c0 61 7b 10 80 	mov    $0xffffffff80107b61,%rax
ffffffff80106918:	41 b8 af 00 00 00    	mov    $0xaf,%r8d
ffffffff8010691e:	48 89 c1             	mov    %rax,%rcx
ffffffff80106921:	ba 8e 00 00 00       	mov    $0x8e,%edx
ffffffff80106926:	be 00 00 00 00       	mov    $0x0,%esi
ffffffff8010692b:	bf 08 00 00 00       	mov    $0x8,%edi
ffffffff80106930:	e8 72 e6 ff ff       	callq  ffffffff80104fa7 <set_idt_entry>
ffffffff80106935:	48 c7 c0 6d 7b 10 80 	mov    $0xffffffff80107b6d,%rax
ffffffff8010693c:	41 b8 b0 00 00 00    	mov    $0xb0,%r8d
ffffffff80106942:	48 89 c1             	mov    %rax,%rcx
ffffffff80106945:	ba 8e 00 00 00       	mov    $0x8e,%edx
ffffffff8010694a:	be 00 00 00 00       	mov    $0x0,%esi
ffffffff8010694f:	bf 08 00 00 00       	mov    $0x8,%edi
ffffffff80106954:	e8 4e e6 ff ff       	callq  ffffffff80104fa7 <set_idt_entry>
ffffffff80106959:	48 c7 c0 79 7b 10 80 	mov    $0xffffffff80107b79,%rax
ffffffff80106960:	41 b8 b1 00 00 00    	mov    $0xb1,%r8d
ffffffff80106966:	48 89 c1             	mov    %rax,%rcx
ffffffff80106969:	ba 8e 00 00 00       	mov    $0x8e,%edx
ffffffff8010696e:	be 00 00 00 00       	mov    $0x0,%esi
ffffffff80106973:	bf 08 00 00 00       	mov    $0x8,%edi
ffffffff80106978:	e8 2a e6 ff ff       	callq  ffffffff80104fa7 <set_idt_entry>
ffffffff8010697d:	48 c7 c0 85 7b 10 80 	mov    $0xffffffff80107b85,%rax
ffffffff80106984:	41 b8 b2 00 00 00    	mov    $0xb2,%r8d
ffffffff8010698a:	48 89 c1             	mov    %rax,%rcx
ffffffff8010698d:	ba 8e 00 00 00       	mov    $0x8e,%edx
ffffffff80106992:	be 00 00 00 00       	mov    $0x0,%esi
ffffffff80106997:	bf 08 00 00 00       	mov    $0x8,%edi
ffffffff8010699c:	e8 06 e6 ff ff       	callq  ffffffff80104fa7 <set_idt_entry>
ffffffff801069a1:	48 c7 c0 91 7b 10 80 	mov    $0xffffffff80107b91,%rax
ffffffff801069a8:	41 b8 b3 00 00 00    	mov    $0xb3,%r8d
ffffffff801069ae:	48 89 c1             	mov    %rax,%rcx
ffffffff801069b1:	ba 8e 00 00 00       	mov    $0x8e,%edx
ffffffff801069b6:	be 00 00 00 00       	mov    $0x0,%esi
ffffffff801069bb:	bf 08 00 00 00       	mov    $0x8,%edi
ffffffff801069c0:	e8 e2 e5 ff ff       	callq  ffffffff80104fa7 <set_idt_entry>
ffffffff801069c5:	48 c7 c0 9d 7b 10 80 	mov    $0xffffffff80107b9d,%rax
ffffffff801069cc:	41 b8 b4 00 00 00    	mov    $0xb4,%r8d
ffffffff801069d2:	48 89 c1             	mov    %rax,%rcx
ffffffff801069d5:	ba 8e 00 00 00       	mov    $0x8e,%edx
ffffffff801069da:	be 00 00 00 00       	mov    $0x0,%esi
ffffffff801069df:	bf 08 00 00 00       	mov    $0x8,%edi
ffffffff801069e4:	e8 be e5 ff ff       	callq  ffffffff80104fa7 <set_idt_entry>
ffffffff801069e9:	48 c7 c0 a9 7b 10 80 	mov    $0xffffffff80107ba9,%rax
ffffffff801069f0:	41 b8 b5 00 00 00    	mov    $0xb5,%r8d
ffffffff801069f6:	48 89 c1             	mov    %rax,%rcx
ffffffff801069f9:	ba 8e 00 00 00       	mov    $0x8e,%edx
ffffffff801069fe:	be 00 00 00 00       	mov    $0x0,%esi
ffffffff80106a03:	bf 08 00 00 00       	mov    $0x8,%edi
ffffffff80106a08:	e8 9a e5 ff ff       	callq  ffffffff80104fa7 <set_idt_entry>
ffffffff80106a0d:	48 c7 c0 b5 7b 10 80 	mov    $0xffffffff80107bb5,%rax
ffffffff80106a14:	41 b8 b6 00 00 00    	mov    $0xb6,%r8d
ffffffff80106a1a:	48 89 c1             	mov    %rax,%rcx
ffffffff80106a1d:	ba 8e 00 00 00       	mov    $0x8e,%edx
ffffffff80106a22:	be 00 00 00 00       	mov    $0x0,%esi
ffffffff80106a27:	bf 08 00 00 00       	mov    $0x8,%edi
ffffffff80106a2c:	e8 76 e5 ff ff       	callq  ffffffff80104fa7 <set_idt_entry>
ffffffff80106a31:	48 c7 c0 c1 7b 10 80 	mov    $0xffffffff80107bc1,%rax
ffffffff80106a38:	41 b8 b7 00 00 00    	mov    $0xb7,%r8d
ffffffff80106a3e:	48 89 c1             	mov    %rax,%rcx
ffffffff80106a41:	ba 8e 00 00 00       	mov    $0x8e,%edx
ffffffff80106a46:	be 00 00 00 00       	mov    $0x0,%esi
ffffffff80106a4b:	bf 08 00 00 00       	mov    $0x8,%edi
ffffffff80106a50:	e8 52 e5 ff ff       	callq  ffffffff80104fa7 <set_idt_entry>
ffffffff80106a55:	48 c7 c0 cd 7b 10 80 	mov    $0xffffffff80107bcd,%rax
ffffffff80106a5c:	41 b8 b8 00 00 00    	mov    $0xb8,%r8d
ffffffff80106a62:	48 89 c1             	mov    %rax,%rcx
ffffffff80106a65:	ba 8e 00 00 00       	mov    $0x8e,%edx
ffffffff80106a6a:	be 00 00 00 00       	mov    $0x0,%esi
ffffffff80106a6f:	bf 08 00 00 00       	mov    $0x8,%edi
ffffffff80106a74:	e8 2e e5 ff ff       	callq  ffffffff80104fa7 <set_idt_entry>
ffffffff80106a79:	48 c7 c0 d9 7b 10 80 	mov    $0xffffffff80107bd9,%rax
ffffffff80106a80:	41 b8 b9 00 00 00    	mov    $0xb9,%r8d
ffffffff80106a86:	48 89 c1             	mov    %rax,%rcx
ffffffff80106a89:	ba 8e 00 00 00       	mov    $0x8e,%edx
ffffffff80106a8e:	be 00 00 00 00       	mov    $0x0,%esi
ffffffff80106a93:	bf 08 00 00 00       	mov    $0x8,%edi
ffffffff80106a98:	e8 0a e5 ff ff       	callq  ffffffff80104fa7 <set_idt_entry>
ffffffff80106a9d:	48 c7 c0 e5 7b 10 80 	mov    $0xffffffff80107be5,%rax
ffffffff80106aa4:	41 b8 ba 00 00 00    	mov    $0xba,%r8d
ffffffff80106aaa:	48 89 c1             	mov    %rax,%rcx
ffffffff80106aad:	ba 8e 00 00 00       	mov    $0x8e,%edx
ffffffff80106ab2:	be 00 00 00 00       	mov    $0x0,%esi
ffffffff80106ab7:	bf 08 00 00 00       	mov    $0x8,%edi
ffffffff80106abc:	e8 e6 e4 ff ff       	callq  ffffffff80104fa7 <set_idt_entry>
ffffffff80106ac1:	48 c7 c0 f1 7b 10 80 	mov    $0xffffffff80107bf1,%rax
ffffffff80106ac8:	41 b8 bb 00 00 00    	mov    $0xbb,%r8d
ffffffff80106ace:	48 89 c1             	mov    %rax,%rcx
ffffffff80106ad1:	ba 8e 00 00 00       	mov    $0x8e,%edx
ffffffff80106ad6:	be 00 00 00 00       	mov    $0x0,%esi
ffffffff80106adb:	bf 08 00 00 00       	mov    $0x8,%edi
ffffffff80106ae0:	e8 c2 e4 ff ff       	callq  ffffffff80104fa7 <set_idt_entry>
ffffffff80106ae5:	48 c7 c0 fd 7b 10 80 	mov    $0xffffffff80107bfd,%rax
ffffffff80106aec:	41 b8 bc 00 00 00    	mov    $0xbc,%r8d
ffffffff80106af2:	48 89 c1             	mov    %rax,%rcx
ffffffff80106af5:	ba 8e 00 00 00       	mov    $0x8e,%edx
ffffffff80106afa:	be 00 00 00 00       	mov    $0x0,%esi
ffffffff80106aff:	bf 08 00 00 00       	mov    $0x8,%edi
ffffffff80106b04:	e8 9e e4 ff ff       	callq  ffffffff80104fa7 <set_idt_entry>
ffffffff80106b09:	48 c7 c0 09 7c 10 80 	mov    $0xffffffff80107c09,%rax
ffffffff80106b10:	41 b8 bd 00 00 00    	mov    $0xbd,%r8d
ffffffff80106b16:	48 89 c1             	mov    %rax,%rcx
ffffffff80106b19:	ba 8e 00 00 00       	mov    $0x8e,%edx
ffffffff80106b1e:	be 00 00 00 00       	mov    $0x0,%esi
ffffffff80106b23:	bf 08 00 00 00       	mov    $0x8,%edi
ffffffff80106b28:	e8 7a e4 ff ff       	callq  ffffffff80104fa7 <set_idt_entry>
ffffffff80106b2d:	48 c7 c0 15 7c 10 80 	mov    $0xffffffff80107c15,%rax
ffffffff80106b34:	41 b8 be 00 00 00    	mov    $0xbe,%r8d
ffffffff80106b3a:	48 89 c1             	mov    %rax,%rcx
ffffffff80106b3d:	ba 8e 00 00 00       	mov    $0x8e,%edx
ffffffff80106b42:	be 00 00 00 00       	mov    $0x0,%esi
ffffffff80106b47:	bf 08 00 00 00       	mov    $0x8,%edi
ffffffff80106b4c:	e8 56 e4 ff ff       	callq  ffffffff80104fa7 <set_idt_entry>
ffffffff80106b51:	48 c7 c0 21 7c 10 80 	mov    $0xffffffff80107c21,%rax
ffffffff80106b58:	41 b8 bf 00 00 00    	mov    $0xbf,%r8d
ffffffff80106b5e:	48 89 c1             	mov    %rax,%rcx
ffffffff80106b61:	ba 8e 00 00 00       	mov    $0x8e,%edx
ffffffff80106b66:	be 00 00 00 00       	mov    $0x0,%esi
ffffffff80106b6b:	bf 08 00 00 00       	mov    $0x8,%edi
ffffffff80106b70:	e8 32 e4 ff ff       	callq  ffffffff80104fa7 <set_idt_entry>
ffffffff80106b75:	48 c7 c0 2d 7c 10 80 	mov    $0xffffffff80107c2d,%rax
ffffffff80106b7c:	41 b8 c0 00 00 00    	mov    $0xc0,%r8d
ffffffff80106b82:	48 89 c1             	mov    %rax,%rcx
ffffffff80106b85:	ba 8e 00 00 00       	mov    $0x8e,%edx
ffffffff80106b8a:	be 00 00 00 00       	mov    $0x0,%esi
ffffffff80106b8f:	bf 08 00 00 00       	mov    $0x8,%edi
ffffffff80106b94:	e8 0e e4 ff ff       	callq  ffffffff80104fa7 <set_idt_entry>
ffffffff80106b99:	48 c7 c0 39 7c 10 80 	mov    $0xffffffff80107c39,%rax
ffffffff80106ba0:	41 b8 c1 00 00 00    	mov    $0xc1,%r8d
ffffffff80106ba6:	48 89 c1             	mov    %rax,%rcx
ffffffff80106ba9:	ba 8e 00 00 00       	mov    $0x8e,%edx
ffffffff80106bae:	be 00 00 00 00       	mov    $0x0,%esi
ffffffff80106bb3:	bf 08 00 00 00       	mov    $0x8,%edi
ffffffff80106bb8:	e8 ea e3 ff ff       	callq  ffffffff80104fa7 <set_idt_entry>
ffffffff80106bbd:	48 c7 c0 45 7c 10 80 	mov    $0xffffffff80107c45,%rax
ffffffff80106bc4:	41 b8 c2 00 00 00    	mov    $0xc2,%r8d
ffffffff80106bca:	48 89 c1             	mov    %rax,%rcx
ffffffff80106bcd:	ba 8e 00 00 00       	mov    $0x8e,%edx
ffffffff80106bd2:	be 00 00 00 00       	mov    $0x0,%esi
ffffffff80106bd7:	bf 08 00 00 00       	mov    $0x8,%edi
ffffffff80106bdc:	e8 c6 e3 ff ff       	callq  ffffffff80104fa7 <set_idt_entry>
ffffffff80106be1:	48 c7 c0 51 7c 10 80 	mov    $0xffffffff80107c51,%rax
ffffffff80106be8:	41 b8 c3 00 00 00    	mov    $0xc3,%r8d
ffffffff80106bee:	48 89 c1             	mov    %rax,%rcx
ffffffff80106bf1:	ba 8e 00 00 00       	mov    $0x8e,%edx
ffffffff80106bf6:	be 00 00 00 00       	mov    $0x0,%esi
ffffffff80106bfb:	bf 08 00 00 00       	mov    $0x8,%edi
ffffffff80106c00:	e8 a2 e3 ff ff       	callq  ffffffff80104fa7 <set_idt_entry>
ffffffff80106c05:	48 c7 c0 5d 7c 10 80 	mov    $0xffffffff80107c5d,%rax
ffffffff80106c0c:	41 b8 c4 00 00 00    	mov    $0xc4,%r8d
ffffffff80106c12:	48 89 c1             	mov    %rax,%rcx
ffffffff80106c15:	ba 8e 00 00 00       	mov    $0x8e,%edx
ffffffff80106c1a:	be 00 00 00 00       	mov    $0x0,%esi
ffffffff80106c1f:	bf 08 00 00 00       	mov    $0x8,%edi
ffffffff80106c24:	e8 7e e3 ff ff       	callq  ffffffff80104fa7 <set_idt_entry>
ffffffff80106c29:	48 c7 c0 69 7c 10 80 	mov    $0xffffffff80107c69,%rax
ffffffff80106c30:	41 b8 c5 00 00 00    	mov    $0xc5,%r8d
ffffffff80106c36:	48 89 c1             	mov    %rax,%rcx
ffffffff80106c39:	ba 8e 00 00 00       	mov    $0x8e,%edx
ffffffff80106c3e:	be 00 00 00 00       	mov    $0x0,%esi
ffffffff80106c43:	bf 08 00 00 00       	mov    $0x8,%edi
ffffffff80106c48:	e8 5a e3 ff ff       	callq  ffffffff80104fa7 <set_idt_entry>
ffffffff80106c4d:	48 c7 c0 75 7c 10 80 	mov    $0xffffffff80107c75,%rax
ffffffff80106c54:	41 b8 c6 00 00 00    	mov    $0xc6,%r8d
ffffffff80106c5a:	48 89 c1             	mov    %rax,%rcx
ffffffff80106c5d:	ba 8e 00 00 00       	mov    $0x8e,%edx
ffffffff80106c62:	be 00 00 00 00       	mov    $0x0,%esi
ffffffff80106c67:	bf 08 00 00 00       	mov    $0x8,%edi
ffffffff80106c6c:	e8 36 e3 ff ff       	callq  ffffffff80104fa7 <set_idt_entry>
ffffffff80106c71:	48 c7 c0 81 7c 10 80 	mov    $0xffffffff80107c81,%rax
ffffffff80106c78:	41 b8 c7 00 00 00    	mov    $0xc7,%r8d
ffffffff80106c7e:	48 89 c1             	mov    %rax,%rcx
ffffffff80106c81:	ba 8e 00 00 00       	mov    $0x8e,%edx
ffffffff80106c86:	be 00 00 00 00       	mov    $0x0,%esi
ffffffff80106c8b:	bf 08 00 00 00       	mov    $0x8,%edi
ffffffff80106c90:	e8 12 e3 ff ff       	callq  ffffffff80104fa7 <set_idt_entry>
ffffffff80106c95:	48 c7 c0 8d 7c 10 80 	mov    $0xffffffff80107c8d,%rax
ffffffff80106c9c:	41 b8 c8 00 00 00    	mov    $0xc8,%r8d
ffffffff80106ca2:	48 89 c1             	mov    %rax,%rcx
ffffffff80106ca5:	ba 8e 00 00 00       	mov    $0x8e,%edx
ffffffff80106caa:	be 00 00 00 00       	mov    $0x0,%esi
ffffffff80106caf:	bf 08 00 00 00       	mov    $0x8,%edi
ffffffff80106cb4:	e8 ee e2 ff ff       	callq  ffffffff80104fa7 <set_idt_entry>
ffffffff80106cb9:	48 c7 c0 99 7c 10 80 	mov    $0xffffffff80107c99,%rax
ffffffff80106cc0:	41 b8 c9 00 00 00    	mov    $0xc9,%r8d
ffffffff80106cc6:	48 89 c1             	mov    %rax,%rcx
ffffffff80106cc9:	ba 8e 00 00 00       	mov    $0x8e,%edx
ffffffff80106cce:	be 00 00 00 00       	mov    $0x0,%esi
ffffffff80106cd3:	bf 08 00 00 00       	mov    $0x8,%edi
ffffffff80106cd8:	e8 ca e2 ff ff       	callq  ffffffff80104fa7 <set_idt_entry>
ffffffff80106cdd:	48 c7 c0 a5 7c 10 80 	mov    $0xffffffff80107ca5,%rax
ffffffff80106ce4:	41 b8 ca 00 00 00    	mov    $0xca,%r8d
ffffffff80106cea:	48 89 c1             	mov    %rax,%rcx
ffffffff80106ced:	ba 8e 00 00 00       	mov    $0x8e,%edx
ffffffff80106cf2:	be 00 00 00 00       	mov    $0x0,%esi
ffffffff80106cf7:	bf 08 00 00 00       	mov    $0x8,%edi
ffffffff80106cfc:	e8 a6 e2 ff ff       	callq  ffffffff80104fa7 <set_idt_entry>
ffffffff80106d01:	48 c7 c0 b1 7c 10 80 	mov    $0xffffffff80107cb1,%rax
ffffffff80106d08:	41 b8 cb 00 00 00    	mov    $0xcb,%r8d
ffffffff80106d0e:	48 89 c1             	mov    %rax,%rcx
ffffffff80106d11:	ba 8e 00 00 00       	mov    $0x8e,%edx
ffffffff80106d16:	be 00 00 00 00       	mov    $0x0,%esi
ffffffff80106d1b:	bf 08 00 00 00       	mov    $0x8,%edi
ffffffff80106d20:	e8 82 e2 ff ff       	callq  ffffffff80104fa7 <set_idt_entry>
ffffffff80106d25:	48 c7 c0 bd 7c 10 80 	mov    $0xffffffff80107cbd,%rax
ffffffff80106d2c:	41 b8 cc 00 00 00    	mov    $0xcc,%r8d
ffffffff80106d32:	48 89 c1             	mov    %rax,%rcx
ffffffff80106d35:	ba 8e 00 00 00       	mov    $0x8e,%edx
ffffffff80106d3a:	be 00 00 00 00       	mov    $0x0,%esi
ffffffff80106d3f:	bf 08 00 00 00       	mov    $0x8,%edi
ffffffff80106d44:	e8 5e e2 ff ff       	callq  ffffffff80104fa7 <set_idt_entry>
ffffffff80106d49:	48 c7 c0 c9 7c 10 80 	mov    $0xffffffff80107cc9,%rax
ffffffff80106d50:	41 b8 cd 00 00 00    	mov    $0xcd,%r8d
ffffffff80106d56:	48 89 c1             	mov    %rax,%rcx
ffffffff80106d59:	ba 8e 00 00 00       	mov    $0x8e,%edx
ffffffff80106d5e:	be 00 00 00 00       	mov    $0x0,%esi
ffffffff80106d63:	bf 08 00 00 00       	mov    $0x8,%edi
ffffffff80106d68:	e8 3a e2 ff ff       	callq  ffffffff80104fa7 <set_idt_entry>
ffffffff80106d6d:	48 c7 c0 d5 7c 10 80 	mov    $0xffffffff80107cd5,%rax
ffffffff80106d74:	41 b8 ce 00 00 00    	mov    $0xce,%r8d
ffffffff80106d7a:	48 89 c1             	mov    %rax,%rcx
ffffffff80106d7d:	ba 8e 00 00 00       	mov    $0x8e,%edx
ffffffff80106d82:	be 00 00 00 00       	mov    $0x0,%esi
ffffffff80106d87:	bf 08 00 00 00       	mov    $0x8,%edi
ffffffff80106d8c:	e8 16 e2 ff ff       	callq  ffffffff80104fa7 <set_idt_entry>
ffffffff80106d91:	48 c7 c0 e1 7c 10 80 	mov    $0xffffffff80107ce1,%rax
ffffffff80106d98:	41 b8 cf 00 00 00    	mov    $0xcf,%r8d
ffffffff80106d9e:	48 89 c1             	mov    %rax,%rcx
ffffffff80106da1:	ba 8e 00 00 00       	mov    $0x8e,%edx
ffffffff80106da6:	be 00 00 00 00       	mov    $0x0,%esi
ffffffff80106dab:	bf 08 00 00 00       	mov    $0x8,%edi
ffffffff80106db0:	e8 f2 e1 ff ff       	callq  ffffffff80104fa7 <set_idt_entry>
ffffffff80106db5:	48 c7 c0 ed 7c 10 80 	mov    $0xffffffff80107ced,%rax
ffffffff80106dbc:	41 b8 d0 00 00 00    	mov    $0xd0,%r8d
ffffffff80106dc2:	48 89 c1             	mov    %rax,%rcx
ffffffff80106dc5:	ba 8e 00 00 00       	mov    $0x8e,%edx
ffffffff80106dca:	be 00 00 00 00       	mov    $0x0,%esi
ffffffff80106dcf:	bf 08 00 00 00       	mov    $0x8,%edi
ffffffff80106dd4:	e8 ce e1 ff ff       	callq  ffffffff80104fa7 <set_idt_entry>
ffffffff80106dd9:	48 c7 c0 f9 7c 10 80 	mov    $0xffffffff80107cf9,%rax
ffffffff80106de0:	41 b8 d1 00 00 00    	mov    $0xd1,%r8d
ffffffff80106de6:	48 89 c1             	mov    %rax,%rcx
ffffffff80106de9:	ba 8e 00 00 00       	mov    $0x8e,%edx
ffffffff80106dee:	be 00 00 00 00       	mov    $0x0,%esi
ffffffff80106df3:	bf 08 00 00 00       	mov    $0x8,%edi
ffffffff80106df8:	e8 aa e1 ff ff       	callq  ffffffff80104fa7 <set_idt_entry>
ffffffff80106dfd:	48 c7 c0 05 7d 10 80 	mov    $0xffffffff80107d05,%rax
ffffffff80106e04:	41 b8 d2 00 00 00    	mov    $0xd2,%r8d
ffffffff80106e0a:	48 89 c1             	mov    %rax,%rcx
ffffffff80106e0d:	ba 8e 00 00 00       	mov    $0x8e,%edx
ffffffff80106e12:	be 00 00 00 00       	mov    $0x0,%esi
ffffffff80106e17:	bf 08 00 00 00       	mov    $0x8,%edi
ffffffff80106e1c:	e8 86 e1 ff ff       	callq  ffffffff80104fa7 <set_idt_entry>
ffffffff80106e21:	48 c7 c0 11 7d 10 80 	mov    $0xffffffff80107d11,%rax
ffffffff80106e28:	41 b8 d3 00 00 00    	mov    $0xd3,%r8d
ffffffff80106e2e:	48 89 c1             	mov    %rax,%rcx
ffffffff80106e31:	ba 8e 00 00 00       	mov    $0x8e,%edx
ffffffff80106e36:	be 00 00 00 00       	mov    $0x0,%esi
ffffffff80106e3b:	bf 08 00 00 00       	mov    $0x8,%edi
ffffffff80106e40:	e8 62 e1 ff ff       	callq  ffffffff80104fa7 <set_idt_entry>
ffffffff80106e45:	48 c7 c0 1d 7d 10 80 	mov    $0xffffffff80107d1d,%rax
ffffffff80106e4c:	41 b8 d4 00 00 00    	mov    $0xd4,%r8d
ffffffff80106e52:	48 89 c1             	mov    %rax,%rcx
ffffffff80106e55:	ba 8e 00 00 00       	mov    $0x8e,%edx
ffffffff80106e5a:	be 00 00 00 00       	mov    $0x0,%esi
ffffffff80106e5f:	bf 08 00 00 00       	mov    $0x8,%edi
ffffffff80106e64:	e8 3e e1 ff ff       	callq  ffffffff80104fa7 <set_idt_entry>
ffffffff80106e69:	48 c7 c0 29 7d 10 80 	mov    $0xffffffff80107d29,%rax
ffffffff80106e70:	41 b8 d5 00 00 00    	mov    $0xd5,%r8d
ffffffff80106e76:	48 89 c1             	mov    %rax,%rcx
ffffffff80106e79:	ba 8e 00 00 00       	mov    $0x8e,%edx
ffffffff80106e7e:	be 00 00 00 00       	mov    $0x0,%esi
ffffffff80106e83:	bf 08 00 00 00       	mov    $0x8,%edi
ffffffff80106e88:	e8 1a e1 ff ff       	callq  ffffffff80104fa7 <set_idt_entry>
ffffffff80106e8d:	48 c7 c0 35 7d 10 80 	mov    $0xffffffff80107d35,%rax
ffffffff80106e94:	41 b8 d6 00 00 00    	mov    $0xd6,%r8d
ffffffff80106e9a:	48 89 c1             	mov    %rax,%rcx
ffffffff80106e9d:	ba 8e 00 00 00       	mov    $0x8e,%edx
ffffffff80106ea2:	be 00 00 00 00       	mov    $0x0,%esi
ffffffff80106ea7:	bf 08 00 00 00       	mov    $0x8,%edi
ffffffff80106eac:	e8 f6 e0 ff ff       	callq  ffffffff80104fa7 <set_idt_entry>
ffffffff80106eb1:	48 c7 c0 41 7d 10 80 	mov    $0xffffffff80107d41,%rax
ffffffff80106eb8:	41 b8 d7 00 00 00    	mov    $0xd7,%r8d
ffffffff80106ebe:	48 89 c1             	mov    %rax,%rcx
ffffffff80106ec1:	ba 8e 00 00 00       	mov    $0x8e,%edx
ffffffff80106ec6:	be 00 00 00 00       	mov    $0x0,%esi
ffffffff80106ecb:	bf 08 00 00 00       	mov    $0x8,%edi
ffffffff80106ed0:	e8 d2 e0 ff ff       	callq  ffffffff80104fa7 <set_idt_entry>
ffffffff80106ed5:	48 c7 c0 4d 7d 10 80 	mov    $0xffffffff80107d4d,%rax
ffffffff80106edc:	41 b8 d8 00 00 00    	mov    $0xd8,%r8d
ffffffff80106ee2:	48 89 c1             	mov    %rax,%rcx
ffffffff80106ee5:	ba 8e 00 00 00       	mov    $0x8e,%edx
ffffffff80106eea:	be 00 00 00 00       	mov    $0x0,%esi
ffffffff80106eef:	bf 08 00 00 00       	mov    $0x8,%edi
ffffffff80106ef4:	e8 ae e0 ff ff       	callq  ffffffff80104fa7 <set_idt_entry>
ffffffff80106ef9:	48 c7 c0 59 7d 10 80 	mov    $0xffffffff80107d59,%rax
ffffffff80106f00:	41 b8 d9 00 00 00    	mov    $0xd9,%r8d
ffffffff80106f06:	48 89 c1             	mov    %rax,%rcx
ffffffff80106f09:	ba 8e 00 00 00       	mov    $0x8e,%edx
ffffffff80106f0e:	be 00 00 00 00       	mov    $0x0,%esi
ffffffff80106f13:	bf 08 00 00 00       	mov    $0x8,%edi
ffffffff80106f18:	e8 8a e0 ff ff       	callq  ffffffff80104fa7 <set_idt_entry>
ffffffff80106f1d:	48 c7 c0 65 7d 10 80 	mov    $0xffffffff80107d65,%rax
ffffffff80106f24:	41 b8 da 00 00 00    	mov    $0xda,%r8d
ffffffff80106f2a:	48 89 c1             	mov    %rax,%rcx
ffffffff80106f2d:	ba 8e 00 00 00       	mov    $0x8e,%edx
ffffffff80106f32:	be 00 00 00 00       	mov    $0x0,%esi
ffffffff80106f37:	bf 08 00 00 00       	mov    $0x8,%edi
ffffffff80106f3c:	e8 66 e0 ff ff       	callq  ffffffff80104fa7 <set_idt_entry>
ffffffff80106f41:	48 c7 c0 71 7d 10 80 	mov    $0xffffffff80107d71,%rax
ffffffff80106f48:	41 b8 db 00 00 00    	mov    $0xdb,%r8d
ffffffff80106f4e:	48 89 c1             	mov    %rax,%rcx
ffffffff80106f51:	ba 8e 00 00 00       	mov    $0x8e,%edx
ffffffff80106f56:	be 00 00 00 00       	mov    $0x0,%esi
ffffffff80106f5b:	bf 08 00 00 00       	mov    $0x8,%edi
ffffffff80106f60:	e8 42 e0 ff ff       	callq  ffffffff80104fa7 <set_idt_entry>
ffffffff80106f65:	48 c7 c0 7d 7d 10 80 	mov    $0xffffffff80107d7d,%rax
ffffffff80106f6c:	41 b8 dc 00 00 00    	mov    $0xdc,%r8d
ffffffff80106f72:	48 89 c1             	mov    %rax,%rcx
ffffffff80106f75:	ba 8e 00 00 00       	mov    $0x8e,%edx
ffffffff80106f7a:	be 00 00 00 00       	mov    $0x0,%esi
ffffffff80106f7f:	bf 08 00 00 00       	mov    $0x8,%edi
ffffffff80106f84:	e8 1e e0 ff ff       	callq  ffffffff80104fa7 <set_idt_entry>
ffffffff80106f89:	48 c7 c0 89 7d 10 80 	mov    $0xffffffff80107d89,%rax
ffffffff80106f90:	41 b8 dd 00 00 00    	mov    $0xdd,%r8d
ffffffff80106f96:	48 89 c1             	mov    %rax,%rcx
ffffffff80106f99:	ba 8e 00 00 00       	mov    $0x8e,%edx
ffffffff80106f9e:	be 00 00 00 00       	mov    $0x0,%esi
ffffffff80106fa3:	bf 08 00 00 00       	mov    $0x8,%edi
ffffffff80106fa8:	e8 fa df ff ff       	callq  ffffffff80104fa7 <set_idt_entry>
ffffffff80106fad:	48 c7 c0 95 7d 10 80 	mov    $0xffffffff80107d95,%rax
ffffffff80106fb4:	41 b8 de 00 00 00    	mov    $0xde,%r8d
ffffffff80106fba:	48 89 c1             	mov    %rax,%rcx
ffffffff80106fbd:	ba 8e 00 00 00       	mov    $0x8e,%edx
ffffffff80106fc2:	be 00 00 00 00       	mov    $0x0,%esi
ffffffff80106fc7:	bf 08 00 00 00       	mov    $0x8,%edi
ffffffff80106fcc:	e8 d6 df ff ff       	callq  ffffffff80104fa7 <set_idt_entry>
ffffffff80106fd1:	48 c7 c0 a1 7d 10 80 	mov    $0xffffffff80107da1,%rax
ffffffff80106fd8:	41 b8 df 00 00 00    	mov    $0xdf,%r8d
ffffffff80106fde:	48 89 c1             	mov    %rax,%rcx
ffffffff80106fe1:	ba 8e 00 00 00       	mov    $0x8e,%edx
ffffffff80106fe6:	be 00 00 00 00       	mov    $0x0,%esi
ffffffff80106feb:	bf 08 00 00 00       	mov    $0x8,%edi
ffffffff80106ff0:	e8 b2 df ff ff       	callq  ffffffff80104fa7 <set_idt_entry>
ffffffff80106ff5:	48 c7 c0 ad 7d 10 80 	mov    $0xffffffff80107dad,%rax
ffffffff80106ffc:	41 b8 e0 00 00 00    	mov    $0xe0,%r8d
ffffffff80107002:	48 89 c1             	mov    %rax,%rcx
ffffffff80107005:	ba 8e 00 00 00       	mov    $0x8e,%edx
ffffffff8010700a:	be 00 00 00 00       	mov    $0x0,%esi
ffffffff8010700f:	bf 08 00 00 00       	mov    $0x8,%edi
ffffffff80107014:	e8 8e df ff ff       	callq  ffffffff80104fa7 <set_idt_entry>
ffffffff80107019:	48 c7 c0 b9 7d 10 80 	mov    $0xffffffff80107db9,%rax
ffffffff80107020:	41 b8 e1 00 00 00    	mov    $0xe1,%r8d
ffffffff80107026:	48 89 c1             	mov    %rax,%rcx
ffffffff80107029:	ba 8e 00 00 00       	mov    $0x8e,%edx
ffffffff8010702e:	be 00 00 00 00       	mov    $0x0,%esi
ffffffff80107033:	bf 08 00 00 00       	mov    $0x8,%edi
ffffffff80107038:	e8 6a df ff ff       	callq  ffffffff80104fa7 <set_idt_entry>
ffffffff8010703d:	48 c7 c0 c5 7d 10 80 	mov    $0xffffffff80107dc5,%rax
ffffffff80107044:	41 b8 e2 00 00 00    	mov    $0xe2,%r8d
ffffffff8010704a:	48 89 c1             	mov    %rax,%rcx
ffffffff8010704d:	ba 8e 00 00 00       	mov    $0x8e,%edx
ffffffff80107052:	be 00 00 00 00       	mov    $0x0,%esi
ffffffff80107057:	bf 08 00 00 00       	mov    $0x8,%edi
ffffffff8010705c:	e8 46 df ff ff       	callq  ffffffff80104fa7 <set_idt_entry>
ffffffff80107061:	48 c7 c0 d1 7d 10 80 	mov    $0xffffffff80107dd1,%rax
ffffffff80107068:	41 b8 e3 00 00 00    	mov    $0xe3,%r8d
ffffffff8010706e:	48 89 c1             	mov    %rax,%rcx
ffffffff80107071:	ba 8e 00 00 00       	mov    $0x8e,%edx
ffffffff80107076:	be 00 00 00 00       	mov    $0x0,%esi
ffffffff8010707b:	bf 08 00 00 00       	mov    $0x8,%edi
ffffffff80107080:	e8 22 df ff ff       	callq  ffffffff80104fa7 <set_idt_entry>
ffffffff80107085:	48 c7 c0 dd 7d 10 80 	mov    $0xffffffff80107ddd,%rax
ffffffff8010708c:	41 b8 e4 00 00 00    	mov    $0xe4,%r8d
ffffffff80107092:	48 89 c1             	mov    %rax,%rcx
ffffffff80107095:	ba 8e 00 00 00       	mov    $0x8e,%edx
ffffffff8010709a:	be 00 00 00 00       	mov    $0x0,%esi
ffffffff8010709f:	bf 08 00 00 00       	mov    $0x8,%edi
ffffffff801070a4:	e8 fe de ff ff       	callq  ffffffff80104fa7 <set_idt_entry>
ffffffff801070a9:	48 c7 c0 e9 7d 10 80 	mov    $0xffffffff80107de9,%rax
ffffffff801070b0:	41 b8 e5 00 00 00    	mov    $0xe5,%r8d
ffffffff801070b6:	48 89 c1             	mov    %rax,%rcx
ffffffff801070b9:	ba 8e 00 00 00       	mov    $0x8e,%edx
ffffffff801070be:	be 00 00 00 00       	mov    $0x0,%esi
ffffffff801070c3:	bf 08 00 00 00       	mov    $0x8,%edi
ffffffff801070c8:	e8 da de ff ff       	callq  ffffffff80104fa7 <set_idt_entry>
ffffffff801070cd:	48 c7 c0 f5 7d 10 80 	mov    $0xffffffff80107df5,%rax
ffffffff801070d4:	41 b8 e6 00 00 00    	mov    $0xe6,%r8d
ffffffff801070da:	48 89 c1             	mov    %rax,%rcx
ffffffff801070dd:	ba 8e 00 00 00       	mov    $0x8e,%edx
ffffffff801070e2:	be 00 00 00 00       	mov    $0x0,%esi
ffffffff801070e7:	bf 08 00 00 00       	mov    $0x8,%edi
ffffffff801070ec:	e8 b6 de ff ff       	callq  ffffffff80104fa7 <set_idt_entry>
ffffffff801070f1:	48 c7 c0 01 7e 10 80 	mov    $0xffffffff80107e01,%rax
ffffffff801070f8:	41 b8 e7 00 00 00    	mov    $0xe7,%r8d
ffffffff801070fe:	48 89 c1             	mov    %rax,%rcx
ffffffff80107101:	ba 8e 00 00 00       	mov    $0x8e,%edx
ffffffff80107106:	be 00 00 00 00       	mov    $0x0,%esi
ffffffff8010710b:	bf 08 00 00 00       	mov    $0x8,%edi
ffffffff80107110:	e8 92 de ff ff       	callq  ffffffff80104fa7 <set_idt_entry>
ffffffff80107115:	48 c7 c0 0d 7e 10 80 	mov    $0xffffffff80107e0d,%rax
ffffffff8010711c:	41 b8 e8 00 00 00    	mov    $0xe8,%r8d
ffffffff80107122:	48 89 c1             	mov    %rax,%rcx
ffffffff80107125:	ba 8e 00 00 00       	mov    $0x8e,%edx
ffffffff8010712a:	be 00 00 00 00       	mov    $0x0,%esi
ffffffff8010712f:	bf 08 00 00 00       	mov    $0x8,%edi
ffffffff80107134:	e8 6e de ff ff       	callq  ffffffff80104fa7 <set_idt_entry>
ffffffff80107139:	48 c7 c0 19 7e 10 80 	mov    $0xffffffff80107e19,%rax
ffffffff80107140:	41 b8 e9 00 00 00    	mov    $0xe9,%r8d
ffffffff80107146:	48 89 c1             	mov    %rax,%rcx
ffffffff80107149:	ba 8e 00 00 00       	mov    $0x8e,%edx
ffffffff8010714e:	be 00 00 00 00       	mov    $0x0,%esi
ffffffff80107153:	bf 08 00 00 00       	mov    $0x8,%edi
ffffffff80107158:	e8 4a de ff ff       	callq  ffffffff80104fa7 <set_idt_entry>
ffffffff8010715d:	48 c7 c0 25 7e 10 80 	mov    $0xffffffff80107e25,%rax
ffffffff80107164:	41 b8 ea 00 00 00    	mov    $0xea,%r8d
ffffffff8010716a:	48 89 c1             	mov    %rax,%rcx
ffffffff8010716d:	ba 8e 00 00 00       	mov    $0x8e,%edx
ffffffff80107172:	be 00 00 00 00       	mov    $0x0,%esi
ffffffff80107177:	bf 08 00 00 00       	mov    $0x8,%edi
ffffffff8010717c:	e8 26 de ff ff       	callq  ffffffff80104fa7 <set_idt_entry>
ffffffff80107181:	48 c7 c0 31 7e 10 80 	mov    $0xffffffff80107e31,%rax
ffffffff80107188:	41 b8 eb 00 00 00    	mov    $0xeb,%r8d
ffffffff8010718e:	48 89 c1             	mov    %rax,%rcx
ffffffff80107191:	ba 8e 00 00 00       	mov    $0x8e,%edx
ffffffff80107196:	be 00 00 00 00       	mov    $0x0,%esi
ffffffff8010719b:	bf 08 00 00 00       	mov    $0x8,%edi
ffffffff801071a0:	e8 02 de ff ff       	callq  ffffffff80104fa7 <set_idt_entry>
ffffffff801071a5:	48 c7 c0 3d 7e 10 80 	mov    $0xffffffff80107e3d,%rax
ffffffff801071ac:	41 b8 ec 00 00 00    	mov    $0xec,%r8d
ffffffff801071b2:	48 89 c1             	mov    %rax,%rcx
ffffffff801071b5:	ba 8e 00 00 00       	mov    $0x8e,%edx
ffffffff801071ba:	be 00 00 00 00       	mov    $0x0,%esi
ffffffff801071bf:	bf 08 00 00 00       	mov    $0x8,%edi
ffffffff801071c4:	e8 de dd ff ff       	callq  ffffffff80104fa7 <set_idt_entry>
ffffffff801071c9:	48 c7 c0 49 7e 10 80 	mov    $0xffffffff80107e49,%rax
ffffffff801071d0:	41 b8 ed 00 00 00    	mov    $0xed,%r8d
ffffffff801071d6:	48 89 c1             	mov    %rax,%rcx
ffffffff801071d9:	ba 8e 00 00 00       	mov    $0x8e,%edx
ffffffff801071de:	be 00 00 00 00       	mov    $0x0,%esi
ffffffff801071e3:	bf 08 00 00 00       	mov    $0x8,%edi
ffffffff801071e8:	e8 ba dd ff ff       	callq  ffffffff80104fa7 <set_idt_entry>
ffffffff801071ed:	48 c7 c0 55 7e 10 80 	mov    $0xffffffff80107e55,%rax
ffffffff801071f4:	41 b8 ee 00 00 00    	mov    $0xee,%r8d
ffffffff801071fa:	48 89 c1             	mov    %rax,%rcx
ffffffff801071fd:	ba 8e 00 00 00       	mov    $0x8e,%edx
ffffffff80107202:	be 00 00 00 00       	mov    $0x0,%esi
ffffffff80107207:	bf 08 00 00 00       	mov    $0x8,%edi
ffffffff8010720c:	e8 96 dd ff ff       	callq  ffffffff80104fa7 <set_idt_entry>
ffffffff80107211:	48 c7 c0 61 7e 10 80 	mov    $0xffffffff80107e61,%rax
ffffffff80107218:	41 b8 ef 00 00 00    	mov    $0xef,%r8d
ffffffff8010721e:	48 89 c1             	mov    %rax,%rcx
ffffffff80107221:	ba 8e 00 00 00       	mov    $0x8e,%edx
ffffffff80107226:	be 00 00 00 00       	mov    $0x0,%esi
ffffffff8010722b:	bf 08 00 00 00       	mov    $0x8,%edi
ffffffff80107230:	e8 72 dd ff ff       	callq  ffffffff80104fa7 <set_idt_entry>
ffffffff80107235:	48 c7 c0 6d 7e 10 80 	mov    $0xffffffff80107e6d,%rax
ffffffff8010723c:	41 b8 f0 00 00 00    	mov    $0xf0,%r8d
ffffffff80107242:	48 89 c1             	mov    %rax,%rcx
ffffffff80107245:	ba 8e 00 00 00       	mov    $0x8e,%edx
ffffffff8010724a:	be 00 00 00 00       	mov    $0x0,%esi
ffffffff8010724f:	bf 08 00 00 00       	mov    $0x8,%edi
ffffffff80107254:	e8 4e dd ff ff       	callq  ffffffff80104fa7 <set_idt_entry>
ffffffff80107259:	48 c7 c0 79 7e 10 80 	mov    $0xffffffff80107e79,%rax
ffffffff80107260:	41 b8 f1 00 00 00    	mov    $0xf1,%r8d
ffffffff80107266:	48 89 c1             	mov    %rax,%rcx
ffffffff80107269:	ba 8e 00 00 00       	mov    $0x8e,%edx
ffffffff8010726e:	be 00 00 00 00       	mov    $0x0,%esi
ffffffff80107273:	bf 08 00 00 00       	mov    $0x8,%edi
ffffffff80107278:	e8 2a dd ff ff       	callq  ffffffff80104fa7 <set_idt_entry>
ffffffff8010727d:	48 c7 c0 85 7e 10 80 	mov    $0xffffffff80107e85,%rax
ffffffff80107284:	41 b8 f2 00 00 00    	mov    $0xf2,%r8d
ffffffff8010728a:	48 89 c1             	mov    %rax,%rcx
ffffffff8010728d:	ba 8e 00 00 00       	mov    $0x8e,%edx
ffffffff80107292:	be 00 00 00 00       	mov    $0x0,%esi
ffffffff80107297:	bf 08 00 00 00       	mov    $0x8,%edi
ffffffff8010729c:	e8 06 dd ff ff       	callq  ffffffff80104fa7 <set_idt_entry>
ffffffff801072a1:	48 c7 c0 91 7e 10 80 	mov    $0xffffffff80107e91,%rax
ffffffff801072a8:	41 b8 f3 00 00 00    	mov    $0xf3,%r8d
ffffffff801072ae:	48 89 c1             	mov    %rax,%rcx
ffffffff801072b1:	ba 8e 00 00 00       	mov    $0x8e,%edx
ffffffff801072b6:	be 00 00 00 00       	mov    $0x0,%esi
ffffffff801072bb:	bf 08 00 00 00       	mov    $0x8,%edi
ffffffff801072c0:	e8 e2 dc ff ff       	callq  ffffffff80104fa7 <set_idt_entry>
ffffffff801072c5:	48 c7 c0 9d 7e 10 80 	mov    $0xffffffff80107e9d,%rax
ffffffff801072cc:	41 b8 f4 00 00 00    	mov    $0xf4,%r8d
ffffffff801072d2:	48 89 c1             	mov    %rax,%rcx
ffffffff801072d5:	ba 8e 00 00 00       	mov    $0x8e,%edx
ffffffff801072da:	be 00 00 00 00       	mov    $0x0,%esi
ffffffff801072df:	bf 08 00 00 00       	mov    $0x8,%edi
ffffffff801072e4:	e8 be dc ff ff       	callq  ffffffff80104fa7 <set_idt_entry>
ffffffff801072e9:	48 c7 c0 a9 7e 10 80 	mov    $0xffffffff80107ea9,%rax
ffffffff801072f0:	41 b8 f5 00 00 00    	mov    $0xf5,%r8d
ffffffff801072f6:	48 89 c1             	mov    %rax,%rcx
ffffffff801072f9:	ba 8e 00 00 00       	mov    $0x8e,%edx
ffffffff801072fe:	be 00 00 00 00       	mov    $0x0,%esi
ffffffff80107303:	bf 08 00 00 00       	mov    $0x8,%edi
ffffffff80107308:	e8 9a dc ff ff       	callq  ffffffff80104fa7 <set_idt_entry>
ffffffff8010730d:	48 c7 c0 b5 7e 10 80 	mov    $0xffffffff80107eb5,%rax
ffffffff80107314:	41 b8 f6 00 00 00    	mov    $0xf6,%r8d
ffffffff8010731a:	48 89 c1             	mov    %rax,%rcx
ffffffff8010731d:	ba 8e 00 00 00       	mov    $0x8e,%edx
ffffffff80107322:	be 00 00 00 00       	mov    $0x0,%esi
ffffffff80107327:	bf 08 00 00 00       	mov    $0x8,%edi
ffffffff8010732c:	e8 76 dc ff ff       	callq  ffffffff80104fa7 <set_idt_entry>
ffffffff80107331:	48 c7 c0 c1 7e 10 80 	mov    $0xffffffff80107ec1,%rax
ffffffff80107338:	41 b8 f7 00 00 00    	mov    $0xf7,%r8d
ffffffff8010733e:	48 89 c1             	mov    %rax,%rcx
ffffffff80107341:	ba 8e 00 00 00       	mov    $0x8e,%edx
ffffffff80107346:	be 00 00 00 00       	mov    $0x0,%esi
ffffffff8010734b:	bf 08 00 00 00       	mov    $0x8,%edi
ffffffff80107350:	e8 52 dc ff ff       	callq  ffffffff80104fa7 <set_idt_entry>
ffffffff80107355:	48 c7 c0 cd 7e 10 80 	mov    $0xffffffff80107ecd,%rax
ffffffff8010735c:	41 b8 f8 00 00 00    	mov    $0xf8,%r8d
ffffffff80107362:	48 89 c1             	mov    %rax,%rcx
ffffffff80107365:	ba 8e 00 00 00       	mov    $0x8e,%edx
ffffffff8010736a:	be 00 00 00 00       	mov    $0x0,%esi
ffffffff8010736f:	bf 08 00 00 00       	mov    $0x8,%edi
ffffffff80107374:	e8 2e dc ff ff       	callq  ffffffff80104fa7 <set_idt_entry>
ffffffff80107379:	48 c7 c0 d9 7e 10 80 	mov    $0xffffffff80107ed9,%rax
ffffffff80107380:	41 b8 f9 00 00 00    	mov    $0xf9,%r8d
ffffffff80107386:	48 89 c1             	mov    %rax,%rcx
ffffffff80107389:	ba 8e 00 00 00       	mov    $0x8e,%edx
ffffffff8010738e:	be 00 00 00 00       	mov    $0x0,%esi
ffffffff80107393:	bf 08 00 00 00       	mov    $0x8,%edi
ffffffff80107398:	e8 0a dc ff ff       	callq  ffffffff80104fa7 <set_idt_entry>
ffffffff8010739d:	48 c7 c0 e5 7e 10 80 	mov    $0xffffffff80107ee5,%rax
ffffffff801073a4:	41 b8 fa 00 00 00    	mov    $0xfa,%r8d
ffffffff801073aa:	48 89 c1             	mov    %rax,%rcx
ffffffff801073ad:	ba 8e 00 00 00       	mov    $0x8e,%edx
ffffffff801073b2:	be 00 00 00 00       	mov    $0x0,%esi
ffffffff801073b7:	bf 08 00 00 00       	mov    $0x8,%edi
ffffffff801073bc:	e8 e6 db ff ff       	callq  ffffffff80104fa7 <set_idt_entry>
ffffffff801073c1:	48 c7 c0 f1 7e 10 80 	mov    $0xffffffff80107ef1,%rax
ffffffff801073c8:	41 b8 fb 00 00 00    	mov    $0xfb,%r8d
ffffffff801073ce:	48 89 c1             	mov    %rax,%rcx
ffffffff801073d1:	ba 8e 00 00 00       	mov    $0x8e,%edx
ffffffff801073d6:	be 00 00 00 00       	mov    $0x0,%esi
ffffffff801073db:	bf 08 00 00 00       	mov    $0x8,%edi
ffffffff801073e0:	e8 c2 db ff ff       	callq  ffffffff80104fa7 <set_idt_entry>
ffffffff801073e5:	48 c7 c0 fd 7e 10 80 	mov    $0xffffffff80107efd,%rax
ffffffff801073ec:	41 b8 fc 00 00 00    	mov    $0xfc,%r8d
ffffffff801073f2:	48 89 c1             	mov    %rax,%rcx
ffffffff801073f5:	ba 8e 00 00 00       	mov    $0x8e,%edx
ffffffff801073fa:	be 00 00 00 00       	mov    $0x0,%esi
ffffffff801073ff:	bf 08 00 00 00       	mov    $0x8,%edi
ffffffff80107404:	e8 9e db ff ff       	callq  ffffffff80104fa7 <set_idt_entry>
ffffffff80107409:	48 c7 c0 09 7f 10 80 	mov    $0xffffffff80107f09,%rax
ffffffff80107410:	41 b8 fd 00 00 00    	mov    $0xfd,%r8d
ffffffff80107416:	48 89 c1             	mov    %rax,%rcx
ffffffff80107419:	ba 8e 00 00 00       	mov    $0x8e,%edx
ffffffff8010741e:	be 00 00 00 00       	mov    $0x0,%esi
ffffffff80107423:	bf 08 00 00 00       	mov    $0x8,%edi
ffffffff80107428:	e8 7a db ff ff       	callq  ffffffff80104fa7 <set_idt_entry>
ffffffff8010742d:	48 c7 c0 15 7f 10 80 	mov    $0xffffffff80107f15,%rax
ffffffff80107434:	41 b8 fe 00 00 00    	mov    $0xfe,%r8d
ffffffff8010743a:	48 89 c1             	mov    %rax,%rcx
ffffffff8010743d:	ba 8e 00 00 00       	mov    $0x8e,%edx
ffffffff80107442:	be 00 00 00 00       	mov    $0x0,%esi
ffffffff80107447:	bf 08 00 00 00       	mov    $0x8,%edi
ffffffff8010744c:	e8 56 db ff ff       	callq  ffffffff80104fa7 <set_idt_entry>
ffffffff80107451:	48 c7 c0 21 7f 10 80 	mov    $0xffffffff80107f21,%rax
ffffffff80107458:	41 b8 ff 00 00 00    	mov    $0xff,%r8d
ffffffff8010745e:	48 89 c1             	mov    %rax,%rcx
ffffffff80107461:	ba 8e 00 00 00       	mov    $0x8e,%edx
ffffffff80107466:	be 00 00 00 00       	mov    $0x0,%esi
ffffffff8010746b:	bf 08 00 00 00       	mov    $0x8,%edi
ffffffff80107470:	e8 32 db ff ff       	callq  ffffffff80104fa7 <set_idt_entry>
ffffffff80107475:	66 c7 45 f6 ff 0f    	movw   $0xfff,-0xa(%rbp)
ffffffff8010747b:	48 c7 c2 40 85 11 80 	mov    $0xffffffff80118540,%rdx
ffffffff80107482:	b8 00 00 00 80       	mov    $0x80000000,%eax
ffffffff80107487:	48 01 d0             	add    %rdx,%rax
ffffffff8010748a:	48 89 45 f8          	mov    %rax,-0x8(%rbp)
ffffffff8010748e:	0f 01 5d f6          	lidt   -0xa(%rbp)
ffffffff80107492:	90                   	nop
ffffffff80107493:	c9                   	leaveq 
ffffffff80107494:	c3                   	retq   
ffffffff80107495:	66 2e 0f 1f 84 00 00 	nopw   %cs:0x0(%rax,%rax,1)
ffffffff8010749c:	00 00 00 
ffffffff8010749f:	90                   	nop

ffffffff801074a0 <isr_handler>:
ffffffff801074a0:	fc                   	cld    
ffffffff801074a1:	50                   	push   %rax
ffffffff801074a2:	53                   	push   %rbx
ffffffff801074a3:	51                   	push   %rcx
ffffffff801074a4:	52                   	push   %rdx
ffffffff801074a5:	55                   	push   %rbp
ffffffff801074a6:	57                   	push   %rdi
ffffffff801074a7:	56                   	push   %rsi
ffffffff801074a8:	41 50                	push   %r8
ffffffff801074aa:	41 51                	push   %r9
ffffffff801074ac:	41 52                	push   %r10
ffffffff801074ae:	41 53                	push   %r11
ffffffff801074b0:	41 54                	push   %r12
ffffffff801074b2:	41 55                	push   %r13
ffffffff801074b4:	41 56                	push   %r14
ffffffff801074b6:	41 57                	push   %r15
ffffffff801074b8:	48 89 e7             	mov    %rsp,%rdi
ffffffff801074bb:	e8 27 d9 ff ff       	callq  ffffffff80104de7 <isr_handler_main>
ffffffff801074c0:	41 5f                	pop    %r15
ffffffff801074c2:	41 5e                	pop    %r14
ffffffff801074c4:	41 5d                	pop    %r13
ffffffff801074c6:	41 5c                	pop    %r12
ffffffff801074c8:	41 5b                	pop    %r11
ffffffff801074ca:	41 5a                	pop    %r10
ffffffff801074cc:	41 59                	pop    %r9
ffffffff801074ce:	41 58                	pop    %r8
ffffffff801074d0:	5e                   	pop    %rsi
ffffffff801074d1:	5f                   	pop    %rdi
ffffffff801074d2:	5d                   	pop    %rbp
ffffffff801074d3:	5a                   	pop    %rdx
ffffffff801074d4:	59                   	pop    %rcx
ffffffff801074d5:	5b                   	pop    %rbx
ffffffff801074d6:	58                   	pop    %rax
ffffffff801074d7:	48 83 c4 10          	add    $0x10,%rsp
ffffffff801074db:	48 cf                	iretq  

ffffffff801074dd <isr0>:
ffffffff801074dd:	6a 00                	pushq  $0x0
ffffffff801074df:	6a 00                	pushq  $0x0
ffffffff801074e1:	eb bd                	jmp    ffffffff801074a0 <isr_handler>

ffffffff801074e3 <isr1>:
ffffffff801074e3:	6a 00                	pushq  $0x0
ffffffff801074e5:	6a 01                	pushq  $0x1
ffffffff801074e7:	eb b7                	jmp    ffffffff801074a0 <isr_handler>

ffffffff801074e9 <isr2>:
ffffffff801074e9:	6a 00                	pushq  $0x0
ffffffff801074eb:	6a 02                	pushq  $0x2
ffffffff801074ed:	eb b1                	jmp    ffffffff801074a0 <isr_handler>

ffffffff801074ef <isr3>:
ffffffff801074ef:	6a 00                	pushq  $0x0
ffffffff801074f1:	6a 03                	pushq  $0x3
ffffffff801074f3:	eb ab                	jmp    ffffffff801074a0 <isr_handler>

ffffffff801074f5 <isr4>:
ffffffff801074f5:	6a 00                	pushq  $0x0
ffffffff801074f7:	6a 04                	pushq  $0x4
ffffffff801074f9:	eb a5                	jmp    ffffffff801074a0 <isr_handler>

ffffffff801074fb <isr5>:
ffffffff801074fb:	6a 00                	pushq  $0x0
ffffffff801074fd:	6a 05                	pushq  $0x5
ffffffff801074ff:	eb 9f                	jmp    ffffffff801074a0 <isr_handler>

ffffffff80107501 <isr6>:
ffffffff80107501:	6a 00                	pushq  $0x0
ffffffff80107503:	6a 06                	pushq  $0x6
ffffffff80107505:	eb 99                	jmp    ffffffff801074a0 <isr_handler>

ffffffff80107507 <isr7>:
ffffffff80107507:	6a 00                	pushq  $0x0
ffffffff80107509:	6a 07                	pushq  $0x7
ffffffff8010750b:	eb 93                	jmp    ffffffff801074a0 <isr_handler>

ffffffff8010750d <error_isr8>:
ffffffff8010750d:	6a 08                	pushq  $0x8
ffffffff8010750f:	eb 8f                	jmp    ffffffff801074a0 <isr_handler>

ffffffff80107511 <isr9>:
ffffffff80107511:	6a 00                	pushq  $0x0
ffffffff80107513:	6a 09                	pushq  $0x9
ffffffff80107515:	eb 89                	jmp    ffffffff801074a0 <isr_handler>

ffffffff80107517 <error_isr10>:
ffffffff80107517:	6a 0a                	pushq  $0xa
ffffffff80107519:	eb 85                	jmp    ffffffff801074a0 <isr_handler>

ffffffff8010751b <error_isr11>:
ffffffff8010751b:	6a 0b                	pushq  $0xb
ffffffff8010751d:	eb 81                	jmp    ffffffff801074a0 <isr_handler>

ffffffff8010751f <error_isr12>:
ffffffff8010751f:	6a 0c                	pushq  $0xc
ffffffff80107521:	e9 7a ff ff ff       	jmpq   ffffffff801074a0 <isr_handler>

ffffffff80107526 <error_isr13>:
ffffffff80107526:	6a 0d                	pushq  $0xd
ffffffff80107528:	e9 73 ff ff ff       	jmpq   ffffffff801074a0 <isr_handler>

ffffffff8010752d <error_isr14>:
ffffffff8010752d:	6a 0e                	pushq  $0xe
ffffffff8010752f:	e9 6c ff ff ff       	jmpq   ffffffff801074a0 <isr_handler>

ffffffff80107534 <isr15>:
ffffffff80107534:	6a 00                	pushq  $0x0
ffffffff80107536:	6a 0f                	pushq  $0xf
ffffffff80107538:	e9 63 ff ff ff       	jmpq   ffffffff801074a0 <isr_handler>

ffffffff8010753d <isr16>:
ffffffff8010753d:	6a 00                	pushq  $0x0
ffffffff8010753f:	6a 10                	pushq  $0x10
ffffffff80107541:	e9 5a ff ff ff       	jmpq   ffffffff801074a0 <isr_handler>

ffffffff80107546 <isr17>:
ffffffff80107546:	6a 00                	pushq  $0x0
ffffffff80107548:	6a 11                	pushq  $0x11
ffffffff8010754a:	e9 51 ff ff ff       	jmpq   ffffffff801074a0 <isr_handler>

ffffffff8010754f <isr18>:
ffffffff8010754f:	6a 00                	pushq  $0x0
ffffffff80107551:	6a 12                	pushq  $0x12
ffffffff80107553:	e9 48 ff ff ff       	jmpq   ffffffff801074a0 <isr_handler>

ffffffff80107558 <isr19>:
ffffffff80107558:	6a 00                	pushq  $0x0
ffffffff8010755a:	6a 13                	pushq  $0x13
ffffffff8010755c:	e9 3f ff ff ff       	jmpq   ffffffff801074a0 <isr_handler>

ffffffff80107561 <isr20>:
ffffffff80107561:	6a 00                	pushq  $0x0
ffffffff80107563:	6a 14                	pushq  $0x14
ffffffff80107565:	e9 36 ff ff ff       	jmpq   ffffffff801074a0 <isr_handler>

ffffffff8010756a <isr21>:
ffffffff8010756a:	6a 00                	pushq  $0x0
ffffffff8010756c:	6a 15                	pushq  $0x15
ffffffff8010756e:	e9 2d ff ff ff       	jmpq   ffffffff801074a0 <isr_handler>

ffffffff80107573 <isr22>:
ffffffff80107573:	6a 00                	pushq  $0x0
ffffffff80107575:	6a 16                	pushq  $0x16
ffffffff80107577:	e9 24 ff ff ff       	jmpq   ffffffff801074a0 <isr_handler>

ffffffff8010757c <isr23>:
ffffffff8010757c:	6a 00                	pushq  $0x0
ffffffff8010757e:	6a 17                	pushq  $0x17
ffffffff80107580:	e9 1b ff ff ff       	jmpq   ffffffff801074a0 <isr_handler>

ffffffff80107585 <isr24>:
ffffffff80107585:	6a 00                	pushq  $0x0
ffffffff80107587:	6a 18                	pushq  $0x18
ffffffff80107589:	e9 12 ff ff ff       	jmpq   ffffffff801074a0 <isr_handler>

ffffffff8010758e <isr25>:
ffffffff8010758e:	6a 00                	pushq  $0x0
ffffffff80107590:	6a 19                	pushq  $0x19
ffffffff80107592:	e9 09 ff ff ff       	jmpq   ffffffff801074a0 <isr_handler>

ffffffff80107597 <isr26>:
ffffffff80107597:	6a 00                	pushq  $0x0
ffffffff80107599:	6a 1a                	pushq  $0x1a
ffffffff8010759b:	e9 00 ff ff ff       	jmpq   ffffffff801074a0 <isr_handler>

ffffffff801075a0 <isr27>:
ffffffff801075a0:	6a 00                	pushq  $0x0
ffffffff801075a2:	6a 1b                	pushq  $0x1b
ffffffff801075a4:	e9 f7 fe ff ff       	jmpq   ffffffff801074a0 <isr_handler>

ffffffff801075a9 <isr28>:
ffffffff801075a9:	6a 00                	pushq  $0x0
ffffffff801075ab:	6a 1c                	pushq  $0x1c
ffffffff801075ad:	e9 ee fe ff ff       	jmpq   ffffffff801074a0 <isr_handler>

ffffffff801075b2 <isr29>:
ffffffff801075b2:	6a 00                	pushq  $0x0
ffffffff801075b4:	6a 1d                	pushq  $0x1d
ffffffff801075b6:	e9 e5 fe ff ff       	jmpq   ffffffff801074a0 <isr_handler>

ffffffff801075bb <isr30>:
ffffffff801075bb:	6a 00                	pushq  $0x0
ffffffff801075bd:	6a 1e                	pushq  $0x1e
ffffffff801075bf:	e9 dc fe ff ff       	jmpq   ffffffff801074a0 <isr_handler>

ffffffff801075c4 <isr31>:
ffffffff801075c4:	6a 00                	pushq  $0x0
ffffffff801075c6:	6a 1f                	pushq  $0x1f
ffffffff801075c8:	e9 d3 fe ff ff       	jmpq   ffffffff801074a0 <isr_handler>

ffffffff801075cd <isr32>:
ffffffff801075cd:	6a 00                	pushq  $0x0
ffffffff801075cf:	6a 20                	pushq  $0x20
ffffffff801075d1:	e9 ca fe ff ff       	jmpq   ffffffff801074a0 <isr_handler>

ffffffff801075d6 <isr33>:
ffffffff801075d6:	6a 00                	pushq  $0x0
ffffffff801075d8:	6a 21                	pushq  $0x21
ffffffff801075da:	e9 c1 fe ff ff       	jmpq   ffffffff801074a0 <isr_handler>

ffffffff801075df <isr34>:
ffffffff801075df:	6a 00                	pushq  $0x0
ffffffff801075e1:	6a 22                	pushq  $0x22
ffffffff801075e3:	e9 b8 fe ff ff       	jmpq   ffffffff801074a0 <isr_handler>

ffffffff801075e8 <isr35>:
ffffffff801075e8:	6a 00                	pushq  $0x0
ffffffff801075ea:	6a 23                	pushq  $0x23
ffffffff801075ec:	e9 af fe ff ff       	jmpq   ffffffff801074a0 <isr_handler>

ffffffff801075f1 <isr36>:
ffffffff801075f1:	6a 00                	pushq  $0x0
ffffffff801075f3:	6a 24                	pushq  $0x24
ffffffff801075f5:	e9 a6 fe ff ff       	jmpq   ffffffff801074a0 <isr_handler>

ffffffff801075fa <isr37>:
ffffffff801075fa:	6a 00                	pushq  $0x0
ffffffff801075fc:	6a 25                	pushq  $0x25
ffffffff801075fe:	e9 9d fe ff ff       	jmpq   ffffffff801074a0 <isr_handler>

ffffffff80107603 <isr38>:
ffffffff80107603:	6a 00                	pushq  $0x0
ffffffff80107605:	6a 26                	pushq  $0x26
ffffffff80107607:	e9 94 fe ff ff       	jmpq   ffffffff801074a0 <isr_handler>

ffffffff8010760c <isr39>:
ffffffff8010760c:	6a 00                	pushq  $0x0
ffffffff8010760e:	6a 27                	pushq  $0x27
ffffffff80107610:	e9 8b fe ff ff       	jmpq   ffffffff801074a0 <isr_handler>

ffffffff80107615 <isr40>:
ffffffff80107615:	6a 00                	pushq  $0x0
ffffffff80107617:	6a 28                	pushq  $0x28
ffffffff80107619:	e9 82 fe ff ff       	jmpq   ffffffff801074a0 <isr_handler>

ffffffff8010761e <isr41>:
ffffffff8010761e:	6a 00                	pushq  $0x0
ffffffff80107620:	6a 29                	pushq  $0x29
ffffffff80107622:	e9 79 fe ff ff       	jmpq   ffffffff801074a0 <isr_handler>

ffffffff80107627 <isr42>:
ffffffff80107627:	6a 00                	pushq  $0x0
ffffffff80107629:	6a 2a                	pushq  $0x2a
ffffffff8010762b:	e9 70 fe ff ff       	jmpq   ffffffff801074a0 <isr_handler>

ffffffff80107630 <isr43>:
ffffffff80107630:	6a 00                	pushq  $0x0
ffffffff80107632:	6a 2b                	pushq  $0x2b
ffffffff80107634:	e9 67 fe ff ff       	jmpq   ffffffff801074a0 <isr_handler>

ffffffff80107639 <isr44>:
ffffffff80107639:	6a 00                	pushq  $0x0
ffffffff8010763b:	6a 2c                	pushq  $0x2c
ffffffff8010763d:	e9 5e fe ff ff       	jmpq   ffffffff801074a0 <isr_handler>

ffffffff80107642 <isr45>:
ffffffff80107642:	6a 00                	pushq  $0x0
ffffffff80107644:	6a 2d                	pushq  $0x2d
ffffffff80107646:	e9 55 fe ff ff       	jmpq   ffffffff801074a0 <isr_handler>

ffffffff8010764b <isr46>:
ffffffff8010764b:	6a 00                	pushq  $0x0
ffffffff8010764d:	6a 2e                	pushq  $0x2e
ffffffff8010764f:	e9 4c fe ff ff       	jmpq   ffffffff801074a0 <isr_handler>

ffffffff80107654 <isr47>:
ffffffff80107654:	6a 00                	pushq  $0x0
ffffffff80107656:	6a 2f                	pushq  $0x2f
ffffffff80107658:	e9 43 fe ff ff       	jmpq   ffffffff801074a0 <isr_handler>

ffffffff8010765d <isr48>:
ffffffff8010765d:	6a 00                	pushq  $0x0
ffffffff8010765f:	6a 30                	pushq  $0x30
ffffffff80107661:	e9 3a fe ff ff       	jmpq   ffffffff801074a0 <isr_handler>

ffffffff80107666 <isr49>:
ffffffff80107666:	6a 00                	pushq  $0x0
ffffffff80107668:	6a 31                	pushq  $0x31
ffffffff8010766a:	e9 31 fe ff ff       	jmpq   ffffffff801074a0 <isr_handler>

ffffffff8010766f <isr50>:
ffffffff8010766f:	6a 00                	pushq  $0x0
ffffffff80107671:	6a 32                	pushq  $0x32
ffffffff80107673:	e9 28 fe ff ff       	jmpq   ffffffff801074a0 <isr_handler>

ffffffff80107678 <isr51>:
ffffffff80107678:	6a 00                	pushq  $0x0
ffffffff8010767a:	6a 33                	pushq  $0x33
ffffffff8010767c:	e9 1f fe ff ff       	jmpq   ffffffff801074a0 <isr_handler>

ffffffff80107681 <isr52>:
ffffffff80107681:	6a 00                	pushq  $0x0
ffffffff80107683:	6a 34                	pushq  $0x34
ffffffff80107685:	e9 16 fe ff ff       	jmpq   ffffffff801074a0 <isr_handler>

ffffffff8010768a <isr53>:
ffffffff8010768a:	6a 00                	pushq  $0x0
ffffffff8010768c:	6a 35                	pushq  $0x35
ffffffff8010768e:	e9 0d fe ff ff       	jmpq   ffffffff801074a0 <isr_handler>

ffffffff80107693 <isr54>:
ffffffff80107693:	6a 00                	pushq  $0x0
ffffffff80107695:	6a 36                	pushq  $0x36
ffffffff80107697:	e9 04 fe ff ff       	jmpq   ffffffff801074a0 <isr_handler>

ffffffff8010769c <isr55>:
ffffffff8010769c:	6a 00                	pushq  $0x0
ffffffff8010769e:	6a 37                	pushq  $0x37
ffffffff801076a0:	e9 fb fd ff ff       	jmpq   ffffffff801074a0 <isr_handler>

ffffffff801076a5 <isr56>:
ffffffff801076a5:	6a 00                	pushq  $0x0
ffffffff801076a7:	6a 38                	pushq  $0x38
ffffffff801076a9:	e9 f2 fd ff ff       	jmpq   ffffffff801074a0 <isr_handler>

ffffffff801076ae <isr57>:
ffffffff801076ae:	6a 00                	pushq  $0x0
ffffffff801076b0:	6a 39                	pushq  $0x39
ffffffff801076b2:	e9 e9 fd ff ff       	jmpq   ffffffff801074a0 <isr_handler>

ffffffff801076b7 <isr58>:
ffffffff801076b7:	6a 00                	pushq  $0x0
ffffffff801076b9:	6a 3a                	pushq  $0x3a
ffffffff801076bb:	e9 e0 fd ff ff       	jmpq   ffffffff801074a0 <isr_handler>

ffffffff801076c0 <isr59>:
ffffffff801076c0:	6a 00                	pushq  $0x0
ffffffff801076c2:	6a 3b                	pushq  $0x3b
ffffffff801076c4:	e9 d7 fd ff ff       	jmpq   ffffffff801074a0 <isr_handler>

ffffffff801076c9 <isr60>:
ffffffff801076c9:	6a 00                	pushq  $0x0
ffffffff801076cb:	6a 3c                	pushq  $0x3c
ffffffff801076cd:	e9 ce fd ff ff       	jmpq   ffffffff801074a0 <isr_handler>

ffffffff801076d2 <isr61>:
ffffffff801076d2:	6a 00                	pushq  $0x0
ffffffff801076d4:	6a 3d                	pushq  $0x3d
ffffffff801076d6:	e9 c5 fd ff ff       	jmpq   ffffffff801074a0 <isr_handler>

ffffffff801076db <isr62>:
ffffffff801076db:	6a 00                	pushq  $0x0
ffffffff801076dd:	6a 3e                	pushq  $0x3e
ffffffff801076df:	e9 bc fd ff ff       	jmpq   ffffffff801074a0 <isr_handler>

ffffffff801076e4 <isr63>:
ffffffff801076e4:	6a 00                	pushq  $0x0
ffffffff801076e6:	6a 3f                	pushq  $0x3f
ffffffff801076e8:	e9 b3 fd ff ff       	jmpq   ffffffff801074a0 <isr_handler>

ffffffff801076ed <isr64>:
ffffffff801076ed:	6a 00                	pushq  $0x0
ffffffff801076ef:	6a 40                	pushq  $0x40
ffffffff801076f1:	e9 aa fd ff ff       	jmpq   ffffffff801074a0 <isr_handler>

ffffffff801076f6 <isr65>:
ffffffff801076f6:	6a 00                	pushq  $0x0
ffffffff801076f8:	6a 41                	pushq  $0x41
ffffffff801076fa:	e9 a1 fd ff ff       	jmpq   ffffffff801074a0 <isr_handler>

ffffffff801076ff <isr66>:
ffffffff801076ff:	6a 00                	pushq  $0x0
ffffffff80107701:	6a 42                	pushq  $0x42
ffffffff80107703:	e9 98 fd ff ff       	jmpq   ffffffff801074a0 <isr_handler>

ffffffff80107708 <isr67>:
ffffffff80107708:	6a 00                	pushq  $0x0
ffffffff8010770a:	6a 43                	pushq  $0x43
ffffffff8010770c:	e9 8f fd ff ff       	jmpq   ffffffff801074a0 <isr_handler>

ffffffff80107711 <isr68>:
ffffffff80107711:	6a 00                	pushq  $0x0
ffffffff80107713:	6a 44                	pushq  $0x44
ffffffff80107715:	e9 86 fd ff ff       	jmpq   ffffffff801074a0 <isr_handler>

ffffffff8010771a <isr69>:
ffffffff8010771a:	6a 00                	pushq  $0x0
ffffffff8010771c:	6a 45                	pushq  $0x45
ffffffff8010771e:	e9 7d fd ff ff       	jmpq   ffffffff801074a0 <isr_handler>

ffffffff80107723 <isr70>:
ffffffff80107723:	6a 00                	pushq  $0x0
ffffffff80107725:	6a 46                	pushq  $0x46
ffffffff80107727:	e9 74 fd ff ff       	jmpq   ffffffff801074a0 <isr_handler>

ffffffff8010772c <isr71>:
ffffffff8010772c:	6a 00                	pushq  $0x0
ffffffff8010772e:	6a 47                	pushq  $0x47
ffffffff80107730:	e9 6b fd ff ff       	jmpq   ffffffff801074a0 <isr_handler>

ffffffff80107735 <isr72>:
ffffffff80107735:	6a 00                	pushq  $0x0
ffffffff80107737:	6a 48                	pushq  $0x48
ffffffff80107739:	e9 62 fd ff ff       	jmpq   ffffffff801074a0 <isr_handler>

ffffffff8010773e <isr73>:
ffffffff8010773e:	6a 00                	pushq  $0x0
ffffffff80107740:	6a 49                	pushq  $0x49
ffffffff80107742:	e9 59 fd ff ff       	jmpq   ffffffff801074a0 <isr_handler>

ffffffff80107747 <isr74>:
ffffffff80107747:	6a 00                	pushq  $0x0
ffffffff80107749:	6a 4a                	pushq  $0x4a
ffffffff8010774b:	e9 50 fd ff ff       	jmpq   ffffffff801074a0 <isr_handler>

ffffffff80107750 <isr75>:
ffffffff80107750:	6a 00                	pushq  $0x0
ffffffff80107752:	6a 4b                	pushq  $0x4b
ffffffff80107754:	e9 47 fd ff ff       	jmpq   ffffffff801074a0 <isr_handler>

ffffffff80107759 <isr76>:
ffffffff80107759:	6a 00                	pushq  $0x0
ffffffff8010775b:	6a 4c                	pushq  $0x4c
ffffffff8010775d:	e9 3e fd ff ff       	jmpq   ffffffff801074a0 <isr_handler>

ffffffff80107762 <isr77>:
ffffffff80107762:	6a 00                	pushq  $0x0
ffffffff80107764:	6a 4d                	pushq  $0x4d
ffffffff80107766:	e9 35 fd ff ff       	jmpq   ffffffff801074a0 <isr_handler>

ffffffff8010776b <isr78>:
ffffffff8010776b:	6a 00                	pushq  $0x0
ffffffff8010776d:	6a 4e                	pushq  $0x4e
ffffffff8010776f:	e9 2c fd ff ff       	jmpq   ffffffff801074a0 <isr_handler>

ffffffff80107774 <isr79>:
ffffffff80107774:	6a 00                	pushq  $0x0
ffffffff80107776:	6a 4f                	pushq  $0x4f
ffffffff80107778:	e9 23 fd ff ff       	jmpq   ffffffff801074a0 <isr_handler>

ffffffff8010777d <isr80>:
ffffffff8010777d:	6a 00                	pushq  $0x0
ffffffff8010777f:	6a 50                	pushq  $0x50
ffffffff80107781:	e9 1a fd ff ff       	jmpq   ffffffff801074a0 <isr_handler>

ffffffff80107786 <isr81>:
ffffffff80107786:	6a 00                	pushq  $0x0
ffffffff80107788:	6a 51                	pushq  $0x51
ffffffff8010778a:	e9 11 fd ff ff       	jmpq   ffffffff801074a0 <isr_handler>

ffffffff8010778f <isr82>:
ffffffff8010778f:	6a 00                	pushq  $0x0
ffffffff80107791:	6a 52                	pushq  $0x52
ffffffff80107793:	e9 08 fd ff ff       	jmpq   ffffffff801074a0 <isr_handler>

ffffffff80107798 <isr83>:
ffffffff80107798:	6a 00                	pushq  $0x0
ffffffff8010779a:	6a 53                	pushq  $0x53
ffffffff8010779c:	e9 ff fc ff ff       	jmpq   ffffffff801074a0 <isr_handler>

ffffffff801077a1 <isr84>:
ffffffff801077a1:	6a 00                	pushq  $0x0
ffffffff801077a3:	6a 54                	pushq  $0x54
ffffffff801077a5:	e9 f6 fc ff ff       	jmpq   ffffffff801074a0 <isr_handler>

ffffffff801077aa <isr85>:
ffffffff801077aa:	6a 00                	pushq  $0x0
ffffffff801077ac:	6a 55                	pushq  $0x55
ffffffff801077ae:	e9 ed fc ff ff       	jmpq   ffffffff801074a0 <isr_handler>

ffffffff801077b3 <isr86>:
ffffffff801077b3:	6a 00                	pushq  $0x0
ffffffff801077b5:	6a 56                	pushq  $0x56
ffffffff801077b7:	e9 e4 fc ff ff       	jmpq   ffffffff801074a0 <isr_handler>

ffffffff801077bc <isr87>:
ffffffff801077bc:	6a 00                	pushq  $0x0
ffffffff801077be:	6a 57                	pushq  $0x57
ffffffff801077c0:	e9 db fc ff ff       	jmpq   ffffffff801074a0 <isr_handler>

ffffffff801077c5 <isr88>:
ffffffff801077c5:	6a 00                	pushq  $0x0
ffffffff801077c7:	6a 58                	pushq  $0x58
ffffffff801077c9:	e9 d2 fc ff ff       	jmpq   ffffffff801074a0 <isr_handler>

ffffffff801077ce <isr89>:
ffffffff801077ce:	6a 00                	pushq  $0x0
ffffffff801077d0:	6a 59                	pushq  $0x59
ffffffff801077d2:	e9 c9 fc ff ff       	jmpq   ffffffff801074a0 <isr_handler>

ffffffff801077d7 <isr90>:
ffffffff801077d7:	6a 00                	pushq  $0x0
ffffffff801077d9:	6a 5a                	pushq  $0x5a
ffffffff801077db:	e9 c0 fc ff ff       	jmpq   ffffffff801074a0 <isr_handler>

ffffffff801077e0 <isr91>:
ffffffff801077e0:	6a 00                	pushq  $0x0
ffffffff801077e2:	6a 5b                	pushq  $0x5b
ffffffff801077e4:	e9 b7 fc ff ff       	jmpq   ffffffff801074a0 <isr_handler>

ffffffff801077e9 <isr92>:
ffffffff801077e9:	6a 00                	pushq  $0x0
ffffffff801077eb:	6a 5c                	pushq  $0x5c
ffffffff801077ed:	e9 ae fc ff ff       	jmpq   ffffffff801074a0 <isr_handler>

ffffffff801077f2 <isr93>:
ffffffff801077f2:	6a 00                	pushq  $0x0
ffffffff801077f4:	6a 5d                	pushq  $0x5d
ffffffff801077f6:	e9 a5 fc ff ff       	jmpq   ffffffff801074a0 <isr_handler>

ffffffff801077fb <isr94>:
ffffffff801077fb:	6a 00                	pushq  $0x0
ffffffff801077fd:	6a 5e                	pushq  $0x5e
ffffffff801077ff:	e9 9c fc ff ff       	jmpq   ffffffff801074a0 <isr_handler>

ffffffff80107804 <isr95>:
ffffffff80107804:	6a 00                	pushq  $0x0
ffffffff80107806:	6a 5f                	pushq  $0x5f
ffffffff80107808:	e9 93 fc ff ff       	jmpq   ffffffff801074a0 <isr_handler>

ffffffff8010780d <isr96>:
ffffffff8010780d:	6a 00                	pushq  $0x0
ffffffff8010780f:	6a 60                	pushq  $0x60
ffffffff80107811:	e9 8a fc ff ff       	jmpq   ffffffff801074a0 <isr_handler>

ffffffff80107816 <isr97>:
ffffffff80107816:	6a 00                	pushq  $0x0
ffffffff80107818:	6a 61                	pushq  $0x61
ffffffff8010781a:	e9 81 fc ff ff       	jmpq   ffffffff801074a0 <isr_handler>

ffffffff8010781f <isr98>:
ffffffff8010781f:	6a 00                	pushq  $0x0
ffffffff80107821:	6a 62                	pushq  $0x62
ffffffff80107823:	e9 78 fc ff ff       	jmpq   ffffffff801074a0 <isr_handler>

ffffffff80107828 <isr99>:
ffffffff80107828:	6a 00                	pushq  $0x0
ffffffff8010782a:	6a 63                	pushq  $0x63
ffffffff8010782c:	e9 6f fc ff ff       	jmpq   ffffffff801074a0 <isr_handler>

ffffffff80107831 <isr100>:
ffffffff80107831:	6a 00                	pushq  $0x0
ffffffff80107833:	6a 64                	pushq  $0x64
ffffffff80107835:	e9 66 fc ff ff       	jmpq   ffffffff801074a0 <isr_handler>

ffffffff8010783a <isr101>:
ffffffff8010783a:	6a 00                	pushq  $0x0
ffffffff8010783c:	6a 65                	pushq  $0x65
ffffffff8010783e:	e9 5d fc ff ff       	jmpq   ffffffff801074a0 <isr_handler>

ffffffff80107843 <isr102>:
ffffffff80107843:	6a 00                	pushq  $0x0
ffffffff80107845:	6a 66                	pushq  $0x66
ffffffff80107847:	e9 54 fc ff ff       	jmpq   ffffffff801074a0 <isr_handler>

ffffffff8010784c <isr103>:
ffffffff8010784c:	6a 00                	pushq  $0x0
ffffffff8010784e:	6a 67                	pushq  $0x67
ffffffff80107850:	e9 4b fc ff ff       	jmpq   ffffffff801074a0 <isr_handler>

ffffffff80107855 <isr104>:
ffffffff80107855:	6a 00                	pushq  $0x0
ffffffff80107857:	6a 68                	pushq  $0x68
ffffffff80107859:	e9 42 fc ff ff       	jmpq   ffffffff801074a0 <isr_handler>

ffffffff8010785e <isr105>:
ffffffff8010785e:	6a 00                	pushq  $0x0
ffffffff80107860:	6a 69                	pushq  $0x69
ffffffff80107862:	e9 39 fc ff ff       	jmpq   ffffffff801074a0 <isr_handler>

ffffffff80107867 <isr106>:
ffffffff80107867:	6a 00                	pushq  $0x0
ffffffff80107869:	6a 6a                	pushq  $0x6a
ffffffff8010786b:	e9 30 fc ff ff       	jmpq   ffffffff801074a0 <isr_handler>

ffffffff80107870 <isr107>:
ffffffff80107870:	6a 00                	pushq  $0x0
ffffffff80107872:	6a 6b                	pushq  $0x6b
ffffffff80107874:	e9 27 fc ff ff       	jmpq   ffffffff801074a0 <isr_handler>

ffffffff80107879 <isr108>:
ffffffff80107879:	6a 00                	pushq  $0x0
ffffffff8010787b:	6a 6c                	pushq  $0x6c
ffffffff8010787d:	e9 1e fc ff ff       	jmpq   ffffffff801074a0 <isr_handler>

ffffffff80107882 <isr109>:
ffffffff80107882:	6a 00                	pushq  $0x0
ffffffff80107884:	6a 6d                	pushq  $0x6d
ffffffff80107886:	e9 15 fc ff ff       	jmpq   ffffffff801074a0 <isr_handler>

ffffffff8010788b <isr110>:
ffffffff8010788b:	6a 00                	pushq  $0x0
ffffffff8010788d:	6a 6e                	pushq  $0x6e
ffffffff8010788f:	e9 0c fc ff ff       	jmpq   ffffffff801074a0 <isr_handler>

ffffffff80107894 <isr111>:
ffffffff80107894:	6a 00                	pushq  $0x0
ffffffff80107896:	6a 6f                	pushq  $0x6f
ffffffff80107898:	e9 03 fc ff ff       	jmpq   ffffffff801074a0 <isr_handler>

ffffffff8010789d <isr112>:
ffffffff8010789d:	6a 00                	pushq  $0x0
ffffffff8010789f:	6a 70                	pushq  $0x70
ffffffff801078a1:	e9 fa fb ff ff       	jmpq   ffffffff801074a0 <isr_handler>

ffffffff801078a6 <isr113>:
ffffffff801078a6:	6a 00                	pushq  $0x0
ffffffff801078a8:	6a 71                	pushq  $0x71
ffffffff801078aa:	e9 f1 fb ff ff       	jmpq   ffffffff801074a0 <isr_handler>

ffffffff801078af <isr114>:
ffffffff801078af:	6a 00                	pushq  $0x0
ffffffff801078b1:	6a 72                	pushq  $0x72
ffffffff801078b3:	e9 e8 fb ff ff       	jmpq   ffffffff801074a0 <isr_handler>

ffffffff801078b8 <isr115>:
ffffffff801078b8:	6a 00                	pushq  $0x0
ffffffff801078ba:	6a 73                	pushq  $0x73
ffffffff801078bc:	e9 df fb ff ff       	jmpq   ffffffff801074a0 <isr_handler>

ffffffff801078c1 <isr116>:
ffffffff801078c1:	6a 00                	pushq  $0x0
ffffffff801078c3:	6a 74                	pushq  $0x74
ffffffff801078c5:	e9 d6 fb ff ff       	jmpq   ffffffff801074a0 <isr_handler>

ffffffff801078ca <isr117>:
ffffffff801078ca:	6a 00                	pushq  $0x0
ffffffff801078cc:	6a 75                	pushq  $0x75
ffffffff801078ce:	e9 cd fb ff ff       	jmpq   ffffffff801074a0 <isr_handler>

ffffffff801078d3 <isr118>:
ffffffff801078d3:	6a 00                	pushq  $0x0
ffffffff801078d5:	6a 76                	pushq  $0x76
ffffffff801078d7:	e9 c4 fb ff ff       	jmpq   ffffffff801074a0 <isr_handler>

ffffffff801078dc <isr119>:
ffffffff801078dc:	6a 00                	pushq  $0x0
ffffffff801078de:	6a 77                	pushq  $0x77
ffffffff801078e0:	e9 bb fb ff ff       	jmpq   ffffffff801074a0 <isr_handler>

ffffffff801078e5 <isr120>:
ffffffff801078e5:	6a 00                	pushq  $0x0
ffffffff801078e7:	6a 78                	pushq  $0x78
ffffffff801078e9:	e9 b2 fb ff ff       	jmpq   ffffffff801074a0 <isr_handler>

ffffffff801078ee <isr121>:
ffffffff801078ee:	6a 00                	pushq  $0x0
ffffffff801078f0:	6a 79                	pushq  $0x79
ffffffff801078f2:	e9 a9 fb ff ff       	jmpq   ffffffff801074a0 <isr_handler>

ffffffff801078f7 <isr122>:
ffffffff801078f7:	6a 00                	pushq  $0x0
ffffffff801078f9:	6a 7a                	pushq  $0x7a
ffffffff801078fb:	e9 a0 fb ff ff       	jmpq   ffffffff801074a0 <isr_handler>

ffffffff80107900 <isr123>:
ffffffff80107900:	6a 00                	pushq  $0x0
ffffffff80107902:	6a 7b                	pushq  $0x7b
ffffffff80107904:	e9 97 fb ff ff       	jmpq   ffffffff801074a0 <isr_handler>

ffffffff80107909 <isr124>:
ffffffff80107909:	6a 00                	pushq  $0x0
ffffffff8010790b:	6a 7c                	pushq  $0x7c
ffffffff8010790d:	e9 8e fb ff ff       	jmpq   ffffffff801074a0 <isr_handler>

ffffffff80107912 <isr125>:
ffffffff80107912:	6a 00                	pushq  $0x0
ffffffff80107914:	6a 7d                	pushq  $0x7d
ffffffff80107916:	e9 85 fb ff ff       	jmpq   ffffffff801074a0 <isr_handler>

ffffffff8010791b <isr126>:
ffffffff8010791b:	6a 00                	pushq  $0x0
ffffffff8010791d:	6a 7e                	pushq  $0x7e
ffffffff8010791f:	e9 7c fb ff ff       	jmpq   ffffffff801074a0 <isr_handler>

ffffffff80107924 <isr127>:
ffffffff80107924:	6a 00                	pushq  $0x0
ffffffff80107926:	6a 7f                	pushq  $0x7f
ffffffff80107928:	e9 73 fb ff ff       	jmpq   ffffffff801074a0 <isr_handler>

ffffffff8010792d <isr128>:
ffffffff8010792d:	6a 00                	pushq  $0x0
ffffffff8010792f:	68 80 00 00 00       	pushq  $0x80
ffffffff80107934:	e9 67 fb ff ff       	jmpq   ffffffff801074a0 <isr_handler>

ffffffff80107939 <isr129>:
ffffffff80107939:	6a 00                	pushq  $0x0
ffffffff8010793b:	68 81 00 00 00       	pushq  $0x81
ffffffff80107940:	e9 5b fb ff ff       	jmpq   ffffffff801074a0 <isr_handler>

ffffffff80107945 <isr130>:
ffffffff80107945:	6a 00                	pushq  $0x0
ffffffff80107947:	68 82 00 00 00       	pushq  $0x82
ffffffff8010794c:	e9 4f fb ff ff       	jmpq   ffffffff801074a0 <isr_handler>

ffffffff80107951 <isr131>:
ffffffff80107951:	6a 00                	pushq  $0x0
ffffffff80107953:	68 83 00 00 00       	pushq  $0x83
ffffffff80107958:	e9 43 fb ff ff       	jmpq   ffffffff801074a0 <isr_handler>

ffffffff8010795d <isr132>:
ffffffff8010795d:	6a 00                	pushq  $0x0
ffffffff8010795f:	68 84 00 00 00       	pushq  $0x84
ffffffff80107964:	e9 37 fb ff ff       	jmpq   ffffffff801074a0 <isr_handler>

ffffffff80107969 <isr133>:
ffffffff80107969:	6a 00                	pushq  $0x0
ffffffff8010796b:	68 85 00 00 00       	pushq  $0x85
ffffffff80107970:	e9 2b fb ff ff       	jmpq   ffffffff801074a0 <isr_handler>

ffffffff80107975 <isr134>:
ffffffff80107975:	6a 00                	pushq  $0x0
ffffffff80107977:	68 86 00 00 00       	pushq  $0x86
ffffffff8010797c:	e9 1f fb ff ff       	jmpq   ffffffff801074a0 <isr_handler>

ffffffff80107981 <isr135>:
ffffffff80107981:	6a 00                	pushq  $0x0
ffffffff80107983:	68 87 00 00 00       	pushq  $0x87
ffffffff80107988:	e9 13 fb ff ff       	jmpq   ffffffff801074a0 <isr_handler>

ffffffff8010798d <isr136>:
ffffffff8010798d:	6a 00                	pushq  $0x0
ffffffff8010798f:	68 88 00 00 00       	pushq  $0x88
ffffffff80107994:	e9 07 fb ff ff       	jmpq   ffffffff801074a0 <isr_handler>

ffffffff80107999 <isr137>:
ffffffff80107999:	6a 00                	pushq  $0x0
ffffffff8010799b:	68 89 00 00 00       	pushq  $0x89
ffffffff801079a0:	e9 fb fa ff ff       	jmpq   ffffffff801074a0 <isr_handler>

ffffffff801079a5 <isr138>:
ffffffff801079a5:	6a 00                	pushq  $0x0
ffffffff801079a7:	68 8a 00 00 00       	pushq  $0x8a
ffffffff801079ac:	e9 ef fa ff ff       	jmpq   ffffffff801074a0 <isr_handler>

ffffffff801079b1 <isr139>:
ffffffff801079b1:	6a 00                	pushq  $0x0
ffffffff801079b3:	68 8b 00 00 00       	pushq  $0x8b
ffffffff801079b8:	e9 e3 fa ff ff       	jmpq   ffffffff801074a0 <isr_handler>

ffffffff801079bd <isr140>:
ffffffff801079bd:	6a 00                	pushq  $0x0
ffffffff801079bf:	68 8c 00 00 00       	pushq  $0x8c
ffffffff801079c4:	e9 d7 fa ff ff       	jmpq   ffffffff801074a0 <isr_handler>

ffffffff801079c9 <isr141>:
ffffffff801079c9:	6a 00                	pushq  $0x0
ffffffff801079cb:	68 8d 00 00 00       	pushq  $0x8d
ffffffff801079d0:	e9 cb fa ff ff       	jmpq   ffffffff801074a0 <isr_handler>

ffffffff801079d5 <isr142>:
ffffffff801079d5:	6a 00                	pushq  $0x0
ffffffff801079d7:	68 8e 00 00 00       	pushq  $0x8e
ffffffff801079dc:	e9 bf fa ff ff       	jmpq   ffffffff801074a0 <isr_handler>

ffffffff801079e1 <isr143>:
ffffffff801079e1:	6a 00                	pushq  $0x0
ffffffff801079e3:	68 8f 00 00 00       	pushq  $0x8f
ffffffff801079e8:	e9 b3 fa ff ff       	jmpq   ffffffff801074a0 <isr_handler>

ffffffff801079ed <isr144>:
ffffffff801079ed:	6a 00                	pushq  $0x0
ffffffff801079ef:	68 90 00 00 00       	pushq  $0x90
ffffffff801079f4:	e9 a7 fa ff ff       	jmpq   ffffffff801074a0 <isr_handler>

ffffffff801079f9 <isr145>:
ffffffff801079f9:	6a 00                	pushq  $0x0
ffffffff801079fb:	68 91 00 00 00       	pushq  $0x91
ffffffff80107a00:	e9 9b fa ff ff       	jmpq   ffffffff801074a0 <isr_handler>

ffffffff80107a05 <isr146>:
ffffffff80107a05:	6a 00                	pushq  $0x0
ffffffff80107a07:	68 92 00 00 00       	pushq  $0x92
ffffffff80107a0c:	e9 8f fa ff ff       	jmpq   ffffffff801074a0 <isr_handler>

ffffffff80107a11 <isr147>:
ffffffff80107a11:	6a 00                	pushq  $0x0
ffffffff80107a13:	68 93 00 00 00       	pushq  $0x93
ffffffff80107a18:	e9 83 fa ff ff       	jmpq   ffffffff801074a0 <isr_handler>

ffffffff80107a1d <isr148>:
ffffffff80107a1d:	6a 00                	pushq  $0x0
ffffffff80107a1f:	68 94 00 00 00       	pushq  $0x94
ffffffff80107a24:	e9 77 fa ff ff       	jmpq   ffffffff801074a0 <isr_handler>

ffffffff80107a29 <isr149>:
ffffffff80107a29:	6a 00                	pushq  $0x0
ffffffff80107a2b:	68 95 00 00 00       	pushq  $0x95
ffffffff80107a30:	e9 6b fa ff ff       	jmpq   ffffffff801074a0 <isr_handler>

ffffffff80107a35 <isr150>:
ffffffff80107a35:	6a 00                	pushq  $0x0
ffffffff80107a37:	68 96 00 00 00       	pushq  $0x96
ffffffff80107a3c:	e9 5f fa ff ff       	jmpq   ffffffff801074a0 <isr_handler>

ffffffff80107a41 <isr151>:
ffffffff80107a41:	6a 00                	pushq  $0x0
ffffffff80107a43:	68 97 00 00 00       	pushq  $0x97
ffffffff80107a48:	e9 53 fa ff ff       	jmpq   ffffffff801074a0 <isr_handler>

ffffffff80107a4d <isr152>:
ffffffff80107a4d:	6a 00                	pushq  $0x0
ffffffff80107a4f:	68 98 00 00 00       	pushq  $0x98
ffffffff80107a54:	e9 47 fa ff ff       	jmpq   ffffffff801074a0 <isr_handler>

ffffffff80107a59 <isr153>:
ffffffff80107a59:	6a 00                	pushq  $0x0
ffffffff80107a5b:	68 99 00 00 00       	pushq  $0x99
ffffffff80107a60:	e9 3b fa ff ff       	jmpq   ffffffff801074a0 <isr_handler>

ffffffff80107a65 <isr154>:
ffffffff80107a65:	6a 00                	pushq  $0x0
ffffffff80107a67:	68 9a 00 00 00       	pushq  $0x9a
ffffffff80107a6c:	e9 2f fa ff ff       	jmpq   ffffffff801074a0 <isr_handler>

ffffffff80107a71 <isr155>:
ffffffff80107a71:	6a 00                	pushq  $0x0
ffffffff80107a73:	68 9b 00 00 00       	pushq  $0x9b
ffffffff80107a78:	e9 23 fa ff ff       	jmpq   ffffffff801074a0 <isr_handler>

ffffffff80107a7d <isr156>:
ffffffff80107a7d:	6a 00                	pushq  $0x0
ffffffff80107a7f:	68 9c 00 00 00       	pushq  $0x9c
ffffffff80107a84:	e9 17 fa ff ff       	jmpq   ffffffff801074a0 <isr_handler>

ffffffff80107a89 <isr157>:
ffffffff80107a89:	6a 00                	pushq  $0x0
ffffffff80107a8b:	68 9d 00 00 00       	pushq  $0x9d
ffffffff80107a90:	e9 0b fa ff ff       	jmpq   ffffffff801074a0 <isr_handler>

ffffffff80107a95 <isr158>:
ffffffff80107a95:	6a 00                	pushq  $0x0
ffffffff80107a97:	68 9e 00 00 00       	pushq  $0x9e
ffffffff80107a9c:	e9 ff f9 ff ff       	jmpq   ffffffff801074a0 <isr_handler>

ffffffff80107aa1 <isr159>:
ffffffff80107aa1:	6a 00                	pushq  $0x0
ffffffff80107aa3:	68 9f 00 00 00       	pushq  $0x9f
ffffffff80107aa8:	e9 f3 f9 ff ff       	jmpq   ffffffff801074a0 <isr_handler>

ffffffff80107aad <isr160>:
ffffffff80107aad:	6a 00                	pushq  $0x0
ffffffff80107aaf:	68 a0 00 00 00       	pushq  $0xa0
ffffffff80107ab4:	e9 e7 f9 ff ff       	jmpq   ffffffff801074a0 <isr_handler>

ffffffff80107ab9 <isr161>:
ffffffff80107ab9:	6a 00                	pushq  $0x0
ffffffff80107abb:	68 a1 00 00 00       	pushq  $0xa1
ffffffff80107ac0:	e9 db f9 ff ff       	jmpq   ffffffff801074a0 <isr_handler>

ffffffff80107ac5 <isr162>:
ffffffff80107ac5:	6a 00                	pushq  $0x0
ffffffff80107ac7:	68 a2 00 00 00       	pushq  $0xa2
ffffffff80107acc:	e9 cf f9 ff ff       	jmpq   ffffffff801074a0 <isr_handler>

ffffffff80107ad1 <isr163>:
ffffffff80107ad1:	6a 00                	pushq  $0x0
ffffffff80107ad3:	68 a3 00 00 00       	pushq  $0xa3
ffffffff80107ad8:	e9 c3 f9 ff ff       	jmpq   ffffffff801074a0 <isr_handler>

ffffffff80107add <isr164>:
ffffffff80107add:	6a 00                	pushq  $0x0
ffffffff80107adf:	68 a4 00 00 00       	pushq  $0xa4
ffffffff80107ae4:	e9 b7 f9 ff ff       	jmpq   ffffffff801074a0 <isr_handler>

ffffffff80107ae9 <isr165>:
ffffffff80107ae9:	6a 00                	pushq  $0x0
ffffffff80107aeb:	68 a5 00 00 00       	pushq  $0xa5
ffffffff80107af0:	e9 ab f9 ff ff       	jmpq   ffffffff801074a0 <isr_handler>

ffffffff80107af5 <isr166>:
ffffffff80107af5:	6a 00                	pushq  $0x0
ffffffff80107af7:	68 a6 00 00 00       	pushq  $0xa6
ffffffff80107afc:	e9 9f f9 ff ff       	jmpq   ffffffff801074a0 <isr_handler>

ffffffff80107b01 <isr167>:
ffffffff80107b01:	6a 00                	pushq  $0x0
ffffffff80107b03:	68 a7 00 00 00       	pushq  $0xa7
ffffffff80107b08:	e9 93 f9 ff ff       	jmpq   ffffffff801074a0 <isr_handler>

ffffffff80107b0d <isr168>:
ffffffff80107b0d:	6a 00                	pushq  $0x0
ffffffff80107b0f:	68 a8 00 00 00       	pushq  $0xa8
ffffffff80107b14:	e9 87 f9 ff ff       	jmpq   ffffffff801074a0 <isr_handler>

ffffffff80107b19 <isr169>:
ffffffff80107b19:	6a 00                	pushq  $0x0
ffffffff80107b1b:	68 a9 00 00 00       	pushq  $0xa9
ffffffff80107b20:	e9 7b f9 ff ff       	jmpq   ffffffff801074a0 <isr_handler>

ffffffff80107b25 <isr170>:
ffffffff80107b25:	6a 00                	pushq  $0x0
ffffffff80107b27:	68 aa 00 00 00       	pushq  $0xaa
ffffffff80107b2c:	e9 6f f9 ff ff       	jmpq   ffffffff801074a0 <isr_handler>

ffffffff80107b31 <isr171>:
ffffffff80107b31:	6a 00                	pushq  $0x0
ffffffff80107b33:	68 ab 00 00 00       	pushq  $0xab
ffffffff80107b38:	e9 63 f9 ff ff       	jmpq   ffffffff801074a0 <isr_handler>

ffffffff80107b3d <isr172>:
ffffffff80107b3d:	6a 00                	pushq  $0x0
ffffffff80107b3f:	68 ac 00 00 00       	pushq  $0xac
ffffffff80107b44:	e9 57 f9 ff ff       	jmpq   ffffffff801074a0 <isr_handler>

ffffffff80107b49 <isr173>:
ffffffff80107b49:	6a 00                	pushq  $0x0
ffffffff80107b4b:	68 ad 00 00 00       	pushq  $0xad
ffffffff80107b50:	e9 4b f9 ff ff       	jmpq   ffffffff801074a0 <isr_handler>

ffffffff80107b55 <isr174>:
ffffffff80107b55:	6a 00                	pushq  $0x0
ffffffff80107b57:	68 ae 00 00 00       	pushq  $0xae
ffffffff80107b5c:	e9 3f f9 ff ff       	jmpq   ffffffff801074a0 <isr_handler>

ffffffff80107b61 <isr175>:
ffffffff80107b61:	6a 00                	pushq  $0x0
ffffffff80107b63:	68 af 00 00 00       	pushq  $0xaf
ffffffff80107b68:	e9 33 f9 ff ff       	jmpq   ffffffff801074a0 <isr_handler>

ffffffff80107b6d <isr176>:
ffffffff80107b6d:	6a 00                	pushq  $0x0
ffffffff80107b6f:	68 b0 00 00 00       	pushq  $0xb0
ffffffff80107b74:	e9 27 f9 ff ff       	jmpq   ffffffff801074a0 <isr_handler>

ffffffff80107b79 <isr177>:
ffffffff80107b79:	6a 00                	pushq  $0x0
ffffffff80107b7b:	68 b1 00 00 00       	pushq  $0xb1
ffffffff80107b80:	e9 1b f9 ff ff       	jmpq   ffffffff801074a0 <isr_handler>

ffffffff80107b85 <isr178>:
ffffffff80107b85:	6a 00                	pushq  $0x0
ffffffff80107b87:	68 b2 00 00 00       	pushq  $0xb2
ffffffff80107b8c:	e9 0f f9 ff ff       	jmpq   ffffffff801074a0 <isr_handler>

ffffffff80107b91 <isr179>:
ffffffff80107b91:	6a 00                	pushq  $0x0
ffffffff80107b93:	68 b3 00 00 00       	pushq  $0xb3
ffffffff80107b98:	e9 03 f9 ff ff       	jmpq   ffffffff801074a0 <isr_handler>

ffffffff80107b9d <isr180>:
ffffffff80107b9d:	6a 00                	pushq  $0x0
ffffffff80107b9f:	68 b4 00 00 00       	pushq  $0xb4
ffffffff80107ba4:	e9 f7 f8 ff ff       	jmpq   ffffffff801074a0 <isr_handler>

ffffffff80107ba9 <isr181>:
ffffffff80107ba9:	6a 00                	pushq  $0x0
ffffffff80107bab:	68 b5 00 00 00       	pushq  $0xb5
ffffffff80107bb0:	e9 eb f8 ff ff       	jmpq   ffffffff801074a0 <isr_handler>

ffffffff80107bb5 <isr182>:
ffffffff80107bb5:	6a 00                	pushq  $0x0
ffffffff80107bb7:	68 b6 00 00 00       	pushq  $0xb6
ffffffff80107bbc:	e9 df f8 ff ff       	jmpq   ffffffff801074a0 <isr_handler>

ffffffff80107bc1 <isr183>:
ffffffff80107bc1:	6a 00                	pushq  $0x0
ffffffff80107bc3:	68 b7 00 00 00       	pushq  $0xb7
ffffffff80107bc8:	e9 d3 f8 ff ff       	jmpq   ffffffff801074a0 <isr_handler>

ffffffff80107bcd <isr184>:
ffffffff80107bcd:	6a 00                	pushq  $0x0
ffffffff80107bcf:	68 b8 00 00 00       	pushq  $0xb8
ffffffff80107bd4:	e9 c7 f8 ff ff       	jmpq   ffffffff801074a0 <isr_handler>

ffffffff80107bd9 <isr185>:
ffffffff80107bd9:	6a 00                	pushq  $0x0
ffffffff80107bdb:	68 b9 00 00 00       	pushq  $0xb9
ffffffff80107be0:	e9 bb f8 ff ff       	jmpq   ffffffff801074a0 <isr_handler>

ffffffff80107be5 <isr186>:
ffffffff80107be5:	6a 00                	pushq  $0x0
ffffffff80107be7:	68 ba 00 00 00       	pushq  $0xba
ffffffff80107bec:	e9 af f8 ff ff       	jmpq   ffffffff801074a0 <isr_handler>

ffffffff80107bf1 <isr187>:
ffffffff80107bf1:	6a 00                	pushq  $0x0
ffffffff80107bf3:	68 bb 00 00 00       	pushq  $0xbb
ffffffff80107bf8:	e9 a3 f8 ff ff       	jmpq   ffffffff801074a0 <isr_handler>

ffffffff80107bfd <isr188>:
ffffffff80107bfd:	6a 00                	pushq  $0x0
ffffffff80107bff:	68 bc 00 00 00       	pushq  $0xbc
ffffffff80107c04:	e9 97 f8 ff ff       	jmpq   ffffffff801074a0 <isr_handler>

ffffffff80107c09 <isr189>:
ffffffff80107c09:	6a 00                	pushq  $0x0
ffffffff80107c0b:	68 bd 00 00 00       	pushq  $0xbd
ffffffff80107c10:	e9 8b f8 ff ff       	jmpq   ffffffff801074a0 <isr_handler>

ffffffff80107c15 <isr190>:
ffffffff80107c15:	6a 00                	pushq  $0x0
ffffffff80107c17:	68 be 00 00 00       	pushq  $0xbe
ffffffff80107c1c:	e9 7f f8 ff ff       	jmpq   ffffffff801074a0 <isr_handler>

ffffffff80107c21 <isr191>:
ffffffff80107c21:	6a 00                	pushq  $0x0
ffffffff80107c23:	68 bf 00 00 00       	pushq  $0xbf
ffffffff80107c28:	e9 73 f8 ff ff       	jmpq   ffffffff801074a0 <isr_handler>

ffffffff80107c2d <isr192>:
ffffffff80107c2d:	6a 00                	pushq  $0x0
ffffffff80107c2f:	68 c0 00 00 00       	pushq  $0xc0
ffffffff80107c34:	e9 67 f8 ff ff       	jmpq   ffffffff801074a0 <isr_handler>

ffffffff80107c39 <isr193>:
ffffffff80107c39:	6a 00                	pushq  $0x0
ffffffff80107c3b:	68 c1 00 00 00       	pushq  $0xc1
ffffffff80107c40:	e9 5b f8 ff ff       	jmpq   ffffffff801074a0 <isr_handler>

ffffffff80107c45 <isr194>:
ffffffff80107c45:	6a 00                	pushq  $0x0
ffffffff80107c47:	68 c2 00 00 00       	pushq  $0xc2
ffffffff80107c4c:	e9 4f f8 ff ff       	jmpq   ffffffff801074a0 <isr_handler>

ffffffff80107c51 <isr195>:
ffffffff80107c51:	6a 00                	pushq  $0x0
ffffffff80107c53:	68 c3 00 00 00       	pushq  $0xc3
ffffffff80107c58:	e9 43 f8 ff ff       	jmpq   ffffffff801074a0 <isr_handler>

ffffffff80107c5d <isr196>:
ffffffff80107c5d:	6a 00                	pushq  $0x0
ffffffff80107c5f:	68 c4 00 00 00       	pushq  $0xc4
ffffffff80107c64:	e9 37 f8 ff ff       	jmpq   ffffffff801074a0 <isr_handler>

ffffffff80107c69 <isr197>:
ffffffff80107c69:	6a 00                	pushq  $0x0
ffffffff80107c6b:	68 c5 00 00 00       	pushq  $0xc5
ffffffff80107c70:	e9 2b f8 ff ff       	jmpq   ffffffff801074a0 <isr_handler>

ffffffff80107c75 <isr198>:
ffffffff80107c75:	6a 00                	pushq  $0x0
ffffffff80107c77:	68 c6 00 00 00       	pushq  $0xc6
ffffffff80107c7c:	e9 1f f8 ff ff       	jmpq   ffffffff801074a0 <isr_handler>

ffffffff80107c81 <isr199>:
ffffffff80107c81:	6a 00                	pushq  $0x0
ffffffff80107c83:	68 c7 00 00 00       	pushq  $0xc7
ffffffff80107c88:	e9 13 f8 ff ff       	jmpq   ffffffff801074a0 <isr_handler>

ffffffff80107c8d <isr200>:
ffffffff80107c8d:	6a 00                	pushq  $0x0
ffffffff80107c8f:	68 c8 00 00 00       	pushq  $0xc8
ffffffff80107c94:	e9 07 f8 ff ff       	jmpq   ffffffff801074a0 <isr_handler>

ffffffff80107c99 <isr201>:
ffffffff80107c99:	6a 00                	pushq  $0x0
ffffffff80107c9b:	68 c9 00 00 00       	pushq  $0xc9
ffffffff80107ca0:	e9 fb f7 ff ff       	jmpq   ffffffff801074a0 <isr_handler>

ffffffff80107ca5 <isr202>:
ffffffff80107ca5:	6a 00                	pushq  $0x0
ffffffff80107ca7:	68 ca 00 00 00       	pushq  $0xca
ffffffff80107cac:	e9 ef f7 ff ff       	jmpq   ffffffff801074a0 <isr_handler>

ffffffff80107cb1 <isr203>:
ffffffff80107cb1:	6a 00                	pushq  $0x0
ffffffff80107cb3:	68 cb 00 00 00       	pushq  $0xcb
ffffffff80107cb8:	e9 e3 f7 ff ff       	jmpq   ffffffff801074a0 <isr_handler>

ffffffff80107cbd <isr204>:
ffffffff80107cbd:	6a 00                	pushq  $0x0
ffffffff80107cbf:	68 cc 00 00 00       	pushq  $0xcc
ffffffff80107cc4:	e9 d7 f7 ff ff       	jmpq   ffffffff801074a0 <isr_handler>

ffffffff80107cc9 <isr205>:
ffffffff80107cc9:	6a 00                	pushq  $0x0
ffffffff80107ccb:	68 cd 00 00 00       	pushq  $0xcd
ffffffff80107cd0:	e9 cb f7 ff ff       	jmpq   ffffffff801074a0 <isr_handler>

ffffffff80107cd5 <isr206>:
ffffffff80107cd5:	6a 00                	pushq  $0x0
ffffffff80107cd7:	68 ce 00 00 00       	pushq  $0xce
ffffffff80107cdc:	e9 bf f7 ff ff       	jmpq   ffffffff801074a0 <isr_handler>

ffffffff80107ce1 <isr207>:
ffffffff80107ce1:	6a 00                	pushq  $0x0
ffffffff80107ce3:	68 cf 00 00 00       	pushq  $0xcf
ffffffff80107ce8:	e9 b3 f7 ff ff       	jmpq   ffffffff801074a0 <isr_handler>

ffffffff80107ced <isr208>:
ffffffff80107ced:	6a 00                	pushq  $0x0
ffffffff80107cef:	68 d0 00 00 00       	pushq  $0xd0
ffffffff80107cf4:	e9 a7 f7 ff ff       	jmpq   ffffffff801074a0 <isr_handler>

ffffffff80107cf9 <isr209>:
ffffffff80107cf9:	6a 00                	pushq  $0x0
ffffffff80107cfb:	68 d1 00 00 00       	pushq  $0xd1
ffffffff80107d00:	e9 9b f7 ff ff       	jmpq   ffffffff801074a0 <isr_handler>

ffffffff80107d05 <isr210>:
ffffffff80107d05:	6a 00                	pushq  $0x0
ffffffff80107d07:	68 d2 00 00 00       	pushq  $0xd2
ffffffff80107d0c:	e9 8f f7 ff ff       	jmpq   ffffffff801074a0 <isr_handler>

ffffffff80107d11 <isr211>:
ffffffff80107d11:	6a 00                	pushq  $0x0
ffffffff80107d13:	68 d3 00 00 00       	pushq  $0xd3
ffffffff80107d18:	e9 83 f7 ff ff       	jmpq   ffffffff801074a0 <isr_handler>

ffffffff80107d1d <isr212>:
ffffffff80107d1d:	6a 00                	pushq  $0x0
ffffffff80107d1f:	68 d4 00 00 00       	pushq  $0xd4
ffffffff80107d24:	e9 77 f7 ff ff       	jmpq   ffffffff801074a0 <isr_handler>

ffffffff80107d29 <isr213>:
ffffffff80107d29:	6a 00                	pushq  $0x0
ffffffff80107d2b:	68 d5 00 00 00       	pushq  $0xd5
ffffffff80107d30:	e9 6b f7 ff ff       	jmpq   ffffffff801074a0 <isr_handler>

ffffffff80107d35 <isr214>:
ffffffff80107d35:	6a 00                	pushq  $0x0
ffffffff80107d37:	68 d6 00 00 00       	pushq  $0xd6
ffffffff80107d3c:	e9 5f f7 ff ff       	jmpq   ffffffff801074a0 <isr_handler>

ffffffff80107d41 <isr215>:
ffffffff80107d41:	6a 00                	pushq  $0x0
ffffffff80107d43:	68 d7 00 00 00       	pushq  $0xd7
ffffffff80107d48:	e9 53 f7 ff ff       	jmpq   ffffffff801074a0 <isr_handler>

ffffffff80107d4d <isr216>:
ffffffff80107d4d:	6a 00                	pushq  $0x0
ffffffff80107d4f:	68 d8 00 00 00       	pushq  $0xd8
ffffffff80107d54:	e9 47 f7 ff ff       	jmpq   ffffffff801074a0 <isr_handler>

ffffffff80107d59 <isr217>:
ffffffff80107d59:	6a 00                	pushq  $0x0
ffffffff80107d5b:	68 d9 00 00 00       	pushq  $0xd9
ffffffff80107d60:	e9 3b f7 ff ff       	jmpq   ffffffff801074a0 <isr_handler>

ffffffff80107d65 <isr218>:
ffffffff80107d65:	6a 00                	pushq  $0x0
ffffffff80107d67:	68 da 00 00 00       	pushq  $0xda
ffffffff80107d6c:	e9 2f f7 ff ff       	jmpq   ffffffff801074a0 <isr_handler>

ffffffff80107d71 <isr219>:
ffffffff80107d71:	6a 00                	pushq  $0x0
ffffffff80107d73:	68 db 00 00 00       	pushq  $0xdb
ffffffff80107d78:	e9 23 f7 ff ff       	jmpq   ffffffff801074a0 <isr_handler>

ffffffff80107d7d <isr220>:
ffffffff80107d7d:	6a 00                	pushq  $0x0
ffffffff80107d7f:	68 dc 00 00 00       	pushq  $0xdc
ffffffff80107d84:	e9 17 f7 ff ff       	jmpq   ffffffff801074a0 <isr_handler>

ffffffff80107d89 <isr221>:
ffffffff80107d89:	6a 00                	pushq  $0x0
ffffffff80107d8b:	68 dd 00 00 00       	pushq  $0xdd
ffffffff80107d90:	e9 0b f7 ff ff       	jmpq   ffffffff801074a0 <isr_handler>

ffffffff80107d95 <isr222>:
ffffffff80107d95:	6a 00                	pushq  $0x0
ffffffff80107d97:	68 de 00 00 00       	pushq  $0xde
ffffffff80107d9c:	e9 ff f6 ff ff       	jmpq   ffffffff801074a0 <isr_handler>

ffffffff80107da1 <isr223>:
ffffffff80107da1:	6a 00                	pushq  $0x0
ffffffff80107da3:	68 df 00 00 00       	pushq  $0xdf
ffffffff80107da8:	e9 f3 f6 ff ff       	jmpq   ffffffff801074a0 <isr_handler>

ffffffff80107dad <isr224>:
ffffffff80107dad:	6a 00                	pushq  $0x0
ffffffff80107daf:	68 e0 00 00 00       	pushq  $0xe0
ffffffff80107db4:	e9 e7 f6 ff ff       	jmpq   ffffffff801074a0 <isr_handler>

ffffffff80107db9 <isr225>:
ffffffff80107db9:	6a 00                	pushq  $0x0
ffffffff80107dbb:	68 e1 00 00 00       	pushq  $0xe1
ffffffff80107dc0:	e9 db f6 ff ff       	jmpq   ffffffff801074a0 <isr_handler>

ffffffff80107dc5 <isr226>:
ffffffff80107dc5:	6a 00                	pushq  $0x0
ffffffff80107dc7:	68 e2 00 00 00       	pushq  $0xe2
ffffffff80107dcc:	e9 cf f6 ff ff       	jmpq   ffffffff801074a0 <isr_handler>

ffffffff80107dd1 <isr227>:
ffffffff80107dd1:	6a 00                	pushq  $0x0
ffffffff80107dd3:	68 e3 00 00 00       	pushq  $0xe3
ffffffff80107dd8:	e9 c3 f6 ff ff       	jmpq   ffffffff801074a0 <isr_handler>

ffffffff80107ddd <isr228>:
ffffffff80107ddd:	6a 00                	pushq  $0x0
ffffffff80107ddf:	68 e4 00 00 00       	pushq  $0xe4
ffffffff80107de4:	e9 b7 f6 ff ff       	jmpq   ffffffff801074a0 <isr_handler>

ffffffff80107de9 <isr229>:
ffffffff80107de9:	6a 00                	pushq  $0x0
ffffffff80107deb:	68 e5 00 00 00       	pushq  $0xe5
ffffffff80107df0:	e9 ab f6 ff ff       	jmpq   ffffffff801074a0 <isr_handler>

ffffffff80107df5 <isr230>:
ffffffff80107df5:	6a 00                	pushq  $0x0
ffffffff80107df7:	68 e6 00 00 00       	pushq  $0xe6
ffffffff80107dfc:	e9 9f f6 ff ff       	jmpq   ffffffff801074a0 <isr_handler>

ffffffff80107e01 <isr231>:
ffffffff80107e01:	6a 00                	pushq  $0x0
ffffffff80107e03:	68 e7 00 00 00       	pushq  $0xe7
ffffffff80107e08:	e9 93 f6 ff ff       	jmpq   ffffffff801074a0 <isr_handler>

ffffffff80107e0d <isr232>:
ffffffff80107e0d:	6a 00                	pushq  $0x0
ffffffff80107e0f:	68 e8 00 00 00       	pushq  $0xe8
ffffffff80107e14:	e9 87 f6 ff ff       	jmpq   ffffffff801074a0 <isr_handler>

ffffffff80107e19 <isr233>:
ffffffff80107e19:	6a 00                	pushq  $0x0
ffffffff80107e1b:	68 e9 00 00 00       	pushq  $0xe9
ffffffff80107e20:	e9 7b f6 ff ff       	jmpq   ffffffff801074a0 <isr_handler>

ffffffff80107e25 <isr234>:
ffffffff80107e25:	6a 00                	pushq  $0x0
ffffffff80107e27:	68 ea 00 00 00       	pushq  $0xea
ffffffff80107e2c:	e9 6f f6 ff ff       	jmpq   ffffffff801074a0 <isr_handler>

ffffffff80107e31 <isr235>:
ffffffff80107e31:	6a 00                	pushq  $0x0
ffffffff80107e33:	68 eb 00 00 00       	pushq  $0xeb
ffffffff80107e38:	e9 63 f6 ff ff       	jmpq   ffffffff801074a0 <isr_handler>

ffffffff80107e3d <isr236>:
ffffffff80107e3d:	6a 00                	pushq  $0x0
ffffffff80107e3f:	68 ec 00 00 00       	pushq  $0xec
ffffffff80107e44:	e9 57 f6 ff ff       	jmpq   ffffffff801074a0 <isr_handler>

ffffffff80107e49 <isr237>:
ffffffff80107e49:	6a 00                	pushq  $0x0
ffffffff80107e4b:	68 ed 00 00 00       	pushq  $0xed
ffffffff80107e50:	e9 4b f6 ff ff       	jmpq   ffffffff801074a0 <isr_handler>

ffffffff80107e55 <isr238>:
ffffffff80107e55:	6a 00                	pushq  $0x0
ffffffff80107e57:	68 ee 00 00 00       	pushq  $0xee
ffffffff80107e5c:	e9 3f f6 ff ff       	jmpq   ffffffff801074a0 <isr_handler>

ffffffff80107e61 <isr239>:
ffffffff80107e61:	6a 00                	pushq  $0x0
ffffffff80107e63:	68 ef 00 00 00       	pushq  $0xef
ffffffff80107e68:	e9 33 f6 ff ff       	jmpq   ffffffff801074a0 <isr_handler>

ffffffff80107e6d <isr240>:
ffffffff80107e6d:	6a 00                	pushq  $0x0
ffffffff80107e6f:	68 f0 00 00 00       	pushq  $0xf0
ffffffff80107e74:	e9 27 f6 ff ff       	jmpq   ffffffff801074a0 <isr_handler>

ffffffff80107e79 <isr241>:
ffffffff80107e79:	6a 00                	pushq  $0x0
ffffffff80107e7b:	68 f1 00 00 00       	pushq  $0xf1
ffffffff80107e80:	e9 1b f6 ff ff       	jmpq   ffffffff801074a0 <isr_handler>

ffffffff80107e85 <isr242>:
ffffffff80107e85:	6a 00                	pushq  $0x0
ffffffff80107e87:	68 f2 00 00 00       	pushq  $0xf2
ffffffff80107e8c:	e9 0f f6 ff ff       	jmpq   ffffffff801074a0 <isr_handler>

ffffffff80107e91 <isr243>:
ffffffff80107e91:	6a 00                	pushq  $0x0
ffffffff80107e93:	68 f3 00 00 00       	pushq  $0xf3
ffffffff80107e98:	e9 03 f6 ff ff       	jmpq   ffffffff801074a0 <isr_handler>

ffffffff80107e9d <isr244>:
ffffffff80107e9d:	6a 00                	pushq  $0x0
ffffffff80107e9f:	68 f4 00 00 00       	pushq  $0xf4
ffffffff80107ea4:	e9 f7 f5 ff ff       	jmpq   ffffffff801074a0 <isr_handler>

ffffffff80107ea9 <isr245>:
ffffffff80107ea9:	6a 00                	pushq  $0x0
ffffffff80107eab:	68 f5 00 00 00       	pushq  $0xf5
ffffffff80107eb0:	e9 eb f5 ff ff       	jmpq   ffffffff801074a0 <isr_handler>

ffffffff80107eb5 <isr246>:
ffffffff80107eb5:	6a 00                	pushq  $0x0
ffffffff80107eb7:	68 f6 00 00 00       	pushq  $0xf6
ffffffff80107ebc:	e9 df f5 ff ff       	jmpq   ffffffff801074a0 <isr_handler>

ffffffff80107ec1 <isr247>:
ffffffff80107ec1:	6a 00                	pushq  $0x0
ffffffff80107ec3:	68 f7 00 00 00       	pushq  $0xf7
ffffffff80107ec8:	e9 d3 f5 ff ff       	jmpq   ffffffff801074a0 <isr_handler>

ffffffff80107ecd <isr248>:
ffffffff80107ecd:	6a 00                	pushq  $0x0
ffffffff80107ecf:	68 f8 00 00 00       	pushq  $0xf8
ffffffff80107ed4:	e9 c7 f5 ff ff       	jmpq   ffffffff801074a0 <isr_handler>

ffffffff80107ed9 <isr249>:
ffffffff80107ed9:	6a 00                	pushq  $0x0
ffffffff80107edb:	68 f9 00 00 00       	pushq  $0xf9
ffffffff80107ee0:	e9 bb f5 ff ff       	jmpq   ffffffff801074a0 <isr_handler>

ffffffff80107ee5 <isr250>:
ffffffff80107ee5:	6a 00                	pushq  $0x0
ffffffff80107ee7:	68 fa 00 00 00       	pushq  $0xfa
ffffffff80107eec:	e9 af f5 ff ff       	jmpq   ffffffff801074a0 <isr_handler>

ffffffff80107ef1 <isr251>:
ffffffff80107ef1:	6a 00                	pushq  $0x0
ffffffff80107ef3:	68 fb 00 00 00       	pushq  $0xfb
ffffffff80107ef8:	e9 a3 f5 ff ff       	jmpq   ffffffff801074a0 <isr_handler>

ffffffff80107efd <isr252>:
ffffffff80107efd:	6a 00                	pushq  $0x0
ffffffff80107eff:	68 fc 00 00 00       	pushq  $0xfc
ffffffff80107f04:	e9 97 f5 ff ff       	jmpq   ffffffff801074a0 <isr_handler>

ffffffff80107f09 <isr253>:
ffffffff80107f09:	6a 00                	pushq  $0x0
ffffffff80107f0b:	68 fd 00 00 00       	pushq  $0xfd
ffffffff80107f10:	e9 8b f5 ff ff       	jmpq   ffffffff801074a0 <isr_handler>

ffffffff80107f15 <isr254>:
ffffffff80107f15:	6a 00                	pushq  $0x0
ffffffff80107f17:	68 fe 00 00 00       	pushq  $0xfe
ffffffff80107f1c:	e9 7f f5 ff ff       	jmpq   ffffffff801074a0 <isr_handler>

ffffffff80107f21 <isr255>:
ffffffff80107f21:	6a 00                	pushq  $0x0
ffffffff80107f23:	68 ff 00 00 00       	pushq  $0xff
ffffffff80107f28:	e9 73 f5 ff ff       	jmpq   ffffffff801074a0 <isr_handler>

ffffffff80107f2d <kmain>:
ffffffff80107f2d:	55                   	push   %rbp
ffffffff80107f2e:	48 89 e5             	mov    %rsp,%rbp
ffffffff80107f31:	48 83 ec 10          	sub    $0x10,%rsp
ffffffff80107f35:	48 89 7d f8          	mov    %rdi,-0x8(%rbp)
ffffffff80107f39:	48 8b 45 f8          	mov    -0x8(%rbp),%rax
ffffffff80107f3d:	48 89 c7             	mov    %rax,%rdi
ffffffff80107f40:	e8 17 19 00 00       	callq  ffffffff8010985c <pmm_init>
ffffffff80107f45:	b8 00 00 00 00       	mov    $0x0,%eax
ffffffff80107f4a:	e8 8e 35 00 00       	callq  ffffffff8010b4dd <vmm_init>
ffffffff80107f4f:	48 8b 45 f8          	mov    -0x8(%rbp),%rax
ffffffff80107f53:	48 89 c7             	mov    %rax,%rdi
ffffffff80107f56:	e8 2b ca ff ff       	callq  ffffffff80104986 <init_graphics>
ffffffff80107f5b:	b8 00 00 00 00       	mov    $0x0,%eax
ffffffff80107f60:	e8 77 a1 ff ff       	callq  ffffffff801020dc <bitmap_init>
ffffffff80107f65:	48 8b 45 f8          	mov    -0x8(%rbp),%rax
ffffffff80107f69:	48 8b 40 28          	mov    0x28(%rax),%rax
ffffffff80107f6d:	48 89 c7             	mov    %rax,%rdi
ffffffff80107f70:	b8 00 00 00 00       	mov    $0x0,%eax
ffffffff80107f75:	e8 ff 1f 00 00       	callq  ffffffff80109f79 <rsdp_init>
ffffffff80107f7a:	b8 00 00 00 00       	mov    $0x0,%eax
ffffffff80107f7f:	e8 8e 00 00 00       	callq  ffffffff80108012 <madt_init>
ffffffff80107f84:	b8 00 00 00 00       	mov    $0x0,%eax
ffffffff80107f89:	e8 55 c7 ff ff       	callq  ffffffff801046e3 <gdt_init>
ffffffff80107f8e:	b8 00 00 00 00       	mov    $0x0,%eax
ffffffff80107f93:	e8 d5 d0 ff ff       	callq  ffffffff8010506d <idt_init>
ffffffff80107f98:	b8 00 00 00 00       	mov    $0x0,%eax
ffffffff80107f9d:	e8 49 c9 ff ff       	callq  ffffffff801048eb <create_generic_tss>
ffffffff80107fa2:	b8 00 00 00 00       	mov    $0x0,%eax
ffffffff80107fa7:	e8 7a 9e ff ff       	callq  ffffffff80101e26 <apic_init>
ffffffff80107fac:	b8 00 00 00 00       	mov    $0x0,%eax
ffffffff80107fb1:	e8 ce 2d 00 00       	callq  ffffffff8010ad84 <vfs_init>
ffffffff80107fb6:	b8 00 00 00 00       	mov    $0x0,%eax
ffffffff80107fbb:	e8 f9 16 00 00       	callq  ffffffff801096b9 <pci_init>
ffffffff80107fc0:	b8 00 00 00 00       	mov    $0x0,%eax
ffffffff80107fc5:	e8 36 90 ff ff       	callq  ffffffff80101000 <ahci_init>
ffffffff80107fca:	b8 00 00 00 00       	mov    $0x0,%eax
ffffffff80107fcf:	e8 f7 c6 ff ff       	callq  ffffffff801046cb <init_fd>
ffffffff80107fd4:	b8 00 00 00 00       	mov    $0x0,%eax
ffffffff80107fd9:	e8 60 29 00 00       	callq  ffffffff8010a93e <partition_mount_all>
ffffffff80107fde:	b8 00 00 00 00       	mov    $0x0,%eax
ffffffff80107fe3:	e8 a7 cd ff ff       	callq  ffffffff80104d8f <init_hpet>
ffffffff80107fe8:	b8 00 00 00 00       	mov    $0x0,%eax
ffffffff80107fed:	e8 0d 24 00 00       	callq  ffffffff8010a3ff <init_smp>
ffffffff80107ff2:	b8 00 00 00 00       	mov    $0x0,%eax
ffffffff80107ff7:	e8 66 22 00 00       	callq  ffffffff8010a262 <scheduler_init>
ffffffff80107ffc:	bf 32 00 00 00       	mov    $0x32,%edi
ffffffff80108001:	e8 ab 9d ff ff       	callq  ffffffff80101db1 <lapic_timer_init>
ffffffff80108006:	b8 00 00 00 00       	mov    $0x0,%eax
ffffffff8010800b:	8e e8                	mov    %eax,%gs
ffffffff8010800d:	fb                   	sti    
ffffffff8010800e:	f3 90                	pause  
ffffffff80108010:	eb fc                	jmp    ffffffff8010800e <kmain+0xe1>

ffffffff80108012 <madt_init>:
ffffffff80108012:	55                   	push   %rbp
ffffffff80108013:	48 89 e5             	mov    %rsp,%rbp
ffffffff80108016:	48 83 ec 20          	sub    $0x20,%rsp
ffffffff8010801a:	48 c7 c7 88 c4 10 80 	mov    $0xffffffff8010c488,%rdi
ffffffff80108021:	e8 46 20 00 00       	callq  ffffffff8010a06c <find_SDT>
ffffffff80108026:	48 89 45 f0          	mov    %rax,-0x10(%rbp)
ffffffff8010802a:	48 8b 45 f0          	mov    -0x10(%rbp),%rax
ffffffff8010802e:	8b 40 24             	mov    0x24(%rax),%eax
ffffffff80108031:	89 05 39 15 01 00    	mov    %eax,0x11539(%rip)        # ffffffff80119570 <madt_info+0x30>
ffffffff80108037:	bf 2c 01 00 00       	mov    $0x12c,%edi
ffffffff8010803c:	e8 3b a1 ff ff       	callq  ffffffff8010217c <kmalloc>
ffffffff80108041:	48 89 05 00 15 01 00 	mov    %rax,0x11500(%rip)        # ffffffff80119548 <madt_info+0x8>
ffffffff80108048:	bf f4 01 00 00       	mov    $0x1f4,%edi
ffffffff8010804d:	e8 2a a1 ff ff       	callq  ffffffff8010217c <kmalloc>
ffffffff80108052:	48 89 05 f7 14 01 00 	mov    %rax,0x114f7(%rip)        # ffffffff80119550 <madt_info+0x10>
ffffffff80108059:	bf 90 01 00 00       	mov    $0x190,%edi
ffffffff8010805e:	e8 19 a1 ff ff       	callq  ffffffff8010217c <kmalloc>
ffffffff80108063:	48 89 05 ee 14 01 00 	mov    %rax,0x114ee(%rip)        # ffffffff80119558 <madt_info+0x18>
ffffffff8010806a:	bf c8 00 00 00       	mov    $0xc8,%edi
ffffffff8010806f:	e8 08 a1 ff ff       	callq  ffffffff8010217c <kmalloc>
ffffffff80108074:	48 89 05 e5 14 01 00 	mov    %rax,0x114e5(%rip)        # ffffffff80119560 <madt_info+0x20>
ffffffff8010807b:	bf 96 00 00 00       	mov    $0x96,%edi
ffffffff80108080:	e8 f7 a0 ff ff       	callq  ffffffff8010217c <kmalloc>
ffffffff80108085:	48 89 05 dc 14 01 00 	mov    %rax,0x114dc(%rip)        # ffffffff80119568 <madt_info+0x28>
ffffffff8010808c:	48 c7 45 f8 00 00 00 	movq   $0x0,-0x8(%rbp)
ffffffff80108093:	00 
ffffffff80108094:	e9 b9 01 00 00       	jmpq   ffffffff80108252 <madt_init+0x240>
ffffffff80108099:	48 8b 45 f8          	mov    -0x8(%rbp),%rax
ffffffff8010809d:	48 8d 50 01          	lea    0x1(%rax),%rdx
ffffffff801080a1:	48 89 55 f8          	mov    %rdx,-0x8(%rbp)
ffffffff801080a5:	48 8b 55 f0          	mov    -0x10(%rbp),%rdx
ffffffff801080a9:	0f b6 44 02 2c       	movzbl 0x2c(%rdx,%rax,1),%eax
ffffffff801080ae:	88 45 ef             	mov    %al,-0x11(%rbp)
ffffffff801080b1:	48 8b 45 f8          	mov    -0x8(%rbp),%rax
ffffffff801080b5:	48 8d 50 01          	lea    0x1(%rax),%rdx
ffffffff801080b9:	48 89 55 f8          	mov    %rdx,-0x8(%rbp)
ffffffff801080bd:	48 8b 55 f0          	mov    -0x10(%rbp),%rdx
ffffffff801080c1:	0f b6 44 02 2c       	movzbl 0x2c(%rdx,%rax,1),%eax
ffffffff801080c6:	88 45 ee             	mov    %al,-0x12(%rbp)
ffffffff801080c9:	0f b6 45 ef          	movzbl -0x11(%rbp),%eax
ffffffff801080cd:	83 f8 05             	cmp    $0x5,%eax
ffffffff801080d0:	0f 87 6a 01 00 00    	ja     ffffffff80108240 <madt_init+0x22e>
ffffffff801080d6:	89 c0                	mov    %eax,%eax
ffffffff801080d8:	48 8b 04 c5 b0 c4 10 	mov    -0x7fef3b50(,%rax,8),%rax
ffffffff801080df:	80 
ffffffff801080e0:	ff e0                	jmpq   *%rax
ffffffff801080e2:	48 8b 45 f8          	mov    -0x8(%rbp),%rax
ffffffff801080e6:	48 8d 50 20          	lea    0x20(%rax),%rdx
ffffffff801080ea:	48 8b 45 f0          	mov    -0x10(%rbp),%rax
ffffffff801080ee:	48 01 d0             	add    %rdx,%rax
ffffffff801080f1:	48 8d 50 0c          	lea    0xc(%rax),%rdx
ffffffff801080f5:	48 8b 35 4c 14 01 00 	mov    0x1144c(%rip),%rsi        # ffffffff80119548 <madt_info+0x8>
ffffffff801080fc:	0f b6 05 3d 14 01 00 	movzbl 0x1143d(%rip),%eax        # ffffffff80119540 <madt_info>
ffffffff80108103:	8d 48 01             	lea    0x1(%rax),%ecx
ffffffff80108106:	88 0d 34 14 01 00    	mov    %cl,0x11434(%rip)        # ffffffff80119540 <madt_info>
ffffffff8010810c:	0f b6 c8             	movzbl %al,%ecx
ffffffff8010810f:	48 89 c8             	mov    %rcx,%rax
ffffffff80108112:	48 01 c0             	add    %rax,%rax
ffffffff80108115:	48 01 c8             	add    %rcx,%rax
ffffffff80108118:	48 01 c0             	add    %rax,%rax
ffffffff8010811b:	48 01 f0             	add    %rsi,%rax
ffffffff8010811e:	8b 0a                	mov    (%rdx),%ecx
ffffffff80108120:	89 08                	mov    %ecx,(%rax)
ffffffff80108122:	0f b7 52 04          	movzwl 0x4(%rdx),%edx
ffffffff80108126:	66 89 50 04          	mov    %dx,0x4(%rax)
ffffffff8010812a:	e9 11 01 00 00       	jmpq   ffffffff80108240 <madt_init+0x22e>
ffffffff8010812f:	48 8b 45 f8          	mov    -0x8(%rbp),%rax
ffffffff80108133:	48 8d 50 20          	lea    0x20(%rax),%rdx
ffffffff80108137:	48 8b 45 f0          	mov    -0x10(%rbp),%rax
ffffffff8010813b:	48 01 d0             	add    %rdx,%rax
ffffffff8010813e:	48 8d 50 0c          	lea    0xc(%rax),%rdx
ffffffff80108142:	48 8b 35 07 14 01 00 	mov    0x11407(%rip),%rsi        # ffffffff80119550 <madt_info+0x10>
ffffffff80108149:	0f b6 05 f1 13 01 00 	movzbl 0x113f1(%rip),%eax        # ffffffff80119541 <madt_info+0x1>
ffffffff80108150:	8d 48 01             	lea    0x1(%rax),%ecx
ffffffff80108153:	88 0d e8 13 01 00    	mov    %cl,0x113e8(%rip)        # ffffffff80119541 <madt_info+0x1>
ffffffff80108159:	0f b6 c8             	movzbl %al,%ecx
ffffffff8010815c:	48 89 c8             	mov    %rcx,%rax
ffffffff8010815f:	48 c1 e0 02          	shl    $0x2,%rax
ffffffff80108163:	48 01 c8             	add    %rcx,%rax
ffffffff80108166:	48 01 c0             	add    %rax,%rax
ffffffff80108169:	48 01 f0             	add    %rsi,%rax
ffffffff8010816c:	48 8b 0a             	mov    (%rdx),%rcx
ffffffff8010816f:	48 89 08             	mov    %rcx,(%rax)
ffffffff80108172:	0f b7 52 08          	movzwl 0x8(%rdx),%edx
ffffffff80108176:	66 89 50 08          	mov    %dx,0x8(%rax)
ffffffff8010817a:	e9 c1 00 00 00       	jmpq   ffffffff80108240 <madt_init+0x22e>
ffffffff8010817f:	48 8b 45 f8          	mov    -0x8(%rbp),%rax
ffffffff80108183:	48 8d 50 20          	lea    0x20(%rax),%rdx
ffffffff80108187:	48 8b 45 f0          	mov    -0x10(%rbp),%rax
ffffffff8010818b:	48 01 d0             	add    %rdx,%rax
ffffffff8010818e:	48 8d 48 0c          	lea    0xc(%rax),%rcx
ffffffff80108192:	48 8b 35 bf 13 01 00 	mov    0x113bf(%rip),%rsi        # ffffffff80119558 <madt_info+0x18>
ffffffff80108199:	0f b6 05 a2 13 01 00 	movzbl 0x113a2(%rip),%eax        # ffffffff80119542 <madt_info+0x2>
ffffffff801081a0:	8d 50 01             	lea    0x1(%rax),%edx
ffffffff801081a3:	88 15 99 13 01 00    	mov    %dl,0x11399(%rip)        # ffffffff80119542 <madt_info+0x2>
ffffffff801081a9:	0f b6 c0             	movzbl %al,%eax
ffffffff801081ac:	48 c1 e0 03          	shl    $0x3,%rax
ffffffff801081b0:	48 8d 14 06          	lea    (%rsi,%rax,1),%rdx
ffffffff801081b4:	48 8b 01             	mov    (%rcx),%rax
ffffffff801081b7:	48 89 02             	mov    %rax,(%rdx)
ffffffff801081ba:	e9 81 00 00 00       	jmpq   ffffffff80108240 <madt_init+0x22e>
ffffffff801081bf:	48 8b 45 f8          	mov    -0x8(%rbp),%rax
ffffffff801081c3:	48 8d 50 20          	lea    0x20(%rax),%rdx
ffffffff801081c7:	48 8b 45 f0          	mov    -0x10(%rbp),%rax
ffffffff801081cb:	48 01 d0             	add    %rdx,%rax
ffffffff801081ce:	48 8d 48 0c          	lea    0xc(%rax),%rcx
ffffffff801081d2:	48 8b 35 87 13 01 00 	mov    0x11387(%rip),%rsi        # ffffffff80119560 <madt_info+0x20>
ffffffff801081d9:	0f b6 05 63 13 01 00 	movzbl 0x11363(%rip),%eax        # ffffffff80119543 <madt_info+0x3>
ffffffff801081e0:	8d 50 01             	lea    0x1(%rax),%edx
ffffffff801081e3:	88 15 5a 13 01 00    	mov    %dl,0x1135a(%rip)        # ffffffff80119543 <madt_info+0x3>
ffffffff801081e9:	0f b6 c0             	movzbl %al,%eax
ffffffff801081ec:	48 c1 e0 02          	shl    $0x2,%rax
ffffffff801081f0:	48 8d 14 06          	lea    (%rsi,%rax,1),%rdx
ffffffff801081f4:	8b 01                	mov    (%rcx),%eax
ffffffff801081f6:	89 02                	mov    %eax,(%rdx)
ffffffff801081f8:	eb 46                	jmp    ffffffff80108240 <madt_init+0x22e>
ffffffff801081fa:	48 8b 45 f8          	mov    -0x8(%rbp),%rax
ffffffff801081fe:	48 8d 50 20          	lea    0x20(%rax),%rdx
ffffffff80108202:	48 8b 45 f0          	mov    -0x10(%rbp),%rax
ffffffff80108206:	48 01 d0             	add    %rdx,%rax
ffffffff80108209:	48 8d 50 0c          	lea    0xc(%rax),%rdx
ffffffff8010820d:	48 8b 35 54 13 01 00 	mov    0x11354(%rip),%rsi        # ffffffff80119568 <madt_info+0x28>
ffffffff80108214:	0f b6 05 29 13 01 00 	movzbl 0x11329(%rip),%eax        # ffffffff80119544 <madt_info+0x4>
ffffffff8010821b:	8d 48 01             	lea    0x1(%rax),%ecx
ffffffff8010821e:	88 0d 20 13 01 00    	mov    %cl,0x11320(%rip)        # ffffffff80119544 <madt_info+0x4>
ffffffff80108224:	0f b6 c8             	movzbl %al,%ecx
ffffffff80108227:	48 89 c8             	mov    %rcx,%rax
ffffffff8010822a:	48 01 c0             	add    %rax,%rax
ffffffff8010822d:	48 01 c8             	add    %rcx,%rax
ffffffff80108230:	48 01 f0             	add    %rsi,%rax
ffffffff80108233:	0f b7 0a             	movzwl (%rdx),%ecx
ffffffff80108236:	66 89 08             	mov    %cx,(%rax)
ffffffff80108239:	0f b6 52 02          	movzbl 0x2(%rdx),%edx
ffffffff8010823d:	88 50 02             	mov    %dl,0x2(%rax)
ffffffff80108240:	0f b6 45 ee          	movzbl -0x12(%rbp),%eax
ffffffff80108244:	83 e8 03             	sub    $0x3,%eax
ffffffff80108247:	48 98                	cltq   
ffffffff80108249:	48 01 45 f8          	add    %rax,-0x8(%rbp)
ffffffff8010824d:	48 83 45 f8 01       	addq   $0x1,-0x8(%rbp)
ffffffff80108252:	48 8b 45 f0          	mov    -0x10(%rbp),%rax
ffffffff80108256:	8b 40 04             	mov    0x4(%rax),%eax
ffffffff80108259:	89 c0                	mov    %eax,%eax
ffffffff8010825b:	48 83 e8 2c          	sub    $0x2c,%rax
ffffffff8010825f:	48 39 45 f8          	cmp    %rax,-0x8(%rbp)
ffffffff80108263:	0f 82 30 fe ff ff    	jb     ffffffff80108099 <madt_init+0x87>
ffffffff80108269:	0f b6 05 d0 12 01 00 	movzbl 0x112d0(%rip),%eax        # ffffffff80119540 <madt_info>
ffffffff80108270:	0f b6 c0             	movzbl %al,%eax
ffffffff80108273:	89 c6                	mov    %eax,%esi
ffffffff80108275:	48 c7 c7 90 c4 10 80 	mov    $0xffffffff8010c490,%rdi
ffffffff8010827c:	b8 00 00 00 00       	mov    $0x0,%eax
ffffffff80108281:	e8 f8 08 00 00       	callq  ffffffff80108b7e <kvprintf>
ffffffff80108286:	90                   	nop
ffffffff80108287:	c9                   	leaveq 
ffffffff80108288:	c3                   	retq   

ffffffff80108289 <memset8>:
ffffffff80108289:	55                   	push   %rbp
ffffffff8010828a:	48 89 e5             	mov    %rsp,%rbp
ffffffff8010828d:	48 83 ec 28          	sub    $0x28,%rsp
ffffffff80108291:	48 89 7d e8          	mov    %rdi,-0x18(%rbp)
ffffffff80108295:	89 f0                	mov    %esi,%eax
ffffffff80108297:	48 89 55 d8          	mov    %rdx,-0x28(%rbp)
ffffffff8010829b:	88 45 e4             	mov    %al,-0x1c(%rbp)
ffffffff8010829e:	48 c7 45 f8 00 00 00 	movq   $0x0,-0x8(%rbp)
ffffffff801082a5:	00 
ffffffff801082a6:	eb 17                	jmp    ffffffff801082bf <memset8+0x36>
ffffffff801082a8:	48 8b 45 e8          	mov    -0x18(%rbp),%rax
ffffffff801082ac:	48 8d 50 01          	lea    0x1(%rax),%rdx
ffffffff801082b0:	48 89 55 e8          	mov    %rdx,-0x18(%rbp)
ffffffff801082b4:	0f b6 55 e4          	movzbl -0x1c(%rbp),%edx
ffffffff801082b8:	88 10                	mov    %dl,(%rax)
ffffffff801082ba:	48 83 45 f8 01       	addq   $0x1,-0x8(%rbp)
ffffffff801082bf:	48 8b 45 f8          	mov    -0x8(%rbp),%rax
ffffffff801082c3:	48 3b 45 d8          	cmp    -0x28(%rbp),%rax
ffffffff801082c7:	72 df                	jb     ffffffff801082a8 <memset8+0x1f>
ffffffff801082c9:	90                   	nop
ffffffff801082ca:	90                   	nop
ffffffff801082cb:	c9                   	leaveq 
ffffffff801082cc:	c3                   	retq   

ffffffff801082cd <memset16>:
ffffffff801082cd:	55                   	push   %rbp
ffffffff801082ce:	48 89 e5             	mov    %rsp,%rbp
ffffffff801082d1:	48 83 ec 28          	sub    $0x28,%rsp
ffffffff801082d5:	48 89 7d e8          	mov    %rdi,-0x18(%rbp)
ffffffff801082d9:	89 f0                	mov    %esi,%eax
ffffffff801082db:	48 89 55 d8          	mov    %rdx,-0x28(%rbp)
ffffffff801082df:	66 89 45 e4          	mov    %ax,-0x1c(%rbp)
ffffffff801082e3:	48 c7 45 f8 00 00 00 	movq   $0x0,-0x8(%rbp)
ffffffff801082ea:	00 
ffffffff801082eb:	eb 18                	jmp    ffffffff80108305 <memset16+0x38>
ffffffff801082ed:	48 8b 45 e8          	mov    -0x18(%rbp),%rax
ffffffff801082f1:	48 8d 50 02          	lea    0x2(%rax),%rdx
ffffffff801082f5:	48 89 55 e8          	mov    %rdx,-0x18(%rbp)
ffffffff801082f9:	0f b7 55 e4          	movzwl -0x1c(%rbp),%edx
ffffffff801082fd:	66 89 10             	mov    %dx,(%rax)
ffffffff80108300:	48 83 45 f8 01       	addq   $0x1,-0x8(%rbp)
ffffffff80108305:	48 8b 45 f8          	mov    -0x8(%rbp),%rax
ffffffff80108309:	48 3b 45 d8          	cmp    -0x28(%rbp),%rax
ffffffff8010830d:	72 de                	jb     ffffffff801082ed <memset16+0x20>
ffffffff8010830f:	90                   	nop
ffffffff80108310:	90                   	nop
ffffffff80108311:	c9                   	leaveq 
ffffffff80108312:	c3                   	retq   

ffffffff80108313 <memset32>:
ffffffff80108313:	55                   	push   %rbp
ffffffff80108314:	48 89 e5             	mov    %rsp,%rbp
ffffffff80108317:	48 83 ec 28          	sub    $0x28,%rsp
ffffffff8010831b:	48 89 7d e8          	mov    %rdi,-0x18(%rbp)
ffffffff8010831f:	89 75 e4             	mov    %esi,-0x1c(%rbp)
ffffffff80108322:	48 89 55 d8          	mov    %rdx,-0x28(%rbp)
ffffffff80108326:	48 c7 45 f8 00 00 00 	movq   $0x0,-0x8(%rbp)
ffffffff8010832d:	00 
ffffffff8010832e:	eb 16                	jmp    ffffffff80108346 <memset32+0x33>
ffffffff80108330:	48 8b 45 e8          	mov    -0x18(%rbp),%rax
ffffffff80108334:	48 8d 50 04          	lea    0x4(%rax),%rdx
ffffffff80108338:	48 89 55 e8          	mov    %rdx,-0x18(%rbp)
ffffffff8010833c:	8b 55 e4             	mov    -0x1c(%rbp),%edx
ffffffff8010833f:	89 10                	mov    %edx,(%rax)
ffffffff80108341:	48 83 45 f8 01       	addq   $0x1,-0x8(%rbp)
ffffffff80108346:	48 8b 45 f8          	mov    -0x8(%rbp),%rax
ffffffff8010834a:	48 3b 45 d8          	cmp    -0x28(%rbp),%rax
ffffffff8010834e:	72 e0                	jb     ffffffff80108330 <memset32+0x1d>
ffffffff80108350:	90                   	nop
ffffffff80108351:	90                   	nop
ffffffff80108352:	c9                   	leaveq 
ffffffff80108353:	c3                   	retq   

ffffffff80108354 <memset64>:
ffffffff80108354:	55                   	push   %rbp
ffffffff80108355:	48 89 e5             	mov    %rsp,%rbp
ffffffff80108358:	48 83 ec 28          	sub    $0x28,%rsp
ffffffff8010835c:	48 89 7d e8          	mov    %rdi,-0x18(%rbp)
ffffffff80108360:	48 89 75 e0          	mov    %rsi,-0x20(%rbp)
ffffffff80108364:	48 89 55 d8          	mov    %rdx,-0x28(%rbp)
ffffffff80108368:	48 c7 45 f8 00 00 00 	movq   $0x0,-0x8(%rbp)
ffffffff8010836f:	00 
ffffffff80108370:	eb 18                	jmp    ffffffff8010838a <memset64+0x36>
ffffffff80108372:	48 8b 45 e8          	mov    -0x18(%rbp),%rax
ffffffff80108376:	48 8d 50 08          	lea    0x8(%rax),%rdx
ffffffff8010837a:	48 89 55 e8          	mov    %rdx,-0x18(%rbp)
ffffffff8010837e:	48 8b 55 e0          	mov    -0x20(%rbp),%rdx
ffffffff80108382:	48 89 10             	mov    %rdx,(%rax)
ffffffff80108385:	48 83 45 f8 01       	addq   $0x1,-0x8(%rbp)
ffffffff8010838a:	48 8b 45 f8          	mov    -0x8(%rbp),%rax
ffffffff8010838e:	48 3b 45 d8          	cmp    -0x28(%rbp),%rax
ffffffff80108392:	72 de                	jb     ffffffff80108372 <memset64+0x1e>
ffffffff80108394:	90                   	nop
ffffffff80108395:	90                   	nop
ffffffff80108396:	c9                   	leaveq 
ffffffff80108397:	c3                   	retq   

ffffffff80108398 <memcpy8>:
ffffffff80108398:	55                   	push   %rbp
ffffffff80108399:	48 89 e5             	mov    %rsp,%rbp
ffffffff8010839c:	48 83 ec 28          	sub    $0x28,%rsp
ffffffff801083a0:	48 89 7d e8          	mov    %rdi,-0x18(%rbp)
ffffffff801083a4:	48 89 75 e0          	mov    %rsi,-0x20(%rbp)
ffffffff801083a8:	48 89 55 d8          	mov    %rdx,-0x28(%rbp)
ffffffff801083ac:	48 c7 45 f8 00 00 00 	movq   $0x0,-0x8(%rbp)
ffffffff801083b3:	00 
ffffffff801083b4:	eb 20                	jmp    ffffffff801083d6 <memcpy8+0x3e>
ffffffff801083b6:	48 8b 55 e0          	mov    -0x20(%rbp),%rdx
ffffffff801083ba:	48 8b 45 f8          	mov    -0x8(%rbp),%rax
ffffffff801083be:	48 01 d0             	add    %rdx,%rax
ffffffff801083c1:	48 8b 4d e8          	mov    -0x18(%rbp),%rcx
ffffffff801083c5:	48 8b 55 f8          	mov    -0x8(%rbp),%rdx
ffffffff801083c9:	48 01 ca             	add    %rcx,%rdx
ffffffff801083cc:	0f b6 00             	movzbl (%rax),%eax
ffffffff801083cf:	88 02                	mov    %al,(%rdx)
ffffffff801083d1:	48 83 45 f8 01       	addq   $0x1,-0x8(%rbp)
ffffffff801083d6:	48 8b 45 f8          	mov    -0x8(%rbp),%rax
ffffffff801083da:	48 3b 45 d8          	cmp    -0x28(%rbp),%rax
ffffffff801083de:	72 d6                	jb     ffffffff801083b6 <memcpy8+0x1e>
ffffffff801083e0:	90                   	nop
ffffffff801083e1:	90                   	nop
ffffffff801083e2:	c9                   	leaveq 
ffffffff801083e3:	c3                   	retq   

ffffffff801083e4 <memcpy16>:
ffffffff801083e4:	55                   	push   %rbp
ffffffff801083e5:	48 89 e5             	mov    %rsp,%rbp
ffffffff801083e8:	48 83 ec 28          	sub    $0x28,%rsp
ffffffff801083ec:	48 89 7d e8          	mov    %rdi,-0x18(%rbp)
ffffffff801083f0:	48 89 75 e0          	mov    %rsi,-0x20(%rbp)
ffffffff801083f4:	48 89 55 d8          	mov    %rdx,-0x28(%rbp)
ffffffff801083f8:	48 c7 45 f8 00 00 00 	movq   $0x0,-0x8(%rbp)
ffffffff801083ff:	00 
ffffffff80108400:	eb 29                	jmp    ffffffff8010842b <memcpy16+0x47>
ffffffff80108402:	48 8b 45 f8          	mov    -0x8(%rbp),%rax
ffffffff80108406:	48 8d 14 00          	lea    (%rax,%rax,1),%rdx
ffffffff8010840a:	48 8b 45 e0          	mov    -0x20(%rbp),%rax
ffffffff8010840e:	48 01 d0             	add    %rdx,%rax
ffffffff80108411:	48 8b 55 f8          	mov    -0x8(%rbp),%rdx
ffffffff80108415:	48 8d 0c 12          	lea    (%rdx,%rdx,1),%rcx
ffffffff80108419:	48 8b 55 e8          	mov    -0x18(%rbp),%rdx
ffffffff8010841d:	48 01 ca             	add    %rcx,%rdx
ffffffff80108420:	0f b7 00             	movzwl (%rax),%eax
ffffffff80108423:	66 89 02             	mov    %ax,(%rdx)
ffffffff80108426:	48 83 45 f8 01       	addq   $0x1,-0x8(%rbp)
ffffffff8010842b:	48 8b 45 f8          	mov    -0x8(%rbp),%rax
ffffffff8010842f:	48 3b 45 d8          	cmp    -0x28(%rbp),%rax
ffffffff80108433:	72 cd                	jb     ffffffff80108402 <memcpy16+0x1e>
ffffffff80108435:	90                   	nop
ffffffff80108436:	90                   	nop
ffffffff80108437:	c9                   	leaveq 
ffffffff80108438:	c3                   	retq   

ffffffff80108439 <memcpy32>:
ffffffff80108439:	55                   	push   %rbp
ffffffff8010843a:	48 89 e5             	mov    %rsp,%rbp
ffffffff8010843d:	48 83 ec 28          	sub    $0x28,%rsp
ffffffff80108441:	48 89 7d e8          	mov    %rdi,-0x18(%rbp)
ffffffff80108445:	48 89 75 e0          	mov    %rsi,-0x20(%rbp)
ffffffff80108449:	48 89 55 d8          	mov    %rdx,-0x28(%rbp)
ffffffff8010844d:	48 c7 45 f8 00 00 00 	movq   $0x0,-0x8(%rbp)
ffffffff80108454:	00 
ffffffff80108455:	eb 2f                	jmp    ffffffff80108486 <memcpy32+0x4d>
ffffffff80108457:	48 8b 45 f8          	mov    -0x8(%rbp),%rax
ffffffff8010845b:	48 8d 14 85 00 00 00 	lea    0x0(,%rax,4),%rdx
ffffffff80108462:	00 
ffffffff80108463:	48 8b 45 e0          	mov    -0x20(%rbp),%rax
ffffffff80108467:	48 01 d0             	add    %rdx,%rax
ffffffff8010846a:	48 8b 55 f8          	mov    -0x8(%rbp),%rdx
ffffffff8010846e:	48 8d 0c 95 00 00 00 	lea    0x0(,%rdx,4),%rcx
ffffffff80108475:	00 
ffffffff80108476:	48 8b 55 e8          	mov    -0x18(%rbp),%rdx
ffffffff8010847a:	48 01 ca             	add    %rcx,%rdx
ffffffff8010847d:	8b 00                	mov    (%rax),%eax
ffffffff8010847f:	89 02                	mov    %eax,(%rdx)
ffffffff80108481:	48 83 45 f8 01       	addq   $0x1,-0x8(%rbp)
ffffffff80108486:	48 8b 45 f8          	mov    -0x8(%rbp),%rax
ffffffff8010848a:	48 3b 45 d8          	cmp    -0x28(%rbp),%rax
ffffffff8010848e:	72 c7                	jb     ffffffff80108457 <memcpy32+0x1e>
ffffffff80108490:	90                   	nop
ffffffff80108491:	90                   	nop
ffffffff80108492:	c9                   	leaveq 
ffffffff80108493:	c3                   	retq   

ffffffff80108494 <memcpy64>:
ffffffff80108494:	55                   	push   %rbp
ffffffff80108495:	48 89 e5             	mov    %rsp,%rbp
ffffffff80108498:	48 83 ec 28          	sub    $0x28,%rsp
ffffffff8010849c:	48 89 7d e8          	mov    %rdi,-0x18(%rbp)
ffffffff801084a0:	48 89 75 e0          	mov    %rsi,-0x20(%rbp)
ffffffff801084a4:	48 89 55 d8          	mov    %rdx,-0x28(%rbp)
ffffffff801084a8:	48 c7 45 f8 00 00 00 	movq   $0x0,-0x8(%rbp)
ffffffff801084af:	00 
ffffffff801084b0:	eb 31                	jmp    ffffffff801084e3 <memcpy64+0x4f>
ffffffff801084b2:	48 8b 45 f8          	mov    -0x8(%rbp),%rax
ffffffff801084b6:	48 8d 14 c5 00 00 00 	lea    0x0(,%rax,8),%rdx
ffffffff801084bd:	00 
ffffffff801084be:	48 8b 45 e0          	mov    -0x20(%rbp),%rax
ffffffff801084c2:	48 01 d0             	add    %rdx,%rax
ffffffff801084c5:	48 8b 55 f8          	mov    -0x8(%rbp),%rdx
ffffffff801084c9:	48 8d 0c d5 00 00 00 	lea    0x0(,%rdx,8),%rcx
ffffffff801084d0:	00 
ffffffff801084d1:	48 8b 55 e8          	mov    -0x18(%rbp),%rdx
ffffffff801084d5:	48 01 ca             	add    %rcx,%rdx
ffffffff801084d8:	48 8b 00             	mov    (%rax),%rax
ffffffff801084db:	48 89 02             	mov    %rax,(%rdx)
ffffffff801084de:	48 83 45 f8 01       	addq   $0x1,-0x8(%rbp)
ffffffff801084e3:	48 8b 45 f8          	mov    -0x8(%rbp),%rax
ffffffff801084e7:	48 3b 45 d8          	cmp    -0x28(%rbp),%rax
ffffffff801084eb:	72 c5                	jb     ffffffff801084b2 <memcpy64+0x1e>
ffffffff801084ed:	90                   	nop
ffffffff801084ee:	90                   	nop
ffffffff801084ef:	c9                   	leaveq 
ffffffff801084f0:	c3                   	retq   

ffffffff801084f1 <itob>:
ffffffff801084f1:	55                   	push   %rbp
ffffffff801084f2:	48 89 e5             	mov    %rsp,%rbp
ffffffff801084f5:	48 83 ec 20          	sub    $0x20,%rsp
ffffffff801084f9:	48 89 7d e8          	mov    %rdi,-0x18(%rbp)
ffffffff801084fd:	48 89 75 e0          	mov    %rsi,-0x20(%rbp)
ffffffff80108501:	48 c7 45 f8 b1 95 11 	movq   $0xffffffff801195b1,-0x8(%rbp)
ffffffff80108508:	80 
ffffffff80108509:	48 8b 45 f8          	mov    -0x8(%rbp),%rax
ffffffff8010850d:	c6 00 00             	movb   $0x0,(%rax)
ffffffff80108510:	48 8b 45 e8          	mov    -0x18(%rbp),%rax
ffffffff80108514:	ba 00 00 00 00       	mov    $0x0,%edx
ffffffff80108519:	48 f7 75 e0          	divq   -0x20(%rbp)
ffffffff8010851d:	48 89 d0             	mov    %rdx,%rax
ffffffff80108520:	48 83 6d f8 01       	subq   $0x1,-0x8(%rbp)
ffffffff80108525:	0f b6 90 40 ef 10 80 	movzbl -0x7fef10c0(%rax),%edx
ffffffff8010852c:	48 8b 45 f8          	mov    -0x8(%rbp),%rax
ffffffff80108530:	88 10                	mov    %dl,(%rax)
ffffffff80108532:	48 8b 45 e8          	mov    -0x18(%rbp),%rax
ffffffff80108536:	ba 00 00 00 00       	mov    $0x0,%edx
ffffffff8010853b:	48 f7 75 e0          	divq   -0x20(%rbp)
ffffffff8010853f:	48 89 45 e8          	mov    %rax,-0x18(%rbp)
ffffffff80108543:	48 83 7d e8 00       	cmpq   $0x0,-0x18(%rbp)
ffffffff80108548:	75 c6                	jne    ffffffff80108510 <itob+0x1f>
ffffffff8010854a:	48 8b 45 f8          	mov    -0x8(%rbp),%rax
ffffffff8010854e:	c9                   	leaveq 
ffffffff8010854f:	c3                   	retq   

ffffffff80108550 <strlen>:
ffffffff80108550:	55                   	push   %rbp
ffffffff80108551:	48 89 e5             	mov    %rsp,%rbp
ffffffff80108554:	48 83 ec 18          	sub    $0x18,%rsp
ffffffff80108558:	48 89 7d e8          	mov    %rdi,-0x18(%rbp)
ffffffff8010855c:	48 c7 45 f8 00 00 00 	movq   $0x0,-0x8(%rbp)
ffffffff80108563:	00 
ffffffff80108564:	eb 05                	jmp    ffffffff8010856b <strlen+0x1b>
ffffffff80108566:	48 83 45 f8 01       	addq   $0x1,-0x8(%rbp)
ffffffff8010856b:	48 8b 55 e8          	mov    -0x18(%rbp),%rdx
ffffffff8010856f:	48 8b 45 f8          	mov    -0x8(%rbp),%rax
ffffffff80108573:	48 01 d0             	add    %rdx,%rax
ffffffff80108576:	0f b6 00             	movzbl (%rax),%eax
ffffffff80108579:	84 c0                	test   %al,%al
ffffffff8010857b:	75 e9                	jne    ffffffff80108566 <strlen+0x16>
ffffffff8010857d:	48 8b 45 f8          	mov    -0x8(%rbp),%rax
ffffffff80108581:	c9                   	leaveq 
ffffffff80108582:	c3                   	retq   

ffffffff80108583 <strcmp>:
ffffffff80108583:	55                   	push   %rbp
ffffffff80108584:	48 89 e5             	mov    %rsp,%rbp
ffffffff80108587:	48 83 ec 10          	sub    $0x10,%rsp
ffffffff8010858b:	48 89 7d f8          	mov    %rdi,-0x8(%rbp)
ffffffff8010858f:	48 89 75 f0          	mov    %rsi,-0x10(%rbp)
ffffffff80108593:	eb 0a                	jmp    ffffffff8010859f <strcmp+0x1c>
ffffffff80108595:	48 83 45 f8 01       	addq   $0x1,-0x8(%rbp)
ffffffff8010859a:	48 83 45 f0 01       	addq   $0x1,-0x10(%rbp)
ffffffff8010859f:	48 8b 45 f8          	mov    -0x8(%rbp),%rax
ffffffff801085a3:	0f b6 00             	movzbl (%rax),%eax
ffffffff801085a6:	84 c0                	test   %al,%al
ffffffff801085a8:	74 12                	je     ffffffff801085bc <strcmp+0x39>
ffffffff801085aa:	48 8b 45 f8          	mov    -0x8(%rbp),%rax
ffffffff801085ae:	0f b6 10             	movzbl (%rax),%edx
ffffffff801085b1:	48 8b 45 f0          	mov    -0x10(%rbp),%rax
ffffffff801085b5:	0f b6 00             	movzbl (%rax),%eax
ffffffff801085b8:	38 c2                	cmp    %al,%dl
ffffffff801085ba:	74 d9                	je     ffffffff80108595 <strcmp+0x12>
ffffffff801085bc:	48 8b 45 f8          	mov    -0x8(%rbp),%rax
ffffffff801085c0:	0f b6 00             	movzbl (%rax),%eax
ffffffff801085c3:	0f be d0             	movsbl %al,%edx
ffffffff801085c6:	48 8b 45 f0          	mov    -0x10(%rbp),%rax
ffffffff801085ca:	0f b6 00             	movzbl (%rax),%eax
ffffffff801085cd:	0f be c8             	movsbl %al,%ecx
ffffffff801085d0:	89 d0                	mov    %edx,%eax
ffffffff801085d2:	29 c8                	sub    %ecx,%eax
ffffffff801085d4:	c9                   	leaveq 
ffffffff801085d5:	c3                   	retq   

ffffffff801085d6 <strncmp>:
ffffffff801085d6:	55                   	push   %rbp
ffffffff801085d7:	48 89 e5             	mov    %rsp,%rbp
ffffffff801085da:	48 83 ec 28          	sub    $0x28,%rsp
ffffffff801085de:	48 89 7d e8          	mov    %rdi,-0x18(%rbp)
ffffffff801085e2:	48 89 75 e0          	mov    %rsi,-0x20(%rbp)
ffffffff801085e6:	48 89 55 d8          	mov    %rdx,-0x28(%rbp)
ffffffff801085ea:	48 c7 45 f8 00 00 00 	movq   $0x0,-0x8(%rbp)
ffffffff801085f1:	00 
ffffffff801085f2:	eb 2c                	jmp    ffffffff80108620 <strncmp+0x4a>
ffffffff801085f4:	48 8b 55 e8          	mov    -0x18(%rbp),%rdx
ffffffff801085f8:	48 8b 45 f8          	mov    -0x8(%rbp),%rax
ffffffff801085fc:	48 01 d0             	add    %rdx,%rax
ffffffff801085ff:	0f b6 10             	movzbl (%rax),%edx
ffffffff80108602:	48 8b 4d e0          	mov    -0x20(%rbp),%rcx
ffffffff80108606:	48 8b 45 f8          	mov    -0x8(%rbp),%rax
ffffffff8010860a:	48 01 c8             	add    %rcx,%rax
ffffffff8010860d:	0f b6 00             	movzbl (%rax),%eax
ffffffff80108610:	38 c2                	cmp    %al,%dl
ffffffff80108612:	74 07                	je     ffffffff8010861b <strncmp+0x45>
ffffffff80108614:	b8 01 00 00 00       	mov    $0x1,%eax
ffffffff80108619:	eb 14                	jmp    ffffffff8010862f <strncmp+0x59>
ffffffff8010861b:	48 83 45 f8 01       	addq   $0x1,-0x8(%rbp)
ffffffff80108620:	48 8b 45 f8          	mov    -0x8(%rbp),%rax
ffffffff80108624:	48 3b 45 d8          	cmp    -0x28(%rbp),%rax
ffffffff80108628:	72 ca                	jb     ffffffff801085f4 <strncmp+0x1e>
ffffffff8010862a:	b8 00 00 00 00       	mov    $0x0,%eax
ffffffff8010862f:	c9                   	leaveq 
ffffffff80108630:	c3                   	retq   

ffffffff80108631 <strcpy>:
ffffffff80108631:	55                   	push   %rbp
ffffffff80108632:	48 89 e5             	mov    %rsp,%rbp
ffffffff80108635:	48 83 ec 20          	sub    $0x20,%rsp
ffffffff80108639:	48 89 7d e8          	mov    %rdi,-0x18(%rbp)
ffffffff8010863d:	48 89 75 e0          	mov    %rsi,-0x20(%rbp)
ffffffff80108641:	48 c7 45 f8 00 00 00 	movq   $0x0,-0x8(%rbp)
ffffffff80108648:	00 
ffffffff80108649:	eb 20                	jmp    ffffffff8010866b <strcpy+0x3a>
ffffffff8010864b:	48 8b 55 e0          	mov    -0x20(%rbp),%rdx
ffffffff8010864f:	48 8b 45 f8          	mov    -0x8(%rbp),%rax
ffffffff80108653:	48 01 d0             	add    %rdx,%rax
ffffffff80108656:	48 8b 4d e8          	mov    -0x18(%rbp),%rcx
ffffffff8010865a:	48 8b 55 f8          	mov    -0x8(%rbp),%rdx
ffffffff8010865e:	48 01 ca             	add    %rcx,%rdx
ffffffff80108661:	0f b6 00             	movzbl (%rax),%eax
ffffffff80108664:	88 02                	mov    %al,(%rdx)
ffffffff80108666:	48 83 45 f8 01       	addq   $0x1,-0x8(%rbp)
ffffffff8010866b:	48 8b 55 e0          	mov    -0x20(%rbp),%rdx
ffffffff8010866f:	48 8b 45 f8          	mov    -0x8(%rbp),%rax
ffffffff80108673:	48 01 d0             	add    %rdx,%rax
ffffffff80108676:	0f b6 00             	movzbl (%rax),%eax
ffffffff80108679:	84 c0                	test   %al,%al
ffffffff8010867b:	75 ce                	jne    ffffffff8010864b <strcpy+0x1a>
ffffffff8010867d:	48 8b 55 e8          	mov    -0x18(%rbp),%rdx
ffffffff80108681:	48 8b 45 f8          	mov    -0x8(%rbp),%rax
ffffffff80108685:	48 01 d0             	add    %rdx,%rax
ffffffff80108688:	c6 00 00             	movb   $0x0,(%rax)
ffffffff8010868b:	48 8b 45 e8          	mov    -0x18(%rbp),%rax
ffffffff8010868f:	c9                   	leaveq 
ffffffff80108690:	c3                   	retq   

ffffffff80108691 <strncpy>:
ffffffff80108691:	55                   	push   %rbp
ffffffff80108692:	48 89 e5             	mov    %rsp,%rbp
ffffffff80108695:	48 83 ec 28          	sub    $0x28,%rsp
ffffffff80108699:	48 89 7d e8          	mov    %rdi,-0x18(%rbp)
ffffffff8010869d:	48 89 75 e0          	mov    %rsi,-0x20(%rbp)
ffffffff801086a1:	48 89 55 d8          	mov    %rdx,-0x28(%rbp)
ffffffff801086a5:	48 c7 45 f8 00 00 00 	movq   $0x0,-0x8(%rbp)
ffffffff801086ac:	00 
ffffffff801086ad:	eb 20                	jmp    ffffffff801086cf <strncpy+0x3e>
ffffffff801086af:	48 8b 55 e0          	mov    -0x20(%rbp),%rdx
ffffffff801086b3:	48 8b 45 f8          	mov    -0x8(%rbp),%rax
ffffffff801086b7:	48 01 d0             	add    %rdx,%rax
ffffffff801086ba:	48 8b 4d e8          	mov    -0x18(%rbp),%rcx
ffffffff801086be:	48 8b 55 f8          	mov    -0x8(%rbp),%rdx
ffffffff801086c2:	48 01 ca             	add    %rcx,%rdx
ffffffff801086c5:	0f b6 00             	movzbl (%rax),%eax
ffffffff801086c8:	88 02                	mov    %al,(%rdx)
ffffffff801086ca:	48 83 45 f8 01       	addq   $0x1,-0x8(%rbp)
ffffffff801086cf:	48 8b 45 f8          	mov    -0x8(%rbp),%rax
ffffffff801086d3:	48 3b 45 d8          	cmp    -0x28(%rbp),%rax
ffffffff801086d7:	73 27                	jae    ffffffff80108700 <strncpy+0x6f>
ffffffff801086d9:	48 8b 55 e0          	mov    -0x20(%rbp),%rdx
ffffffff801086dd:	48 8b 45 f8          	mov    -0x8(%rbp),%rax
ffffffff801086e1:	48 01 d0             	add    %rdx,%rax
ffffffff801086e4:	0f b6 00             	movzbl (%rax),%eax
ffffffff801086e7:	84 c0                	test   %al,%al
ffffffff801086e9:	75 c4                	jne    ffffffff801086af <strncpy+0x1e>
ffffffff801086eb:	eb 13                	jmp    ffffffff80108700 <strncpy+0x6f>
ffffffff801086ed:	48 8b 55 e8          	mov    -0x18(%rbp),%rdx
ffffffff801086f1:	48 8b 45 f8          	mov    -0x8(%rbp),%rax
ffffffff801086f5:	48 01 d0             	add    %rdx,%rax
ffffffff801086f8:	c6 00 00             	movb   $0x0,(%rax)
ffffffff801086fb:	48 83 45 f8 01       	addq   $0x1,-0x8(%rbp)
ffffffff80108700:	48 8b 45 f8          	mov    -0x8(%rbp),%rax
ffffffff80108704:	48 3b 45 d8          	cmp    -0x28(%rbp),%rax
ffffffff80108708:	72 e3                	jb     ffffffff801086ed <strncpy+0x5c>
ffffffff8010870a:	48 8b 45 e8          	mov    -0x18(%rbp),%rax
ffffffff8010870e:	c9                   	leaveq 
ffffffff8010870f:	c3                   	retq   

ffffffff80108710 <character_cnt>:
ffffffff80108710:	55                   	push   %rbp
ffffffff80108711:	48 89 e5             	mov    %rsp,%rbp
ffffffff80108714:	48 83 ec 20          	sub    $0x20,%rsp
ffffffff80108718:	48 89 7d e8          	mov    %rdi,-0x18(%rbp)
ffffffff8010871c:	89 f0                	mov    %esi,%eax
ffffffff8010871e:	88 45 e4             	mov    %al,-0x1c(%rbp)
ffffffff80108721:	c7 45 fc 00 00 00 00 	movl   $0x0,-0x4(%rbp)
ffffffff80108728:	48 c7 45 f0 00 00 00 	movq   $0x0,-0x10(%rbp)
ffffffff8010872f:	00 
ffffffff80108730:	eb 1c                	jmp    ffffffff8010874e <character_cnt+0x3e>
ffffffff80108732:	48 8b 55 e8          	mov    -0x18(%rbp),%rdx
ffffffff80108736:	48 8b 45 f0          	mov    -0x10(%rbp),%rax
ffffffff8010873a:	48 01 d0             	add    %rdx,%rax
ffffffff8010873d:	0f b6 00             	movzbl (%rax),%eax
ffffffff80108740:	38 45 e4             	cmp    %al,-0x1c(%rbp)
ffffffff80108743:	75 04                	jne    ffffffff80108749 <character_cnt+0x39>
ffffffff80108745:	83 45 fc 01          	addl   $0x1,-0x4(%rbp)
ffffffff80108749:	48 83 45 f0 01       	addq   $0x1,-0x10(%rbp)
ffffffff8010874e:	48 8b 45 e8          	mov    -0x18(%rbp),%rax
ffffffff80108752:	48 89 c7             	mov    %rax,%rdi
ffffffff80108755:	e8 f6 fd ff ff       	callq  ffffffff80108550 <strlen>
ffffffff8010875a:	48 39 45 f0          	cmp    %rax,-0x10(%rbp)
ffffffff8010875e:	72 d2                	jb     ffffffff80108732 <character_cnt+0x22>
ffffffff80108760:	8b 45 fc             	mov    -0x4(%rbp),%eax
ffffffff80108763:	c9                   	leaveq 
ffffffff80108764:	c3                   	retq   

ffffffff80108765 <strchr>:
ffffffff80108765:	55                   	push   %rbp
ffffffff80108766:	48 89 e5             	mov    %rsp,%rbp
ffffffff80108769:	48 83 ec 20          	sub    $0x20,%rsp
ffffffff8010876d:	48 89 7d e8          	mov    %rdi,-0x18(%rbp)
ffffffff80108771:	89 75 e4             	mov    %esi,-0x1c(%rbp)
ffffffff80108774:	48 c7 45 f8 00 00 00 	movq   $0x0,-0x8(%rbp)
ffffffff8010877b:	00 
ffffffff8010877c:	eb 28                	jmp    ffffffff801087a6 <strchr+0x41>
ffffffff8010877e:	48 8b 55 e8          	mov    -0x18(%rbp),%rdx
ffffffff80108782:	48 8b 45 f8          	mov    -0x8(%rbp),%rax
ffffffff80108786:	48 01 d0             	add    %rdx,%rax
ffffffff80108789:	0f b6 00             	movzbl (%rax),%eax
ffffffff8010878c:	0f be c0             	movsbl %al,%eax
ffffffff8010878f:	39 45 e4             	cmp    %eax,-0x1c(%rbp)
ffffffff80108792:	75 0d                	jne    ffffffff801087a1 <strchr+0x3c>
ffffffff80108794:	48 8b 55 e8          	mov    -0x18(%rbp),%rdx
ffffffff80108798:	48 8b 45 f8          	mov    -0x8(%rbp),%rax
ffffffff8010879c:	48 01 d0             	add    %rdx,%rax
ffffffff8010879f:	eb 2f                	jmp    ffffffff801087d0 <strchr+0x6b>
ffffffff801087a1:	48 83 45 f8 01       	addq   $0x1,-0x8(%rbp)
ffffffff801087a6:	48 8b 55 e8          	mov    -0x18(%rbp),%rdx
ffffffff801087aa:	48 8b 45 f8          	mov    -0x8(%rbp),%rax
ffffffff801087ae:	48 01 d0             	add    %rdx,%rax
ffffffff801087b1:	0f b6 00             	movzbl (%rax),%eax
ffffffff801087b4:	84 c0                	test   %al,%al
ffffffff801087b6:	75 c6                	jne    ffffffff8010877e <strchr+0x19>
ffffffff801087b8:	83 7d e4 00          	cmpl   $0x0,-0x1c(%rbp)
ffffffff801087bc:	75 0d                	jne    ffffffff801087cb <strchr+0x66>
ffffffff801087be:	48 8b 55 e8          	mov    -0x18(%rbp),%rdx
ffffffff801087c2:	48 8b 45 f8          	mov    -0x8(%rbp),%rax
ffffffff801087c6:	48 01 d0             	add    %rdx,%rax
ffffffff801087c9:	eb 05                	jmp    ffffffff801087d0 <strchr+0x6b>
ffffffff801087cb:	b8 00 00 00 00       	mov    $0x0,%eax
ffffffff801087d0:	c9                   	leaveq 
ffffffff801087d1:	c3                   	retq   

ffffffff801087d2 <strtok_r>:
ffffffff801087d2:	55                   	push   %rbp
ffffffff801087d3:	48 89 e5             	mov    %rsp,%rbp
ffffffff801087d6:	48 83 ec 28          	sub    $0x28,%rsp
ffffffff801087da:	48 89 7d e8          	mov    %rdi,-0x18(%rbp)
ffffffff801087de:	48 89 75 e0          	mov    %rsi,-0x20(%rbp)
ffffffff801087e2:	48 89 55 d8          	mov    %rdx,-0x28(%rbp)
ffffffff801087e6:	48 83 7d e8 00       	cmpq   $0x0,-0x18(%rbp)
ffffffff801087eb:	74 0a                	je     ffffffff801087f7 <strtok_r+0x25>
ffffffff801087ed:	48 8b 45 e8          	mov    -0x18(%rbp),%rax
ffffffff801087f1:	48 89 45 f8          	mov    %rax,-0x8(%rbp)
ffffffff801087f5:	eb 28                	jmp    ffffffff8010881f <strtok_r+0x4d>
ffffffff801087f7:	48 8b 45 d8          	mov    -0x28(%rbp),%rax
ffffffff801087fb:	48 8b 00             	mov    (%rax),%rax
ffffffff801087fe:	48 85 c0             	test   %rax,%rax
ffffffff80108801:	74 0d                	je     ffffffff80108810 <strtok_r+0x3e>
ffffffff80108803:	48 8b 45 d8          	mov    -0x28(%rbp),%rax
ffffffff80108807:	48 8b 00             	mov    (%rax),%rax
ffffffff8010880a:	48 89 45 f8          	mov    %rax,-0x8(%rbp)
ffffffff8010880e:	eb 0f                	jmp    ffffffff8010881f <strtok_r+0x4d>
ffffffff80108810:	b8 00 00 00 00       	mov    $0x0,%eax
ffffffff80108815:	e9 a7 00 00 00       	jmpq   ffffffff801088c1 <strtok_r+0xef>
ffffffff8010881a:	48 83 45 f8 01       	addq   $0x1,-0x8(%rbp)
ffffffff8010881f:	48 8b 45 f8          	mov    -0x8(%rbp),%rax
ffffffff80108823:	0f b6 00             	movzbl (%rax),%eax
ffffffff80108826:	84 c0                	test   %al,%al
ffffffff80108828:	74 1d                	je     ffffffff80108847 <strtok_r+0x75>
ffffffff8010882a:	48 8b 45 f8          	mov    -0x8(%rbp),%rax
ffffffff8010882e:	0f b6 00             	movzbl (%rax),%eax
ffffffff80108831:	0f be d0             	movsbl %al,%edx
ffffffff80108834:	48 8b 45 e0          	mov    -0x20(%rbp),%rax
ffffffff80108838:	89 d6                	mov    %edx,%esi
ffffffff8010883a:	48 89 c7             	mov    %rax,%rdi
ffffffff8010883d:	e8 23 ff ff ff       	callq  ffffffff80108765 <strchr>
ffffffff80108842:	48 85 c0             	test   %rax,%rax
ffffffff80108845:	75 d3                	jne    ffffffff8010881a <strtok_r+0x48>
ffffffff80108847:	48 8b 45 f8          	mov    -0x8(%rbp),%rax
ffffffff8010884b:	48 89 45 f0          	mov    %rax,-0x10(%rbp)
ffffffff8010884f:	eb 05                	jmp    ffffffff80108856 <strtok_r+0x84>
ffffffff80108851:	48 83 45 f0 01       	addq   $0x1,-0x10(%rbp)
ffffffff80108856:	48 8b 45 f0          	mov    -0x10(%rbp),%rax
ffffffff8010885a:	0f b6 00             	movzbl (%rax),%eax
ffffffff8010885d:	84 c0                	test   %al,%al
ffffffff8010885f:	74 1d                	je     ffffffff8010887e <strtok_r+0xac>
ffffffff80108861:	48 8b 45 f0          	mov    -0x10(%rbp),%rax
ffffffff80108865:	0f b6 00             	movzbl (%rax),%eax
ffffffff80108868:	0f be d0             	movsbl %al,%edx
ffffffff8010886b:	48 8b 45 e0          	mov    -0x20(%rbp),%rax
ffffffff8010886f:	89 d6                	mov    %edx,%esi
ffffffff80108871:	48 89 c7             	mov    %rax,%rdi
ffffffff80108874:	e8 ec fe ff ff       	callq  ffffffff80108765 <strchr>
ffffffff80108879:	48 85 c0             	test   %rax,%rax
ffffffff8010887c:	74 d3                	je     ffffffff80108851 <strtok_r+0x7f>
ffffffff8010887e:	48 8b 45 f0          	mov    -0x10(%rbp),%rax
ffffffff80108882:	0f b6 00             	movzbl (%rax),%eax
ffffffff80108885:	84 c0                	test   %al,%al
ffffffff80108887:	74 18                	je     ffffffff801088a1 <strtok_r+0xcf>
ffffffff80108889:	48 8b 45 f0          	mov    -0x10(%rbp),%rax
ffffffff8010888d:	c6 00 00             	movb   $0x0,(%rax)
ffffffff80108890:	48 8b 45 f0          	mov    -0x10(%rbp),%rax
ffffffff80108894:	48 8d 50 01          	lea    0x1(%rax),%rdx
ffffffff80108898:	48 8b 45 d8          	mov    -0x28(%rbp),%rax
ffffffff8010889c:	48 89 10             	mov    %rdx,(%rax)
ffffffff8010889f:	eb 0b                	jmp    ffffffff801088ac <strtok_r+0xda>
ffffffff801088a1:	48 8b 45 d8          	mov    -0x28(%rbp),%rax
ffffffff801088a5:	48 c7 00 00 00 00 00 	movq   $0x0,(%rax)
ffffffff801088ac:	48 8b 45 f0          	mov    -0x10(%rbp),%rax
ffffffff801088b0:	48 3b 45 f8          	cmp    -0x8(%rbp),%rax
ffffffff801088b4:	75 07                	jne    ffffffff801088bd <strtok_r+0xeb>
ffffffff801088b6:	b8 00 00 00 00       	mov    $0x0,%eax
ffffffff801088bb:	eb 04                	jmp    ffffffff801088c1 <strtok_r+0xef>
ffffffff801088bd:	48 8b 45 f8          	mov    -0x8(%rbp),%rax
ffffffff801088c1:	c9                   	leaveq 
ffffffff801088c2:	c3                   	retq   

ffffffff801088c3 <strtok>:
ffffffff801088c3:	55                   	push   %rbp
ffffffff801088c4:	48 89 e5             	mov    %rsp,%rbp
ffffffff801088c7:	48 83 ec 10          	sub    $0x10,%rsp
ffffffff801088cb:	48 89 7d f8          	mov    %rdi,-0x8(%rbp)
ffffffff801088cf:	48 89 75 f0          	mov    %rsi,-0x10(%rbp)
ffffffff801088d3:	48 8b 4d f0          	mov    -0x10(%rbp),%rcx
ffffffff801088d7:	48 8b 45 f8          	mov    -0x8(%rbp),%rax
ffffffff801088db:	48 c7 c2 b8 95 11 80 	mov    $0xffffffff801195b8,%rdx
ffffffff801088e2:	48 89 ce             	mov    %rcx,%rsi
ffffffff801088e5:	48 89 c7             	mov    %rax,%rdi
ffffffff801088e8:	e8 e5 fe ff ff       	callq  ffffffff801087d2 <strtok_r>
ffffffff801088ed:	c9                   	leaveq 
ffffffff801088ee:	c3                   	retq   

ffffffff801088ef <atoi>:
ffffffff801088ef:	55                   	push   %rbp
ffffffff801088f0:	48 89 e5             	mov    %rsp,%rbp
ffffffff801088f3:	48 83 ec 18          	sub    $0x18,%rsp
ffffffff801088f7:	48 89 7d e8          	mov    %rdi,-0x18(%rbp)
ffffffff801088fb:	c7 45 fc 00 00 00 00 	movl   $0x0,-0x4(%rbp)
ffffffff80108902:	48 c7 45 f0 00 00 00 	movq   $0x0,-0x10(%rbp)
ffffffff80108909:	00 
ffffffff8010890a:	eb 2c                	jmp    ffffffff80108938 <atoi+0x49>
ffffffff8010890c:	8b 55 fc             	mov    -0x4(%rbp),%edx
ffffffff8010890f:	89 d0                	mov    %edx,%eax
ffffffff80108911:	c1 e0 02             	shl    $0x2,%eax
ffffffff80108914:	01 d0                	add    %edx,%eax
ffffffff80108916:	01 c0                	add    %eax,%eax
ffffffff80108918:	89 c1                	mov    %eax,%ecx
ffffffff8010891a:	48 8b 55 e8          	mov    -0x18(%rbp),%rdx
ffffffff8010891e:	48 8b 45 f0          	mov    -0x10(%rbp),%rax
ffffffff80108922:	48 01 d0             	add    %rdx,%rax
ffffffff80108925:	0f b6 00             	movzbl (%rax),%eax
ffffffff80108928:	0f be c0             	movsbl %al,%eax
ffffffff8010892b:	01 c8                	add    %ecx,%eax
ffffffff8010892d:	83 e8 30             	sub    $0x30,%eax
ffffffff80108930:	89 45 fc             	mov    %eax,-0x4(%rbp)
ffffffff80108933:	48 83 45 f0 01       	addq   $0x1,-0x10(%rbp)
ffffffff80108938:	48 8b 45 e8          	mov    -0x18(%rbp),%rax
ffffffff8010893c:	48 89 c7             	mov    %rax,%rdi
ffffffff8010893f:	e8 0c fc ff ff       	callq  ffffffff80108550 <strlen>
ffffffff80108944:	48 39 45 f0          	cmp    %rax,-0x10(%rbp)
ffffffff80108948:	72 c2                	jb     ffffffff8010890c <atoi+0x1d>
ffffffff8010894a:	8b 45 fc             	mov    -0x4(%rbp),%eax
ffffffff8010894d:	c9                   	leaveq 
ffffffff8010894e:	c3                   	retq   

ffffffff8010894f <init_nvme>:
ffffffff8010894f:	55                   	push   %rbp
ffffffff80108950:	48 89 e5             	mov    %rsp,%rbp
ffffffff80108953:	48 83 ec 10          	sub    $0x10,%rsp
ffffffff80108957:	48 c7 45 f8 00 00 00 	movq   $0x0,-0x8(%rbp)
ffffffff8010895e:	00 
ffffffff8010895f:	e9 dd 00 00 00       	jmpq   ffffffff80108a41 <init_nvme+0xf2>
ffffffff80108964:	48 8b 0d 5d 0c 01 00 	mov    0x10c5d(%rip),%rcx        # ffffffff801195c8 <pci_devices>
ffffffff8010896b:	48 8b 55 f8          	mov    -0x8(%rbp),%rdx
ffffffff8010896f:	48 89 d0             	mov    %rdx,%rax
ffffffff80108972:	48 01 c0             	add    %rax,%rax
ffffffff80108975:	48 01 d0             	add    %rdx,%rax
ffffffff80108978:	48 c1 e0 02          	shl    $0x2,%rax
ffffffff8010897c:	48 01 c8             	add    %rcx,%rax
ffffffff8010897f:	0f b6 00             	movzbl (%rax),%eax
ffffffff80108982:	3c 01                	cmp    $0x1,%al
ffffffff80108984:	0f 85 b1 00 00 00    	jne    ffffffff80108a3b <init_nvme+0xec>
ffffffff8010898a:	48 8b 0d 37 0c 01 00 	mov    0x10c37(%rip),%rcx        # ffffffff801195c8 <pci_devices>
ffffffff80108991:	48 8b 55 f8          	mov    -0x8(%rbp),%rdx
ffffffff80108995:	48 89 d0             	mov    %rdx,%rax
ffffffff80108998:	48 01 c0             	add    %rax,%rax
ffffffff8010899b:	48 01 d0             	add    %rdx,%rax
ffffffff8010899e:	48 c1 e0 02          	shl    $0x2,%rax
ffffffff801089a2:	48 01 c8             	add    %rcx,%rax
ffffffff801089a5:	0f b6 40 01          	movzbl 0x1(%rax),%eax
ffffffff801089a9:	3c 08                	cmp    $0x8,%al
ffffffff801089ab:	0f 85 8a 00 00 00    	jne    ffffffff80108a3b <init_nvme+0xec>
ffffffff801089b1:	48 8b 0d 10 0c 01 00 	mov    0x10c10(%rip),%rcx        # ffffffff801195c8 <pci_devices>
ffffffff801089b8:	48 8b 55 f8          	mov    -0x8(%rbp),%rdx
ffffffff801089bc:	48 89 d0             	mov    %rdx,%rax
ffffffff801089bf:	48 01 c0             	add    %rax,%rax
ffffffff801089c2:	48 01 d0             	add    %rdx,%rax
ffffffff801089c5:	48 c1 e0 02          	shl    $0x2,%rax
ffffffff801089c9:	48 01 c8             	add    %rcx,%rax
ffffffff801089cc:	0f b6 40 02          	movzbl 0x2(%rax),%eax
ffffffff801089d0:	0f b6 c0             	movzbl %al,%eax
ffffffff801089d3:	83 f8 01             	cmp    $0x1,%eax
ffffffff801089d6:	74 07                	je     ffffffff801089df <init_nvme+0x90>
ffffffff801089d8:	83 f8 02             	cmp    $0x2,%eax
ffffffff801089db:	74 15                	je     ffffffff801089f2 <init_nvme+0xa3>
ffffffff801089dd:	eb 49                	jmp    ffffffff80108a28 <init_nvme+0xd9>
ffffffff801089df:	48 c7 c7 e0 c4 10 80 	mov    $0xffffffff8010c4e0,%rdi
ffffffff801089e6:	b8 00 00 00 00       	mov    $0x0,%eax
ffffffff801089eb:	e8 8e 01 00 00       	callq  ffffffff80108b7e <kvprintf>
ffffffff801089f0:	eb 4a                	jmp    ffffffff80108a3c <init_nvme+0xed>
ffffffff801089f2:	48 c7 c7 00 c5 10 80 	mov    $0xffffffff8010c500,%rdi
ffffffff801089f9:	b8 00 00 00 00       	mov    $0x0,%eax
ffffffff801089fe:	e8 7b 01 00 00       	callq  ffffffff80108b7e <kvprintf>
ffffffff80108a03:	48 8b 0d be 0b 01 00 	mov    0x10bbe(%rip),%rcx        # ffffffff801195c8 <pci_devices>
ffffffff80108a0a:	48 8b 55 f8          	mov    -0x8(%rbp),%rdx
ffffffff80108a0e:	48 89 d0             	mov    %rdx,%rax
ffffffff80108a11:	48 01 c0             	add    %rax,%rax
ffffffff80108a14:	48 01 d0             	add    %rdx,%rax
ffffffff80108a17:	48 c1 e0 02          	shl    $0x2,%rax
ffffffff80108a1b:	48 01 c8             	add    %rcx,%rax
ffffffff80108a1e:	48 89 c7             	mov    %rax,%rdi
ffffffff80108a21:	e8 30 00 00 00       	callq  ffffffff80108a56 <init_controller>
ffffffff80108a26:	eb 14                	jmp    ffffffff80108a3c <init_nvme+0xed>
ffffffff80108a28:	48 c7 c7 28 c5 10 80 	mov    $0xffffffff8010c528,%rdi
ffffffff80108a2f:	b8 00 00 00 00       	mov    $0x0,%eax
ffffffff80108a34:	e8 45 01 00 00       	callq  ffffffff80108b7e <kvprintf>
ffffffff80108a39:	eb 01                	jmp    ffffffff80108a3c <init_nvme+0xed>
ffffffff80108a3b:	90                   	nop
ffffffff80108a3c:	48 83 45 f8 01       	addq   $0x1,-0x8(%rbp)
ffffffff80108a41:	48 8b 05 88 0b 01 00 	mov    0x10b88(%rip),%rax        # ffffffff801195d0 <pci_device_cnt>
ffffffff80108a48:	48 39 45 f8          	cmp    %rax,-0x8(%rbp)
ffffffff80108a4c:	0f 82 12 ff ff ff    	jb     ffffffff80108964 <init_nvme+0x15>
ffffffff80108a52:	90                   	nop
ffffffff80108a53:	90                   	nop
ffffffff80108a54:	c9                   	leaveq 
ffffffff80108a55:	c3                   	retq   

ffffffff80108a56 <init_controller>:
ffffffff80108a56:	55                   	push   %rbp
ffffffff80108a57:	48 89 e5             	mov    %rsp,%rbp
ffffffff80108a5a:	48 83 ec 08          	sub    $0x8,%rsp
ffffffff80108a5e:	48 89 7d f8          	mov    %rdi,-0x8(%rbp)
ffffffff80108a62:	90                   	nop
ffffffff80108a63:	c9                   	leaveq 
ffffffff80108a64:	c3                   	retq   

ffffffff80108a65 <kprintf>:
ffffffff80108a65:	55                   	push   %rbp
ffffffff80108a66:	48 89 e5             	mov    %rsp,%rbp
ffffffff80108a69:	48 83 ec 60          	sub    $0x60,%rsp
ffffffff80108a6d:	48 89 7d a8          	mov    %rdi,-0x58(%rbp)
ffffffff80108a71:	48 89 75 a0          	mov    %rsi,-0x60(%rbp)
ffffffff80108a75:	48 89 55 e0          	mov    %rdx,-0x20(%rbp)
ffffffff80108a79:	48 89 4d e8          	mov    %rcx,-0x18(%rbp)
ffffffff80108a7d:	4c 89 45 f0          	mov    %r8,-0x10(%rbp)
ffffffff80108a81:	4c 89 4d f8          	mov    %r9,-0x8(%rbp)
ffffffff80108a85:	c7 45 b0 10 00 00 00 	movl   $0x10,-0x50(%rbp)
ffffffff80108a8c:	48 8d 45 10          	lea    0x10(%rbp),%rax
ffffffff80108a90:	48 89 45 b8          	mov    %rax,-0x48(%rbp)
ffffffff80108a94:	48 8d 45 d0          	lea    -0x30(%rbp),%rax
ffffffff80108a98:	48 89 45 c0          	mov    %rax,-0x40(%rbp)
ffffffff80108a9c:	48 c7 45 c8 00 00 00 	movq   $0x0,-0x38(%rbp)
ffffffff80108aa3:	00 
ffffffff80108aa4:	e9 a3 00 00 00       	jmpq   ffffffff80108b4c <kprintf+0xe7>
ffffffff80108aa9:	48 8b 45 c8          	mov    -0x38(%rbp),%rax
ffffffff80108aad:	48 c1 e0 04          	shl    $0x4,%rax
ffffffff80108ab1:	48 05 60 ef 10 80    	add    $0xffffffff8010ef60,%rax
ffffffff80108ab7:	48 8b 00             	mov    (%rax),%rax
ffffffff80108aba:	48 8b 55 a8          	mov    -0x58(%rbp),%rdx
ffffffff80108abe:	48 89 d6             	mov    %rdx,%rsi
ffffffff80108ac1:	48 89 c7             	mov    %rax,%rdi
ffffffff80108ac4:	e8 ba fa ff ff       	callq  ffffffff80108583 <strcmp>
ffffffff80108ac9:	85 c0                	test   %eax,%eax
ffffffff80108acb:	75 64                	jne    ffffffff80108b31 <kprintf+0xcc>
ffffffff80108acd:	48 8b 45 c8          	mov    -0x38(%rbp),%rax
ffffffff80108ad1:	48 c1 e0 04          	shl    $0x4,%rax
ffffffff80108ad5:	48 05 68 ef 10 80    	add    $0xffffffff8010ef68,%rax
ffffffff80108adb:	0f b6 00             	movzbl (%rax),%eax
ffffffff80108ade:	0f b6 c0             	movzbl %al,%eax
ffffffff80108ae1:	48 98                	cltq   
ffffffff80108ae3:	48 8b 04 c5 00 f0 10 	mov    -0x7fef1000(,%rax,8),%rax
ffffffff80108aea:	80 
ffffffff80108aeb:	48 89 c7             	mov    %rax,%rdi
ffffffff80108aee:	e8 9c 06 00 00       	callq  ffffffff8010918f <serial_write_str>
ffffffff80108af3:	48 8b 45 a8          	mov    -0x58(%rbp),%rax
ffffffff80108af7:	48 89 c7             	mov    %rax,%rdi
ffffffff80108afa:	e8 90 06 00 00       	callq  ffffffff8010918f <serial_write_str>
ffffffff80108aff:	48 8b 45 c8          	mov    -0x38(%rbp),%rax
ffffffff80108b03:	48 c1 e0 04          	shl    $0x4,%rax
ffffffff80108b07:	48 05 69 ef 10 80    	add    $0xffffffff8010ef69,%rax
ffffffff80108b0d:	0f b6 00             	movzbl (%rax),%eax
ffffffff80108b10:	0f b6 c0             	movzbl %al,%eax
ffffffff80108b13:	48 98                	cltq   
ffffffff80108b15:	48 8b 04 c5 00 f0 10 	mov    -0x7fef1000(,%rax,8),%rax
ffffffff80108b1c:	80 
ffffffff80108b1d:	48 89 c7             	mov    %rax,%rdi
ffffffff80108b20:	e8 6a 06 00 00       	callq  ffffffff8010918f <serial_write_str>
ffffffff80108b25:	bf 20 00 00 00       	mov    $0x20,%edi
ffffffff80108b2a:	e8 2b 06 00 00       	callq  ffffffff8010915a <serial_write>
ffffffff80108b2f:	eb 26                	jmp    ffffffff80108b57 <kprintf+0xf2>
ffffffff80108b31:	48 83 7d c8 08       	cmpq   $0x8,-0x38(%rbp)
ffffffff80108b36:	75 0f                	jne    ffffffff80108b47 <kprintf+0xe2>
ffffffff80108b38:	48 8b 05 c1 64 00 00 	mov    0x64c1(%rip),%rax        # ffffffff8010f000 <bash_colours>
ffffffff80108b3f:	48 89 c7             	mov    %rax,%rdi
ffffffff80108b42:	e8 48 06 00 00       	callq  ffffffff8010918f <serial_write_str>
ffffffff80108b47:	48 83 45 c8 01       	addq   $0x1,-0x38(%rbp)
ffffffff80108b4c:	48 83 7d c8 08       	cmpq   $0x8,-0x38(%rbp)
ffffffff80108b51:	0f 86 52 ff ff ff    	jbe    ffffffff80108aa9 <kprintf+0x44>
ffffffff80108b57:	48 8d 4d b0          	lea    -0x50(%rbp),%rcx
ffffffff80108b5b:	48 8b 45 a0          	mov    -0x60(%rbp),%rax
ffffffff80108b5f:	48 c7 c2 5a 91 10 80 	mov    $0xffffffff8010915a,%rdx
ffffffff80108b66:	48 89 ce             	mov    %rcx,%rsi
ffffffff80108b69:	48 89 c7             	mov    %rax,%rdi
ffffffff80108b6c:	e8 c0 00 00 00       	callq  ffffffff80108c31 <print_args>
ffffffff80108b71:	bf 0a 00 00 00       	mov    $0xa,%edi
ffffffff80108b76:	e8 df 05 00 00       	callq  ffffffff8010915a <serial_write>
ffffffff80108b7b:	90                   	nop
ffffffff80108b7c:	c9                   	leaveq 
ffffffff80108b7d:	c3                   	retq   

ffffffff80108b7e <kvprintf>:
ffffffff80108b7e:	55                   	push   %rbp
ffffffff80108b7f:	48 89 e5             	mov    %rsp,%rbp
ffffffff80108b82:	48 83 ec 60          	sub    $0x60,%rsp
ffffffff80108b86:	48 89 7d a8          	mov    %rdi,-0x58(%rbp)
ffffffff80108b8a:	48 89 75 d8          	mov    %rsi,-0x28(%rbp)
ffffffff80108b8e:	48 89 55 e0          	mov    %rdx,-0x20(%rbp)
ffffffff80108b92:	48 89 4d e8          	mov    %rcx,-0x18(%rbp)
ffffffff80108b96:	4c 89 45 f0          	mov    %r8,-0x10(%rbp)
ffffffff80108b9a:	4c 89 4d f8          	mov    %r9,-0x8(%rbp)
ffffffff80108b9e:	c7 45 b8 08 00 00 00 	movl   $0x8,-0x48(%rbp)
ffffffff80108ba5:	48 8d 45 10          	lea    0x10(%rbp),%rax
ffffffff80108ba9:	48 89 45 c0          	mov    %rax,-0x40(%rbp)
ffffffff80108bad:	48 8d 45 d0          	lea    -0x30(%rbp),%rax
ffffffff80108bb1:	48 89 45 c8          	mov    %rax,-0x38(%rbp)
ffffffff80108bb5:	48 8d 4d b8          	lea    -0x48(%rbp),%rcx
ffffffff80108bb9:	48 8b 45 a8          	mov    -0x58(%rbp),%rax
ffffffff80108bbd:	48 c7 c2 68 90 10 80 	mov    $0xffffffff80109068,%rdx
ffffffff80108bc4:	48 89 ce             	mov    %rcx,%rsi
ffffffff80108bc7:	48 89 c7             	mov    %rax,%rdi
ffffffff80108bca:	e8 62 00 00 00       	callq  ffffffff80108c31 <print_args>
ffffffff80108bcf:	90                   	nop
ffffffff80108bd0:	c9                   	leaveq 
ffffffff80108bd1:	c3                   	retq   

ffffffff80108bd2 <kpanic>:
ffffffff80108bd2:	55                   	push   %rbp
ffffffff80108bd3:	48 89 e5             	mov    %rsp,%rbp
ffffffff80108bd6:	48 83 ec 60          	sub    $0x60,%rsp
ffffffff80108bda:	48 89 7d a8          	mov    %rdi,-0x58(%rbp)
ffffffff80108bde:	48 89 75 d8          	mov    %rsi,-0x28(%rbp)
ffffffff80108be2:	48 89 55 e0          	mov    %rdx,-0x20(%rbp)
ffffffff80108be6:	48 89 4d e8          	mov    %rcx,-0x18(%rbp)
ffffffff80108bea:	4c 89 45 f0          	mov    %r8,-0x10(%rbp)
ffffffff80108bee:	4c 89 4d f8          	mov    %r9,-0x8(%rbp)
ffffffff80108bf2:	48 c7 c7 f1 c5 10 80 	mov    $0xffffffff8010c5f1,%rdi
ffffffff80108bf9:	e8 91 05 00 00       	callq  ffffffff8010918f <serial_write_str>
ffffffff80108bfe:	c7 45 b8 08 00 00 00 	movl   $0x8,-0x48(%rbp)
ffffffff80108c05:	48 8d 45 10          	lea    0x10(%rbp),%rax
ffffffff80108c09:	48 89 45 c0          	mov    %rax,-0x40(%rbp)
ffffffff80108c0d:	48 8d 45 d0          	lea    -0x30(%rbp),%rax
ffffffff80108c11:	48 89 45 c8          	mov    %rax,-0x38(%rbp)
ffffffff80108c15:	48 8d 4d b8          	lea    -0x48(%rbp),%rcx
ffffffff80108c19:	48 8b 45 a8          	mov    -0x58(%rbp),%rax
ffffffff80108c1d:	48 c7 c2 5a 91 10 80 	mov    $0xffffffff8010915a,%rdx
ffffffff80108c24:	48 89 ce             	mov    %rcx,%rsi
ffffffff80108c27:	48 89 c7             	mov    %rax,%rdi
ffffffff80108c2a:	e8 02 00 00 00       	callq  ffffffff80108c31 <print_args>
ffffffff80108c2f:	eb fe                	jmp    ffffffff80108c2f <kpanic+0x5d>

ffffffff80108c31 <print_args>:
ffffffff80108c31:	55                   	push   %rbp
ffffffff80108c32:	48 89 e5             	mov    %rsp,%rbp
ffffffff80108c35:	48 83 ec 70          	sub    $0x70,%rsp
ffffffff80108c39:	48 89 7d a8          	mov    %rdi,-0x58(%rbp)
ffffffff80108c3d:	48 89 75 a0          	mov    %rsi,-0x60(%rbp)
ffffffff80108c41:	48 89 55 98          	mov    %rdx,-0x68(%rbp)
ffffffff80108c45:	48 c7 45 c0 00 00 00 	movq   $0x0,-0x40(%rbp)
ffffffff80108c4c:	00 
ffffffff80108c4d:	48 c7 45 f8 00 00 00 	movq   $0x0,-0x8(%rbp)
ffffffff80108c54:	00 
ffffffff80108c55:	e9 f4 03 00 00       	jmpq   ffffffff8010904e <print_args+0x41d>
ffffffff80108c5a:	48 8b 55 a8          	mov    -0x58(%rbp),%rdx
ffffffff80108c5e:	48 8b 45 f8          	mov    -0x8(%rbp),%rax
ffffffff80108c62:	48 01 d0             	add    %rdx,%rax
ffffffff80108c65:	0f b6 00             	movzbl (%rax),%eax
ffffffff80108c68:	3c 25                	cmp    $0x25,%al
ffffffff80108c6a:	74 1e                	je     ffffffff80108c8a <print_args+0x59>
ffffffff80108c6c:	48 8b 55 a8          	mov    -0x58(%rbp),%rdx
ffffffff80108c70:	48 8b 45 f8          	mov    -0x8(%rbp),%rax
ffffffff80108c74:	48 01 d0             	add    %rdx,%rax
ffffffff80108c77:	0f b6 00             	movzbl (%rax),%eax
ffffffff80108c7a:	0f b6 c0             	movzbl %al,%eax
ffffffff80108c7d:	48 8b 55 98          	mov    -0x68(%rbp),%rdx
ffffffff80108c81:	89 c7                	mov    %eax,%edi
ffffffff80108c83:	ff d2                	callq  *%rdx
ffffffff80108c85:	e9 bf 03 00 00       	jmpq   ffffffff80109049 <print_args+0x418>
ffffffff80108c8a:	48 83 45 f8 01       	addq   $0x1,-0x8(%rbp)
ffffffff80108c8f:	48 8b 55 a8          	mov    -0x58(%rbp),%rdx
ffffffff80108c93:	48 8b 45 f8          	mov    -0x8(%rbp),%rax
ffffffff80108c97:	48 01 d0             	add    %rdx,%rax
ffffffff80108c9a:	0f b6 00             	movzbl (%rax),%eax
ffffffff80108c9d:	0f be c0             	movsbl %al,%eax
ffffffff80108ca0:	83 e8 61             	sub    $0x61,%eax
ffffffff80108ca3:	83 f8 17             	cmp    $0x17,%eax
ffffffff80108ca6:	0f 87 9d 03 00 00    	ja     ffffffff80109049 <print_args+0x418>
ffffffff80108cac:	89 c0                	mov    %eax,%eax
ffffffff80108cae:	48 8b 04 c5 10 c6 10 	mov    -0x7fef39f0(,%rax,8),%rax
ffffffff80108cb5:	80 
ffffffff80108cb6:	ff e0                	jmpq   *%rax
ffffffff80108cb8:	48 8b 45 a0          	mov    -0x60(%rbp),%rax
ffffffff80108cbc:	8b 00                	mov    (%rax),%eax
ffffffff80108cbe:	83 f8 2f             	cmp    $0x2f,%eax
ffffffff80108cc1:	77 24                	ja     ffffffff80108ce7 <print_args+0xb6>
ffffffff80108cc3:	48 8b 45 a0          	mov    -0x60(%rbp),%rax
ffffffff80108cc7:	48 8b 50 10          	mov    0x10(%rax),%rdx
ffffffff80108ccb:	48 8b 45 a0          	mov    -0x60(%rbp),%rax
ffffffff80108ccf:	8b 00                	mov    (%rax),%eax
ffffffff80108cd1:	89 c0                	mov    %eax,%eax
ffffffff80108cd3:	48 01 d0             	add    %rdx,%rax
ffffffff80108cd6:	48 8b 55 a0          	mov    -0x60(%rbp),%rdx
ffffffff80108cda:	8b 12                	mov    (%rdx),%edx
ffffffff80108cdc:	8d 4a 08             	lea    0x8(%rdx),%ecx
ffffffff80108cdf:	48 8b 55 a0          	mov    -0x60(%rbp),%rdx
ffffffff80108ce3:	89 0a                	mov    %ecx,(%rdx)
ffffffff80108ce5:	eb 14                	jmp    ffffffff80108cfb <print_args+0xca>
ffffffff80108ce7:	48 8b 45 a0          	mov    -0x60(%rbp),%rax
ffffffff80108ceb:	48 8b 40 08          	mov    0x8(%rax),%rax
ffffffff80108cef:	48 8d 48 08          	lea    0x8(%rax),%rcx
ffffffff80108cf3:	48 8b 55 a0          	mov    -0x60(%rbp),%rdx
ffffffff80108cf7:	48 89 4a 08          	mov    %rcx,0x8(%rdx)
ffffffff80108cfb:	48 8b 00             	mov    (%rax),%rax
ffffffff80108cfe:	48 89 45 c0          	mov    %rax,-0x40(%rbp)
ffffffff80108d02:	48 8b 45 c0          	mov    -0x40(%rbp),%rax
ffffffff80108d06:	be 0a 00 00 00       	mov    $0xa,%esi
ffffffff80108d0b:	48 89 c7             	mov    %rax,%rdi
ffffffff80108d0e:	e8 de f7 ff ff       	callq  ffffffff801084f1 <itob>
ffffffff80108d13:	48 89 45 b8          	mov    %rax,-0x48(%rbp)
ffffffff80108d17:	48 c7 45 f0 00 00 00 	movq   $0x0,-0x10(%rbp)
ffffffff80108d1e:	00 
ffffffff80108d1f:	eb 1e                	jmp    ffffffff80108d3f <print_args+0x10e>
ffffffff80108d21:	48 8b 55 b8          	mov    -0x48(%rbp),%rdx
ffffffff80108d25:	48 8b 45 f0          	mov    -0x10(%rbp),%rax
ffffffff80108d29:	48 01 d0             	add    %rdx,%rax
ffffffff80108d2c:	0f b6 00             	movzbl (%rax),%eax
ffffffff80108d2f:	0f b6 c0             	movzbl %al,%eax
ffffffff80108d32:	48 8b 55 98          	mov    -0x68(%rbp),%rdx
ffffffff80108d36:	89 c7                	mov    %eax,%edi
ffffffff80108d38:	ff d2                	callq  *%rdx
ffffffff80108d3a:	48 83 45 f0 01       	addq   $0x1,-0x10(%rbp)
ffffffff80108d3f:	48 8b 45 b8          	mov    -0x48(%rbp),%rax
ffffffff80108d43:	48 89 c7             	mov    %rax,%rdi
ffffffff80108d46:	e8 05 f8 ff ff       	callq  ffffffff80108550 <strlen>
ffffffff80108d4b:	48 39 45 f0          	cmp    %rax,-0x10(%rbp)
ffffffff80108d4f:	72 d0                	jb     ffffffff80108d21 <print_args+0xf0>
ffffffff80108d51:	e9 f3 02 00 00       	jmpq   ffffffff80109049 <print_args+0x418>
ffffffff80108d56:	48 8b 45 a0          	mov    -0x60(%rbp),%rax
ffffffff80108d5a:	8b 00                	mov    (%rax),%eax
ffffffff80108d5c:	83 f8 2f             	cmp    $0x2f,%eax
ffffffff80108d5f:	77 24                	ja     ffffffff80108d85 <print_args+0x154>
ffffffff80108d61:	48 8b 45 a0          	mov    -0x60(%rbp),%rax
ffffffff80108d65:	48 8b 50 10          	mov    0x10(%rax),%rdx
ffffffff80108d69:	48 8b 45 a0          	mov    -0x60(%rbp),%rax
ffffffff80108d6d:	8b 00                	mov    (%rax),%eax
ffffffff80108d6f:	89 c0                	mov    %eax,%eax
ffffffff80108d71:	48 01 d0             	add    %rdx,%rax
ffffffff80108d74:	48 8b 55 a0          	mov    -0x60(%rbp),%rdx
ffffffff80108d78:	8b 12                	mov    (%rdx),%edx
ffffffff80108d7a:	8d 4a 08             	lea    0x8(%rdx),%ecx
ffffffff80108d7d:	48 8b 55 a0          	mov    -0x60(%rbp),%rdx
ffffffff80108d81:	89 0a                	mov    %ecx,(%rdx)
ffffffff80108d83:	eb 14                	jmp    ffffffff80108d99 <print_args+0x168>
ffffffff80108d85:	48 8b 45 a0          	mov    -0x60(%rbp),%rax
ffffffff80108d89:	48 8b 40 08          	mov    0x8(%rax),%rax
ffffffff80108d8d:	48 8d 48 08          	lea    0x8(%rax),%rcx
ffffffff80108d91:	48 8b 55 a0          	mov    -0x60(%rbp),%rdx
ffffffff80108d95:	48 89 4a 08          	mov    %rcx,0x8(%rdx)
ffffffff80108d99:	48 8b 00             	mov    (%rax),%rax
ffffffff80108d9c:	48 89 45 b8          	mov    %rax,-0x48(%rbp)
ffffffff80108da0:	48 c7 45 e8 00 00 00 	movq   $0x0,-0x18(%rbp)
ffffffff80108da7:	00 
ffffffff80108da8:	eb 1e                	jmp    ffffffff80108dc8 <print_args+0x197>
ffffffff80108daa:	48 8b 55 b8          	mov    -0x48(%rbp),%rdx
ffffffff80108dae:	48 8b 45 e8          	mov    -0x18(%rbp),%rax
ffffffff80108db2:	48 01 d0             	add    %rdx,%rax
ffffffff80108db5:	0f b6 00             	movzbl (%rax),%eax
ffffffff80108db8:	0f b6 c0             	movzbl %al,%eax
ffffffff80108dbb:	48 8b 55 98          	mov    -0x68(%rbp),%rdx
ffffffff80108dbf:	89 c7                	mov    %eax,%edi
ffffffff80108dc1:	ff d2                	callq  *%rdx
ffffffff80108dc3:	48 83 45 e8 01       	addq   $0x1,-0x18(%rbp)
ffffffff80108dc8:	48 8b 45 b8          	mov    -0x48(%rbp),%rax
ffffffff80108dcc:	48 89 c7             	mov    %rax,%rdi
ffffffff80108dcf:	e8 7c f7 ff ff       	callq  ffffffff80108550 <strlen>
ffffffff80108dd4:	48 39 45 e8          	cmp    %rax,-0x18(%rbp)
ffffffff80108dd8:	72 d0                	jb     ffffffff80108daa <print_args+0x179>
ffffffff80108dda:	e9 6a 02 00 00       	jmpq   ffffffff80109049 <print_args+0x418>
ffffffff80108ddf:	48 8b 45 a0          	mov    -0x60(%rbp),%rax
ffffffff80108de3:	8b 00                	mov    (%rax),%eax
ffffffff80108de5:	83 f8 2f             	cmp    $0x2f,%eax
ffffffff80108de8:	77 24                	ja     ffffffff80108e0e <print_args+0x1dd>
ffffffff80108dea:	48 8b 45 a0          	mov    -0x60(%rbp),%rax
ffffffff80108dee:	48 8b 50 10          	mov    0x10(%rax),%rdx
ffffffff80108df2:	48 8b 45 a0          	mov    -0x60(%rbp),%rax
ffffffff80108df6:	8b 00                	mov    (%rax),%eax
ffffffff80108df8:	89 c0                	mov    %eax,%eax
ffffffff80108dfa:	48 01 d0             	add    %rdx,%rax
ffffffff80108dfd:	48 8b 55 a0          	mov    -0x60(%rbp),%rdx
ffffffff80108e01:	8b 12                	mov    (%rdx),%edx
ffffffff80108e03:	8d 4a 08             	lea    0x8(%rdx),%ecx
ffffffff80108e06:	48 8b 55 a0          	mov    -0x60(%rbp),%rdx
ffffffff80108e0a:	89 0a                	mov    %ecx,(%rdx)
ffffffff80108e0c:	eb 14                	jmp    ffffffff80108e22 <print_args+0x1f1>
ffffffff80108e0e:	48 8b 45 a0          	mov    -0x60(%rbp),%rax
ffffffff80108e12:	48 8b 40 08          	mov    0x8(%rax),%rax
ffffffff80108e16:	48 8d 48 08          	lea    0x8(%rax),%rcx
ffffffff80108e1a:	48 8b 55 a0          	mov    -0x60(%rbp),%rdx
ffffffff80108e1e:	48 89 4a 08          	mov    %rcx,0x8(%rdx)
ffffffff80108e22:	8b 00                	mov    (%rax),%eax
ffffffff80108e24:	88 45 b7             	mov    %al,-0x49(%rbp)
ffffffff80108e27:	0f b6 45 b7          	movzbl -0x49(%rbp),%eax
ffffffff80108e2b:	0f b6 c0             	movzbl %al,%eax
ffffffff80108e2e:	48 8b 55 98          	mov    -0x68(%rbp),%rdx
ffffffff80108e32:	89 c7                	mov    %eax,%edi
ffffffff80108e34:	ff d2                	callq  *%rdx
ffffffff80108e36:	e9 0e 02 00 00       	jmpq   ffffffff80109049 <print_args+0x418>
ffffffff80108e3b:	48 8b 45 a0          	mov    -0x60(%rbp),%rax
ffffffff80108e3f:	8b 00                	mov    (%rax),%eax
ffffffff80108e41:	83 f8 2f             	cmp    $0x2f,%eax
ffffffff80108e44:	77 24                	ja     ffffffff80108e6a <print_args+0x239>
ffffffff80108e46:	48 8b 45 a0          	mov    -0x60(%rbp),%rax
ffffffff80108e4a:	48 8b 50 10          	mov    0x10(%rax),%rdx
ffffffff80108e4e:	48 8b 45 a0          	mov    -0x60(%rbp),%rax
ffffffff80108e52:	8b 00                	mov    (%rax),%eax
ffffffff80108e54:	89 c0                	mov    %eax,%eax
ffffffff80108e56:	48 01 d0             	add    %rdx,%rax
ffffffff80108e59:	48 8b 55 a0          	mov    -0x60(%rbp),%rdx
ffffffff80108e5d:	8b 12                	mov    (%rdx),%edx
ffffffff80108e5f:	8d 4a 08             	lea    0x8(%rdx),%ecx
ffffffff80108e62:	48 8b 55 a0          	mov    -0x60(%rbp),%rdx
ffffffff80108e66:	89 0a                	mov    %ecx,(%rdx)
ffffffff80108e68:	eb 14                	jmp    ffffffff80108e7e <print_args+0x24d>
ffffffff80108e6a:	48 8b 45 a0          	mov    -0x60(%rbp),%rax
ffffffff80108e6e:	48 8b 40 08          	mov    0x8(%rax),%rax
ffffffff80108e72:	48 8d 48 08          	lea    0x8(%rax),%rcx
ffffffff80108e76:	48 8b 55 a0          	mov    -0x60(%rbp),%rdx
ffffffff80108e7a:	48 89 4a 08          	mov    %rcx,0x8(%rdx)
ffffffff80108e7e:	48 8b 00             	mov    (%rax),%rax
ffffffff80108e81:	48 89 45 c0          	mov    %rax,-0x40(%rbp)
ffffffff80108e85:	48 8b 45 c0          	mov    -0x40(%rbp),%rax
ffffffff80108e89:	be 10 00 00 00       	mov    $0x10,%esi
ffffffff80108e8e:	48 89 c7             	mov    %rax,%rdi
ffffffff80108e91:	e8 5b f6 ff ff       	callq  ffffffff801084f1 <itob>
ffffffff80108e96:	48 89 45 b8          	mov    %rax,-0x48(%rbp)
ffffffff80108e9a:	48 c7 45 e0 00 00 00 	movq   $0x0,-0x20(%rbp)
ffffffff80108ea1:	00 
ffffffff80108ea2:	eb 1e                	jmp    ffffffff80108ec2 <print_args+0x291>
ffffffff80108ea4:	48 8b 55 b8          	mov    -0x48(%rbp),%rdx
ffffffff80108ea8:	48 8b 45 e0          	mov    -0x20(%rbp),%rax
ffffffff80108eac:	48 01 d0             	add    %rdx,%rax
ffffffff80108eaf:	0f b6 00             	movzbl (%rax),%eax
ffffffff80108eb2:	0f b6 c0             	movzbl %al,%eax
ffffffff80108eb5:	48 8b 55 98          	mov    -0x68(%rbp),%rdx
ffffffff80108eb9:	89 c7                	mov    %eax,%edi
ffffffff80108ebb:	ff d2                	callq  *%rdx
ffffffff80108ebd:	48 83 45 e0 01       	addq   $0x1,-0x20(%rbp)
ffffffff80108ec2:	48 8b 45 b8          	mov    -0x48(%rbp),%rax
ffffffff80108ec6:	48 89 c7             	mov    %rax,%rdi
ffffffff80108ec9:	e8 82 f6 ff ff       	callq  ffffffff80108550 <strlen>
ffffffff80108ece:	48 39 45 e0          	cmp    %rax,-0x20(%rbp)
ffffffff80108ed2:	72 d0                	jb     ffffffff80108ea4 <print_args+0x273>
ffffffff80108ed4:	e9 70 01 00 00       	jmpq   ffffffff80109049 <print_args+0x418>
ffffffff80108ed9:	48 8b 45 a0          	mov    -0x60(%rbp),%rax
ffffffff80108edd:	8b 00                	mov    (%rax),%eax
ffffffff80108edf:	83 f8 2f             	cmp    $0x2f,%eax
ffffffff80108ee2:	77 24                	ja     ffffffff80108f08 <print_args+0x2d7>
ffffffff80108ee4:	48 8b 45 a0          	mov    -0x60(%rbp),%rax
ffffffff80108ee8:	48 8b 50 10          	mov    0x10(%rax),%rdx
ffffffff80108eec:	48 8b 45 a0          	mov    -0x60(%rbp),%rax
ffffffff80108ef0:	8b 00                	mov    (%rax),%eax
ffffffff80108ef2:	89 c0                	mov    %eax,%eax
ffffffff80108ef4:	48 01 d0             	add    %rdx,%rax
ffffffff80108ef7:	48 8b 55 a0          	mov    -0x60(%rbp),%rdx
ffffffff80108efb:	8b 12                	mov    (%rdx),%edx
ffffffff80108efd:	8d 4a 08             	lea    0x8(%rdx),%ecx
ffffffff80108f00:	48 8b 55 a0          	mov    -0x60(%rbp),%rdx
ffffffff80108f04:	89 0a                	mov    %ecx,(%rdx)
ffffffff80108f06:	eb 14                	jmp    ffffffff80108f1c <print_args+0x2eb>
ffffffff80108f08:	48 8b 45 a0          	mov    -0x60(%rbp),%rax
ffffffff80108f0c:	48 8b 40 08          	mov    0x8(%rax),%rax
ffffffff80108f10:	48 8d 48 08          	lea    0x8(%rax),%rcx
ffffffff80108f14:	48 8b 55 a0          	mov    -0x60(%rbp),%rdx
ffffffff80108f18:	48 89 4a 08          	mov    %rcx,0x8(%rdx)
ffffffff80108f1c:	48 8b 00             	mov    (%rax),%rax
ffffffff80108f1f:	48 89 45 c0          	mov    %rax,-0x40(%rbp)
ffffffff80108f23:	48 8b 45 c0          	mov    -0x40(%rbp),%rax
ffffffff80108f27:	be 02 00 00 00       	mov    $0x2,%esi
ffffffff80108f2c:	48 89 c7             	mov    %rax,%rdi
ffffffff80108f2f:	e8 bd f5 ff ff       	callq  ffffffff801084f1 <itob>
ffffffff80108f34:	48 89 45 b8          	mov    %rax,-0x48(%rbp)
ffffffff80108f38:	48 c7 45 d8 00 00 00 	movq   $0x0,-0x28(%rbp)
ffffffff80108f3f:	00 
ffffffff80108f40:	eb 1e                	jmp    ffffffff80108f60 <print_args+0x32f>
ffffffff80108f42:	48 8b 55 b8          	mov    -0x48(%rbp),%rdx
ffffffff80108f46:	48 8b 45 d8          	mov    -0x28(%rbp),%rax
ffffffff80108f4a:	48 01 d0             	add    %rdx,%rax
ffffffff80108f4d:	0f b6 00             	movzbl (%rax),%eax
ffffffff80108f50:	0f b6 c0             	movzbl %al,%eax
ffffffff80108f53:	48 8b 55 98          	mov    -0x68(%rbp),%rdx
ffffffff80108f57:	89 c7                	mov    %eax,%edi
ffffffff80108f59:	ff d2                	callq  *%rdx
ffffffff80108f5b:	48 83 45 d8 01       	addq   $0x1,-0x28(%rbp)
ffffffff80108f60:	48 8b 45 b8          	mov    -0x48(%rbp),%rax
ffffffff80108f64:	48 89 c7             	mov    %rax,%rdi
ffffffff80108f67:	e8 e4 f5 ff ff       	callq  ffffffff80108550 <strlen>
ffffffff80108f6c:	48 39 45 d8          	cmp    %rax,-0x28(%rbp)
ffffffff80108f70:	72 d0                	jb     ffffffff80108f42 <print_args+0x311>
ffffffff80108f72:	e9 d2 00 00 00       	jmpq   ffffffff80109049 <print_args+0x418>
ffffffff80108f77:	48 8b 45 a0          	mov    -0x60(%rbp),%rax
ffffffff80108f7b:	8b 00                	mov    (%rax),%eax
ffffffff80108f7d:	83 f8 2f             	cmp    $0x2f,%eax
ffffffff80108f80:	77 24                	ja     ffffffff80108fa6 <print_args+0x375>
ffffffff80108f82:	48 8b 45 a0          	mov    -0x60(%rbp),%rax
ffffffff80108f86:	48 8b 50 10          	mov    0x10(%rax),%rdx
ffffffff80108f8a:	48 8b 45 a0          	mov    -0x60(%rbp),%rax
ffffffff80108f8e:	8b 00                	mov    (%rax),%eax
ffffffff80108f90:	89 c0                	mov    %eax,%eax
ffffffff80108f92:	48 01 d0             	add    %rdx,%rax
ffffffff80108f95:	48 8b 55 a0          	mov    -0x60(%rbp),%rdx
ffffffff80108f99:	8b 12                	mov    (%rdx),%edx
ffffffff80108f9b:	8d 4a 08             	lea    0x8(%rdx),%ecx
ffffffff80108f9e:	48 8b 55 a0          	mov    -0x60(%rbp),%rdx
ffffffff80108fa2:	89 0a                	mov    %ecx,(%rdx)
ffffffff80108fa4:	eb 14                	jmp    ffffffff80108fba <print_args+0x389>
ffffffff80108fa6:	48 8b 45 a0          	mov    -0x60(%rbp),%rax
ffffffff80108faa:	48 8b 40 08          	mov    0x8(%rax),%rax
ffffffff80108fae:	48 8d 48 08          	lea    0x8(%rax),%rcx
ffffffff80108fb2:	48 8b 55 a0          	mov    -0x60(%rbp),%rdx
ffffffff80108fb6:	48 89 4a 08          	mov    %rcx,0x8(%rdx)
ffffffff80108fba:	48 8b 00             	mov    (%rax),%rax
ffffffff80108fbd:	48 89 45 c0          	mov    %rax,-0x40(%rbp)
ffffffff80108fc1:	48 8b 45 c0          	mov    -0x40(%rbp),%rax
ffffffff80108fc5:	be 10 00 00 00       	mov    $0x10,%esi
ffffffff80108fca:	48 89 c7             	mov    %rax,%rdi
ffffffff80108fcd:	e8 1f f5 ff ff       	callq  ffffffff801084f1 <itob>
ffffffff80108fd2:	48 89 45 b8          	mov    %rax,-0x48(%rbp)
ffffffff80108fd6:	48 8b 45 b8          	mov    -0x48(%rbp),%rax
ffffffff80108fda:	48 89 c7             	mov    %rax,%rdi
ffffffff80108fdd:	e8 6e f5 ff ff       	callq  ffffffff80108550 <strlen>
ffffffff80108fe2:	89 c2                	mov    %eax,%edx
ffffffff80108fe4:	b8 10 00 00 00       	mov    $0x10,%eax
ffffffff80108fe9:	29 d0                	sub    %edx,%eax
ffffffff80108feb:	89 45 b0             	mov    %eax,-0x50(%rbp)
ffffffff80108fee:	c7 45 d4 00 00 00 00 	movl   $0x0,-0x2c(%rbp)
ffffffff80108ff5:	eb 0f                	jmp    ffffffff80109006 <print_args+0x3d5>
ffffffff80108ff7:	48 8b 45 98          	mov    -0x68(%rbp),%rax
ffffffff80108ffb:	bf 30 00 00 00       	mov    $0x30,%edi
ffffffff80109000:	ff d0                	callq  *%rax
ffffffff80109002:	83 45 d4 01          	addl   $0x1,-0x2c(%rbp)
ffffffff80109006:	8b 45 d4             	mov    -0x2c(%rbp),%eax
ffffffff80109009:	3b 45 b0             	cmp    -0x50(%rbp),%eax
ffffffff8010900c:	7c e9                	jl     ffffffff80108ff7 <print_args+0x3c6>
ffffffff8010900e:	48 c7 45 c8 00 00 00 	movq   $0x0,-0x38(%rbp)
ffffffff80109015:	00 
ffffffff80109016:	eb 1e                	jmp    ffffffff80109036 <print_args+0x405>
ffffffff80109018:	48 8b 55 b8          	mov    -0x48(%rbp),%rdx
ffffffff8010901c:	48 8b 45 c8          	mov    -0x38(%rbp),%rax
ffffffff80109020:	48 01 d0             	add    %rdx,%rax
ffffffff80109023:	0f b6 00             	movzbl (%rax),%eax
ffffffff80109026:	0f b6 c0             	movzbl %al,%eax
ffffffff80109029:	48 8b 55 98          	mov    -0x68(%rbp),%rdx
ffffffff8010902d:	89 c7                	mov    %eax,%edi
ffffffff8010902f:	ff d2                	callq  *%rdx
ffffffff80109031:	48 83 45 c8 01       	addq   $0x1,-0x38(%rbp)
ffffffff80109036:	48 8b 45 b8          	mov    -0x48(%rbp),%rax
ffffffff8010903a:	48 89 c7             	mov    %rax,%rdi
ffffffff8010903d:	e8 0e f5 ff ff       	callq  ffffffff80108550 <strlen>
ffffffff80109042:	48 39 45 c8          	cmp    %rax,-0x38(%rbp)
ffffffff80109046:	72 d0                	jb     ffffffff80109018 <print_args+0x3e7>
ffffffff80109048:	90                   	nop
ffffffff80109049:	48 83 45 f8 01       	addq   $0x1,-0x8(%rbp)
ffffffff8010904e:	48 8b 45 a8          	mov    -0x58(%rbp),%rax
ffffffff80109052:	48 89 c7             	mov    %rax,%rdi
ffffffff80109055:	e8 f6 f4 ff ff       	callq  ffffffff80108550 <strlen>
ffffffff8010905a:	48 39 45 f8          	cmp    %rax,-0x8(%rbp)
ffffffff8010905e:	0f 82 f6 fb ff ff    	jb     ffffffff80108c5a <print_args+0x29>
ffffffff80109064:	90                   	nop
ffffffff80109065:	90                   	nop
ffffffff80109066:	c9                   	leaveq 
ffffffff80109067:	c3                   	retq   

ffffffff80109068 <g_putchar>:
ffffffff80109068:	55                   	push   %rbp
ffffffff80109069:	48 89 e5             	mov    %rsp,%rbp
ffffffff8010906c:	48 83 ec 20          	sub    $0x20,%rsp
ffffffff80109070:	89 f8                	mov    %edi,%eax
ffffffff80109072:	88 45 ec             	mov    %al,-0x14(%rbp)
ffffffff80109075:	0f b6 45 ec          	movzbl -0x14(%rbp),%eax
ffffffff80109079:	83 f8 09             	cmp    $0x9,%eax
ffffffff8010907c:	74 44                	je     ffffffff801090c2 <g_putchar+0x5a>
ffffffff8010907e:	83 f8 0a             	cmp    $0xa,%eax
ffffffff80109081:	75 5e                	jne    ffffffff801090e1 <g_putchar+0x79>
ffffffff80109083:	8b 05 3b 05 01 00    	mov    0x1053b(%rip),%eax        # ffffffff801195c4 <y_pos>
ffffffff80109089:	8d 50 10             	lea    0x10(%rax),%edx
ffffffff8010908c:	8b 05 6e f4 00 00    	mov    0xf46e(%rip),%eax        # ffffffff80118500 <fb_height>
ffffffff80109092:	39 c2                	cmp    %eax,%edx
ffffffff80109094:	75 11                	jne    ffffffff801090a7 <g_putchar+0x3f>
ffffffff80109096:	be 10 00 00 00       	mov    $0x10,%esi
ffffffff8010909b:	bf ff ff ff 00       	mov    $0xffffff,%edi
ffffffff801090a0:	e8 60 ba ff ff       	callq  ffffffff80104b05 <scroll>
ffffffff801090a5:	eb 0f                	jmp    ffffffff801090b6 <g_putchar+0x4e>
ffffffff801090a7:	8b 05 17 05 01 00    	mov    0x10517(%rip),%eax        # ffffffff801195c4 <y_pos>
ffffffff801090ad:	83 c0 10             	add    $0x10,%eax
ffffffff801090b0:	89 05 0e 05 01 00    	mov    %eax,0x1050e(%rip)        # ffffffff801195c4 <y_pos>
ffffffff801090b6:	c7 05 00 05 01 00 00 	movl   $0x0,0x10500(%rip)        # ffffffff801195c0 <x_pos>
ffffffff801090bd:	00 00 00 
ffffffff801090c0:	eb 70                	jmp    ffffffff80109132 <g_putchar+0xca>
ffffffff801090c2:	c7 45 fc 00 00 00 00 	movl   $0x0,-0x4(%rbp)
ffffffff801090c9:	eb 0e                	jmp    ffffffff801090d9 <g_putchar+0x71>
ffffffff801090cb:	bf 20 00 00 00       	mov    $0x20,%edi
ffffffff801090d0:	e8 93 ff ff ff       	callq  ffffffff80109068 <g_putchar>
ffffffff801090d5:	83 45 fc 01          	addl   $0x1,-0x4(%rbp)
ffffffff801090d9:	83 7d fc 03          	cmpl   $0x3,-0x4(%rbp)
ffffffff801090dd:	7e ec                	jle    ffffffff801090cb <g_putchar+0x63>
ffffffff801090df:	eb 51                	jmp    ffffffff80109132 <g_putchar+0xca>
ffffffff801090e1:	0f b6 45 ec          	movzbl -0x14(%rbp),%eax
ffffffff801090e5:	0f be d0             	movsbl %al,%edx
ffffffff801090e8:	8b 35 d6 04 01 00    	mov    0x104d6(%rip),%esi        # ffffffff801195c4 <y_pos>
ffffffff801090ee:	8b 05 cc 04 01 00    	mov    0x104cc(%rip),%eax        # ffffffff801195c0 <x_pos>
ffffffff801090f4:	89 d1                	mov    %edx,%ecx
ffffffff801090f6:	ba b4 69 ff 00       	mov    $0xff69b4,%edx
ffffffff801090fb:	89 c7                	mov    %eax,%edi
ffffffff801090fd:	e8 78 bb ff ff       	callq  ffffffff80104c7a <render_char>
ffffffff80109102:	8b 05 b8 04 01 00    	mov    0x104b8(%rip),%eax        # ffffffff801195c0 <x_pos>
ffffffff80109108:	8d 50 08             	lea    0x8(%rax),%edx
ffffffff8010910b:	8b 05 f3 f3 00 00    	mov    0xf3f3(%rip),%eax        # ffffffff80118504 <fb_width>
ffffffff80109111:	39 c2                	cmp    %eax,%edx
ffffffff80109113:	76 0c                	jbe    ffffffff80109121 <g_putchar+0xb9>
ffffffff80109115:	bf 0a 00 00 00       	mov    $0xa,%edi
ffffffff8010911a:	e8 49 ff ff ff       	callq  ffffffff80109068 <g_putchar>
ffffffff8010911f:	eb 11                	jmp    ffffffff80109132 <g_putchar+0xca>
ffffffff80109121:	8b 05 99 04 01 00    	mov    0x10499(%rip),%eax        # ffffffff801195c0 <x_pos>
ffffffff80109127:	83 c0 08             	add    $0x8,%eax
ffffffff8010912a:	89 05 90 04 01 00    	mov    %eax,0x10490(%rip)        # ffffffff801195c0 <x_pos>
ffffffff80109130:	eb 00                	jmp    ffffffff80109132 <g_putchar+0xca>
ffffffff80109132:	90                   	nop
ffffffff80109133:	c9                   	leaveq 
ffffffff80109134:	c3                   	retq   

ffffffff80109135 <serial_read>:
ffffffff80109135:	55                   	push   %rbp
ffffffff80109136:	48 89 e5             	mov    %rsp,%rbp
ffffffff80109139:	90                   	nop
ffffffff8010913a:	bf fd 03 00 00       	mov    $0x3fd,%edi
ffffffff8010913f:	e8 db 8e ff ff       	callq  ffffffff8010201f <inb>
ffffffff80109144:	0f b6 c0             	movzbl %al,%eax
ffffffff80109147:	83 e0 01             	and    $0x1,%eax
ffffffff8010914a:	85 c0                	test   %eax,%eax
ffffffff8010914c:	74 ec                	je     ffffffff8010913a <serial_read+0x5>
ffffffff8010914e:	bf f8 03 00 00       	mov    $0x3f8,%edi
ffffffff80109153:	e8 c7 8e ff ff       	callq  ffffffff8010201f <inb>
ffffffff80109158:	5d                   	pop    %rbp
ffffffff80109159:	c3                   	retq   

ffffffff8010915a <serial_write>:
ffffffff8010915a:	55                   	push   %rbp
ffffffff8010915b:	48 89 e5             	mov    %rsp,%rbp
ffffffff8010915e:	48 83 ec 10          	sub    $0x10,%rsp
ffffffff80109162:	89 f8                	mov    %edi,%eax
ffffffff80109164:	88 45 fc             	mov    %al,-0x4(%rbp)
ffffffff80109167:	90                   	nop
ffffffff80109168:	bf fd 03 00 00       	mov    $0x3fd,%edi
ffffffff8010916d:	e8 ad 8e ff ff       	callq  ffffffff8010201f <inb>
ffffffff80109172:	0f b6 c0             	movzbl %al,%eax
ffffffff80109175:	83 e0 20             	and    $0x20,%eax
ffffffff80109178:	85 c0                	test   %eax,%eax
ffffffff8010917a:	74 ec                	je     ffffffff80109168 <serial_write+0xe>
ffffffff8010917c:	0f b6 45 fc          	movzbl -0x4(%rbp),%eax
ffffffff80109180:	89 c6                	mov    %eax,%esi
ffffffff80109182:	bf f8 03 00 00       	mov    $0x3f8,%edi
ffffffff80109187:	e8 35 8e ff ff       	callq  ffffffff80101fc1 <outb>
ffffffff8010918c:	90                   	nop
ffffffff8010918d:	c9                   	leaveq 
ffffffff8010918e:	c3                   	retq   

ffffffff8010918f <serial_write_str>:
ffffffff8010918f:	55                   	push   %rbp
ffffffff80109190:	48 89 e5             	mov    %rsp,%rbp
ffffffff80109193:	48 83 ec 10          	sub    $0x10,%rsp
ffffffff80109197:	48 89 7d f8          	mov    %rdi,-0x8(%rbp)
ffffffff8010919b:	eb 16                	jmp    ffffffff801091b3 <serial_write_str+0x24>
ffffffff8010919d:	48 8b 45 f8          	mov    -0x8(%rbp),%rax
ffffffff801091a1:	0f b6 00             	movzbl (%rax),%eax
ffffffff801091a4:	0f b6 c0             	movzbl %al,%eax
ffffffff801091a7:	89 c7                	mov    %eax,%edi
ffffffff801091a9:	e8 ac ff ff ff       	callq  ffffffff8010915a <serial_write>
ffffffff801091ae:	48 83 45 f8 01       	addq   $0x1,-0x8(%rbp)
ffffffff801091b3:	48 8b 45 f8          	mov    -0x8(%rbp),%rax
ffffffff801091b7:	0f b6 00             	movzbl (%rax),%eax
ffffffff801091ba:	84 c0                	test   %al,%al
ffffffff801091bc:	75 df                	jne    ffffffff8010919d <serial_write_str+0xe>
ffffffff801091be:	90                   	nop
ffffffff801091bf:	90                   	nop
ffffffff801091c0:	c9                   	leaveq 
ffffffff801091c1:	c3                   	retq   

ffffffff801091c2 <stacktrace>:
ffffffff801091c2:	55                   	push   %rbp
ffffffff801091c3:	48 89 e5             	mov    %rsp,%rbp
ffffffff801091c6:	48 83 ec 20          	sub    $0x20,%rsp
ffffffff801091ca:	48 89 7d e8          	mov    %rdi,-0x18(%rbp)
ffffffff801091ce:	48 8b 45 e8          	mov    -0x18(%rbp),%rax
ffffffff801091d2:	48 8b 00             	mov    (%rax),%rax
ffffffff801091d5:	48 89 45 f8          	mov    %rax,-0x8(%rbp)
ffffffff801091d9:	48 8b 45 e8          	mov    -0x18(%rbp),%rax
ffffffff801091dd:	48 8b 40 08          	mov    0x8(%rax),%rax
ffffffff801091e1:	48 89 45 f0          	mov    %rax,-0x10(%rbp)
ffffffff801091e5:	48 83 7d f0 00       	cmpq   $0x0,-0x10(%rbp)
ffffffff801091ea:	74 29                	je     ffffffff80109215 <stacktrace+0x53>
ffffffff801091ec:	48 8b 45 f0          	mov    -0x10(%rbp),%rax
ffffffff801091f0:	48 89 c6             	mov    %rax,%rsi
ffffffff801091f3:	48 c7 c7 d0 c6 10 80 	mov    $0xffffffff8010c6d0,%rdi
ffffffff801091fa:	b8 00 00 00 00       	mov    $0x0,%eax
ffffffff801091ff:	e8 7a f9 ff ff       	callq  ffffffff80108b7e <kvprintf>
ffffffff80109204:	48 83 7d f8 00       	cmpq   $0x0,-0x8(%rbp)
ffffffff80109209:	74 0d                	je     ffffffff80109218 <stacktrace+0x56>
ffffffff8010920b:	48 8b 45 f8          	mov    -0x8(%rbp),%rax
ffffffff8010920f:	48 89 45 e8          	mov    %rax,-0x18(%rbp)
ffffffff80109213:	eb b9                	jmp    ffffffff801091ce <stacktrace+0xc>
ffffffff80109215:	90                   	nop
ffffffff80109216:	eb 01                	jmp    ffffffff80109219 <stacktrace+0x57>
ffffffff80109218:	90                   	nop
ffffffff80109219:	90                   	nop
ffffffff8010921a:	c9                   	leaveq 
ffffffff8010921b:	c3                   	retq   

ffffffff8010921c <add_pci_device>:
ffffffff8010921c:	55                   	push   %rbp
ffffffff8010921d:	48 89 e5             	mov    %rsp,%rbp
ffffffff80109220:	48 83 ec 10          	sub    $0x10,%rsp
ffffffff80109224:	48 89 fa             	mov    %rdi,%rdx
ffffffff80109227:	89 f0                	mov    %esi,%eax
ffffffff80109229:	48 89 55 f0          	mov    %rdx,-0x10(%rbp)
ffffffff8010922d:	89 45 f8             	mov    %eax,-0x8(%rbp)
ffffffff80109230:	48 8b 05 99 03 01 00 	mov    0x10399(%rip),%rax        # ffffffff801195d0 <pci_device_cnt>
ffffffff80109237:	48 83 f8 ff          	cmp    $0xffffffffffffffff,%rax
ffffffff8010923b:	75 24                	jne    ffffffff80109261 <add_pci_device+0x45>
ffffffff8010923d:	48 8b 05 8c 03 01 00 	mov    0x1038c(%rip),%rax        # ffffffff801195d0 <pci_device_cnt>
ffffffff80109244:	48 8d 50 0a          	lea    0xa(%rax),%rdx
ffffffff80109248:	48 8b 05 79 03 01 00 	mov    0x10379(%rip),%rax        # ffffffff801195c8 <pci_devices>
ffffffff8010924f:	48 89 d6             	mov    %rdx,%rsi
ffffffff80109252:	48 89 c7             	mov    %rax,%rdi
ffffffff80109255:	e8 e2 91 ff ff       	callq  ffffffff8010243c <krealloc>
ffffffff8010925a:	48 89 05 67 03 01 00 	mov    %rax,0x10367(%rip)        # ffffffff801195c8 <pci_devices>
ffffffff80109261:	48 8b 0d 60 03 01 00 	mov    0x10360(%rip),%rcx        # ffffffff801195c8 <pci_devices>
ffffffff80109268:	48 8b 15 61 03 01 00 	mov    0x10361(%rip),%rdx        # ffffffff801195d0 <pci_device_cnt>
ffffffff8010926f:	48 8d 42 01          	lea    0x1(%rdx),%rax
ffffffff80109273:	48 89 05 56 03 01 00 	mov    %rax,0x10356(%rip)        # ffffffff801195d0 <pci_device_cnt>
ffffffff8010927a:	48 89 d0             	mov    %rdx,%rax
ffffffff8010927d:	48 01 c0             	add    %rax,%rax
ffffffff80109280:	48 01 d0             	add    %rdx,%rax
ffffffff80109283:	48 c1 e0 02          	shl    $0x2,%rax
ffffffff80109287:	48 01 c8             	add    %rcx,%rax
ffffffff8010928a:	48 8b 55 f0          	mov    -0x10(%rbp),%rdx
ffffffff8010928e:	48 89 10             	mov    %rdx,(%rax)
ffffffff80109291:	8b 55 f8             	mov    -0x8(%rbp),%edx
ffffffff80109294:	89 50 08             	mov    %edx,0x8(%rax)
ffffffff80109297:	90                   	nop
ffffffff80109298:	c9                   	leaveq 
ffffffff80109299:	c3                   	retq   

ffffffff8010929a <check_device>:
ffffffff8010929a:	55                   	push   %rbp
ffffffff8010929b:	48 89 e5             	mov    %rsp,%rbp
ffffffff8010929e:	48 83 ec 20          	sub    $0x20,%rsp
ffffffff801092a2:	89 f1                	mov    %esi,%ecx
ffffffff801092a4:	89 d0                	mov    %edx,%eax
ffffffff801092a6:	89 fa                	mov    %edi,%edx
ffffffff801092a8:	88 55 ec             	mov    %dl,-0x14(%rbp)
ffffffff801092ab:	89 ca                	mov    %ecx,%edx
ffffffff801092ad:	88 55 e8             	mov    %dl,-0x18(%rbp)
ffffffff801092b0:	88 45 e4             	mov    %al,-0x1c(%rbp)
ffffffff801092b3:	c7 45 fc 01 00 00 00 	movl   $0x1,-0x4(%rbp)
ffffffff801092ba:	0f b6 55 e4          	movzbl -0x1c(%rbp),%edx
ffffffff801092be:	0f b6 75 e8          	movzbl -0x18(%rbp),%esi
ffffffff801092c2:	0f b6 45 ec          	movzbl -0x14(%rbp),%eax
ffffffff801092c6:	b9 0c 00 00 00       	mov    $0xc,%ecx
ffffffff801092cb:	89 c7                	mov    %eax,%edi
ffffffff801092cd:	e8 40 01 00 00       	callq  ffffffff80109412 <pci_read>
ffffffff801092d2:	c1 e8 10             	shr    $0x10,%eax
ffffffff801092d5:	0f b6 c0             	movzbl %al,%eax
ffffffff801092d8:	24 7f                	and    $0x7f,%al
ffffffff801092da:	83 f8 01             	cmp    $0x1,%eax
ffffffff801092dd:	75 3e                	jne    ffffffff8010931d <check_device+0x83>
ffffffff801092df:	0f b6 55 e4          	movzbl -0x1c(%rbp),%edx
ffffffff801092e3:	0f b6 75 e8          	movzbl -0x18(%rbp),%esi
ffffffff801092e7:	0f b6 45 ec          	movzbl -0x14(%rbp),%eax
ffffffff801092eb:	b9 08 00 00 00       	mov    $0x8,%ecx
ffffffff801092f0:	89 c7                	mov    %eax,%edi
ffffffff801092f2:	e8 1b 01 00 00       	callq  ffffffff80109412 <pci_read>
ffffffff801092f7:	c1 e8 18             	shr    $0x18,%eax
ffffffff801092fa:	3c 06                	cmp    $0x6,%al
ffffffff801092fc:	75 1f                	jne    ffffffff8010931d <check_device+0x83>
ffffffff801092fe:	0f b6 55 e4          	movzbl -0x1c(%rbp),%edx
ffffffff80109302:	0f b6 75 e8          	movzbl -0x18(%rbp),%esi
ffffffff80109306:	0f b6 45 ec          	movzbl -0x14(%rbp),%eax
ffffffff8010930a:	b9 08 00 00 00       	mov    $0x8,%ecx
ffffffff8010930f:	89 c7                	mov    %eax,%edi
ffffffff80109311:	e8 fc 00 00 00       	callq  ffffffff80109412 <pci_read>
ffffffff80109316:	c1 e8 10             	shr    $0x10,%eax
ffffffff80109319:	3c 04                	cmp    $0x4,%al
ffffffff8010931b:	74 07                	je     ffffffff80109324 <check_device+0x8a>
ffffffff8010931d:	c7 45 fc 00 00 00 00 	movl   $0x0,-0x4(%rbp)
ffffffff80109324:	83 7d fc 00          	cmpl   $0x0,-0x4(%rbp)
ffffffff80109328:	74 2a                	je     ffffffff80109354 <check_device+0xba>
ffffffff8010932a:	0f b6 55 e4          	movzbl -0x1c(%rbp),%edx
ffffffff8010932e:	0f b6 75 e8          	movzbl -0x18(%rbp),%esi
ffffffff80109332:	0f b6 45 ec          	movzbl -0x14(%rbp),%eax
ffffffff80109336:	b9 18 00 00 00       	mov    $0x18,%ecx
ffffffff8010933b:	89 c7                	mov    %eax,%edi
ffffffff8010933d:	e8 d0 00 00 00       	callq  ffffffff80109412 <pci_read>
ffffffff80109342:	c1 e8 08             	shr    $0x8,%eax
ffffffff80109345:	0f b6 c0             	movzbl %al,%eax
ffffffff80109348:	89 c7                	mov    %eax,%edi
ffffffff8010934a:	e8 95 01 00 00       	callq  ffffffff801094e4 <pci_scan_bus>
ffffffff8010934f:	e9 bb 00 00 00       	jmpq   ffffffff8010940f <check_device+0x175>
ffffffff80109354:	0f b6 55 e4          	movzbl -0x1c(%rbp),%edx
ffffffff80109358:	0f b6 75 e8          	movzbl -0x18(%rbp),%esi
ffffffff8010935c:	0f b6 45 ec          	movzbl -0x14(%rbp),%eax
ffffffff80109360:	b9 08 00 00 00       	mov    $0x8,%ecx
ffffffff80109365:	89 c7                	mov    %eax,%edi
ffffffff80109367:	e8 a6 00 00 00       	callq  ffffffff80109412 <pci_read>
ffffffff8010936c:	c1 e8 18             	shr    $0x18,%eax
ffffffff8010936f:	88 45 f0             	mov    %al,-0x10(%rbp)
ffffffff80109372:	0f b6 55 e4          	movzbl -0x1c(%rbp),%edx
ffffffff80109376:	0f b6 75 e8          	movzbl -0x18(%rbp),%esi
ffffffff8010937a:	0f b6 45 ec          	movzbl -0x14(%rbp),%eax
ffffffff8010937e:	b9 08 00 00 00       	mov    $0x8,%ecx
ffffffff80109383:	89 c7                	mov    %eax,%edi
ffffffff80109385:	e8 88 00 00 00       	callq  ffffffff80109412 <pci_read>
ffffffff8010938a:	c1 e8 10             	shr    $0x10,%eax
ffffffff8010938d:	88 45 f1             	mov    %al,-0xf(%rbp)
ffffffff80109390:	0f b6 55 e4          	movzbl -0x1c(%rbp),%edx
ffffffff80109394:	0f b6 75 e8          	movzbl -0x18(%rbp),%esi
ffffffff80109398:	0f b6 45 ec          	movzbl -0x14(%rbp),%eax
ffffffff8010939c:	b9 08 00 00 00       	mov    $0x8,%ecx
ffffffff801093a1:	89 c7                	mov    %eax,%edi
ffffffff801093a3:	e8 6a 00 00 00       	callq  ffffffff80109412 <pci_read>
ffffffff801093a8:	c1 e8 08             	shr    $0x8,%eax
ffffffff801093ab:	88 45 f2             	mov    %al,-0xe(%rbp)
ffffffff801093ae:	0f b6 55 e4          	movzbl -0x1c(%rbp),%edx
ffffffff801093b2:	0f b6 75 e8          	movzbl -0x18(%rbp),%esi
ffffffff801093b6:	0f b6 45 ec          	movzbl -0x14(%rbp),%eax
ffffffff801093ba:	b9 00 00 00 00       	mov    $0x0,%ecx
ffffffff801093bf:	89 c7                	mov    %eax,%edi
ffffffff801093c1:	e8 4c 00 00 00       	callq  ffffffff80109412 <pci_read>
ffffffff801093c6:	c1 e8 10             	shr    $0x10,%eax
ffffffff801093c9:	66 89 45 f4          	mov    %ax,-0xc(%rbp)
ffffffff801093cd:	0f b6 55 e4          	movzbl -0x1c(%rbp),%edx
ffffffff801093d1:	0f b6 75 e8          	movzbl -0x18(%rbp),%esi
ffffffff801093d5:	0f b6 45 ec          	movzbl -0x14(%rbp),%eax
ffffffff801093d9:	b9 00 00 00 00       	mov    $0x0,%ecx
ffffffff801093de:	89 c7                	mov    %eax,%edi
ffffffff801093e0:	e8 2d 00 00 00       	callq  ffffffff80109412 <pci_read>
ffffffff801093e5:	66 89 45 f6          	mov    %ax,-0xa(%rbp)
ffffffff801093e9:	0f b6 45 ec          	movzbl -0x14(%rbp),%eax
ffffffff801093ed:	88 45 f8             	mov    %al,-0x8(%rbp)
ffffffff801093f0:	0f b6 45 e8          	movzbl -0x18(%rbp),%eax
ffffffff801093f4:	88 45 f9             	mov    %al,-0x7(%rbp)
ffffffff801093f7:	0f b6 45 e4          	movzbl -0x1c(%rbp),%eax
ffffffff801093fb:	88 45 fa             	mov    %al,-0x6(%rbp)
ffffffff801093fe:	48 8b 55 f0          	mov    -0x10(%rbp),%rdx
ffffffff80109402:	8b 45 f8             	mov    -0x8(%rbp),%eax
ffffffff80109405:	48 89 d7             	mov    %rdx,%rdi
ffffffff80109408:	89 c6                	mov    %eax,%esi
ffffffff8010940a:	e8 0d fe ff ff       	callq  ffffffff8010921c <add_pci_device>
ffffffff8010940f:	90                   	nop
ffffffff80109410:	c9                   	leaveq 
ffffffff80109411:	c3                   	retq   

ffffffff80109412 <pci_read>:
ffffffff80109412:	55                   	push   %rbp
ffffffff80109413:	48 89 e5             	mov    %rsp,%rbp
ffffffff80109416:	48 83 ec 10          	sub    $0x10,%rsp
ffffffff8010941a:	89 c8                	mov    %ecx,%eax
ffffffff8010941c:	89 f9                	mov    %edi,%ecx
ffffffff8010941e:	88 4d fc             	mov    %cl,-0x4(%rbp)
ffffffff80109421:	89 f1                	mov    %esi,%ecx
ffffffff80109423:	88 4d f8             	mov    %cl,-0x8(%rbp)
ffffffff80109426:	88 55 f4             	mov    %dl,-0xc(%rbp)
ffffffff80109429:	88 45 f0             	mov    %al,-0x10(%rbp)
ffffffff8010942c:	0f b6 45 fc          	movzbl -0x4(%rbp),%eax
ffffffff80109430:	c1 e0 10             	shl    $0x10,%eax
ffffffff80109433:	89 c2                	mov    %eax,%edx
ffffffff80109435:	0f b6 45 f8          	movzbl -0x8(%rbp),%eax
ffffffff80109439:	c1 e0 0b             	shl    $0xb,%eax
ffffffff8010943c:	0f b7 c0             	movzwl %ax,%eax
ffffffff8010943f:	09 c2                	or     %eax,%edx
ffffffff80109441:	0f b6 45 f4          	movzbl -0xc(%rbp),%eax
ffffffff80109445:	c1 e0 08             	shl    $0x8,%eax
ffffffff80109448:	25 00 07 00 00       	and    $0x700,%eax
ffffffff8010944d:	09 c2                	or     %eax,%edx
ffffffff8010944f:	0f b6 45 f0          	movzbl -0x10(%rbp),%eax
ffffffff80109453:	83 e0 fc             	and    $0xfffffffc,%eax
ffffffff80109456:	09 d0                	or     %edx,%eax
ffffffff80109458:	0d 00 00 00 80       	or     $0x80000000,%eax
ffffffff8010945d:	89 c6                	mov    %eax,%esi
ffffffff8010945f:	bf f8 0c 00 00       	mov    $0xcf8,%edi
ffffffff80109464:	e8 9a 8b ff ff       	callq  ffffffff80102003 <outd>
ffffffff80109469:	bf fc 0c 00 00       	mov    $0xcfc,%edi
ffffffff8010946e:	e8 ea 8b ff ff       	callq  ffffffff8010205d <ind>
ffffffff80109473:	c9                   	leaveq 
ffffffff80109474:	c3                   	retq   

ffffffff80109475 <pci_write>:
ffffffff80109475:	55                   	push   %rbp
ffffffff80109476:	48 89 e5             	mov    %rsp,%rbp
ffffffff80109479:	48 83 ec 20          	sub    $0x20,%rsp
ffffffff8010947d:	89 7d fc             	mov    %edi,-0x4(%rbp)
ffffffff80109480:	89 c8                	mov    %ecx,%eax
ffffffff80109482:	44 89 c7             	mov    %r8d,%edi
ffffffff80109485:	89 f1                	mov    %esi,%ecx
ffffffff80109487:	88 4d f8             	mov    %cl,-0x8(%rbp)
ffffffff8010948a:	88 55 f4             	mov    %dl,-0xc(%rbp)
ffffffff8010948d:	88 45 f0             	mov    %al,-0x10(%rbp)
ffffffff80109490:	89 f8                	mov    %edi,%eax
ffffffff80109492:	88 45 ec             	mov    %al,-0x14(%rbp)
ffffffff80109495:	0f b6 45 f8          	movzbl -0x8(%rbp),%eax
ffffffff80109499:	c1 e0 10             	shl    $0x10,%eax
ffffffff8010949c:	89 c2                	mov    %eax,%edx
ffffffff8010949e:	0f b6 45 f4          	movzbl -0xc(%rbp),%eax
ffffffff801094a2:	c1 e0 0b             	shl    $0xb,%eax
ffffffff801094a5:	0f b7 c0             	movzwl %ax,%eax
ffffffff801094a8:	09 c2                	or     %eax,%edx
ffffffff801094aa:	0f b6 45 f0          	movzbl -0x10(%rbp),%eax
ffffffff801094ae:	c1 e0 08             	shl    $0x8,%eax
ffffffff801094b1:	25 00 07 00 00       	and    $0x700,%eax
ffffffff801094b6:	09 c2                	or     %eax,%edx
ffffffff801094b8:	0f b6 45 ec          	movzbl -0x14(%rbp),%eax
ffffffff801094bc:	83 e0 fc             	and    $0xfffffffc,%eax
ffffffff801094bf:	09 d0                	or     %edx,%eax
ffffffff801094c1:	0d 00 00 00 80       	or     $0x80000000,%eax
ffffffff801094c6:	89 c6                	mov    %eax,%esi
ffffffff801094c8:	bf f8 0c 00 00       	mov    $0xcf8,%edi
ffffffff801094cd:	e8 31 8b ff ff       	callq  ffffffff80102003 <outd>
ffffffff801094d2:	8b 45 fc             	mov    -0x4(%rbp),%eax
ffffffff801094d5:	89 c6                	mov    %eax,%esi
ffffffff801094d7:	bf fc 0c 00 00       	mov    $0xcfc,%edi
ffffffff801094dc:	e8 22 8b ff ff       	callq  ffffffff80102003 <outd>
ffffffff801094e1:	90                   	nop
ffffffff801094e2:	c9                   	leaveq 
ffffffff801094e3:	c3                   	retq   

ffffffff801094e4 <pci_scan_bus>:
ffffffff801094e4:	55                   	push   %rbp
ffffffff801094e5:	48 89 e5             	mov    %rsp,%rbp
ffffffff801094e8:	48 83 ec 20          	sub    $0x20,%rsp
ffffffff801094ec:	89 f8                	mov    %edi,%eax
ffffffff801094ee:	88 45 ec             	mov    %al,-0x14(%rbp)
ffffffff801094f1:	c6 45 ff 00          	movb   $0x0,-0x1(%rbp)
ffffffff801094f5:	e9 a8 00 00 00       	jmpq   ffffffff801095a2 <pci_scan_bus+0xbe>
ffffffff801094fa:	0f b6 75 ff          	movzbl -0x1(%rbp),%esi
ffffffff801094fe:	0f b6 45 ec          	movzbl -0x14(%rbp),%eax
ffffffff80109502:	b9 00 00 00 00       	mov    $0x0,%ecx
ffffffff80109507:	ba 00 00 00 00       	mov    $0x0,%edx
ffffffff8010950c:	89 c7                	mov    %eax,%edi
ffffffff8010950e:	e8 ff fe ff ff       	callq  ffffffff80109412 <pci_read>
ffffffff80109513:	66 83 f8 ff          	cmp    $0xffff,%ax
ffffffff80109517:	74 7f                	je     ffffffff80109598 <pci_scan_bus+0xb4>
ffffffff80109519:	0f b6 4d ff          	movzbl -0x1(%rbp),%ecx
ffffffff8010951d:	0f b6 45 ec          	movzbl -0x14(%rbp),%eax
ffffffff80109521:	ba 00 00 00 00       	mov    $0x0,%edx
ffffffff80109526:	89 ce                	mov    %ecx,%esi
ffffffff80109528:	89 c7                	mov    %eax,%edi
ffffffff8010952a:	e8 6b fd ff ff       	callq  ffffffff8010929a <check_device>
ffffffff8010952f:	0f b6 75 ff          	movzbl -0x1(%rbp),%esi
ffffffff80109533:	0f b6 45 ec          	movzbl -0x14(%rbp),%eax
ffffffff80109537:	b9 0c 00 00 00       	mov    $0xc,%ecx
ffffffff8010953c:	ba 00 00 00 00       	mov    $0x0,%edx
ffffffff80109541:	89 c7                	mov    %eax,%edi
ffffffff80109543:	e8 ca fe ff ff       	callq  ffffffff80109412 <pci_read>
ffffffff80109548:	c1 e8 10             	shr    $0x10,%eax
ffffffff8010954b:	84 c0                	test   %al,%al
ffffffff8010954d:	79 49                	jns    ffffffff80109598 <pci_scan_bus+0xb4>
ffffffff8010954f:	c6 45 fe 01          	movb   $0x1,-0x2(%rbp)
ffffffff80109553:	eb 3d                	jmp    ffffffff80109592 <pci_scan_bus+0xae>
ffffffff80109555:	0f b6 55 fe          	movzbl -0x2(%rbp),%edx
ffffffff80109559:	0f b6 75 ff          	movzbl -0x1(%rbp),%esi
ffffffff8010955d:	0f b6 45 ec          	movzbl -0x14(%rbp),%eax
ffffffff80109561:	b9 00 00 00 00       	mov    $0x0,%ecx
ffffffff80109566:	89 c7                	mov    %eax,%edi
ffffffff80109568:	e8 a5 fe ff ff       	callq  ffffffff80109412 <pci_read>
ffffffff8010956d:	66 83 f8 ff          	cmp    $0xffff,%ax
ffffffff80109571:	74 15                	je     ffffffff80109588 <pci_scan_bus+0xa4>
ffffffff80109573:	0f b6 55 fe          	movzbl -0x2(%rbp),%edx
ffffffff80109577:	0f b6 4d ff          	movzbl -0x1(%rbp),%ecx
ffffffff8010957b:	0f b6 45 ec          	movzbl -0x14(%rbp),%eax
ffffffff8010957f:	89 ce                	mov    %ecx,%esi
ffffffff80109581:	89 c7                	mov    %eax,%edi
ffffffff80109583:	e8 12 fd ff ff       	callq  ffffffff8010929a <check_device>
ffffffff80109588:	0f b6 45 fe          	movzbl -0x2(%rbp),%eax
ffffffff8010958c:	83 c0 01             	add    $0x1,%eax
ffffffff8010958f:	88 45 fe             	mov    %al,-0x2(%rbp)
ffffffff80109592:	80 7d fe 07          	cmpb   $0x7,-0x2(%rbp)
ffffffff80109596:	76 bd                	jbe    ffffffff80109555 <pci_scan_bus+0x71>
ffffffff80109598:	0f b6 45 ff          	movzbl -0x1(%rbp),%eax
ffffffff8010959c:	83 c0 01             	add    $0x1,%eax
ffffffff8010959f:	88 45 ff             	mov    %al,-0x1(%rbp)
ffffffff801095a2:	80 7d ff 1f          	cmpb   $0x1f,-0x1(%rbp)
ffffffff801095a6:	0f 86 4e ff ff ff    	jbe    ffffffff801094fa <pci_scan_bus+0x16>
ffffffff801095ac:	90                   	nop
ffffffff801095ad:	90                   	nop
ffffffff801095ae:	c9                   	leaveq 
ffffffff801095af:	c3                   	retq   

ffffffff801095b0 <pci_get_bar>:
ffffffff801095b0:	55                   	push   %rbp
ffffffff801095b1:	48 89 e5             	mov    %rsp,%rbp
ffffffff801095b4:	53                   	push   %rbx
ffffffff801095b5:	48 83 ec 38          	sub    $0x38,%rsp
ffffffff801095b9:	48 89 f9             	mov    %rdi,%rcx
ffffffff801095bc:	89 f0                	mov    %esi,%eax
ffffffff801095be:	48 89 55 c8          	mov    %rdx,-0x38(%rbp)
ffffffff801095c2:	48 89 4d d0          	mov    %rcx,-0x30(%rbp)
ffffffff801095c6:	89 45 d8             	mov    %eax,-0x28(%rbp)
ffffffff801095c9:	48 8b 45 c8          	mov    -0x38(%rbp),%rax
ffffffff801095cd:	48 83 c0 04          	add    $0x4,%rax
ffffffff801095d1:	c1 e0 02             	shl    $0x2,%eax
ffffffff801095d4:	0f b6 c8             	movzbl %al,%ecx
ffffffff801095d7:	0f b6 45 da          	movzbl -0x26(%rbp),%eax
ffffffff801095db:	0f b6 d0             	movzbl %al,%edx
ffffffff801095de:	0f b6 45 d9          	movzbl -0x27(%rbp),%eax
ffffffff801095e2:	0f b6 f0             	movzbl %al,%esi
ffffffff801095e5:	0f b6 45 d8          	movzbl -0x28(%rbp),%eax
ffffffff801095e9:	0f b6 c0             	movzbl %al,%eax
ffffffff801095ec:	89 c7                	mov    %eax,%edi
ffffffff801095ee:	e8 1f fe ff ff       	callq  ffffffff80109412 <pci_read>
ffffffff801095f3:	89 45 ec             	mov    %eax,-0x14(%rbp)
ffffffff801095f6:	48 8b 45 c8          	mov    -0x38(%rbp),%rax
ffffffff801095fa:	48 83 c0 04          	add    $0x4,%rax
ffffffff801095fe:	c1 e0 02             	shl    $0x2,%eax
ffffffff80109601:	0f b6 f0             	movzbl %al,%esi
ffffffff80109604:	0f b6 45 da          	movzbl -0x26(%rbp),%eax
ffffffff80109608:	0f b6 c8             	movzbl %al,%ecx
ffffffff8010960b:	0f b6 45 d9          	movzbl -0x27(%rbp),%eax
ffffffff8010960f:	0f b6 d0             	movzbl %al,%edx
ffffffff80109612:	0f b6 45 d8          	movzbl -0x28(%rbp),%eax
ffffffff80109616:	0f b6 c0             	movzbl %al,%eax
ffffffff80109619:	41 89 f0             	mov    %esi,%r8d
ffffffff8010961c:	89 c6                	mov    %eax,%esi
ffffffff8010961e:	bf ff ff ff ff       	mov    $0xffffffff,%edi
ffffffff80109623:	e8 4d fe ff ff       	callq  ffffffff80109475 <pci_write>
ffffffff80109628:	48 8b 45 c8          	mov    -0x38(%rbp),%rax
ffffffff8010962c:	48 83 c0 04          	add    $0x4,%rax
ffffffff80109630:	c1 e0 02             	shl    $0x2,%eax
ffffffff80109633:	0f b6 c8             	movzbl %al,%ecx
ffffffff80109636:	0f b6 45 da          	movzbl -0x26(%rbp),%eax
ffffffff8010963a:	0f b6 d0             	movzbl %al,%edx
ffffffff8010963d:	0f b6 45 d9          	movzbl -0x27(%rbp),%eax
ffffffff80109641:	0f b6 f0             	movzbl %al,%esi
ffffffff80109644:	0f b6 45 d8          	movzbl -0x28(%rbp),%eax
ffffffff80109648:	0f b6 c0             	movzbl %al,%eax
ffffffff8010964b:	89 c7                	mov    %eax,%edi
ffffffff8010964d:	e8 c0 fd ff ff       	callq  ffffffff80109412 <pci_read>
ffffffff80109652:	89 45 e8             	mov    %eax,-0x18(%rbp)
ffffffff80109655:	48 8b 45 c8          	mov    -0x38(%rbp),%rax
ffffffff80109659:	48 83 c0 04          	add    $0x4,%rax
ffffffff8010965d:	c1 e0 02             	shl    $0x2,%eax
ffffffff80109660:	0f b6 f8             	movzbl %al,%edi
ffffffff80109663:	0f b6 45 da          	movzbl -0x26(%rbp),%eax
ffffffff80109667:	0f b6 c8             	movzbl %al,%ecx
ffffffff8010966a:	0f b6 45 d9          	movzbl -0x27(%rbp),%eax
ffffffff8010966e:	0f b6 d0             	movzbl %al,%edx
ffffffff80109671:	0f b6 45 d8          	movzbl -0x28(%rbp),%eax
ffffffff80109675:	0f b6 f0             	movzbl %al,%esi
ffffffff80109678:	8b 45 ec             	mov    -0x14(%rbp),%eax
ffffffff8010967b:	41 89 f8             	mov    %edi,%r8d
ffffffff8010967e:	89 c7                	mov    %eax,%edi
ffffffff80109680:	e8 f0 fd ff ff       	callq  ffffffff80109475 <pci_write>
ffffffff80109685:	8b 45 e8             	mov    -0x18(%rbp),%eax
ffffffff80109688:	f7 d8                	neg    %eax
ffffffff8010968a:	89 c2                	mov    %eax,%edx
ffffffff8010968c:	8b 45 ec             	mov    -0x14(%rbp),%eax
ffffffff8010968f:	48 b9 00 00 00 00 ff 	movabs $0xffffffff00000000,%rcx
ffffffff80109696:	ff ff ff 
ffffffff80109699:	48 21 d9             	and    %rbx,%rcx
ffffffff8010969c:	48 09 c8             	or     %rcx,%rax
ffffffff8010969f:	48 89 c3             	mov    %rax,%rbx
ffffffff801096a2:	89 d0                	mov    %edx,%eax
ffffffff801096a4:	48 c1 e0 20          	shl    $0x20,%rax
ffffffff801096a8:	89 da                	mov    %ebx,%edx
ffffffff801096aa:	48 09 d0             	or     %rdx,%rax
ffffffff801096ad:	48 89 c3             	mov    %rax,%rbx
ffffffff801096b0:	48 89 d8             	mov    %rbx,%rax
ffffffff801096b3:	48 8b 5d f8          	mov    -0x8(%rbp),%rbx
ffffffff801096b7:	c9                   	leaveq 
ffffffff801096b8:	c3                   	retq   

ffffffff801096b9 <pci_init>:
ffffffff801096b9:	55                   	push   %rbp
ffffffff801096ba:	48 89 e5             	mov    %rsp,%rbp
ffffffff801096bd:	bf 78 00 00 00       	mov    $0x78,%edi
ffffffff801096c2:	e8 b5 8a ff ff       	callq  ffffffff8010217c <kmalloc>
ffffffff801096c7:	48 89 05 fa fe 00 00 	mov    %rax,0xfefa(%rip)        # ffffffff801195c8 <pci_devices>
ffffffff801096ce:	bf 00 00 00 00       	mov    $0x0,%edi
ffffffff801096d3:	e8 0c fe ff ff       	callq  ffffffff801094e4 <pci_scan_bus>
ffffffff801096d8:	b8 00 00 00 00       	mov    $0x0,%eax
ffffffff801096dd:	e8 03 00 00 00       	callq  ffffffff801096e5 <show_pci_devices>
ffffffff801096e2:	90                   	nop
ffffffff801096e3:	5d                   	pop    %rbp
ffffffff801096e4:	c3                   	retq   

ffffffff801096e5 <show_pci_devices>:
ffffffff801096e5:	55                   	push   %rbp
ffffffff801096e6:	48 89 e5             	mov    %rsp,%rbp
ffffffff801096e9:	48 83 ec 10          	sub    $0x10,%rsp
ffffffff801096ed:	48 c7 45 f8 00 00 00 	movq   $0x0,-0x8(%rbp)
ffffffff801096f4:	00 
ffffffff801096f5:	e9 33 01 00 00       	jmpq   ffffffff8010982d <show_pci_devices+0x148>
ffffffff801096fa:	48 8b 45 f8          	mov    -0x8(%rbp),%rax
ffffffff801096fe:	48 89 c6             	mov    %rax,%rsi
ffffffff80109701:	48 c7 c7 e0 c6 10 80 	mov    $0xffffffff8010c6e0,%rdi
ffffffff80109708:	b8 00 00 00 00       	mov    $0x0,%eax
ffffffff8010970d:	e8 6c f4 ff ff       	callq  ffffffff80108b7e <kvprintf>
ffffffff80109712:	48 8b 0d af fe 00 00 	mov    0xfeaf(%rip),%rcx        # ffffffff801195c8 <pci_devices>
ffffffff80109719:	48 8b 55 f8          	mov    -0x8(%rbp),%rdx
ffffffff8010971d:	48 89 d0             	mov    %rdx,%rax
ffffffff80109720:	48 01 c0             	add    %rax,%rax
ffffffff80109723:	48 01 d0             	add    %rdx,%rax
ffffffff80109726:	48 c1 e0 02          	shl    $0x2,%rax
ffffffff8010972a:	48 01 c8             	add    %rcx,%rax
ffffffff8010972d:	0f b6 40 0a          	movzbl 0xa(%rax),%eax
ffffffff80109731:	0f b6 c8             	movzbl %al,%ecx
ffffffff80109734:	48 8b 35 8d fe 00 00 	mov    0xfe8d(%rip),%rsi        # ffffffff801195c8 <pci_devices>
ffffffff8010973b:	48 8b 55 f8          	mov    -0x8(%rbp),%rdx
ffffffff8010973f:	48 89 d0             	mov    %rdx,%rax
ffffffff80109742:	48 01 c0             	add    %rax,%rax
ffffffff80109745:	48 01 d0             	add    %rdx,%rax
ffffffff80109748:	48 c1 e0 02          	shl    $0x2,%rax
ffffffff8010974c:	48 01 f0             	add    %rsi,%rax
ffffffff8010974f:	0f b6 40 08          	movzbl 0x8(%rax),%eax
ffffffff80109753:	0f b6 d0             	movzbl %al,%edx
ffffffff80109756:	48 8b 3d 6b fe 00 00 	mov    0xfe6b(%rip),%rdi        # ffffffff801195c8 <pci_devices>
ffffffff8010975d:	48 8b 75 f8          	mov    -0x8(%rbp),%rsi
ffffffff80109761:	48 89 f0             	mov    %rsi,%rax
ffffffff80109764:	48 01 c0             	add    %rax,%rax
ffffffff80109767:	48 01 f0             	add    %rsi,%rax
ffffffff8010976a:	48 c1 e0 02          	shl    $0x2,%rax
ffffffff8010976e:	48 01 f8             	add    %rdi,%rax
ffffffff80109771:	0f b7 40 06          	movzwl 0x6(%rax),%eax
ffffffff80109775:	0f b7 c0             	movzwl %ax,%eax
ffffffff80109778:	89 c6                	mov    %eax,%esi
ffffffff8010977a:	48 c7 c7 f8 c6 10 80 	mov    $0xffffffff8010c6f8,%rdi
ffffffff80109781:	b8 00 00 00 00       	mov    $0x0,%eax
ffffffff80109786:	e8 f3 f3 ff ff       	callq  ffffffff80108b7e <kvprintf>
ffffffff8010978b:	48 8b 0d 36 fe 00 00 	mov    0xfe36(%rip),%rcx        # ffffffff801195c8 <pci_devices>
ffffffff80109792:	48 8b 55 f8          	mov    -0x8(%rbp),%rdx
ffffffff80109796:	48 89 d0             	mov    %rdx,%rax
ffffffff80109799:	48 01 c0             	add    %rax,%rax
ffffffff8010979c:	48 01 d0             	add    %rdx,%rax
ffffffff8010979f:	48 c1 e0 02          	shl    $0x2,%rax
ffffffff801097a3:	48 01 c8             	add    %rcx,%rax
ffffffff801097a6:	0f b7 40 04          	movzwl 0x4(%rax),%eax
ffffffff801097aa:	0f b7 f8             	movzwl %ax,%edi
ffffffff801097ad:	48 8b 0d 14 fe 00 00 	mov    0xfe14(%rip),%rcx        # ffffffff801195c8 <pci_devices>
ffffffff801097b4:	48 8b 55 f8          	mov    -0x8(%rbp),%rdx
ffffffff801097b8:	48 89 d0             	mov    %rdx,%rax
ffffffff801097bb:	48 01 c0             	add    %rax,%rax
ffffffff801097be:	48 01 d0             	add    %rdx,%rax
ffffffff801097c1:	48 c1 e0 02          	shl    $0x2,%rax
ffffffff801097c5:	48 01 c8             	add    %rcx,%rax
ffffffff801097c8:	0f b6 40 02          	movzbl 0x2(%rax),%eax
ffffffff801097cc:	0f b6 c8             	movzbl %al,%ecx
ffffffff801097cf:	48 8b 35 f2 fd 00 00 	mov    0xfdf2(%rip),%rsi        # ffffffff801195c8 <pci_devices>
ffffffff801097d6:	48 8b 55 f8          	mov    -0x8(%rbp),%rdx
ffffffff801097da:	48 89 d0             	mov    %rdx,%rax
ffffffff801097dd:	48 01 c0             	add    %rax,%rax
ffffffff801097e0:	48 01 d0             	add    %rdx,%rax
ffffffff801097e3:	48 c1 e0 02          	shl    $0x2,%rax
ffffffff801097e7:	48 01 f0             	add    %rsi,%rax
ffffffff801097ea:	0f b6 40 01          	movzbl 0x1(%rax),%eax
ffffffff801097ee:	0f b6 d0             	movzbl %al,%edx
ffffffff801097f1:	4c 8b 05 d0 fd 00 00 	mov    0xfdd0(%rip),%r8        # ffffffff801195c8 <pci_devices>
ffffffff801097f8:	48 8b 75 f8          	mov    -0x8(%rbp),%rsi
ffffffff801097fc:	48 89 f0             	mov    %rsi,%rax
ffffffff801097ff:	48 01 c0             	add    %rax,%rax
ffffffff80109802:	48 01 f0             	add    %rsi,%rax
ffffffff80109805:	48 c1 e0 02          	shl    $0x2,%rax
ffffffff80109809:	4c 01 c0             	add    %r8,%rax
ffffffff8010980c:	0f b6 00             	movzbl (%rax),%eax
ffffffff8010980f:	0f b6 c0             	movzbl %al,%eax
ffffffff80109812:	41 89 f8             	mov    %edi,%r8d
ffffffff80109815:	89 c6                	mov    %eax,%esi
ffffffff80109817:	48 c7 c7 28 c7 10 80 	mov    $0xffffffff8010c728,%rdi
ffffffff8010981e:	b8 00 00 00 00       	mov    $0x0,%eax
ffffffff80109823:	e8 56 f3 ff ff       	callq  ffffffff80108b7e <kvprintf>
ffffffff80109828:	48 83 45 f8 01       	addq   $0x1,-0x8(%rbp)
ffffffff8010982d:	48 8b 05 9c fd 00 00 	mov    0xfd9c(%rip),%rax        # ffffffff801195d0 <pci_device_cnt>
ffffffff80109834:	48 39 45 f8          	cmp    %rax,-0x8(%rbp)
ffffffff80109838:	0f 82 bc fe ff ff    	jb     ffffffff801096fa <show_pci_devices+0x15>
ffffffff8010983e:	48 8b 05 8b fd 00 00 	mov    0xfd8b(%rip),%rax        # ffffffff801195d0 <pci_device_cnt>
ffffffff80109845:	48 89 c6             	mov    %rax,%rsi
ffffffff80109848:	48 c7 c7 72 c7 10 80 	mov    $0xffffffff8010c772,%rdi
ffffffff8010984f:	b8 00 00 00 00       	mov    $0x0,%eax
ffffffff80109854:	e8 25 f3 ff ff       	callq  ffffffff80108b7e <kvprintf>
ffffffff80109859:	90                   	nop
ffffffff8010985a:	c9                   	leaveq 
ffffffff8010985b:	c3                   	retq   

ffffffff8010985c <pmm_init>:
ffffffff8010985c:	55                   	push   %rbp
ffffffff8010985d:	48 89 e5             	mov    %rsp,%rbp
ffffffff80109860:	48 83 ec 40          	sub    $0x40,%rsp
ffffffff80109864:	48 89 7d c8          	mov    %rdi,-0x38(%rbp)
ffffffff80109868:	48 8b 45 c8          	mov    -0x38(%rbp),%rax
ffffffff8010986c:	48 8b 40 08          	mov    0x8(%rax),%rax
ffffffff80109870:	48 89 45 e0          	mov    %rax,-0x20(%rbp)
ffffffff80109874:	48 c7 45 f8 00 00 00 	movq   $0x0,-0x8(%rbp)
ffffffff8010987b:	00 
ffffffff8010987c:	e9 f5 00 00 00       	jmpq   ffffffff80109976 <pmm_init+0x11a>
ffffffff80109881:	48 8b 55 f8          	mov    -0x8(%rbp),%rdx
ffffffff80109885:	48 89 d0             	mov    %rdx,%rax
ffffffff80109888:	48 01 c0             	add    %rax,%rax
ffffffff8010988b:	48 01 d0             	add    %rdx,%rax
ffffffff8010988e:	48 c1 e0 03          	shl    $0x3,%rax
ffffffff80109892:	48 89 c2             	mov    %rax,%rdx
ffffffff80109895:	48 8b 45 e0          	mov    -0x20(%rbp),%rax
ffffffff80109899:	48 01 d0             	add    %rdx,%rax
ffffffff8010989c:	48 8b 50 08          	mov    0x8(%rax),%rdx
ffffffff801098a0:	48 8b 05 39 fd 00 00 	mov    0xfd39(%rip),%rax        # ffffffff801195e0 <total_mem>
ffffffff801098a7:	48 01 d0             	add    %rdx,%rax
ffffffff801098aa:	48 89 05 2f fd 00 00 	mov    %rax,0xfd2f(%rip)        # ffffffff801195e0 <total_mem>
ffffffff801098b1:	48 8b 55 f8          	mov    -0x8(%rbp),%rdx
ffffffff801098b5:	48 89 d0             	mov    %rdx,%rax
ffffffff801098b8:	48 01 c0             	add    %rax,%rax
ffffffff801098bb:	48 01 d0             	add    %rdx,%rax
ffffffff801098be:	48 c1 e0 03          	shl    $0x3,%rax
ffffffff801098c2:	48 89 c2             	mov    %rax,%rdx
ffffffff801098c5:	48 8b 45 e0          	mov    -0x20(%rbp),%rax
ffffffff801098c9:	48 01 d0             	add    %rdx,%rax
ffffffff801098cc:	8b 78 10             	mov    0x10(%rax),%edi
ffffffff801098cf:	48 8b 55 f8          	mov    -0x8(%rbp),%rdx
ffffffff801098d3:	48 89 d0             	mov    %rdx,%rax
ffffffff801098d6:	48 01 c0             	add    %rax,%rax
ffffffff801098d9:	48 01 d0             	add    %rdx,%rax
ffffffff801098dc:	48 c1 e0 03          	shl    $0x3,%rax
ffffffff801098e0:	48 89 c2             	mov    %rax,%rdx
ffffffff801098e3:	48 8b 45 e0          	mov    -0x20(%rbp),%rax
ffffffff801098e7:	48 01 d0             	add    %rdx,%rax
ffffffff801098ea:	48 8b 70 08          	mov    0x8(%rax),%rsi
ffffffff801098ee:	48 8b 55 f8          	mov    -0x8(%rbp),%rdx
ffffffff801098f2:	48 89 d0             	mov    %rdx,%rax
ffffffff801098f5:	48 01 c0             	add    %rax,%rax
ffffffff801098f8:	48 01 d0             	add    %rdx,%rax
ffffffff801098fb:	48 c1 e0 03          	shl    $0x3,%rax
ffffffff801098ff:	48 89 c2             	mov    %rax,%rdx
ffffffff80109902:	48 8b 45 e0          	mov    -0x20(%rbp),%rax
ffffffff80109906:	48 01 d0             	add    %rdx,%rax
ffffffff80109909:	48 8b 08             	mov    (%rax),%rcx
ffffffff8010990c:	48 8b 55 f8          	mov    -0x8(%rbp),%rdx
ffffffff80109910:	48 89 d0             	mov    %rdx,%rax
ffffffff80109913:	48 01 c0             	add    %rax,%rax
ffffffff80109916:	48 01 d0             	add    %rdx,%rax
ffffffff80109919:	48 c1 e0 03          	shl    $0x3,%rax
ffffffff8010991d:	48 89 c2             	mov    %rax,%rdx
ffffffff80109920:	48 8b 45 e0          	mov    -0x20(%rbp),%rax
ffffffff80109924:	48 01 d0             	add    %rdx,%rax
ffffffff80109927:	48 8b 40 08          	mov    0x8(%rax),%rax
ffffffff8010992b:	48 8d 14 01          	lea    (%rcx,%rax,1),%rdx
ffffffff8010992f:	48 8b 4d f8          	mov    -0x8(%rbp),%rcx
ffffffff80109933:	48 89 c8             	mov    %rcx,%rax
ffffffff80109936:	48 01 c0             	add    %rax,%rax
ffffffff80109939:	48 01 c8             	add    %rcx,%rax
ffffffff8010993c:	48 c1 e0 03          	shl    $0x3,%rax
ffffffff80109940:	48 89 c1             	mov    %rax,%rcx
ffffffff80109943:	48 8b 45 e0          	mov    -0x20(%rbp),%rax
ffffffff80109947:	48 01 c8             	add    %rcx,%rax
ffffffff8010994a:	48 8b 00             	mov    (%rax),%rax
ffffffff8010994d:	41 89 f9             	mov    %edi,%r9d
ffffffff80109950:	49 89 f0             	mov    %rsi,%r8
ffffffff80109953:	48 89 d1             	mov    %rdx,%rcx
ffffffff80109956:	48 89 c2             	mov    %rax,%rdx
ffffffff80109959:	48 c7 c6 90 c7 10 80 	mov    $0xffffffff8010c790,%rsi
ffffffff80109960:	48 c7 c7 af c7 10 80 	mov    $0xffffffff8010c7af,%rdi
ffffffff80109967:	b8 00 00 00 00       	mov    $0x0,%eax
ffffffff8010996c:	e8 f4 f0 ff ff       	callq  ffffffff80108a65 <kprintf>
ffffffff80109971:	48 83 45 f8 01       	addq   $0x1,-0x8(%rbp)
ffffffff80109976:	48 8b 45 c8          	mov    -0x38(%rbp),%rax
ffffffff8010997a:	48 8b 40 10          	mov    0x10(%rax),%rax
ffffffff8010997e:	48 39 45 f8          	cmp    %rax,-0x8(%rbp)
ffffffff80109982:	0f 82 f9 fe ff ff    	jb     ffffffff80109881 <pmm_init+0x25>
ffffffff80109988:	48 8b 05 51 fc 00 00 	mov    0xfc51(%rip),%rax        # ffffffff801195e0 <total_mem>
ffffffff8010998f:	48 c1 e8 0f          	shr    $0xf,%rax
ffffffff80109993:	48 89 45 d8          	mov    %rax,-0x28(%rbp)
ffffffff80109997:	48 c7 45 f0 00 00 00 	movq   $0x0,-0x10(%rbp)
ffffffff8010999e:	00 
ffffffff8010999f:	e9 a2 00 00 00       	jmpq   ffffffff80109a46 <pmm_init+0x1ea>
ffffffff801099a4:	48 8b 55 f0          	mov    -0x10(%rbp),%rdx
ffffffff801099a8:	48 89 d0             	mov    %rdx,%rax
ffffffff801099ab:	48 01 c0             	add    %rax,%rax
ffffffff801099ae:	48 01 d0             	add    %rdx,%rax
ffffffff801099b1:	48 c1 e0 03          	shl    $0x3,%rax
ffffffff801099b5:	48 89 c2             	mov    %rax,%rdx
ffffffff801099b8:	48 8b 45 e0          	mov    -0x20(%rbp),%rax
ffffffff801099bc:	48 01 d0             	add    %rdx,%rax
ffffffff801099bf:	8b 40 10             	mov    0x10(%rax),%eax
ffffffff801099c2:	83 f8 01             	cmp    $0x1,%eax
ffffffff801099c5:	75 7a                	jne    ffffffff80109a41 <pmm_init+0x1e5>
ffffffff801099c7:	48 8b 55 f0          	mov    -0x10(%rbp),%rdx
ffffffff801099cb:	48 89 d0             	mov    %rdx,%rax
ffffffff801099ce:	48 01 c0             	add    %rax,%rax
ffffffff801099d1:	48 01 d0             	add    %rdx,%rax
ffffffff801099d4:	48 c1 e0 03          	shl    $0x3,%rax
ffffffff801099d8:	48 89 c2             	mov    %rax,%rdx
ffffffff801099db:	48 8b 45 e0          	mov    -0x20(%rbp),%rax
ffffffff801099df:	48 01 d0             	add    %rdx,%rax
ffffffff801099e2:	48 8b 40 08          	mov    0x8(%rax),%rax
ffffffff801099e6:	48 39 45 d8          	cmp    %rax,-0x28(%rbp)
ffffffff801099ea:	77 55                	ja     ffffffff80109a41 <pmm_init+0x1e5>
ffffffff801099ec:	48 8b 55 f0          	mov    -0x10(%rbp),%rdx
ffffffff801099f0:	48 89 d0             	mov    %rdx,%rax
ffffffff801099f3:	48 01 c0             	add    %rax,%rax
ffffffff801099f6:	48 01 d0             	add    %rdx,%rax
ffffffff801099f9:	48 c1 e0 03          	shl    $0x3,%rax
ffffffff801099fd:	48 89 c2             	mov    %rax,%rdx
ffffffff80109a00:	48 8b 45 e0          	mov    -0x20(%rbp),%rax
ffffffff80109a04:	48 01 d0             	add    %rdx,%rax
ffffffff80109a07:	48 8b 00             	mov    (%rax),%rax
ffffffff80109a0a:	48 ba 00 00 00 00 00 	movabs $0xffff800000000000,%rdx
ffffffff80109a11:	80 ff ff 
ffffffff80109a14:	48 01 d0             	add    %rdx,%rax
ffffffff80109a17:	48 89 05 ba fb 00 00 	mov    %rax,0xfbba(%rip)        # ffffffff801195d8 <bitmap>
ffffffff80109a1e:	48 8b 45 d8          	mov    -0x28(%rbp),%rax
ffffffff80109a22:	48 c1 e8 03          	shr    $0x3,%rax
ffffffff80109a26:	48 89 c2             	mov    %rax,%rdx
ffffffff80109a29:	48 8b 05 a8 fb 00 00 	mov    0xfba8(%rip),%rax        # ffffffff801195d8 <bitmap>
ffffffff80109a30:	48 c7 c6 ff ff ff ff 	mov    $0xffffffffffffffff,%rsi
ffffffff80109a37:	48 89 c7             	mov    %rax,%rdi
ffffffff80109a3a:	e8 15 e9 ff ff       	callq  ffffffff80108354 <memset64>
ffffffff80109a3f:	eb 17                	jmp    ffffffff80109a58 <pmm_init+0x1fc>
ffffffff80109a41:	48 83 45 f0 01       	addq   $0x1,-0x10(%rbp)
ffffffff80109a46:	48 8b 45 c8          	mov    -0x38(%rbp),%rax
ffffffff80109a4a:	48 8b 40 10          	mov    0x10(%rax),%rax
ffffffff80109a4e:	48 39 45 f0          	cmp    %rax,-0x10(%rbp)
ffffffff80109a52:	0f 82 4c ff ff ff    	jb     ffffffff801099a4 <pmm_init+0x148>
ffffffff80109a58:	48 c7 45 e8 00 00 00 	movq   $0x0,-0x18(%rbp)
ffffffff80109a5f:	00 
ffffffff80109a60:	eb 70                	jmp    ffffffff80109ad2 <pmm_init+0x276>
ffffffff80109a62:	48 8b 55 e8          	mov    -0x18(%rbp),%rdx
ffffffff80109a66:	48 89 d0             	mov    %rdx,%rax
ffffffff80109a69:	48 01 c0             	add    %rax,%rax
ffffffff80109a6c:	48 01 d0             	add    %rdx,%rax
ffffffff80109a6f:	48 c1 e0 03          	shl    $0x3,%rax
ffffffff80109a73:	48 89 c2             	mov    %rax,%rdx
ffffffff80109a76:	48 8b 45 e0          	mov    -0x20(%rbp),%rax
ffffffff80109a7a:	48 01 d0             	add    %rdx,%rax
ffffffff80109a7d:	8b 40 10             	mov    0x10(%rax),%eax
ffffffff80109a80:	83 f8 01             	cmp    $0x1,%eax
ffffffff80109a83:	75 48                	jne    ffffffff80109acd <pmm_init+0x271>
ffffffff80109a85:	48 8b 55 e8          	mov    -0x18(%rbp),%rdx
ffffffff80109a89:	48 89 d0             	mov    %rdx,%rax
ffffffff80109a8c:	48 01 c0             	add    %rax,%rax
ffffffff80109a8f:	48 01 d0             	add    %rdx,%rax
ffffffff80109a92:	48 c1 e0 03          	shl    $0x3,%rax
ffffffff80109a96:	48 89 c2             	mov    %rax,%rdx
ffffffff80109a99:	48 8b 45 e0          	mov    -0x20(%rbp),%rax
ffffffff80109a9d:	48 01 d0             	add    %rdx,%rax
ffffffff80109aa0:	48 8b 50 08          	mov    0x8(%rax),%rdx
ffffffff80109aa4:	48 8b 4d e8          	mov    -0x18(%rbp),%rcx
ffffffff80109aa8:	48 89 c8             	mov    %rcx,%rax
ffffffff80109aab:	48 01 c0             	add    %rax,%rax
ffffffff80109aae:	48 01 c8             	add    %rcx,%rax
ffffffff80109ab1:	48 c1 e0 03          	shl    $0x3,%rax
ffffffff80109ab5:	48 89 c1             	mov    %rax,%rcx
ffffffff80109ab8:	48 8b 45 e0          	mov    -0x20(%rbp),%rax
ffffffff80109abc:	48 01 c8             	add    %rcx,%rax
ffffffff80109abf:	48 8b 00             	mov    (%rax),%rax
ffffffff80109ac2:	48 89 d6             	mov    %rdx,%rsi
ffffffff80109ac5:	48 89 c7             	mov    %rax,%rdi
ffffffff80109ac8:	e8 1e 03 00 00       	callq  ffffffff80109deb <bm_free_region>
ffffffff80109acd:	48 83 45 e8 01       	addq   $0x1,-0x18(%rbp)
ffffffff80109ad2:	48 8b 45 c8          	mov    -0x38(%rbp),%rax
ffffffff80109ad6:	48 8b 40 10          	mov    0x10(%rax),%rax
ffffffff80109ada:	48 39 45 e8          	cmp    %rax,-0x18(%rbp)
ffffffff80109ade:	72 82                	jb     ffffffff80109a62 <pmm_init+0x206>
ffffffff80109ae0:	48 8b 05 f1 fa 00 00 	mov    0xfaf1(%rip),%rax        # ffffffff801195d8 <bitmap>
ffffffff80109ae7:	48 89 c2             	mov    %rax,%rdx
ffffffff80109aea:	48 b8 00 00 00 00 00 	movabs $0x800000000000,%rax
ffffffff80109af1:	80 00 00 
ffffffff80109af4:	48 01 c2             	add    %rax,%rdx
ffffffff80109af7:	48 8b 45 d8          	mov    -0x28(%rbp),%rax
ffffffff80109afb:	48 89 c6             	mov    %rax,%rsi
ffffffff80109afe:	48 89 d7             	mov    %rdx,%rdi
ffffffff80109b01:	e8 59 02 00 00       	callq  ffffffff80109d5f <bm_alloc_region>
ffffffff80109b06:	be 00 00 10 00       	mov    $0x100000,%esi
ffffffff80109b0b:	bf 00 00 00 00       	mov    $0x0,%edi
ffffffff80109b10:	e8 4a 02 00 00       	callq  ffffffff80109d5f <bm_alloc_region>
ffffffff80109b15:	48 8b 05 c4 fa 00 00 	mov    0xfac4(%rip),%rax        # ffffffff801195e0 <total_mem>
ffffffff80109b1c:	48 89 c2             	mov    %rax,%rdx
ffffffff80109b1f:	48 c7 c6 b5 c7 10 80 	mov    $0xffffffff8010c7b5,%rsi
ffffffff80109b26:	48 c7 c7 af c7 10 80 	mov    $0xffffffff8010c7af,%rdi
ffffffff80109b2d:	b8 00 00 00 00       	mov    $0x0,%eax
ffffffff80109b32:	e8 2e ef ff ff       	callq  ffffffff80108a65 <kprintf>
ffffffff80109b37:	90                   	nop
ffffffff80109b38:	c9                   	leaveq 
ffffffff80109b39:	c3                   	retq   

ffffffff80109b3a <pmm_alloc>:
ffffffff80109b3a:	55                   	push   %rbp
ffffffff80109b3b:	48 89 e5             	mov    %rsp,%rbp
ffffffff80109b3e:	48 83 ec 30          	sub    $0x30,%rsp
ffffffff80109b42:	48 89 7d d8          	mov    %rdi,-0x28(%rbp)
ffffffff80109b46:	b8 00 00 00 00       	mov    $0x0,%eax
ffffffff80109b4b:	e8 29 03 00 00       	callq  ffffffff80109e79 <bm_first_free>
ffffffff80109b50:	c1 e0 0c             	shl    $0xc,%eax
ffffffff80109b53:	48 98                	cltq   
ffffffff80109b55:	48 89 45 f8          	mov    %rax,-0x8(%rbp)
ffffffff80109b59:	48 c7 45 f0 00 00 00 	movq   $0x0,-0x10(%rbp)
ffffffff80109b60:	00 
ffffffff80109b61:	b8 00 00 00 00       	mov    $0x0,%eax
ffffffff80109b66:	e8 0e 03 00 00       	callq  ffffffff80109e79 <bm_first_free>
ffffffff80109b6b:	48 98                	cltq   
ffffffff80109b6d:	48 89 45 e8          	mov    %rax,-0x18(%rbp)
ffffffff80109b71:	e9 eb 00 00 00       	jmpq   ffffffff80109c61 <pmm_alloc+0x127>
ffffffff80109b76:	48 8b 15 5b fa 00 00 	mov    0xfa5b(%rip),%rdx        # ffffffff801195d8 <bitmap>
ffffffff80109b7d:	48 8b 45 e8          	mov    -0x18(%rbp),%rax
ffffffff80109b81:	48 c1 e8 03          	shr    $0x3,%rax
ffffffff80109b85:	48 01 d0             	add    %rdx,%rax
ffffffff80109b88:	0f b6 00             	movzbl (%rax),%eax
ffffffff80109b8b:	0f b6 d0             	movzbl %al,%edx
ffffffff80109b8e:	48 8b 45 e8          	mov    -0x18(%rbp),%rax
ffffffff80109b92:	83 e0 07             	and    $0x7,%eax
ffffffff80109b95:	89 c1                	mov    %eax,%ecx
ffffffff80109b97:	d3 fa                	sar    %cl,%edx
ffffffff80109b99:	89 d0                	mov    %edx,%eax
ffffffff80109b9b:	83 e0 01             	and    $0x1,%eax
ffffffff80109b9e:	85 c0                	test   %eax,%eax
ffffffff80109ba0:	74 1d                	je     ffffffff80109bbf <pmm_alloc+0x85>
ffffffff80109ba2:	48 8b 45 f0          	mov    -0x10(%rbp),%rax
ffffffff80109ba6:	48 83 c0 01          	add    $0x1,%rax
ffffffff80109baa:	48 c1 e0 0c          	shl    $0xc,%rax
ffffffff80109bae:	48 01 45 f8          	add    %rax,-0x8(%rbp)
ffffffff80109bb2:	48 c7 45 f0 00 00 00 	movq   $0x0,-0x10(%rbp)
ffffffff80109bb9:	00 
ffffffff80109bba:	e9 9d 00 00 00       	jmpq   ffffffff80109c5c <pmm_alloc+0x122>
ffffffff80109bbf:	48 83 45 f0 01       	addq   $0x1,-0x10(%rbp)
ffffffff80109bc4:	48 8b 45 f0          	mov    -0x10(%rbp),%rax
ffffffff80109bc8:	48 3b 45 d8          	cmp    -0x28(%rbp),%rax
ffffffff80109bcc:	0f 85 8a 00 00 00    	jne    ffffffff80109c5c <pmm_alloc+0x122>
ffffffff80109bd2:	48 c7 45 e0 00 00 00 	movq   $0x0,-0x20(%rbp)
ffffffff80109bd9:	00 
ffffffff80109bda:	eb 70                	jmp    ffffffff80109c4c <pmm_alloc+0x112>
ffffffff80109bdc:	48 8b 15 f5 f9 00 00 	mov    0xf9f5(%rip),%rdx        # ffffffff801195d8 <bitmap>
ffffffff80109be3:	48 8b 45 f8          	mov    -0x8(%rbp),%rax
ffffffff80109be7:	48 c1 e8 0c          	shr    $0xc,%rax
ffffffff80109beb:	48 89 c1             	mov    %rax,%rcx
ffffffff80109bee:	48 8b 45 e0          	mov    -0x20(%rbp),%rax
ffffffff80109bf2:	48 01 c8             	add    %rcx,%rax
ffffffff80109bf5:	48 c1 e8 03          	shr    $0x3,%rax
ffffffff80109bf9:	48 01 d0             	add    %rdx,%rax
ffffffff80109bfc:	0f b6 00             	movzbl (%rax),%eax
ffffffff80109bff:	89 c6                	mov    %eax,%esi
ffffffff80109c01:	48 8b 45 f8          	mov    -0x8(%rbp),%rax
ffffffff80109c05:	48 c1 e8 0c          	shr    $0xc,%rax
ffffffff80109c09:	89 c2                	mov    %eax,%edx
ffffffff80109c0b:	48 8b 45 e0          	mov    -0x20(%rbp),%rax
ffffffff80109c0f:	01 d0                	add    %edx,%eax
ffffffff80109c11:	83 e0 07             	and    $0x7,%eax
ffffffff80109c14:	ba 01 00 00 00       	mov    $0x1,%edx
ffffffff80109c19:	89 c1                	mov    %eax,%ecx
ffffffff80109c1b:	d3 e2                	shl    %cl,%edx
ffffffff80109c1d:	89 d0                	mov    %edx,%eax
ffffffff80109c1f:	09 c6                	or     %eax,%esi
ffffffff80109c21:	89 f1                	mov    %esi,%ecx
ffffffff80109c23:	48 8b 15 ae f9 00 00 	mov    0xf9ae(%rip),%rdx        # ffffffff801195d8 <bitmap>
ffffffff80109c2a:	48 8b 45 f8          	mov    -0x8(%rbp),%rax
ffffffff80109c2e:	48 c1 e8 0c          	shr    $0xc,%rax
ffffffff80109c32:	48 89 c6             	mov    %rax,%rsi
ffffffff80109c35:	48 8b 45 e0          	mov    -0x20(%rbp),%rax
ffffffff80109c39:	48 01 f0             	add    %rsi,%rax
ffffffff80109c3c:	48 c1 e8 03          	shr    $0x3,%rax
ffffffff80109c40:	48 01 d0             	add    %rdx,%rax
ffffffff80109c43:	89 ca                	mov    %ecx,%edx
ffffffff80109c45:	88 10                	mov    %dl,(%rax)
ffffffff80109c47:	48 83 45 e0 01       	addq   $0x1,-0x20(%rbp)
ffffffff80109c4c:	48 8b 45 e0          	mov    -0x20(%rbp),%rax
ffffffff80109c50:	48 3b 45 f0          	cmp    -0x10(%rbp),%rax
ffffffff80109c54:	72 86                	jb     ffffffff80109bdc <pmm_alloc+0xa2>
ffffffff80109c56:	48 8b 45 f8          	mov    -0x8(%rbp),%rax
ffffffff80109c5a:	eb 1f                	jmp    ffffffff80109c7b <pmm_alloc+0x141>
ffffffff80109c5c:	48 83 45 e8 01       	addq   $0x1,-0x18(%rbp)
ffffffff80109c61:	48 8b 05 78 f9 00 00 	mov    0xf978(%rip),%rax        # ffffffff801195e0 <total_mem>
ffffffff80109c68:	48 c1 e8 0c          	shr    $0xc,%rax
ffffffff80109c6c:	48 39 45 e8          	cmp    %rax,-0x18(%rbp)
ffffffff80109c70:	0f 82 00 ff ff ff    	jb     ffffffff80109b76 <pmm_alloc+0x3c>
ffffffff80109c76:	b8 00 00 00 00       	mov    $0x0,%eax
ffffffff80109c7b:	c9                   	leaveq 
ffffffff80109c7c:	c3                   	retq   

ffffffff80109c7d <pmm_calloc>:
ffffffff80109c7d:	55                   	push   %rbp
ffffffff80109c7e:	48 89 e5             	mov    %rsp,%rbp
ffffffff80109c81:	48 83 ec 20          	sub    $0x20,%rsp
ffffffff80109c85:	48 89 7d e8          	mov    %rdi,-0x18(%rbp)
ffffffff80109c89:	48 8b 45 e8          	mov    -0x18(%rbp),%rax
ffffffff80109c8d:	48 89 c7             	mov    %rax,%rdi
ffffffff80109c90:	e8 a5 fe ff ff       	callq  ffffffff80109b3a <pmm_alloc>
ffffffff80109c95:	48 89 45 f8          	mov    %rax,-0x8(%rbp)
ffffffff80109c99:	48 8b 45 e8          	mov    -0x18(%rbp),%rax
ffffffff80109c9d:	48 c1 e0 0c          	shl    $0xc,%rax
ffffffff80109ca1:	48 c1 e8 03          	shr    $0x3,%rax
ffffffff80109ca5:	48 b9 00 00 00 00 00 	movabs $0xffff800000000000,%rcx
ffffffff80109cac:	80 ff ff 
ffffffff80109caf:	48 8b 55 f8          	mov    -0x8(%rbp),%rdx
ffffffff80109cb3:	48 01 ca             	add    %rcx,%rdx
ffffffff80109cb6:	48 89 d1             	mov    %rdx,%rcx
ffffffff80109cb9:	48 89 c2             	mov    %rax,%rdx
ffffffff80109cbc:	be 00 00 00 00       	mov    $0x0,%esi
ffffffff80109cc1:	48 89 cf             	mov    %rcx,%rdi
ffffffff80109cc4:	e8 8b e6 ff ff       	callq  ffffffff80108354 <memset64>
ffffffff80109cc9:	48 8b 45 f8          	mov    -0x8(%rbp),%rax
ffffffff80109ccd:	c9                   	leaveq 
ffffffff80109cce:	c3                   	retq   

ffffffff80109ccf <pmm_free>:
ffffffff80109ccf:	55                   	push   %rbp
ffffffff80109cd0:	48 89 e5             	mov    %rsp,%rbp
ffffffff80109cd3:	48 83 ec 20          	sub    $0x20,%rsp
ffffffff80109cd7:	48 89 7d e8          	mov    %rdi,-0x18(%rbp)
ffffffff80109cdb:	48 89 75 e0          	mov    %rsi,-0x20(%rbp)
ffffffff80109cdf:	48 8b 45 e8          	mov    -0x18(%rbp),%rax
ffffffff80109ce3:	48 05 ff 0f 00 00    	add    $0xfff,%rax
ffffffff80109ce9:	48 c1 e8 0c          	shr    $0xc,%rax
ffffffff80109ced:	48 89 45 f8          	mov    %rax,-0x8(%rbp)
ffffffff80109cf1:	eb 4a                	jmp    ffffffff80109d3d <pmm_free+0x6e>
ffffffff80109cf3:	48 8b 15 de f8 00 00 	mov    0xf8de(%rip),%rdx        # ffffffff801195d8 <bitmap>
ffffffff80109cfa:	48 8b 45 f8          	mov    -0x8(%rbp),%rax
ffffffff80109cfe:	48 c1 e8 03          	shr    $0x3,%rax
ffffffff80109d02:	48 01 d0             	add    %rdx,%rax
ffffffff80109d05:	0f b6 00             	movzbl (%rax),%eax
ffffffff80109d08:	89 c6                	mov    %eax,%esi
ffffffff80109d0a:	48 8b 45 f8          	mov    -0x8(%rbp),%rax
ffffffff80109d0e:	83 e0 07             	and    $0x7,%eax
ffffffff80109d11:	ba 01 00 00 00       	mov    $0x1,%edx
ffffffff80109d16:	89 c1                	mov    %eax,%ecx
ffffffff80109d18:	d3 e2                	shl    %cl,%edx
ffffffff80109d1a:	89 d0                	mov    %edx,%eax
ffffffff80109d1c:	f7 d0                	not    %eax
ffffffff80109d1e:	21 c6                	and    %eax,%esi
ffffffff80109d20:	89 f1                	mov    %esi,%ecx
ffffffff80109d22:	48 8b 15 af f8 00 00 	mov    0xf8af(%rip),%rdx        # ffffffff801195d8 <bitmap>
ffffffff80109d29:	48 8b 45 f8          	mov    -0x8(%rbp),%rax
ffffffff80109d2d:	48 c1 e8 03          	shr    $0x3,%rax
ffffffff80109d31:	48 01 d0             	add    %rdx,%rax
ffffffff80109d34:	89 ca                	mov    %ecx,%edx
ffffffff80109d36:	88 10                	mov    %dl,(%rax)
ffffffff80109d38:	48 83 45 f8 01       	addq   $0x1,-0x8(%rbp)
ffffffff80109d3d:	48 8b 45 e8          	mov    -0x18(%rbp),%rax
ffffffff80109d41:	48 05 ff 0f 00 00    	add    $0xfff,%rax
ffffffff80109d47:	48 c1 e8 0c          	shr    $0xc,%rax
ffffffff80109d4b:	48 89 c2             	mov    %rax,%rdx
ffffffff80109d4e:	48 8b 45 e0          	mov    -0x20(%rbp),%rax
ffffffff80109d52:	48 01 d0             	add    %rdx,%rax
ffffffff80109d55:	48 39 45 f8          	cmp    %rax,-0x8(%rbp)
ffffffff80109d59:	72 98                	jb     ffffffff80109cf3 <pmm_free+0x24>
ffffffff80109d5b:	90                   	nop
ffffffff80109d5c:	90                   	nop
ffffffff80109d5d:	c9                   	leaveq 
ffffffff80109d5e:	c3                   	retq   

ffffffff80109d5f <bm_alloc_region>:
ffffffff80109d5f:	55                   	push   %rbp
ffffffff80109d60:	48 89 e5             	mov    %rsp,%rbp
ffffffff80109d63:	48 83 ec 20          	sub    $0x20,%rsp
ffffffff80109d67:	48 89 7d e8          	mov    %rdi,-0x18(%rbp)
ffffffff80109d6b:	48 89 75 e0          	mov    %rsi,-0x20(%rbp)
ffffffff80109d6f:	48 8b 45 e8          	mov    -0x18(%rbp),%rax
ffffffff80109d73:	48 c1 e8 0c          	shr    $0xc,%rax
ffffffff80109d77:	48 89 45 f8          	mov    %rax,-0x8(%rbp)
ffffffff80109d7b:	eb 48                	jmp    ffffffff80109dc5 <bm_alloc_region+0x66>
ffffffff80109d7d:	48 8b 15 54 f8 00 00 	mov    0xf854(%rip),%rdx        # ffffffff801195d8 <bitmap>
ffffffff80109d84:	48 8b 45 f8          	mov    -0x8(%rbp),%rax
ffffffff80109d88:	48 c1 e8 03          	shr    $0x3,%rax
ffffffff80109d8c:	48 01 d0             	add    %rdx,%rax
ffffffff80109d8f:	0f b6 00             	movzbl (%rax),%eax
ffffffff80109d92:	89 c6                	mov    %eax,%esi
ffffffff80109d94:	48 8b 45 f8          	mov    -0x8(%rbp),%rax
ffffffff80109d98:	83 e0 07             	and    $0x7,%eax
ffffffff80109d9b:	ba 01 00 00 00       	mov    $0x1,%edx
ffffffff80109da0:	89 c1                	mov    %eax,%ecx
ffffffff80109da2:	d3 e2                	shl    %cl,%edx
ffffffff80109da4:	89 d0                	mov    %edx,%eax
ffffffff80109da6:	09 c6                	or     %eax,%esi
ffffffff80109da8:	89 f1                	mov    %esi,%ecx
ffffffff80109daa:	48 8b 15 27 f8 00 00 	mov    0xf827(%rip),%rdx        # ffffffff801195d8 <bitmap>
ffffffff80109db1:	48 8b 45 f8          	mov    -0x8(%rbp),%rax
ffffffff80109db5:	48 c1 e8 03          	shr    $0x3,%rax
ffffffff80109db9:	48 01 d0             	add    %rdx,%rax
ffffffff80109dbc:	89 ca                	mov    %ecx,%edx
ffffffff80109dbe:	88 10                	mov    %dl,(%rax)
ffffffff80109dc0:	48 83 45 f8 01       	addq   $0x1,-0x8(%rbp)
ffffffff80109dc5:	48 8b 45 e8          	mov    -0x18(%rbp),%rax
ffffffff80109dc9:	48 c1 e8 0c          	shr    $0xc,%rax
ffffffff80109dcd:	48 89 c2             	mov    %rax,%rdx
ffffffff80109dd0:	48 8b 45 e0          	mov    -0x20(%rbp),%rax
ffffffff80109dd4:	48 05 ff 0f 00 00    	add    $0xfff,%rax
ffffffff80109dda:	48 c1 e8 0c          	shr    $0xc,%rax
ffffffff80109dde:	48 01 d0             	add    %rdx,%rax
ffffffff80109de1:	48 39 45 f8          	cmp    %rax,-0x8(%rbp)
ffffffff80109de5:	72 96                	jb     ffffffff80109d7d <bm_alloc_region+0x1e>
ffffffff80109de7:	90                   	nop
ffffffff80109de8:	90                   	nop
ffffffff80109de9:	c9                   	leaveq 
ffffffff80109dea:	c3                   	retq   

ffffffff80109deb <bm_free_region>:
ffffffff80109deb:	55                   	push   %rbp
ffffffff80109dec:	48 89 e5             	mov    %rsp,%rbp
ffffffff80109def:	48 83 ec 20          	sub    $0x20,%rsp
ffffffff80109df3:	48 89 7d e8          	mov    %rdi,-0x18(%rbp)
ffffffff80109df7:	48 89 75 e0          	mov    %rsi,-0x20(%rbp)
ffffffff80109dfb:	48 8b 45 e8          	mov    -0x18(%rbp),%rax
ffffffff80109dff:	48 c1 e8 0c          	shr    $0xc,%rax
ffffffff80109e03:	48 89 45 f8          	mov    %rax,-0x8(%rbp)
ffffffff80109e07:	eb 4a                	jmp    ffffffff80109e53 <bm_free_region+0x68>
ffffffff80109e09:	48 8b 15 c8 f7 00 00 	mov    0xf7c8(%rip),%rdx        # ffffffff801195d8 <bitmap>
ffffffff80109e10:	48 8b 45 f8          	mov    -0x8(%rbp),%rax
ffffffff80109e14:	48 c1 e8 03          	shr    $0x3,%rax
ffffffff80109e18:	48 01 d0             	add    %rdx,%rax
ffffffff80109e1b:	0f b6 00             	movzbl (%rax),%eax
ffffffff80109e1e:	89 c6                	mov    %eax,%esi
ffffffff80109e20:	48 8b 45 f8          	mov    -0x8(%rbp),%rax
ffffffff80109e24:	83 e0 07             	and    $0x7,%eax
ffffffff80109e27:	ba 01 00 00 00       	mov    $0x1,%edx
ffffffff80109e2c:	89 c1                	mov    %eax,%ecx
ffffffff80109e2e:	d3 e2                	shl    %cl,%edx
ffffffff80109e30:	89 d0                	mov    %edx,%eax
ffffffff80109e32:	f7 d0                	not    %eax
ffffffff80109e34:	21 c6                	and    %eax,%esi
ffffffff80109e36:	89 f1                	mov    %esi,%ecx
ffffffff80109e38:	48 8b 15 99 f7 00 00 	mov    0xf799(%rip),%rdx        # ffffffff801195d8 <bitmap>
ffffffff80109e3f:	48 8b 45 f8          	mov    -0x8(%rbp),%rax
ffffffff80109e43:	48 c1 e8 03          	shr    $0x3,%rax
ffffffff80109e47:	48 01 d0             	add    %rdx,%rax
ffffffff80109e4a:	89 ca                	mov    %ecx,%edx
ffffffff80109e4c:	88 10                	mov    %dl,(%rax)
ffffffff80109e4e:	48 83 45 f8 01       	addq   $0x1,-0x8(%rbp)
ffffffff80109e53:	48 8b 45 e8          	mov    -0x18(%rbp),%rax
ffffffff80109e57:	48 c1 e8 0c          	shr    $0xc,%rax
ffffffff80109e5b:	48 89 c2             	mov    %rax,%rdx
ffffffff80109e5e:	48 8b 45 e0          	mov    -0x20(%rbp),%rax
ffffffff80109e62:	48 05 ff 0f 00 00    	add    $0xfff,%rax
ffffffff80109e68:	48 c1 e8 0c          	shr    $0xc,%rax
ffffffff80109e6c:	48 01 d0             	add    %rdx,%rax
ffffffff80109e6f:	48 39 45 f8          	cmp    %rax,-0x8(%rbp)
ffffffff80109e73:	72 94                	jb     ffffffff80109e09 <bm_free_region+0x1e>
ffffffff80109e75:	90                   	nop
ffffffff80109e76:	90                   	nop
ffffffff80109e77:	c9                   	leaveq 
ffffffff80109e78:	c3                   	retq   

ffffffff80109e79 <bm_first_free>:
ffffffff80109e79:	55                   	push   %rbp
ffffffff80109e7a:	48 89 e5             	mov    %rsp,%rbp
ffffffff80109e7d:	48 83 ec 10          	sub    $0x10,%rsp
ffffffff80109e81:	48 c7 45 f8 00 00 00 	movq   $0x0,-0x8(%rbp)
ffffffff80109e88:	00 
ffffffff80109e89:	eb 37                	jmp    ffffffff80109ec2 <bm_first_free+0x49>
ffffffff80109e8b:	48 8b 15 46 f7 00 00 	mov    0xf746(%rip),%rdx        # ffffffff801195d8 <bitmap>
ffffffff80109e92:	48 8b 45 f8          	mov    -0x8(%rbp),%rax
ffffffff80109e96:	48 c1 e8 03          	shr    $0x3,%rax
ffffffff80109e9a:	48 01 d0             	add    %rdx,%rax
ffffffff80109e9d:	0f b6 00             	movzbl (%rax),%eax
ffffffff80109ea0:	0f b6 d0             	movzbl %al,%edx
ffffffff80109ea3:	48 8b 45 f8          	mov    -0x8(%rbp),%rax
ffffffff80109ea7:	83 e0 07             	and    $0x7,%eax
ffffffff80109eaa:	89 c1                	mov    %eax,%ecx
ffffffff80109eac:	d3 fa                	sar    %cl,%edx
ffffffff80109eae:	89 d0                	mov    %edx,%eax
ffffffff80109eb0:	83 e0 01             	and    $0x1,%eax
ffffffff80109eb3:	85 c0                	test   %eax,%eax
ffffffff80109eb5:	75 06                	jne    ffffffff80109ebd <bm_first_free+0x44>
ffffffff80109eb7:	48 8b 45 f8          	mov    -0x8(%rbp),%rax
ffffffff80109ebb:	eb 1b                	jmp    ffffffff80109ed8 <bm_first_free+0x5f>
ffffffff80109ebd:	48 83 45 f8 01       	addq   $0x1,-0x8(%rbp)
ffffffff80109ec2:	48 8b 05 17 f7 00 00 	mov    0xf717(%rip),%rax        # ffffffff801195e0 <total_mem>
ffffffff80109ec9:	48 c1 e8 0c          	shr    $0xc,%rax
ffffffff80109ecd:	48 39 45 f8          	cmp    %rax,-0x8(%rbp)
ffffffff80109ed1:	72 b8                	jb     ffffffff80109e8b <bm_first_free+0x12>
ffffffff80109ed3:	b8 ff ff ff ff       	mov    $0xffffffff,%eax
ffffffff80109ed8:	c9                   	leaveq 
ffffffff80109ed9:	c3                   	retq   
ffffffff80109eda:	66 0f 1f 44 00 00    	nopw   0x0(%rax,%rax,1)

ffffffff80109ee0 <smp_tramp_begin>:
ffffffff80109ee0:	fa                   	cli    
ffffffff80109ee1:	fc                   	cld    
ffffffff80109ee2:	ea                   	(bad)  
ffffffff80109ee3:	07                   	(bad)  
ffffffff80109ee4:	10 00                	adc    %al,(%rax)
ffffffff80109ee6:	00 31                	add    %dh,(%rcx)
ffffffff80109ee8:	c0 8e d8 8e c0 8e e0 	rorb   $0xe0,-0x713f7128(%rsi)
ffffffff80109eef:	8e d0                	mov    %eax,%ss
ffffffff80109ef1:	8e e8                	mov    %eax,%gs
ffffffff80109ef3:	bc 00 7c e4 92       	mov    $0x92e47c00,%esp
ffffffff80109ef8:	0c 02                	or     $0x2,%al
ffffffff80109efa:	e6 92                	out    %al,$0x92
ffffffff80109efc:	0f 01 16             	lgdt   (%rsi)
ffffffff80109eff:	7b 10                	jnp    ffffffff80109f11 <smp_tramp_begin+0x31>
ffffffff80109f01:	66 a1 08 05 0f 22 d8 	movabs 0xe0200fd8220f0508,%ax
ffffffff80109f08:	0f 20 e0 
ffffffff80109f0b:	66 83 c8 20          	or     $0x20,%ax
ffffffff80109f0f:	0f 22 e0             	mov    %rax,%cr4
ffffffff80109f12:	66 b9 80 00          	mov    $0x80,%cx
ffffffff80109f16:	00 c0                	add    %al,%al
ffffffff80109f18:	0f 32                	rdmsr  
ffffffff80109f1a:	66 0d 01 01          	or     $0x101,%ax
ffffffff80109f1e:	00 00                	add    %al,(%rax)
ffffffff80109f20:	0f 30                	wrmsr  
ffffffff80109f22:	66 b8 11 00          	mov    $0x11,%ax
ffffffff80109f26:	00 80 0f 22 c0 ea    	add    %al,-0x153fddf1(%rax)
ffffffff80109f2c:	50                   	push   %rax
ffffffff80109f2d:	10 08                	adc    %cl,(%rax)
ffffffff80109f2f:	00 66 b8             	add    %ah,-0x48(%rsi)
ffffffff80109f32:	10 00                	adc    %al,(%rax)
ffffffff80109f34:	8e d8                	mov    %eax,%ds
ffffffff80109f36:	8e c0                	mov    %eax,%es
ffffffff80109f38:	8e e0                	mov    %eax,%fs
ffffffff80109f3a:	8e e8                	mov    %eax,%gs
ffffffff80109f3c:	8e d0                	mov    %eax,%ss
ffffffff80109f3e:	48 8b 24 25 00 05 00 	mov    0x500,%rsp
ffffffff80109f45:	00 
ffffffff80109f46:	48 8b 1c 25 10 05 00 	mov    0x510,%rbx
ffffffff80109f4d:	00 
ffffffff80109f4e:	48 8b 0c 25 18 05 00 	mov    0x518,%rcx
ffffffff80109f55:	00 
ffffffff80109f56:	0f 01 19             	lidt   (%rcx)
ffffffff80109f59:	ff e3                	jmpq   *%rbx
ffffffff80109f5b:	17                   	(bad)  
ffffffff80109f5c:	00 81 10 00 00 00    	add    %al,0x10(%rcx)
	...
ffffffff80109f6e:	9a                   	(bad)  
ffffffff80109f6f:	20 00                	and    %al,(%rax)
ffffffff80109f71:	00 00                	add    %al,(%rax)
ffffffff80109f73:	00 00                	add    %al,(%rax)
ffffffff80109f75:	00                   	.byte 0x0
ffffffff80109f76:	92                   	xchg   %eax,%edx
	...

ffffffff80109f79 <rsdp_init>:
ffffffff80109f79:	55                   	push   %rbp
ffffffff80109f7a:	48 89 e5             	mov    %rsp,%rbp
ffffffff80109f7d:	48 83 ec 10          	sub    $0x10,%rsp
ffffffff80109f81:	48 89 7d f8          	mov    %rdi,-0x8(%rbp)
ffffffff80109f85:	48 8b 45 f8          	mov    -0x8(%rbp),%rax
ffffffff80109f89:	48 89 05 58 f6 00 00 	mov    %rax,0xf658(%rip)        # ffffffff801195e8 <rsdp>
ffffffff80109f90:	48 8b 05 51 f6 00 00 	mov    0xf651(%rip),%rax        # ffffffff801195e8 <rsdp>
ffffffff80109f97:	48 8b 40 18          	mov    0x18(%rax),%rax
ffffffff80109f9b:	48 85 c0             	test   %rax,%rax
ffffffff80109f9e:	74 5e                	je     ffffffff80109ffe <rsdp_init+0x85>
ffffffff80109fa0:	48 8b 05 41 f6 00 00 	mov    0xf641(%rip),%rax        # ffffffff801195e8 <rsdp>
ffffffff80109fa7:	48 8b 40 18          	mov    0x18(%rax),%rax
ffffffff80109fab:	48 ba 00 00 00 00 00 	movabs $0xffff800000000000,%rdx
ffffffff80109fb2:	80 ff ff 
ffffffff80109fb5:	48 01 d0             	add    %rdx,%rax
ffffffff80109fb8:	48 89 05 39 f6 00 00 	mov    %rax,0xf639(%rip)        # ffffffff801195f8 <xsdt>
ffffffff80109fbf:	48 8b 05 32 f6 00 00 	mov    0xf632(%rip),%rax        # ffffffff801195f8 <xsdt>
ffffffff80109fc6:	48 89 c2             	mov    %rax,%rdx
ffffffff80109fc9:	48 c7 c6 cf c7 10 80 	mov    $0xffffffff8010c7cf,%rsi
ffffffff80109fd0:	48 c7 c7 e0 c7 10 80 	mov    $0xffffffff8010c7e0,%rdi
ffffffff80109fd7:	b8 00 00 00 00       	mov    $0x0,%eax
ffffffff80109fdc:	e8 84 ea ff ff       	callq  ffffffff80108a65 <kprintf>
ffffffff80109fe1:	48 8b 05 10 f6 00 00 	mov    0xf610(%rip),%rax        # ffffffff801195f8 <xsdt>
ffffffff80109fe8:	48 89 c6             	mov    %rax,%rsi
ffffffff80109feb:	48 c7 c7 e7 c7 10 80 	mov    $0xffffffff8010c7e7,%rdi
ffffffff80109ff2:	b8 00 00 00 00       	mov    $0x0,%eax
ffffffff80109ff7:	e8 82 eb ff ff       	callq  ffffffff80108b7e <kvprintf>
ffffffff80109ffc:	eb 6b                	jmp    ffffffff8010a069 <rsdp_init+0xf0>
ffffffff80109ffe:	48 8b 05 e3 f5 00 00 	mov    0xf5e3(%rip),%rax        # ffffffff801195e8 <rsdp>
ffffffff8010a005:	8b 40 10             	mov    0x10(%rax),%eax
ffffffff8010a008:	85 c0                	test   %eax,%eax
ffffffff8010a00a:	74 5d                	je     ffffffff8010a069 <rsdp_init+0xf0>
ffffffff8010a00c:	48 8b 05 d5 f5 00 00 	mov    0xf5d5(%rip),%rax        # ffffffff801195e8 <rsdp>
ffffffff8010a013:	8b 40 10             	mov    0x10(%rax),%eax
ffffffff8010a016:	89 c2                	mov    %eax,%edx
ffffffff8010a018:	48 b8 00 00 00 00 00 	movabs $0xffff800000000000,%rax
ffffffff8010a01f:	80 ff ff 
ffffffff8010a022:	48 01 d0             	add    %rdx,%rax
ffffffff8010a025:	48 89 05 c4 f5 00 00 	mov    %rax,0xf5c4(%rip)        # ffffffff801195f0 <rsdt>
ffffffff8010a02c:	48 8b 05 bd f5 00 00 	mov    0xf5bd(%rip),%rax        # ffffffff801195f0 <rsdt>
ffffffff8010a033:	48 89 c2             	mov    %rax,%rdx
ffffffff8010a036:	48 c7 c6 00 c8 10 80 	mov    $0xffffffff8010c800,%rsi
ffffffff8010a03d:	48 c7 c7 e0 c7 10 80 	mov    $0xffffffff8010c7e0,%rdi
ffffffff8010a044:	b8 00 00 00 00       	mov    $0x0,%eax
ffffffff8010a049:	e8 17 ea ff ff       	callq  ffffffff80108a65 <kprintf>
ffffffff8010a04e:	48 8b 05 9b f5 00 00 	mov    0xf59b(%rip),%rax        # ffffffff801195f0 <rsdt>
ffffffff8010a055:	48 89 c6             	mov    %rax,%rsi
ffffffff8010a058:	48 c7 c7 11 c8 10 80 	mov    $0xffffffff8010c811,%rdi
ffffffff8010a05f:	b8 00 00 00 00       	mov    $0x0,%eax
ffffffff8010a064:	e8 15 eb ff ff       	callq  ffffffff80108b7e <kvprintf>
ffffffff8010a069:	90                   	nop
ffffffff8010a06a:	c9                   	leaveq 
ffffffff8010a06b:	c3                   	retq   

ffffffff8010a06c <find_SDT>:
ffffffff8010a06c:	55                   	push   %rbp
ffffffff8010a06d:	48 89 e5             	mov    %rsp,%rbp
ffffffff8010a070:	48 83 ec 30          	sub    $0x30,%rsp
ffffffff8010a074:	48 89 7d d8          	mov    %rdi,-0x28(%rbp)
ffffffff8010a078:	48 8b 05 79 f5 00 00 	mov    0xf579(%rip),%rax        # ffffffff801195f8 <xsdt>
ffffffff8010a07f:	48 85 c0             	test   %rax,%rax
ffffffff8010a082:	0f 84 ad 00 00 00    	je     ffffffff8010a135 <find_SDT+0xc9>
ffffffff8010a088:	48 c7 45 f8 00 00 00 	movq   $0x0,-0x8(%rbp)
ffffffff8010a08f:	00 
ffffffff8010a090:	e9 86 00 00 00       	jmpq   ffffffff8010a11b <find_SDT+0xaf>
ffffffff8010a095:	48 8b 05 5c f5 00 00 	mov    0xf55c(%rip),%rax        # ffffffff801195f8 <xsdt>
ffffffff8010a09c:	48 8b 55 f8          	mov    -0x8(%rbp),%rdx
ffffffff8010a0a0:	48 83 c2 04          	add    $0x4,%rdx
ffffffff8010a0a4:	48 8b 44 d0 04       	mov    0x4(%rax,%rdx,8),%rax
ffffffff8010a0a9:	48 ba 00 00 00 00 00 	movabs $0xffff800000000000,%rdx
ffffffff8010a0b0:	80 ff ff 
ffffffff8010a0b3:	48 01 d0             	add    %rdx,%rax
ffffffff8010a0b6:	48 89 45 e8          	mov    %rax,-0x18(%rbp)
ffffffff8010a0ba:	48 8b 45 e8          	mov    -0x18(%rbp),%rax
ffffffff8010a0be:	48 8b 4d d8          	mov    -0x28(%rbp),%rcx
ffffffff8010a0c2:	ba 04 00 00 00       	mov    $0x4,%edx
ffffffff8010a0c7:	48 89 ce             	mov    %rcx,%rsi
ffffffff8010a0ca:	48 89 c7             	mov    %rax,%rdi
ffffffff8010a0cd:	e8 04 e5 ff ff       	callq  ffffffff801085d6 <strncmp>
ffffffff8010a0d2:	85 c0                	test   %eax,%eax
ffffffff8010a0d4:	75 40                	jne    ffffffff8010a116 <find_SDT+0xaa>
ffffffff8010a0d6:	48 8b 45 d8          	mov    -0x28(%rbp),%rax
ffffffff8010a0da:	48 89 c2             	mov    %rax,%rdx
ffffffff8010a0dd:	48 c7 c6 2a c8 10 80 	mov    $0xffffffff8010c82a,%rsi
ffffffff8010a0e4:	48 c7 c7 e0 c7 10 80 	mov    $0xffffffff8010c7e0,%rdi
ffffffff8010a0eb:	b8 00 00 00 00       	mov    $0x0,%eax
ffffffff8010a0f0:	e8 70 e9 ff ff       	callq  ffffffff80108a65 <kprintf>
ffffffff8010a0f5:	48 8b 45 d8          	mov    -0x28(%rbp),%rax
ffffffff8010a0f9:	48 89 c6             	mov    %rax,%rsi
ffffffff8010a0fc:	48 c7 c7 33 c8 10 80 	mov    $0xffffffff8010c833,%rdi
ffffffff8010a103:	b8 00 00 00 00       	mov    $0x0,%eax
ffffffff8010a108:	e8 71 ea ff ff       	callq  ffffffff80108b7e <kvprintf>
ffffffff8010a10d:	48 8b 45 e8          	mov    -0x18(%rbp),%rax
ffffffff8010a111:	e9 fe 00 00 00       	jmpq   ffffffff8010a214 <find_SDT+0x1a8>
ffffffff8010a116:	48 83 45 f8 01       	addq   $0x1,-0x8(%rbp)
ffffffff8010a11b:	48 8b 05 d6 f4 00 00 	mov    0xf4d6(%rip),%rax        # ffffffff801195f8 <xsdt>
ffffffff8010a122:	8b 40 04             	mov    0x4(%rax),%eax
ffffffff8010a125:	89 c0                	mov    %eax,%eax
ffffffff8010a127:	48 83 e8 24          	sub    $0x24,%rax
ffffffff8010a12b:	48 39 45 f8          	cmp    %rax,-0x8(%rbp)
ffffffff8010a12f:	0f 82 60 ff ff ff    	jb     ffffffff8010a095 <find_SDT+0x29>
ffffffff8010a135:	48 8b 05 b4 f4 00 00 	mov    0xf4b4(%rip),%rax        # ffffffff801195f0 <rsdt>
ffffffff8010a13c:	48 85 c0             	test   %rax,%rax
ffffffff8010a13f:	0f 84 ab 00 00 00    	je     ffffffff8010a1f0 <find_SDT+0x184>
ffffffff8010a145:	48 c7 45 f0 00 00 00 	movq   $0x0,-0x10(%rbp)
ffffffff8010a14c:	00 
ffffffff8010a14d:	e9 84 00 00 00       	jmpq   ffffffff8010a1d6 <find_SDT+0x16a>
ffffffff8010a152:	48 8b 05 97 f4 00 00 	mov    0xf497(%rip),%rax        # ffffffff801195f0 <rsdt>
ffffffff8010a159:	48 8b 55 f0          	mov    -0x10(%rbp),%rdx
ffffffff8010a15d:	48 83 c2 08          	add    $0x8,%rdx
ffffffff8010a161:	8b 44 90 04          	mov    0x4(%rax,%rdx,4),%eax
ffffffff8010a165:	89 c2                	mov    %eax,%edx
ffffffff8010a167:	48 b8 00 00 00 00 00 	movabs $0xffff800000000000,%rax
ffffffff8010a16e:	80 ff ff 
ffffffff8010a171:	48 01 d0             	add    %rdx,%rax
ffffffff8010a174:	48 89 45 e0          	mov    %rax,-0x20(%rbp)
ffffffff8010a178:	48 8b 45 e0          	mov    -0x20(%rbp),%rax
ffffffff8010a17c:	48 8b 4d d8          	mov    -0x28(%rbp),%rcx
ffffffff8010a180:	ba 04 00 00 00       	mov    $0x4,%edx
ffffffff8010a185:	48 89 ce             	mov    %rcx,%rsi
ffffffff8010a188:	48 89 c7             	mov    %rax,%rdi
ffffffff8010a18b:	e8 46 e4 ff ff       	callq  ffffffff801085d6 <strncmp>
ffffffff8010a190:	85 c0                	test   %eax,%eax
ffffffff8010a192:	75 3d                	jne    ffffffff8010a1d1 <find_SDT+0x165>
ffffffff8010a194:	48 8b 45 d8          	mov    -0x28(%rbp),%rax
ffffffff8010a198:	48 89 c2             	mov    %rax,%rdx
ffffffff8010a19b:	48 c7 c6 2a c8 10 80 	mov    $0xffffffff8010c82a,%rsi
ffffffff8010a1a2:	48 c7 c7 e0 c7 10 80 	mov    $0xffffffff8010c7e0,%rdi
ffffffff8010a1a9:	b8 00 00 00 00       	mov    $0x0,%eax
ffffffff8010a1ae:	e8 b2 e8 ff ff       	callq  ffffffff80108a65 <kprintf>
ffffffff8010a1b3:	48 8b 45 d8          	mov    -0x28(%rbp),%rax
ffffffff8010a1b7:	48 89 c6             	mov    %rax,%rsi
ffffffff8010a1ba:	48 c7 c7 33 c8 10 80 	mov    $0xffffffff8010c833,%rdi
ffffffff8010a1c1:	b8 00 00 00 00       	mov    $0x0,%eax
ffffffff8010a1c6:	e8 b3 e9 ff ff       	callq  ffffffff80108b7e <kvprintf>
ffffffff8010a1cb:	48 8b 45 e0          	mov    -0x20(%rbp),%rax
ffffffff8010a1cf:	eb 43                	jmp    ffffffff8010a214 <find_SDT+0x1a8>
ffffffff8010a1d1:	48 83 45 f0 01       	addq   $0x1,-0x10(%rbp)
ffffffff8010a1d6:	48 8b 05 13 f4 00 00 	mov    0xf413(%rip),%rax        # ffffffff801195f0 <rsdt>
ffffffff8010a1dd:	8b 40 04             	mov    0x4(%rax),%eax
ffffffff8010a1e0:	89 c0                	mov    %eax,%eax
ffffffff8010a1e2:	48 83 e8 24          	sub    $0x24,%rax
ffffffff8010a1e6:	48 39 45 f0          	cmp    %rax,-0x10(%rbp)
ffffffff8010a1ea:	0f 82 62 ff ff ff    	jb     ffffffff8010a152 <find_SDT+0xe6>
ffffffff8010a1f0:	48 8b 45 d8          	mov    -0x28(%rbp),%rax
ffffffff8010a1f4:	48 89 c2             	mov    %rax,%rdx
ffffffff8010a1f7:	48 c7 c6 44 c8 10 80 	mov    $0xffffffff8010c844,%rsi
ffffffff8010a1fe:	48 c7 c7 e0 c7 10 80 	mov    $0xffffffff8010c7e0,%rdi
ffffffff8010a205:	b8 00 00 00 00       	mov    $0x0,%eax
ffffffff8010a20a:	e8 56 e8 ff ff       	callq  ffffffff80108a65 <kprintf>
ffffffff8010a20f:	b8 00 00 00 00       	mov    $0x0,%eax
ffffffff8010a214:	c9                   	leaveq 
ffffffff8010a215:	c3                   	retq   

ffffffff8010a216 <scheduler_main>:
ffffffff8010a216:	55                   	push   %rbp
ffffffff8010a217:	48 89 e5             	mov    %rsp,%rbp
ffffffff8010a21a:	48 83 ec 10          	sub    $0x10,%rsp
ffffffff8010a21e:	48 89 7d f8          	mov    %rdi,-0x8(%rbp)
ffffffff8010a222:	48 c7 c7 20 96 11 80 	mov    $0xffffffff80119620,%rdi
ffffffff8010a229:	e8 2b 03 00 00       	callq  ffffffff8010a559 <spin_lock>
ffffffff8010a22e:	48 8b 05 cb f3 00 00 	mov    0xf3cb(%rip),%rax        # ffffffff80119600 <ready>
ffffffff8010a235:	48 85 c0             	test   %rax,%rax
ffffffff8010a238:	75 0e                	jne    ffffffff8010a248 <scheduler_main+0x32>
ffffffff8010a23a:	48 c7 c7 20 96 11 80 	mov    $0xffffffff80119620,%rdi
ffffffff8010a241:	e8 6f 03 00 00       	callq  ffffffff8010a5b5 <spin_release>
ffffffff8010a246:	eb 18                	jmp    ffffffff8010a260 <scheduler_main+0x4a>
ffffffff8010a248:	48 8b 45 f8          	mov    -0x8(%rbp),%rax
ffffffff8010a24c:	48 89 c7             	mov    %rax,%rdi
ffffffff8010a24f:	e8 9e 00 00 00       	callq  ffffffff8010a2f2 <reschedule>
ffffffff8010a254:	48 c7 c7 20 96 11 80 	mov    $0xffffffff80119620,%rdi
ffffffff8010a25b:	e8 55 03 00 00       	callq  ffffffff8010a5b5 <spin_release>
ffffffff8010a260:	c9                   	leaveq 
ffffffff8010a261:	c3                   	retq   

ffffffff8010a262 <scheduler_init>:
ffffffff8010a262:	55                   	push   %rbp
ffffffff8010a263:	48 89 e5             	mov    %rsp,%rbp
ffffffff8010a266:	48 83 ec 10          	sub    $0x10,%rsp
ffffffff8010a26a:	bf 20 03 00 00       	mov    $0x320,%edi
ffffffff8010a26f:	e8 08 7f ff ff       	callq  ffffffff8010217c <kmalloc>
ffffffff8010a274:	48 89 05 95 f3 00 00 	mov    %rax,0xf395(%rip)        # ffffffff80119610 <tasks>
ffffffff8010a27b:	0f b6 05 be f2 00 00 	movzbl 0xf2be(%rip),%eax        # ffffffff80119540 <madt_info>
ffffffff8010a282:	0f b6 c0             	movzbl %al,%eax
ffffffff8010a285:	48 c1 e0 03          	shl    $0x3,%rax
ffffffff8010a289:	48 89 c7             	mov    %rax,%rdi
ffffffff8010a28c:	e8 eb 7e ff ff       	callq  ffffffff8010217c <kmalloc>
ffffffff8010a291:	48 89 05 80 f3 00 00 	mov    %rax,0xf380(%rip)        # ffffffff80119618 <core_local>
ffffffff8010a298:	c6 45 ff 00          	movb   $0x0,-0x1(%rbp)
ffffffff8010a29c:	eb 29                	jmp    ffffffff8010a2c7 <scheduler_init+0x65>
ffffffff8010a29e:	48 8b 15 73 f3 00 00 	mov    0xf373(%rip),%rdx        # ffffffff80119618 <core_local>
ffffffff8010a2a5:	0f b6 45 ff          	movzbl -0x1(%rbp),%eax
ffffffff8010a2a9:	48 c1 e0 03          	shl    $0x3,%rax
ffffffff8010a2ad:	48 01 d0             	add    %rdx,%rax
ffffffff8010a2b0:	c7 00 ff ff ff ff    	movl   $0xffffffff,(%rax)
ffffffff8010a2b6:	c7 40 04 ff ff ff ff 	movl   $0xffffffff,0x4(%rax)
ffffffff8010a2bd:	0f b6 45 ff          	movzbl -0x1(%rbp),%eax
ffffffff8010a2c1:	83 c0 01             	add    $0x1,%eax
ffffffff8010a2c4:	88 45 ff             	mov    %al,-0x1(%rbp)
ffffffff8010a2c7:	0f b6 05 72 f2 00 00 	movzbl 0xf272(%rip),%eax        # ffffffff80119540 <madt_info>
ffffffff8010a2ce:	38 45 ff             	cmp    %al,-0x1(%rbp)
ffffffff8010a2d1:	72 cb                	jb     ffffffff8010a29e <scheduler_init+0x3c>
ffffffff8010a2d3:	48 c7 c7 58 c8 10 80 	mov    $0xffffffff8010c858,%rdi
ffffffff8010a2da:	b8 00 00 00 00       	mov    $0x0,%eax
ffffffff8010a2df:	e8 9a e8 ff ff       	callq  ffffffff80108b7e <kvprintf>
ffffffff8010a2e4:	48 c7 05 11 f3 00 00 	movq   $0x1,0xf311(%rip)        # ffffffff80119600 <ready>
ffffffff8010a2eb:	01 00 00 00 
ffffffff8010a2ef:	90                   	nop
ffffffff8010a2f0:	c9                   	leaveq 
ffffffff8010a2f1:	c3                   	retq   

ffffffff8010a2f2 <reschedule>:
ffffffff8010a2f2:	55                   	push   %rbp
ffffffff8010a2f3:	48 89 e5             	mov    %rsp,%rbp
ffffffff8010a2f6:	48 83 ec 28          	sub    $0x28,%rsp
ffffffff8010a2fa:	48 89 7d d8          	mov    %rdi,-0x28(%rbp)
ffffffff8010a2fe:	66 c7 45 fe 00 00    	movw   $0x0,-0x2(%rbp)
ffffffff8010a304:	66 8c e8             	mov    %gs,%ax
ffffffff8010a307:	66 89 45 fe          	mov    %ax,-0x2(%rbp)
ffffffff8010a30b:	48 8b 15 06 f3 00 00 	mov    0xf306(%rip),%rdx        # ffffffff80119618 <core_local>
ffffffff8010a312:	0f b7 45 fe          	movzwl -0x2(%rbp),%eax
ffffffff8010a316:	48 c1 e0 03          	shl    $0x3,%rax
ffffffff8010a31a:	48 01 d0             	add    %rdx,%rax
ffffffff8010a31d:	8b 00                	mov    (%rax),%eax
ffffffff8010a31f:	89 45 f8             	mov    %eax,-0x8(%rbp)
ffffffff8010a322:	48 8b 15 ef f2 00 00 	mov    0xf2ef(%rip),%rdx        # ffffffff80119618 <core_local>
ffffffff8010a329:	0f b7 45 fe          	movzwl -0x2(%rbp),%eax
ffffffff8010a32d:	48 c1 e0 03          	shl    $0x3,%rax
ffffffff8010a331:	48 01 d0             	add    %rdx,%rax
ffffffff8010a334:	8b 40 04             	mov    0x4(%rax),%eax
ffffffff8010a337:	89 45 f4             	mov    %eax,-0xc(%rbp)
ffffffff8010a33a:	c7 45 f0 00 00 00 00 	movl   $0x0,-0x10(%rbp)
ffffffff8010a341:	c7 45 ec 00 00 00 00 	movl   $0x0,-0x14(%rbp)
ffffffff8010a348:	90                   	nop
ffffffff8010a349:	c9                   	leaveq 
ffffffff8010a34a:	c3                   	retq   
ffffffff8010a34b:	0f 1f 44 00 00       	nopl   0x0(%rax,%rax,1)

ffffffff8010a350 <start_task>:
ffffffff8010a350:	48 cf                	iretq  

ffffffff8010a352 <switch_task>:
ffffffff8010a352:	48 cf                	iretq  

ffffffff8010a354 <prep_trampoline>:
ffffffff8010a354:	55                   	push   %rbp
ffffffff8010a355:	48 89 e5             	mov    %rsp,%rbp
ffffffff8010a358:	48 83 ec 30          	sub    $0x30,%rsp
ffffffff8010a35c:	48 89 7d e8          	mov    %rdi,-0x18(%rbp)
ffffffff8010a360:	48 89 75 e0          	mov    %rsi,-0x20(%rbp)
ffffffff8010a364:	48 89 55 d8          	mov    %rdx,-0x28(%rbp)
ffffffff8010a368:	48 89 4d d0          	mov    %rcx,-0x30(%rbp)
ffffffff8010a36c:	48 b8 00 05 00 00 00 	movabs $0xffff800000000500,%rax
ffffffff8010a373:	80 ff ff 
ffffffff8010a376:	48 89 45 f8          	mov    %rax,-0x8(%rbp)
ffffffff8010a37a:	48 8b 45 f8          	mov    -0x8(%rbp),%rax
ffffffff8010a37e:	48 8b 55 e8          	mov    -0x18(%rbp),%rdx
ffffffff8010a382:	48 89 10             	mov    %rdx,(%rax)
ffffffff8010a385:	48 8b 45 f8          	mov    -0x8(%rbp),%rax
ffffffff8010a389:	48 8d 50 08          	lea    0x8(%rax),%rdx
ffffffff8010a38d:	48 8b 45 e0          	mov    -0x20(%rbp),%rax
ffffffff8010a391:	48 89 02             	mov    %rax,(%rdx)
ffffffff8010a394:	48 8b 45 f8          	mov    -0x8(%rbp),%rax
ffffffff8010a398:	48 8d 50 10          	lea    0x10(%rax),%rdx
ffffffff8010a39c:	48 8b 45 d8          	mov    -0x28(%rbp),%rax
ffffffff8010a3a0:	48 89 02             	mov    %rax,(%rdx)
ffffffff8010a3a3:	48 8b 45 f8          	mov    -0x8(%rbp),%rax
ffffffff8010a3a7:	48 8d 50 18          	lea    0x18(%rax),%rdx
ffffffff8010a3ab:	48 8b 45 d0          	mov    -0x30(%rbp),%rax
ffffffff8010a3af:	48 89 02             	mov    %rax,(%rdx)
ffffffff8010a3b2:	90                   	nop
ffffffff8010a3b3:	c9                   	leaveq 
ffffffff8010a3b4:	c3                   	retq   

ffffffff8010a3b5 <bootstrap_core>:
ffffffff8010a3b5:	55                   	push   %rbp
ffffffff8010a3b6:	48 89 e5             	mov    %rsp,%rbp
ffffffff8010a3b9:	bf f0 00 00 00       	mov    $0xf0,%edi
ffffffff8010a3be:	e8 c1 76 ff ff       	callq  ffffffff80101a84 <lapic_read>
ffffffff8010a3c3:	0d ff 01 00 00       	or     $0x1ff,%eax
ffffffff8010a3c8:	89 c6                	mov    %eax,%esi
ffffffff8010a3ca:	bf f0 00 00 00       	mov    $0xf0,%edi
ffffffff8010a3cf:	e8 de 76 ff ff       	callq  ffffffff80101ab2 <lapic_write>
ffffffff8010a3d4:	b8 00 00 00 00       	mov    $0x0,%eax
ffffffff8010a3d9:	e8 0d a5 ff ff       	callq  ffffffff801048eb <create_generic_tss>
ffffffff8010a3de:	bf 32 00 00 00       	mov    $0x32,%edi
ffffffff8010a3e3:	e8 c9 79 ff ff       	callq  ffffffff80101db1 <lapic_timer_init>
ffffffff8010a3e8:	48 8b 05 99 4c 00 00 	mov    0x4c99(%rip),%rax        # ffffffff8010f088 <core_cnt>
ffffffff8010a3ef:	48 8d 50 01          	lea    0x1(%rax),%rdx
ffffffff8010a3f3:	48 89 15 8e 4c 00 00 	mov    %rdx,0x4c8e(%rip)        # ffffffff8010f088 <core_cnt>
ffffffff8010a3fa:	8e e8                	mov    %eax,%gs
ffffffff8010a3fc:	fb                   	sti    
ffffffff8010a3fd:	eb fe                	jmp    ffffffff8010a3fd <bootstrap_core+0x48>

ffffffff8010a3ff <init_smp>:
ffffffff8010a3ff:	55                   	push   %rbp
ffffffff8010a400:	48 89 e5             	mov    %rsp,%rbp
ffffffff8010a403:	41 55                	push   %r13
ffffffff8010a405:	41 54                	push   %r12
ffffffff8010a407:	53                   	push   %rbx
ffffffff8010a408:	48 83 ec 18          	sub    $0x18,%rsp
ffffffff8010a40c:	48 c7 c0 79 9f 10 80 	mov    $0xffffffff80109f79,%rax
ffffffff8010a413:	48 c7 c2 e0 9e 10 80 	mov    $0xffffffff80109ee0,%rdx
ffffffff8010a41a:	48 29 d0             	sub    %rdx,%rax
ffffffff8010a41d:	48 89 c2             	mov    %rax,%rdx
ffffffff8010a420:	48 c7 c6 e0 9e 10 80 	mov    $0xffffffff80109ee0,%rsi
ffffffff8010a427:	bf 00 10 00 00       	mov    $0x1000,%edi
ffffffff8010a42c:	e8 67 df ff ff       	callq  ffffffff80108398 <memcpy8>
ffffffff8010a431:	0f 01 0d f0 f1 00 00 	sidt   0xf1f0(%rip)        # ffffffff80119628 <idtr.0>
ffffffff8010a438:	48 c7 45 d8 01 00 00 	movq   $0x1,-0x28(%rbp)
ffffffff8010a43f:	00 
ffffffff8010a440:	e9 f3 00 00 00       	jmpq   ffffffff8010a538 <init_smp+0x139>
ffffffff8010a445:	48 8b 0d fc f0 00 00 	mov    0xf0fc(%rip),%rcx        # ffffffff80119548 <madt_info+0x8>
ffffffff8010a44c:	48 8b 55 d8          	mov    -0x28(%rbp),%rdx
ffffffff8010a450:	48 89 d0             	mov    %rdx,%rax
ffffffff8010a453:	48 01 c0             	add    %rax,%rax
ffffffff8010a456:	48 01 d0             	add    %rdx,%rax
ffffffff8010a459:	48 01 c0             	add    %rax,%rax
ffffffff8010a45c:	48 01 c8             	add    %rcx,%rax
ffffffff8010a45f:	0f b6 40 01          	movzbl 0x1(%rax),%eax
ffffffff8010a463:	0f b6 c0             	movzbl %al,%eax
ffffffff8010a466:	89 45 d4             	mov    %eax,-0x2c(%rbp)
ffffffff8010a469:	48 8b 45 d8          	mov    -0x28(%rbp),%rax
ffffffff8010a46d:	48 89 c2             	mov    %rax,%rdx
ffffffff8010a470:	48 c7 c6 7e c8 10 80 	mov    $0xffffffff8010c87e,%rsi
ffffffff8010a477:	48 c7 c7 92 c8 10 80 	mov    $0xffffffff8010c892,%rdi
ffffffff8010a47e:	b8 00 00 00 00       	mov    $0x0,%eax
ffffffff8010a483:	e8 dd e5 ff ff       	callq  ffffffff80108a65 <kprintf>
ffffffff8010a488:	48 8b 45 d8          	mov    -0x28(%rbp),%rax
ffffffff8010a48c:	48 89 c6             	mov    %rax,%rsi
ffffffff8010a48f:	48 c7 c7 98 c8 10 80 	mov    $0xffffffff8010c898,%rdi
ffffffff8010a496:	b8 00 00 00 00       	mov    $0x0,%eax
ffffffff8010a49b:	e8 de e6 ff ff       	callq  ffffffff80108b7e <kvprintf>
ffffffff8010a4a0:	48 8b 0d a1 f0 00 00 	mov    0xf0a1(%rip),%rcx        # ffffffff80119548 <madt_info+0x8>
ffffffff8010a4a7:	48 8b 55 d8          	mov    -0x28(%rbp),%rdx
ffffffff8010a4ab:	48 89 d0             	mov    %rdx,%rax
ffffffff8010a4ae:	48 01 c0             	add    %rax,%rax
ffffffff8010a4b1:	48 01 d0             	add    %rdx,%rax
ffffffff8010a4b4:	48 01 c0             	add    %rax,%rax
ffffffff8010a4b7:	48 01 c8             	add    %rcx,%rax
ffffffff8010a4ba:	8b 40 02             	mov    0x2(%rax),%eax
ffffffff8010a4bd:	83 f8 01             	cmp    $0x1,%eax
ffffffff8010a4c0:	75 71                	jne    ffffffff8010a533 <init_smp+0x134>
ffffffff8010a4c2:	49 c7 c5 28 96 11 80 	mov    $0xffffffff80119628,%r13
ffffffff8010a4c9:	49 c7 c4 b5 a3 10 80 	mov    $0xffffffff8010a3b5,%r12
ffffffff8010a4d0:	b8 00 00 00 00       	mov    $0x0,%eax
ffffffff8010a4d5:	e8 b1 0f 00 00       	callq  ffffffff8010b48b <grab_PML4>
ffffffff8010a4da:	48 89 c3             	mov    %rax,%rbx
ffffffff8010a4dd:	bf 02 00 00 00       	mov    $0x2,%edi
ffffffff8010a4e2:	e8 53 f6 ff ff       	callq  ffffffff80109b3a <pmm_alloc>
ffffffff8010a4e7:	48 ba 00 20 00 00 00 	movabs $0xffff800000002000,%rdx
ffffffff8010a4ee:	80 ff ff 
ffffffff8010a4f1:	48 01 d0             	add    %rdx,%rax
ffffffff8010a4f4:	4c 89 e9             	mov    %r13,%rcx
ffffffff8010a4f7:	4c 89 e2             	mov    %r12,%rdx
ffffffff8010a4fa:	48 89 de             	mov    %rbx,%rsi
ffffffff8010a4fd:	48 89 c7             	mov    %rax,%rdi
ffffffff8010a500:	e8 4f fe ff ff       	callq  ffffffff8010a354 <prep_trampoline>
ffffffff8010a505:	8b 45 d4             	mov    -0x2c(%rbp),%eax
ffffffff8010a508:	0f b6 c0             	movzbl %al,%eax
ffffffff8010a50b:	be 00 05 00 00       	mov    $0x500,%esi
ffffffff8010a510:	89 c7                	mov    %eax,%edi
ffffffff8010a512:	e8 d3 75 ff ff       	callq  ffffffff80101aea <send_IPI>
ffffffff8010a517:	8b 45 d4             	mov    -0x2c(%rbp),%eax
ffffffff8010a51a:	0f b6 c0             	movzbl %al,%eax
ffffffff8010a51d:	be 01 06 00 00       	mov    $0x601,%esi
ffffffff8010a522:	89 c7                	mov    %eax,%edi
ffffffff8010a524:	e8 c1 75 ff ff       	callq  ffffffff80101aea <send_IPI>
ffffffff8010a529:	bf 14 00 00 00       	mov    $0x14,%edi
ffffffff8010a52e:	e8 f8 a7 ff ff       	callq  ffffffff80104d2b <ksleep>
ffffffff8010a533:	48 83 45 d8 01       	addq   $0x1,-0x28(%rbp)
ffffffff8010a538:	0f b6 05 01 f0 00 00 	movzbl 0xf001(%rip),%eax        # ffffffff80119540 <madt_info>
ffffffff8010a53f:	0f b6 c0             	movzbl %al,%eax
ffffffff8010a542:	48 39 45 d8          	cmp    %rax,-0x28(%rbp)
ffffffff8010a546:	0f 82 f9 fe ff ff    	jb     ffffffff8010a445 <init_smp+0x46>
ffffffff8010a54c:	90                   	nop
ffffffff8010a54d:	90                   	nop
ffffffff8010a54e:	48 83 c4 18          	add    $0x18,%rsp
ffffffff8010a552:	5b                   	pop    %rbx
ffffffff8010a553:	41 5c                	pop    %r12
ffffffff8010a555:	41 5d                	pop    %r13
ffffffff8010a557:	5d                   	pop    %rbp
ffffffff8010a558:	c3                   	retq   

ffffffff8010a559 <spin_lock>:
ffffffff8010a559:	55                   	push   %rbp
ffffffff8010a55a:	48 89 e5             	mov    %rsp,%rbp
ffffffff8010a55d:	48 83 ec 20          	sub    $0x20,%rsp
ffffffff8010a561:	48 89 7d e8          	mov    %rdi,-0x18(%rbp)
ffffffff8010a565:	48 c7 45 f8 00 00 00 	movq   $0x0,-0x8(%rbp)
ffffffff8010a56c:	00 
ffffffff8010a56d:	eb 33                	jmp    ffffffff8010a5a2 <spin_lock+0x49>
ffffffff8010a56f:	48 8b 45 f8          	mov    -0x8(%rbp),%rax
ffffffff8010a573:	48 83 c0 01          	add    $0x1,%rax
ffffffff8010a577:	48 89 45 f8          	mov    %rax,-0x8(%rbp)
ffffffff8010a57b:	48 ba 00 00 00 00 01 	movabs $0x100000000,%rdx
ffffffff8010a582:	00 00 00 
ffffffff8010a585:	48 39 d0             	cmp    %rdx,%rax
ffffffff8010a588:	75 18                	jne    ffffffff8010a5a2 <spin_lock+0x49>
ffffffff8010a58a:	48 c7 c6 b3 c8 10 80 	mov    $0xffffffff8010c8b3,%rsi
ffffffff8010a591:	48 c7 c7 c5 c8 10 80 	mov    $0xffffffff8010c8c5,%rdi
ffffffff8010a598:	b8 00 00 00 00       	mov    $0x0,%eax
ffffffff8010a59d:	e8 c3 e4 ff ff       	callq  ffffffff80108a65 <kprintf>
ffffffff8010a5a2:	48 8b 55 e8          	mov    -0x18(%rbp),%rdx
ffffffff8010a5a6:	b8 01 00 00 00       	mov    $0x1,%eax
ffffffff8010a5ab:	86 02                	xchg   %al,(%rdx)
ffffffff8010a5ad:	84 c0                	test   %al,%al
ffffffff8010a5af:	75 be                	jne    ffffffff8010a56f <spin_lock+0x16>
ffffffff8010a5b1:	90                   	nop
ffffffff8010a5b2:	90                   	nop
ffffffff8010a5b3:	c9                   	leaveq 
ffffffff8010a5b4:	c3                   	retq   

ffffffff8010a5b5 <spin_release>:
ffffffff8010a5b5:	55                   	push   %rbp
ffffffff8010a5b6:	48 89 e5             	mov    %rsp,%rbp
ffffffff8010a5b9:	48 83 ec 08          	sub    $0x8,%rsp
ffffffff8010a5bd:	48 89 7d f8          	mov    %rdi,-0x8(%rbp)
ffffffff8010a5c1:	48 8b 45 f8          	mov    -0x8(%rbp),%rax
ffffffff8010a5c5:	ba 00 00 00 00       	mov    $0x0,%edx
ffffffff8010a5ca:	88 10                	mov    %dl,(%rax)
ffffffff8010a5cc:	90                   	nop
ffffffff8010a5cd:	c9                   	leaveq 
ffffffff8010a5ce:	c3                   	retq   

ffffffff8010a5cf <partition_check_fs>:
ffffffff8010a5cf:	55                   	push   %rbp
ffffffff8010a5d0:	48 89 e5             	mov    %rsp,%rbp
ffffffff8010a5d3:	48 83 ec 10          	sub    $0x10,%rsp
ffffffff8010a5d7:	48 89 7d f8          	mov    %rdi,-0x8(%rbp)
ffffffff8010a5db:	48 83 ec 08          	sub    $0x8,%rsp
ffffffff8010a5df:	48 8b 45 f8          	mov    -0x8(%rbp),%rax
ffffffff8010a5e3:	ff 70 40             	pushq  0x40(%rax)
ffffffff8010a5e6:	ff 70 38             	pushq  0x38(%rax)
ffffffff8010a5e9:	ff 70 30             	pushq  0x30(%rax)
ffffffff8010a5ec:	ff 70 28             	pushq  0x28(%rax)
ffffffff8010a5ef:	ff 70 20             	pushq  0x20(%rax)
ffffffff8010a5f2:	ff 70 18             	pushq  0x18(%rax)
ffffffff8010a5f5:	ff 70 10             	pushq  0x10(%rax)
ffffffff8010a5f8:	ff 70 08             	pushq  0x8(%rax)
ffffffff8010a5fb:	ff 30                	pushq  (%rax)
ffffffff8010a5fd:	e8 73 7f ff ff       	callq  ffffffff80102575 <fs_check_ext2>
ffffffff8010a602:	48 83 c4 50          	add    $0x50,%rsp
ffffffff8010a606:	48 8b 55 f8          	mov    -0x8(%rbp),%rdx
ffffffff8010a60a:	48 89 42 28          	mov    %rax,0x28(%rdx)
ffffffff8010a60e:	48 8b 45 f8          	mov    -0x8(%rbp),%rax
ffffffff8010a612:	48 8b 40 28          	mov    0x28(%rax),%rax
ffffffff8010a616:	48 85 c0             	test   %rax,%rax
ffffffff8010a619:	74 1f                	je     ffffffff8010a63a <partition_check_fs+0x6b>
ffffffff8010a61b:	48 8b 45 f8          	mov    -0x8(%rbp),%rax
ffffffff8010a61f:	48 c7 40 38 09 27 10 	movq   $0xffffffff80102709,0x38(%rax)
ffffffff8010a626:	80 
ffffffff8010a627:	48 8b 45 f8          	mov    -0x8(%rbp),%rax
ffffffff8010a62b:	48 c7 40 40 e8 28 10 	movq   $0xffffffff801028e8,0x40(%rax)
ffffffff8010a632:	80 
ffffffff8010a633:	b8 00 00 00 00       	mov    $0x0,%eax
ffffffff8010a638:	eb 05                	jmp    ffffffff8010a63f <partition_check_fs+0x70>
ffffffff8010a63a:	b8 02 00 00 00       	mov    $0x2,%eax
ffffffff8010a63f:	c9                   	leaveq 
ffffffff8010a640:	c3                   	retq   

ffffffff8010a641 <add_partition>:
ffffffff8010a641:	55                   	push   %rbp
ffffffff8010a642:	48 89 e5             	mov    %rsp,%rbp
ffffffff8010a645:	48 83 ec 10          	sub    $0x10,%rsp
ffffffff8010a649:	48 89 7d f8          	mov    %rdi,-0x8(%rbp)
ffffffff8010a64d:	48 8b 05 ec ef 00 00 	mov    0xefec(%rip),%rax        # ffffffff80119640 <partition_cnt>
ffffffff8010a654:	48 83 c0 01          	add    $0x1,%rax
ffffffff8010a658:	83 e0 03             	and    $0x3,%eax
ffffffff8010a65b:	48 85 c0             	test   %rax,%rax
ffffffff8010a65e:	75 35                	jne    ffffffff8010a695 <add_partition+0x54>
ffffffff8010a660:	48 8b 15 d9 ef 00 00 	mov    0xefd9(%rip),%rdx        # ffffffff80119640 <partition_cnt>
ffffffff8010a667:	48 89 d0             	mov    %rdx,%rax
ffffffff8010a66a:	48 c1 e0 03          	shl    $0x3,%rax
ffffffff8010a66e:	48 01 d0             	add    %rdx,%rax
ffffffff8010a671:	48 c1 e0 03          	shl    $0x3,%rax
ffffffff8010a675:	48 8d 90 20 01 00 00 	lea    0x120(%rax),%rdx
ffffffff8010a67c:	48 8b 05 b5 ef 00 00 	mov    0xefb5(%rip),%rax        # ffffffff80119638 <partitions>
ffffffff8010a683:	48 89 d6             	mov    %rdx,%rsi
ffffffff8010a686:	48 89 c7             	mov    %rax,%rdi
ffffffff8010a689:	e8 ae 7d ff ff       	callq  ffffffff8010243c <krealloc>
ffffffff8010a68e:	48 89 05 a3 ef 00 00 	mov    %rax,0xefa3(%rip)        # ffffffff80119638 <partitions>
ffffffff8010a695:	48 8b 0d 9c ef 00 00 	mov    0xef9c(%rip),%rcx        # ffffffff80119638 <partitions>
ffffffff8010a69c:	48 8b 15 9d ef 00 00 	mov    0xef9d(%rip),%rdx        # ffffffff80119640 <partition_cnt>
ffffffff8010a6a3:	48 8d 42 01          	lea    0x1(%rdx),%rax
ffffffff8010a6a7:	48 89 05 92 ef 00 00 	mov    %rax,0xef92(%rip)        # ffffffff80119640 <partition_cnt>
ffffffff8010a6ae:	48 89 d0             	mov    %rdx,%rax
ffffffff8010a6b1:	48 c1 e0 03          	shl    $0x3,%rax
ffffffff8010a6b5:	48 01 d0             	add    %rdx,%rax
ffffffff8010a6b8:	48 c1 e0 03          	shl    $0x3,%rax
ffffffff8010a6bc:	48 8d 14 01          	lea    (%rcx,%rax,1),%rdx
ffffffff8010a6c0:	48 8b 45 f8          	mov    -0x8(%rbp),%rax
ffffffff8010a6c4:	48 8b 08             	mov    (%rax),%rcx
ffffffff8010a6c7:	48 89 0a             	mov    %rcx,(%rdx)
ffffffff8010a6ca:	48 8b 48 08          	mov    0x8(%rax),%rcx
ffffffff8010a6ce:	48 89 4a 08          	mov    %rcx,0x8(%rdx)
ffffffff8010a6d2:	48 8b 48 10          	mov    0x10(%rax),%rcx
ffffffff8010a6d6:	48 89 4a 10          	mov    %rcx,0x10(%rdx)
ffffffff8010a6da:	48 8b 48 18          	mov    0x18(%rax),%rcx
ffffffff8010a6de:	48 89 4a 18          	mov    %rcx,0x18(%rdx)
ffffffff8010a6e2:	48 8b 48 20          	mov    0x20(%rax),%rcx
ffffffff8010a6e6:	48 89 4a 20          	mov    %rcx,0x20(%rdx)
ffffffff8010a6ea:	48 8b 48 28          	mov    0x28(%rax),%rcx
ffffffff8010a6ee:	48 89 4a 28          	mov    %rcx,0x28(%rdx)
ffffffff8010a6f2:	48 8b 48 30          	mov    0x30(%rax),%rcx
ffffffff8010a6f6:	48 89 4a 30          	mov    %rcx,0x30(%rdx)
ffffffff8010a6fa:	48 8b 48 38          	mov    0x38(%rax),%rcx
ffffffff8010a6fe:	48 89 4a 38          	mov    %rcx,0x38(%rdx)
ffffffff8010a702:	48 8b 40 40          	mov    0x40(%rax),%rax
ffffffff8010a706:	48 89 42 40          	mov    %rax,0x40(%rdx)
ffffffff8010a70a:	90                   	nop
ffffffff8010a70b:	c9                   	leaveq 
ffffffff8010a70c:	c3                   	retq   

ffffffff8010a70d <find_mount_point>:
ffffffff8010a70d:	55                   	push   %rbp
ffffffff8010a70e:	48 89 e5             	mov    %rsp,%rbp
ffffffff8010a711:	48 83 ec 20          	sub    $0x20,%rsp
ffffffff8010a715:	48 89 7d e8          	mov    %rdi,-0x18(%rbp)
ffffffff8010a719:	48 c7 45 f8 00 00 00 	movq   $0x0,-0x8(%rbp)
ffffffff8010a720:	00 
ffffffff8010a721:	e9 84 00 00 00       	jmpq   ffffffff8010a7aa <find_mount_point+0x9d>
ffffffff8010a726:	48 8b 0d 0b ef 00 00 	mov    0xef0b(%rip),%rcx        # ffffffff80119638 <partitions>
ffffffff8010a72d:	48 8b 55 f8          	mov    -0x8(%rbp),%rdx
ffffffff8010a731:	48 89 d0             	mov    %rdx,%rax
ffffffff8010a734:	48 c1 e0 03          	shl    $0x3,%rax
ffffffff8010a738:	48 01 d0             	add    %rdx,%rax
ffffffff8010a73b:	48 c1 e0 03          	shl    $0x3,%rax
ffffffff8010a73f:	48 01 c8             	add    %rcx,%rax
ffffffff8010a742:	48 8b 40 30          	mov    0x30(%rax),%rax
ffffffff8010a746:	48 89 c7             	mov    %rax,%rdi
ffffffff8010a749:	e8 02 de ff ff       	callq  ffffffff80108550 <strlen>
ffffffff8010a74e:	48 89 c6             	mov    %rax,%rsi
ffffffff8010a751:	48 8b 0d e0 ee 00 00 	mov    0xeee0(%rip),%rcx        # ffffffff80119638 <partitions>
ffffffff8010a758:	48 8b 55 f8          	mov    -0x8(%rbp),%rdx
ffffffff8010a75c:	48 89 d0             	mov    %rdx,%rax
ffffffff8010a75f:	48 c1 e0 03          	shl    $0x3,%rax
ffffffff8010a763:	48 01 d0             	add    %rdx,%rax
ffffffff8010a766:	48 c1 e0 03          	shl    $0x3,%rax
ffffffff8010a76a:	48 01 c8             	add    %rcx,%rax
ffffffff8010a76d:	48 8b 40 30          	mov    0x30(%rax),%rax
ffffffff8010a771:	48 8b 4d e8          	mov    -0x18(%rbp),%rcx
ffffffff8010a775:	48 89 f2             	mov    %rsi,%rdx
ffffffff8010a778:	48 89 ce             	mov    %rcx,%rsi
ffffffff8010a77b:	48 89 c7             	mov    %rax,%rdi
ffffffff8010a77e:	e8 53 de ff ff       	callq  ffffffff801085d6 <strncmp>
ffffffff8010a783:	85 c0                	test   %eax,%eax
ffffffff8010a785:	75 1e                	jne    ffffffff8010a7a5 <find_mount_point+0x98>
ffffffff8010a787:	48 8b 0d aa ee 00 00 	mov    0xeeaa(%rip),%rcx        # ffffffff80119638 <partitions>
ffffffff8010a78e:	48 8b 55 f8          	mov    -0x8(%rbp),%rdx
ffffffff8010a792:	48 89 d0             	mov    %rdx,%rax
ffffffff8010a795:	48 c1 e0 03          	shl    $0x3,%rax
ffffffff8010a799:	48 01 d0             	add    %rdx,%rax
ffffffff8010a79c:	48 c1 e0 03          	shl    $0x3,%rax
ffffffff8010a7a0:	48 01 c8             	add    %rcx,%rax
ffffffff8010a7a3:	eb 1b                	jmp    ffffffff8010a7c0 <find_mount_point+0xb3>
ffffffff8010a7a5:	48 83 45 f8 01       	addq   $0x1,-0x8(%rbp)
ffffffff8010a7aa:	48 8b 05 8f ee 00 00 	mov    0xee8f(%rip),%rax        # ffffffff80119640 <partition_cnt>
ffffffff8010a7b1:	48 39 45 f8          	cmp    %rax,-0x8(%rbp)
ffffffff8010a7b5:	0f 82 6b ff ff ff    	jb     ffffffff8010a726 <find_mount_point+0x19>
ffffffff8010a7bb:	b8 00 00 00 00       	mov    $0x0,%eax
ffffffff8010a7c0:	c9                   	leaveq 
ffffffff8010a7c1:	c3                   	retq   

ffffffff8010a7c2 <fstab_mount>:
ffffffff8010a7c2:	55                   	push   %rbp
ffffffff8010a7c3:	48 89 e5             	mov    %rsp,%rbp
ffffffff8010a7c6:	53                   	push   %rbx
ffffffff8010a7c7:	48 83 ec 48          	sub    $0x48,%rsp
ffffffff8010a7cb:	48 89 7d b8          	mov    %rdi,-0x48(%rbp)
ffffffff8010a7cf:	48 8b 45 b8          	mov    -0x48(%rbp),%rax
ffffffff8010a7d3:	48 89 45 c8          	mov    %rax,-0x38(%rbp)
ffffffff8010a7d7:	48 8b 45 c8          	mov    -0x38(%rbp),%rax
ffffffff8010a7db:	48 8d 55 c8          	lea    -0x38(%rbp),%rdx
ffffffff8010a7df:	48 c7 c6 d0 c8 10 80 	mov    $0xffffffff8010c8d0,%rsi
ffffffff8010a7e6:	48 89 c7             	mov    %rax,%rdi
ffffffff8010a7e9:	e8 e4 df ff ff       	callq  ffffffff801087d2 <strtok_r>
ffffffff8010a7ee:	48 89 45 e0          	mov    %rax,-0x20(%rbp)
ffffffff8010a7f2:	48 8b 45 c8          	mov    -0x38(%rbp),%rax
ffffffff8010a7f6:	48 8d 55 c8          	lea    -0x38(%rbp),%rdx
ffffffff8010a7fa:	48 c7 c6 d0 c8 10 80 	mov    $0xffffffff8010c8d0,%rsi
ffffffff8010a801:	48 89 c7             	mov    %rax,%rdi
ffffffff8010a804:	e8 c9 df ff ff       	callq  ffffffff801087d2 <strtok_r>
ffffffff8010a809:	48 89 45 d8          	mov    %rax,-0x28(%rbp)
ffffffff8010a80d:	48 8b 45 c8          	mov    -0x38(%rbp),%rax
ffffffff8010a811:	48 8d 55 c8          	lea    -0x38(%rbp),%rdx
ffffffff8010a815:	48 c7 c6 d0 c8 10 80 	mov    $0xffffffff8010c8d0,%rsi
ffffffff8010a81c:	48 89 c7             	mov    %rax,%rdi
ffffffff8010a81f:	e8 ae df ff ff       	callq  ffffffff801087d2 <strtok_r>
ffffffff8010a824:	48 89 45 d0          	mov    %rax,-0x30(%rbp)
ffffffff8010a828:	48 c7 45 e8 00 00 00 	movq   $0x0,-0x18(%rbp)
ffffffff8010a82f:	00 
ffffffff8010a830:	eb 5b                	jmp    ffffffff8010a88d <fstab_mount+0xcb>
ffffffff8010a832:	48 8b 0d ff ed 00 00 	mov    0xedff(%rip),%rcx        # ffffffff80119638 <partitions>
ffffffff8010a839:	48 8b 55 e8          	mov    -0x18(%rbp),%rdx
ffffffff8010a83d:	48 89 d0             	mov    %rdx,%rax
ffffffff8010a840:	48 c1 e0 03          	shl    $0x3,%rax
ffffffff8010a844:	48 01 d0             	add    %rdx,%rax
ffffffff8010a847:	48 c1 e0 03          	shl    $0x3,%rax
ffffffff8010a84b:	48 01 c8             	add    %rcx,%rax
ffffffff8010a84e:	8b 58 0c             	mov    0xc(%rax),%ebx
ffffffff8010a851:	48 8b 45 d8          	mov    -0x28(%rbp),%rax
ffffffff8010a855:	48 89 c7             	mov    %rax,%rdi
ffffffff8010a858:	e8 92 e0 ff ff       	callq  ffffffff801088ef <atoi>
ffffffff8010a85d:	39 c3                	cmp    %eax,%ebx
ffffffff8010a85f:	75 27                	jne    ffffffff8010a888 <fstab_mount+0xc6>
ffffffff8010a861:	48 8b 0d d0 ed 00 00 	mov    0xedd0(%rip),%rcx        # ffffffff80119638 <partitions>
ffffffff8010a868:	48 8b 55 e8          	mov    -0x18(%rbp),%rdx
ffffffff8010a86c:	48 89 d0             	mov    %rdx,%rax
ffffffff8010a86f:	48 c1 e0 03          	shl    $0x3,%rax
ffffffff8010a873:	48 01 d0             	add    %rdx,%rax
ffffffff8010a876:	48 c1 e0 03          	shl    $0x3,%rax
ffffffff8010a87a:	48 8d 14 01          	lea    (%rcx,%rax,1),%rdx
ffffffff8010a87e:	48 8b 45 d0          	mov    -0x30(%rbp),%rax
ffffffff8010a882:	48 89 42 30          	mov    %rax,0x30(%rdx)
ffffffff8010a886:	eb 12                	jmp    ffffffff8010a89a <fstab_mount+0xd8>
ffffffff8010a888:	48 83 45 e8 01       	addq   $0x1,-0x18(%rbp)
ffffffff8010a88d:	48 8b 05 ac ed 00 00 	mov    0xedac(%rip),%rax        # ffffffff80119640 <partition_cnt>
ffffffff8010a894:	48 39 45 e8          	cmp    %rax,-0x18(%rbp)
ffffffff8010a898:	72 98                	jb     ffffffff8010a832 <fstab_mount+0x70>
ffffffff8010a89a:	48 8b 5d f8          	mov    -0x8(%rbp),%rbx
ffffffff8010a89e:	c9                   	leaveq 
ffffffff8010a89f:	c3                   	retq   

ffffffff8010a8a0 <fs_read>:
ffffffff8010a8a0:	55                   	push   %rbp
ffffffff8010a8a1:	48 89 e5             	mov    %rsp,%rbp
ffffffff8010a8a4:	48 83 ec 30          	sub    $0x30,%rsp
ffffffff8010a8a8:	48 89 7d e8          	mov    %rdi,-0x18(%rbp)
ffffffff8010a8ac:	48 89 75 e0          	mov    %rsi,-0x20(%rbp)
ffffffff8010a8b0:	48 89 55 d8          	mov    %rdx,-0x28(%rbp)
ffffffff8010a8b4:	48 89 4d d0          	mov    %rcx,-0x30(%rbp)
ffffffff8010a8b8:	48 8b 45 e8          	mov    -0x18(%rbp),%rax
ffffffff8010a8bc:	48 89 c7             	mov    %rax,%rdi
ffffffff8010a8bf:	e8 49 fe ff ff       	callq  ffffffff8010a70d <find_mount_point>
ffffffff8010a8c4:	48 89 45 f8          	mov    %rax,-0x8(%rbp)
ffffffff8010a8c8:	48 8b 45 f8          	mov    -0x8(%rbp),%rax
ffffffff8010a8cc:	4c 8b 48 38          	mov    0x38(%rax),%r9
ffffffff8010a8d0:	48 8b 7d d0          	mov    -0x30(%rbp),%rdi
ffffffff8010a8d4:	48 8b 4d d8          	mov    -0x28(%rbp),%rcx
ffffffff8010a8d8:	48 8b 55 e0          	mov    -0x20(%rbp),%rdx
ffffffff8010a8dc:	48 8b 75 e8          	mov    -0x18(%rbp),%rsi
ffffffff8010a8e0:	48 8b 45 f8          	mov    -0x8(%rbp),%rax
ffffffff8010a8e4:	49 89 f8             	mov    %rdi,%r8
ffffffff8010a8e7:	48 89 c7             	mov    %rax,%rdi
ffffffff8010a8ea:	41 ff d1             	callq  *%r9
ffffffff8010a8ed:	c9                   	leaveq 
ffffffff8010a8ee:	c3                   	retq   

ffffffff8010a8ef <fs_write>:
ffffffff8010a8ef:	55                   	push   %rbp
ffffffff8010a8f0:	48 89 e5             	mov    %rsp,%rbp
ffffffff8010a8f3:	48 83 ec 30          	sub    $0x30,%rsp
ffffffff8010a8f7:	48 89 7d e8          	mov    %rdi,-0x18(%rbp)
ffffffff8010a8fb:	48 89 75 e0          	mov    %rsi,-0x20(%rbp)
ffffffff8010a8ff:	48 89 55 d8          	mov    %rdx,-0x28(%rbp)
ffffffff8010a903:	48 89 4d d0          	mov    %rcx,-0x30(%rbp)
ffffffff8010a907:	48 8b 45 e8          	mov    -0x18(%rbp),%rax
ffffffff8010a90b:	48 89 c7             	mov    %rax,%rdi
ffffffff8010a90e:	e8 fa fd ff ff       	callq  ffffffff8010a70d <find_mount_point>
ffffffff8010a913:	48 89 45 f8          	mov    %rax,-0x8(%rbp)
ffffffff8010a917:	48 8b 45 f8          	mov    -0x8(%rbp),%rax
ffffffff8010a91b:	4c 8b 48 40          	mov    0x40(%rax),%r9
ffffffff8010a91f:	48 8b 7d d0          	mov    -0x30(%rbp),%rdi
ffffffff8010a923:	48 8b 4d d8          	mov    -0x28(%rbp),%rcx
ffffffff8010a927:	48 8b 55 e0          	mov    -0x20(%rbp),%rdx
ffffffff8010a92b:	48 8b 75 e8          	mov    -0x18(%rbp),%rsi
ffffffff8010a92f:	48 8b 45 f8          	mov    -0x8(%rbp),%rax
ffffffff8010a933:	49 89 f8             	mov    %rdi,%r8
ffffffff8010a936:	48 89 c7             	mov    %rax,%rdi
ffffffff8010a939:	41 ff d1             	callq  *%r9
ffffffff8010a93c:	c9                   	leaveq 
ffffffff8010a93d:	c3                   	retq   

ffffffff8010a93e <partition_mount_all>:
ffffffff8010a93e:	55                   	push   %rbp
ffffffff8010a93f:	48 89 e5             	mov    %rsp,%rbp
ffffffff8010a942:	48 83 ec 20          	sub    $0x20,%rsp
ffffffff8010a946:	bf 00 10 00 00       	mov    $0x1000,%edi
ffffffff8010a94b:	e8 2c 78 ff ff       	callq  ffffffff8010217c <kmalloc>
ffffffff8010a950:	48 89 45 e8          	mov    %rax,-0x18(%rbp)
ffffffff8010a954:	48 c7 45 f8 00 00 00 	movq   $0x0,-0x8(%rbp)
ffffffff8010a95b:	00 
ffffffff8010a95c:	e9 c9 00 00 00       	jmpq   ffffffff8010aa2a <partition_mount_all+0xec>
ffffffff8010a961:	48 8b 0d d0 ec 00 00 	mov    0xecd0(%rip),%rcx        # ffffffff80119638 <partitions>
ffffffff8010a968:	48 8b 55 f8          	mov    -0x8(%rbp),%rdx
ffffffff8010a96c:	48 89 d0             	mov    %rdx,%rax
ffffffff8010a96f:	48 c1 e0 03          	shl    $0x3,%rax
ffffffff8010a973:	48 01 d0             	add    %rdx,%rax
ffffffff8010a976:	48 c1 e0 03          	shl    $0x3,%rax
ffffffff8010a97a:	48 01 c8             	add    %rcx,%rax
ffffffff8010a97d:	8b 40 08             	mov    0x8(%rax),%eax
ffffffff8010a980:	85 c0                	test   %eax,%eax
ffffffff8010a982:	0f 85 9d 00 00 00    	jne    ffffffff8010aa25 <partition_mount_all+0xe7>
ffffffff8010a988:	48 8b 0d a9 ec 00 00 	mov    0xeca9(%rip),%rcx        # ffffffff80119638 <partitions>
ffffffff8010a98f:	48 8b 55 f8          	mov    -0x8(%rbp),%rdx
ffffffff8010a993:	48 89 d0             	mov    %rdx,%rax
ffffffff8010a996:	48 c1 e0 03          	shl    $0x3,%rax
ffffffff8010a99a:	48 01 d0             	add    %rdx,%rax
ffffffff8010a99d:	48 c1 e0 03          	shl    $0x3,%rax
ffffffff8010a9a1:	48 01 c8             	add    %rcx,%rax
ffffffff8010a9a4:	4c 8b 48 38          	mov    0x38(%rax),%r9
ffffffff8010a9a8:	48 8b 0d 89 ec 00 00 	mov    0xec89(%rip),%rcx        # ffffffff80119638 <partitions>
ffffffff8010a9af:	48 8b 55 f8          	mov    -0x8(%rbp),%rdx
ffffffff8010a9b3:	48 89 d0             	mov    %rdx,%rax
ffffffff8010a9b6:	48 c1 e0 03          	shl    $0x3,%rax
ffffffff8010a9ba:	48 01 d0             	add    %rdx,%rax
ffffffff8010a9bd:	48 c1 e0 03          	shl    $0x3,%rax
ffffffff8010a9c1:	48 01 c8             	add    %rcx,%rax
ffffffff8010a9c4:	48 8b 55 e8          	mov    -0x18(%rbp),%rdx
ffffffff8010a9c8:	49 89 d0             	mov    %rdx,%r8
ffffffff8010a9cb:	b9 00 10 00 00       	mov    $0x1000,%ecx
ffffffff8010a9d0:	ba 00 00 00 00       	mov    $0x0,%edx
ffffffff8010a9d5:	48 c7 c6 d2 c8 10 80 	mov    $0xffffffff8010c8d2,%rsi
ffffffff8010a9dc:	48 89 c7             	mov    %rax,%rdi
ffffffff8010a9df:	41 ff d1             	callq  *%r9
ffffffff8010a9e2:	48 8b 45 e8          	mov    -0x18(%rbp),%rax
ffffffff8010a9e6:	48 c7 c6 d9 c8 10 80 	mov    $0xffffffff8010c8d9,%rsi
ffffffff8010a9ed:	48 89 c7             	mov    %rax,%rdi
ffffffff8010a9f0:	e8 ce de ff ff       	callq  ffffffff801088c3 <strtok>
ffffffff8010a9f5:	48 89 45 f0          	mov    %rax,-0x10(%rbp)
ffffffff8010a9f9:	eb 21                	jmp    ffffffff8010aa1c <partition_mount_all+0xde>
ffffffff8010a9fb:	48 8b 45 f0          	mov    -0x10(%rbp),%rax
ffffffff8010a9ff:	48 89 c7             	mov    %rax,%rdi
ffffffff8010aa02:	e8 bb fd ff ff       	callq  ffffffff8010a7c2 <fstab_mount>
ffffffff8010aa07:	48 c7 c6 d9 c8 10 80 	mov    $0xffffffff8010c8d9,%rsi
ffffffff8010aa0e:	bf 00 00 00 00       	mov    $0x0,%edi
ffffffff8010aa13:	e8 ab de ff ff       	callq  ffffffff801088c3 <strtok>
ffffffff8010aa18:	48 89 45 f0          	mov    %rax,-0x10(%rbp)
ffffffff8010aa1c:	48 83 7d f0 00       	cmpq   $0x0,-0x10(%rbp)
ffffffff8010aa21:	75 d8                	jne    ffffffff8010a9fb <partition_mount_all+0xbd>
ffffffff8010aa23:	eb 16                	jmp    ffffffff8010aa3b <partition_mount_all+0xfd>
ffffffff8010aa25:	48 83 45 f8 01       	addq   $0x1,-0x8(%rbp)
ffffffff8010aa2a:	48 8b 05 0f ec 00 00 	mov    0xec0f(%rip),%rax        # ffffffff80119640 <partition_cnt>
ffffffff8010aa31:	48 39 45 f8          	cmp    %rax,-0x8(%rbp)
ffffffff8010aa35:	0f 82 26 ff ff ff    	jb     ffffffff8010a961 <partition_mount_all+0x23>
ffffffff8010aa3b:	48 8b 45 e8          	mov    -0x18(%rbp),%rax
ffffffff8010aa3f:	48 89 c7             	mov    %rax,%rdi
ffffffff8010aa42:	e8 e1 78 ff ff       	callq  ffffffff80102328 <kfree>
ffffffff8010aa47:	90                   	nop
ffffffff8010aa48:	c9                   	leaveq 
ffffffff8010aa49:	c3                   	retq   

ffffffff8010aa4a <scan_partitions>:
ffffffff8010aa4a:	55                   	push   %rbp
ffffffff8010aa4b:	48 89 e5             	mov    %rsp,%rbp
ffffffff8010aa4e:	48 81 ec 10 01 00 00 	sub    $0x110,%rsp
ffffffff8010aa55:	48 89 bd f8 fe ff ff 	mov    %rdi,-0x108(%rbp)
ffffffff8010aa5c:	48 8b 85 f8 fe ff ff 	mov    -0x108(%rbp),%rax
ffffffff8010aa63:	4c 8b 40 18          	mov    0x18(%rax),%r8
ffffffff8010aa67:	48 8b 85 f8 fe ff ff 	mov    -0x108(%rbp),%rax
ffffffff8010aa6e:	48 8b 00             	mov    (%rax),%rax
ffffffff8010aa71:	89 c7                	mov    %eax,%edi
ffffffff8010aa73:	48 8d 45 fc          	lea    -0x4(%rbp),%rax
ffffffff8010aa77:	48 89 c1             	mov    %rax,%rcx
ffffffff8010aa7a:	ba 02 00 00 00       	mov    $0x2,%edx
ffffffff8010aa7f:	be fe 01 00 00       	mov    $0x1fe,%esi
ffffffff8010aa84:	41 ff d0             	callq  *%r8
ffffffff8010aa87:	0f b7 45 fc          	movzwl -0x4(%rbp),%eax
ffffffff8010aa8b:	66 3d 55 aa          	cmp    $0xaa55,%ax
ffffffff8010aa8f:	0f 85 97 01 00 00    	jne    ffffffff8010ac2c <scan_partitions+0x1e2>
ffffffff8010aa95:	48 8b 85 f8 fe ff ff 	mov    -0x108(%rbp),%rax
ffffffff8010aa9c:	4c 8b 40 18          	mov    0x18(%rax),%r8
ffffffff8010aaa0:	48 8b 85 f8 fe ff ff 	mov    -0x108(%rbp),%rax
ffffffff8010aaa7:	48 8b 00             	mov    (%rax),%rax
ffffffff8010aaaa:	89 c7                	mov    %eax,%edi
ffffffff8010aaac:	48 8d 85 08 ff ff ff 	lea    -0xf8(%rbp),%rax
ffffffff8010aab3:	48 89 c1             	mov    %rax,%rcx
ffffffff8010aab6:	ba 40 00 00 00       	mov    $0x40,%edx
ffffffff8010aabb:	be be 01 00 00       	mov    $0x1be,%esi
ffffffff8010aac0:	41 ff d0             	callq  *%r8
ffffffff8010aac3:	48 8b 85 f8 fe ff ff 	mov    -0x108(%rbp),%rax
ffffffff8010aaca:	4c 8b 40 18          	mov    0x18(%rax),%r8
ffffffff8010aace:	48 8b 85 f8 fe ff ff 	mov    -0x108(%rbp),%rax
ffffffff8010aad5:	48 8b 00             	mov    (%rax),%rax
ffffffff8010aad8:	89 c7                	mov    %eax,%edi
ffffffff8010aada:	48 8d 45 96          	lea    -0x6a(%rbp),%rax
ffffffff8010aade:	48 89 c1             	mov    %rax,%rcx
ffffffff8010aae1:	ba 0a 00 00 00       	mov    $0xa,%edx
ffffffff8010aae6:	be b4 01 00 00       	mov    $0x1b4,%esi
ffffffff8010aaeb:	41 ff d0             	callq  *%r8
ffffffff8010aaee:	48 8b 85 f8 fe ff ff 	mov    -0x108(%rbp),%rax
ffffffff8010aaf5:	48 8d 48 08          	lea    0x8(%rax),%rcx
ffffffff8010aaf9:	48 8d 45 96          	lea    -0x6a(%rbp),%rax
ffffffff8010aafd:	ba 0a 00 00 00       	mov    $0xa,%edx
ffffffff8010ab02:	48 89 c6             	mov    %rax,%rsi
ffffffff8010ab05:	48 89 cf             	mov    %rcx,%rdi
ffffffff8010ab08:	e8 8b d8 ff ff       	callq  ffffffff80108398 <memcpy8>
ffffffff8010ab0d:	c6 45 ff 00          	movb   $0x0,-0x1(%rbp)
ffffffff8010ab11:	e9 0a 01 00 00       	jmpq   ffffffff8010ac20 <scan_partitions+0x1d6>
ffffffff8010ab16:	0f b6 45 ff          	movzbl -0x1(%rbp),%eax
ffffffff8010ab1a:	48 98                	cltq   
ffffffff8010ab1c:	48 c1 e0 04          	shl    $0x4,%rax
ffffffff8010ab20:	48 01 e8             	add    %rbp,%rax
ffffffff8010ab23:	48 2d f4 00 00 00    	sub    $0xf4,%rax
ffffffff8010ab29:	0f b6 00             	movzbl (%rax),%eax
ffffffff8010ab2c:	84 c0                	test   %al,%al
ffffffff8010ab2e:	0f 84 e1 00 00 00    	je     ffffffff8010ac15 <scan_partitions+0x1cb>
ffffffff8010ab34:	48 8d 95 48 ff ff ff 	lea    -0xb8(%rbp),%rdx
ffffffff8010ab3b:	b8 00 00 00 00       	mov    $0x0,%eax
ffffffff8010ab40:	b9 09 00 00 00       	mov    $0x9,%ecx
ffffffff8010ab45:	48 89 d7             	mov    %rdx,%rdi
ffffffff8010ab48:	f3 48 ab             	rep stos %rax,%es:(%rdi)
ffffffff8010ab4b:	48 8b 85 f8 fe ff ff 	mov    -0x108(%rbp),%rax
ffffffff8010ab52:	48 89 85 48 ff ff ff 	mov    %rax,-0xb8(%rbp)
ffffffff8010ab59:	0f b6 45 ff          	movzbl -0x1(%rbp),%eax
ffffffff8010ab5d:	48 98                	cltq   
ffffffff8010ab5f:	48 c1 e0 04          	shl    $0x4,%rax
ffffffff8010ab63:	48 01 e8             	add    %rbp,%rax
ffffffff8010ab66:	48 2d f4 00 00 00    	sub    $0xf4,%rax
ffffffff8010ab6c:	0f b6 00             	movzbl (%rax),%eax
ffffffff8010ab6f:	f7 d0                	not    %eax
ffffffff8010ab71:	c0 e8 07             	shr    $0x7,%al
ffffffff8010ab74:	0f b6 c0             	movzbl %al,%eax
ffffffff8010ab77:	89 85 50 ff ff ff    	mov    %eax,-0xb0(%rbp)
ffffffff8010ab7d:	0f b6 45 ff          	movzbl -0x1(%rbp),%eax
ffffffff8010ab81:	89 85 54 ff ff ff    	mov    %eax,-0xac(%rbp)
ffffffff8010ab87:	0f b6 45 ff          	movzbl -0x1(%rbp),%eax
ffffffff8010ab8b:	48 98                	cltq   
ffffffff8010ab8d:	48 c1 e0 04          	shl    $0x4,%rax
ffffffff8010ab91:	48 01 e8             	add    %rbp,%rax
ffffffff8010ab94:	48 2d f0 00 00 00    	sub    $0xf0,%rax
ffffffff8010ab9a:	8b 00                	mov    (%rax),%eax
ffffffff8010ab9c:	c1 e0 09             	shl    $0x9,%eax
ffffffff8010ab9f:	89 c0                	mov    %eax,%eax
ffffffff8010aba1:	48 89 85 58 ff ff ff 	mov    %rax,-0xa8(%rbp)
ffffffff8010aba8:	48 c7 85 60 ff ff ff 	movq   $0x200,-0xa0(%rbp)
ffffffff8010abaf:	00 02 00 00 
ffffffff8010abb3:	c7 85 68 ff ff ff 02 	movl   $0x2,-0x98(%rbp)
ffffffff8010abba:	00 00 00 
ffffffff8010abbd:	0f b6 45 ff          	movzbl -0x1(%rbp),%eax
ffffffff8010abc1:	48 98                	cltq   
ffffffff8010abc3:	48 c1 e0 04          	shl    $0x4,%rax
ffffffff8010abc7:	48 01 e8             	add    %rbp,%rax
ffffffff8010abca:	48 2d f4 00 00 00    	sub    $0xf4,%rax
ffffffff8010abd0:	0f b6 00             	movzbl (%rax),%eax
ffffffff8010abd3:	84 c0                	test   %al,%al
ffffffff8010abd5:	79 09                	jns    ffffffff8010abe0 <scan_partitions+0x196>
ffffffff8010abd7:	48 c7 c0 db c8 10 80 	mov    $0xffffffff8010c8db,%rax
ffffffff8010abde:	eb 05                	jmp    ffffffff8010abe5 <scan_partitions+0x19b>
ffffffff8010abe0:	b8 00 00 00 00       	mov    $0x0,%eax
ffffffff8010abe5:	48 89 85 78 ff ff ff 	mov    %rax,-0x88(%rbp)
ffffffff8010abec:	48 8d 85 48 ff ff ff 	lea    -0xb8(%rbp),%rax
ffffffff8010abf3:	48 89 c7             	mov    %rax,%rdi
ffffffff8010abf6:	e8 d4 f9 ff ff       	callq  ffffffff8010a5cf <partition_check_fs>
ffffffff8010abfb:	0f b6 c0             	movzbl %al,%eax
ffffffff8010abfe:	89 85 68 ff ff ff    	mov    %eax,-0x98(%rbp)
ffffffff8010ac04:	48 8d 85 48 ff ff ff 	lea    -0xb8(%rbp),%rax
ffffffff8010ac0b:	48 89 c7             	mov    %rax,%rdi
ffffffff8010ac0e:	e8 2e fa ff ff       	callq  ffffffff8010a641 <add_partition>
ffffffff8010ac13:	eb 01                	jmp    ffffffff8010ac16 <scan_partitions+0x1cc>
ffffffff8010ac15:	90                   	nop
ffffffff8010ac16:	0f b6 45 ff          	movzbl -0x1(%rbp),%eax
ffffffff8010ac1a:	83 c0 01             	add    $0x1,%eax
ffffffff8010ac1d:	88 45 ff             	mov    %al,-0x1(%rbp)
ffffffff8010ac20:	80 7d ff 03          	cmpb   $0x3,-0x1(%rbp)
ffffffff8010ac24:	0f 86 ec fe ff ff    	jbe    ffffffff8010ab16 <scan_partitions+0xcc>
ffffffff8010ac2a:	eb 59                	jmp    ffffffff8010ac85 <scan_partitions+0x23b>
ffffffff8010ac2c:	48 8b 85 f8 fe ff ff 	mov    -0x108(%rbp),%rax
ffffffff8010ac33:	4c 8b 40 18          	mov    0x18(%rax),%r8
ffffffff8010ac37:	48 8b 85 f8 fe ff ff 	mov    -0x108(%rbp),%rax
ffffffff8010ac3e:	48 8b 00             	mov    (%rax),%rax
ffffffff8010ac41:	89 c7                	mov    %eax,%edi
ffffffff8010ac43:	48 8d 45 a0          	lea    -0x60(%rbp),%rax
ffffffff8010ac47:	48 89 c1             	mov    %rax,%rcx
ffffffff8010ac4a:	ba 5c 00 00 00       	mov    $0x5c,%edx
ffffffff8010ac4f:	be 00 02 00 00       	mov    $0x200,%esi
ffffffff8010ac54:	41 ff d0             	callq  *%r8
ffffffff8010ac57:	48 8b 45 a0          	mov    -0x60(%rbp),%rax
ffffffff8010ac5b:	48 ba 54 52 41 50 20 	movabs $0x4546492050415254,%rdx
ffffffff8010ac62:	49 46 45 
ffffffff8010ac65:	48 39 d0             	cmp    %rdx,%rax
ffffffff8010ac68:	74 1a                	je     ffffffff8010ac84 <scan_partitions+0x23a>
ffffffff8010ac6a:	48 c7 c6 e0 c8 10 80 	mov    $0xffffffff8010c8e0,%rsi
ffffffff8010ac71:	48 c7 c7 08 c9 10 80 	mov    $0xffffffff8010c908,%rdi
ffffffff8010ac78:	b8 00 00 00 00       	mov    $0x0,%eax
ffffffff8010ac7d:	e8 e3 dd ff ff       	callq  ffffffff80108a65 <kprintf>
ffffffff8010ac82:	eb 01                	jmp    ffffffff8010ac85 <scan_partitions+0x23b>
ffffffff8010ac84:	90                   	nop
ffffffff8010ac85:	c9                   	leaveq 
ffffffff8010ac86:	c3                   	retq   

ffffffff8010ac87 <partition_read>:
ffffffff8010ac87:	55                   	push   %rbp
ffffffff8010ac88:	48 89 e5             	mov    %rsp,%rbp
ffffffff8010ac8b:	48 83 ec 20          	sub    $0x20,%rsp
ffffffff8010ac8f:	48 89 7d f8          	mov    %rdi,-0x8(%rbp)
ffffffff8010ac93:	48 89 75 f0          	mov    %rsi,-0x10(%rbp)
ffffffff8010ac97:	48 89 55 e8          	mov    %rdx,-0x18(%rbp)
ffffffff8010ac9b:	48 89 4d e0          	mov    %rcx,-0x20(%rbp)
ffffffff8010ac9f:	48 8b 45 f8          	mov    -0x8(%rbp),%rax
ffffffff8010aca3:	48 8b 00             	mov    (%rax),%rax
ffffffff8010aca6:	4c 8b 40 18          	mov    0x18(%rax),%r8
ffffffff8010acaa:	48 8b 45 f8          	mov    -0x8(%rbp),%rax
ffffffff8010acae:	48 8b 50 10          	mov    0x10(%rax),%rdx
ffffffff8010acb2:	48 8b 45 f0          	mov    -0x10(%rbp),%rax
ffffffff8010acb6:	48 8d 34 02          	lea    (%rdx,%rax,1),%rsi
ffffffff8010acba:	48 8b 45 f8          	mov    -0x8(%rbp),%rax
ffffffff8010acbe:	48 8b 00             	mov    (%rax),%rax
ffffffff8010acc1:	48 8b 00             	mov    (%rax),%rax
ffffffff8010acc4:	89 c7                	mov    %eax,%edi
ffffffff8010acc6:	48 8b 55 e0          	mov    -0x20(%rbp),%rdx
ffffffff8010acca:	48 8b 45 e8          	mov    -0x18(%rbp),%rax
ffffffff8010acce:	48 89 d1             	mov    %rdx,%rcx
ffffffff8010acd1:	48 89 c2             	mov    %rax,%rdx
ffffffff8010acd4:	41 ff d0             	callq  *%r8
ffffffff8010acd7:	90                   	nop
ffffffff8010acd8:	c9                   	leaveq 
ffffffff8010acd9:	c3                   	retq   

ffffffff8010acda <partition_write>:
ffffffff8010acda:	55                   	push   %rbp
ffffffff8010acdb:	48 89 e5             	mov    %rsp,%rbp
ffffffff8010acde:	48 83 ec 20          	sub    $0x20,%rsp
ffffffff8010ace2:	48 89 7d f8          	mov    %rdi,-0x8(%rbp)
ffffffff8010ace6:	48 89 75 f0          	mov    %rsi,-0x10(%rbp)
ffffffff8010acea:	48 89 55 e8          	mov    %rdx,-0x18(%rbp)
ffffffff8010acee:	48 89 4d e0          	mov    %rcx,-0x20(%rbp)
ffffffff8010acf2:	48 8b 45 f8          	mov    -0x8(%rbp),%rax
ffffffff8010acf6:	48 8b 00             	mov    (%rax),%rax
ffffffff8010acf9:	4c 8b 40 20          	mov    0x20(%rax),%r8
ffffffff8010acfd:	48 8b 45 f8          	mov    -0x8(%rbp),%rax
ffffffff8010ad01:	48 8b 50 10          	mov    0x10(%rax),%rdx
ffffffff8010ad05:	48 8b 45 f0          	mov    -0x10(%rbp),%rax
ffffffff8010ad09:	48 8d 34 02          	lea    (%rdx,%rax,1),%rsi
ffffffff8010ad0d:	48 8b 45 f8          	mov    -0x8(%rbp),%rax
ffffffff8010ad11:	48 8b 00             	mov    (%rax),%rax
ffffffff8010ad14:	48 8b 00             	mov    (%rax),%rax
ffffffff8010ad17:	89 c7                	mov    %eax,%edi
ffffffff8010ad19:	48 8b 55 e0          	mov    -0x20(%rbp),%rdx
ffffffff8010ad1d:	48 8b 45 e8          	mov    -0x18(%rbp),%rax
ffffffff8010ad21:	48 89 d1             	mov    %rdx,%rcx
ffffffff8010ad24:	48 89 c2             	mov    %rax,%rdx
ffffffff8010ad27:	41 ff d0             	callq  *%r8
ffffffff8010ad2a:	90                   	nop
ffffffff8010ad2b:	c9                   	leaveq 
ffffffff8010ad2c:	c3                   	retq   

ffffffff8010ad2d <add_device>:
ffffffff8010ad2d:	55                   	push   %rbp
ffffffff8010ad2e:	48 89 e5             	mov    %rsp,%rbp
ffffffff8010ad31:	48 83 ec 20          	sub    $0x20,%rsp
ffffffff8010ad35:	48 89 7d e8          	mov    %rdi,-0x18(%rbp)
ffffffff8010ad39:	bf 28 00 00 00       	mov    $0x28,%edi
ffffffff8010ad3e:	e8 39 74 ff ff       	callq  ffffffff8010217c <kmalloc>
ffffffff8010ad43:	48 89 45 f8          	mov    %rax,-0x8(%rbp)
ffffffff8010ad47:	48 8b 45 f8          	mov    -0x8(%rbp),%rax
ffffffff8010ad4b:	48 8b 55 e8          	mov    -0x18(%rbp),%rdx
ffffffff8010ad4f:	48 8b 0a             	mov    (%rdx),%rcx
ffffffff8010ad52:	48 89 08             	mov    %rcx,(%rax)
ffffffff8010ad55:	48 8b 4a 08          	mov    0x8(%rdx),%rcx
ffffffff8010ad59:	48 89 48 08          	mov    %rcx,0x8(%rax)
ffffffff8010ad5d:	48 8b 4a 10          	mov    0x10(%rdx),%rcx
ffffffff8010ad61:	48 89 48 10          	mov    %rcx,0x10(%rax)
ffffffff8010ad65:	48 8b 4a 18          	mov    0x18(%rdx),%rcx
ffffffff8010ad69:	48 89 48 18          	mov    %rcx,0x18(%rax)
ffffffff8010ad6d:	48 8b 52 20          	mov    0x20(%rdx),%rdx
ffffffff8010ad71:	48 89 50 20          	mov    %rdx,0x20(%rax)
ffffffff8010ad75:	48 8b 45 f8          	mov    -0x8(%rbp),%rax
ffffffff8010ad79:	48 89 c7             	mov    %rax,%rdi
ffffffff8010ad7c:	e8 c9 fc ff ff       	callq  ffffffff8010aa4a <scan_partitions>
ffffffff8010ad81:	90                   	nop
ffffffff8010ad82:	c9                   	leaveq 
ffffffff8010ad83:	c3                   	retq   

ffffffff8010ad84 <vfs_init>:
ffffffff8010ad84:	55                   	push   %rbp
ffffffff8010ad85:	48 89 e5             	mov    %rsp,%rbp
ffffffff8010ad88:	bf 20 01 00 00       	mov    $0x120,%edi
ffffffff8010ad8d:	e8 ea 73 ff ff       	callq  ffffffff8010217c <kmalloc>
ffffffff8010ad92:	48 89 05 9f e8 00 00 	mov    %rax,0xe89f(%rip)        # ffffffff80119638 <partitions>
ffffffff8010ad99:	90                   	nop
ffffffff8010ad9a:	5d                   	pop    %rbp
ffffffff8010ad9b:	c3                   	retq   

ffffffff8010ad9c <get_page_indexes>:
ffffffff8010ad9c:	55                   	push   %rbp
ffffffff8010ad9d:	48 89 e5             	mov    %rsp,%rbp
ffffffff8010ada0:	48 83 ec 18          	sub    $0x18,%rsp
ffffffff8010ada4:	48 89 7d f8          	mov    %rdi,-0x8(%rbp)
ffffffff8010ada8:	48 89 75 f0          	mov    %rsi,-0x10(%rbp)
ffffffff8010adac:	48 89 55 e8          	mov    %rdx,-0x18(%rbp)
ffffffff8010adb0:	48 8b 45 f8          	mov    -0x8(%rbp),%rax
ffffffff8010adb4:	48 c1 e8 27          	shr    $0x27,%rax
ffffffff8010adb8:	25 ff 01 00 00       	and    $0x1ff,%eax
ffffffff8010adbd:	48 89 c2             	mov    %rax,%rdx
ffffffff8010adc0:	48 8b 45 e8          	mov    -0x18(%rbp),%rax
ffffffff8010adc4:	48 89 10             	mov    %rdx,(%rax)
ffffffff8010adc7:	48 8b 45 f8          	mov    -0x8(%rbp),%rax
ffffffff8010adcb:	48 c1 e8 1e          	shr    $0x1e,%rax
ffffffff8010adcf:	25 ff 01 00 00       	and    $0x1ff,%eax
ffffffff8010add4:	48 89 c2             	mov    %rax,%rdx
ffffffff8010add7:	48 8b 45 e8          	mov    -0x18(%rbp),%rax
ffffffff8010addb:	48 89 50 08          	mov    %rdx,0x8(%rax)
ffffffff8010addf:	48 8b 45 f8          	mov    -0x8(%rbp),%rax
ffffffff8010ade3:	48 c1 e8 15          	shr    $0x15,%rax
ffffffff8010ade7:	25 ff 01 00 00       	and    $0x1ff,%eax
ffffffff8010adec:	48 89 c2             	mov    %rax,%rdx
ffffffff8010adef:	48 8b 45 e8          	mov    -0x18(%rbp),%rax
ffffffff8010adf3:	48 89 50 10          	mov    %rdx,0x10(%rax)
ffffffff8010adf7:	48 8b 45 f8          	mov    -0x8(%rbp),%rax
ffffffff8010adfb:	48 c1 e8 0c          	shr    $0xc,%rax
ffffffff8010adff:	25 ff 01 00 00       	and    $0x1ff,%eax
ffffffff8010ae04:	48 89 c2             	mov    %rax,%rdx
ffffffff8010ae07:	48 8b 45 e8          	mov    -0x18(%rbp),%rax
ffffffff8010ae0b:	48 89 50 18          	mov    %rdx,0x18(%rax)
ffffffff8010ae0f:	48 8b 45 e8          	mov    -0x18(%rbp),%rax
ffffffff8010ae13:	48 8b 00             	mov    (%rax),%rax
ffffffff8010ae16:	48 8d 14 c5 00 00 00 	lea    0x0(,%rax,8),%rdx
ffffffff8010ae1d:	00 
ffffffff8010ae1e:	48 8b 45 f0          	mov    -0x10(%rbp),%rax
ffffffff8010ae22:	48 01 d0             	add    %rdx,%rax
ffffffff8010ae25:	48 8b 00             	mov    (%rax),%rax
ffffffff8010ae28:	48 25 00 f0 ff ff    	and    $0xfffffffffffff000,%rax
ffffffff8010ae2e:	48 89 c2             	mov    %rax,%rdx
ffffffff8010ae31:	48 b8 00 00 00 00 00 	movabs $0xffff800000000000,%rax
ffffffff8010ae38:	80 ff ff 
ffffffff8010ae3b:	48 01 d0             	add    %rdx,%rax
ffffffff8010ae3e:	48 89 c2             	mov    %rax,%rdx
ffffffff8010ae41:	48 8b 45 e8          	mov    -0x18(%rbp),%rax
ffffffff8010ae45:	48 89 50 20          	mov    %rdx,0x20(%rax)
ffffffff8010ae49:	48 8b 45 e8          	mov    -0x18(%rbp),%rax
ffffffff8010ae4d:	48 8b 40 20          	mov    0x20(%rax),%rax
ffffffff8010ae51:	48 ba 00 00 00 00 00 	movabs $0xffff800000000000,%rdx
ffffffff8010ae58:	80 ff ff 
ffffffff8010ae5b:	48 39 d0             	cmp    %rdx,%rax
ffffffff8010ae5e:	74 54                	je     ffffffff8010aeb4 <get_page_indexes+0x118>
ffffffff8010ae60:	48 8b 45 e8          	mov    -0x18(%rbp),%rax
ffffffff8010ae64:	48 8b 50 20          	mov    0x20(%rax),%rdx
ffffffff8010ae68:	48 8b 45 e8          	mov    -0x18(%rbp),%rax
ffffffff8010ae6c:	48 8b 40 08          	mov    0x8(%rax),%rax
ffffffff8010ae70:	48 c1 e0 03          	shl    $0x3,%rax
ffffffff8010ae74:	48 01 d0             	add    %rdx,%rax
ffffffff8010ae77:	48 8b 00             	mov    (%rax),%rax
ffffffff8010ae7a:	48 25 00 f0 ff ff    	and    $0xfffffffffffff000,%rax
ffffffff8010ae80:	48 89 c2             	mov    %rax,%rdx
ffffffff8010ae83:	48 b8 00 00 00 00 00 	movabs $0xffff800000000000,%rax
ffffffff8010ae8a:	80 ff ff 
ffffffff8010ae8d:	48 01 d0             	add    %rdx,%rax
ffffffff8010ae90:	48 89 c2             	mov    %rax,%rdx
ffffffff8010ae93:	48 8b 45 e8          	mov    -0x18(%rbp),%rax
ffffffff8010ae97:	48 89 50 28          	mov    %rdx,0x28(%rax)
ffffffff8010ae9b:	48 8b 45 e8          	mov    -0x18(%rbp),%rax
ffffffff8010ae9f:	48 8b 40 28          	mov    0x28(%rax),%rax
ffffffff8010aea3:	48 ba 00 00 00 00 00 	movabs $0xffff800000000000,%rdx
ffffffff8010aeaa:	80 ff ff 
ffffffff8010aead:	48 39 d0             	cmp    %rdx,%rax
ffffffff8010aeb0:	74 65                	je     ffffffff8010af17 <get_page_indexes+0x17b>
ffffffff8010aeb2:	eb 26                	jmp    ffffffff8010aeda <get_page_indexes+0x13e>
ffffffff8010aeb4:	48 8b 45 e8          	mov    -0x18(%rbp),%rax
ffffffff8010aeb8:	48 c7 40 20 00 00 00 	movq   $0x0,0x20(%rax)
ffffffff8010aebf:	00 
ffffffff8010aec0:	48 8b 45 e8          	mov    -0x18(%rbp),%rax
ffffffff8010aec4:	48 c7 40 28 00 00 00 	movq   $0x0,0x28(%rax)
ffffffff8010aecb:	00 
ffffffff8010aecc:	48 8b 45 e8          	mov    -0x18(%rbp),%rax
ffffffff8010aed0:	48 c7 40 30 00 00 00 	movq   $0x0,0x30(%rax)
ffffffff8010aed7:	00 
ffffffff8010aed8:	eb 49                	jmp    ffffffff8010af23 <get_page_indexes+0x187>
ffffffff8010aeda:	48 8b 45 e8          	mov    -0x18(%rbp),%rax
ffffffff8010aede:	48 8b 50 28          	mov    0x28(%rax),%rdx
ffffffff8010aee2:	48 8b 45 e8          	mov    -0x18(%rbp),%rax
ffffffff8010aee6:	48 8b 40 10          	mov    0x10(%rax),%rax
ffffffff8010aeea:	48 c1 e0 03          	shl    $0x3,%rax
ffffffff8010aeee:	48 01 d0             	add    %rdx,%rax
ffffffff8010aef1:	48 8b 00             	mov    (%rax),%rax
ffffffff8010aef4:	48 25 00 f0 ff ff    	and    $0xfffffffffffff000,%rax
ffffffff8010aefa:	48 89 c2             	mov    %rax,%rdx
ffffffff8010aefd:	48 b8 00 00 00 00 00 	movabs $0xffff800000000000,%rax
ffffffff8010af04:	80 ff ff 
ffffffff8010af07:	48 01 d0             	add    %rdx,%rax
ffffffff8010af0a:	48 89 c2             	mov    %rax,%rdx
ffffffff8010af0d:	48 8b 45 e8          	mov    -0x18(%rbp),%rax
ffffffff8010af11:	48 89 50 30          	mov    %rdx,0x30(%rax)
ffffffff8010af15:	eb 0c                	jmp    ffffffff8010af23 <get_page_indexes+0x187>
ffffffff8010af17:	48 8b 45 e8          	mov    -0x18(%rbp),%rax
ffffffff8010af1b:	48 c7 40 30 00 00 00 	movq   $0x0,0x30(%rax)
ffffffff8010af22:	00 
ffffffff8010af23:	c9                   	leaveq 
ffffffff8010af24:	c3                   	retq   

ffffffff8010af25 <page_map>:
ffffffff8010af25:	55                   	push   %rbp
ffffffff8010af26:	48 89 e5             	mov    %rsp,%rbp
ffffffff8010af29:	48 83 ec 70          	sub    $0x70,%rsp
ffffffff8010af2d:	48 89 7d b8          	mov    %rdi,-0x48(%rbp)
ffffffff8010af31:	48 89 75 b0          	mov    %rsi,-0x50(%rbp)
ffffffff8010af35:	48 89 55 a8          	mov    %rdx,-0x58(%rbp)
ffffffff8010af39:	48 89 4d a0          	mov    %rcx,-0x60(%rbp)
ffffffff8010af3d:	4c 89 45 98          	mov    %r8,-0x68(%rbp)
ffffffff8010af41:	48 8b 45 b8          	mov    -0x48(%rbp),%rax
ffffffff8010af45:	48 8b 08             	mov    (%rax),%rcx
ffffffff8010af48:	48 8d 55 c8          	lea    -0x38(%rbp),%rdx
ffffffff8010af4c:	48 8b 45 a8          	mov    -0x58(%rbp),%rax
ffffffff8010af50:	48 89 ce             	mov    %rcx,%rsi
ffffffff8010af53:	48 89 c7             	mov    %rax,%rdi
ffffffff8010af56:	e8 41 fe ff ff       	callq  ffffffff8010ad9c <get_page_indexes>
ffffffff8010af5b:	48 8b 45 e8          	mov    -0x18(%rbp),%rax
ffffffff8010af5f:	48 85 c0             	test   %rax,%rax
ffffffff8010af62:	75 4c                	jne    ffffffff8010afb0 <page_map+0x8b>
ffffffff8010af64:	bf 01 00 00 00       	mov    $0x1,%edi
ffffffff8010af69:	e8 0f ed ff ff       	callq  ffffffff80109c7d <pmm_calloc>
ffffffff8010af6e:	48 ba 00 00 00 00 00 	movabs $0xffff800000000000,%rdx
ffffffff8010af75:	80 ff ff 
ffffffff8010af78:	48 01 d0             	add    %rdx,%rax
ffffffff8010af7b:	48 89 45 e8          	mov    %rax,-0x18(%rbp)
ffffffff8010af7f:	48 8b 45 e8          	mov    -0x18(%rbp),%rax
ffffffff8010af83:	48 89 c2             	mov    %rax,%rdx
ffffffff8010af86:	48 b8 00 00 00 00 00 	movabs $0x800000000000,%rax
ffffffff8010af8d:	80 00 00 
ffffffff8010af90:	48 8d 0c 02          	lea    (%rdx,%rax,1),%rcx
ffffffff8010af94:	48 8b 45 b8          	mov    -0x48(%rbp),%rax
ffffffff8010af98:	48 8b 10             	mov    (%rax),%rdx
ffffffff8010af9b:	48 8b 45 c8          	mov    -0x38(%rbp),%rax
ffffffff8010af9f:	48 c1 e0 03          	shl    $0x3,%rax
ffffffff8010afa3:	48 01 c2             	add    %rax,%rdx
ffffffff8010afa6:	48 89 c8             	mov    %rcx,%rax
ffffffff8010afa9:	48 0b 45 a0          	or     -0x60(%rbp),%rax
ffffffff8010afad:	48 89 02             	mov    %rax,(%rdx)
ffffffff8010afb0:	48 8b 45 f0          	mov    -0x10(%rbp),%rax
ffffffff8010afb4:	48 85 c0             	test   %rax,%rax
ffffffff8010afb7:	75 45                	jne    ffffffff8010affe <page_map+0xd9>
ffffffff8010afb9:	bf 01 00 00 00       	mov    $0x1,%edi
ffffffff8010afbe:	e8 ba ec ff ff       	callq  ffffffff80109c7d <pmm_calloc>
ffffffff8010afc3:	48 ba 00 00 00 00 00 	movabs $0xffff800000000000,%rdx
ffffffff8010afca:	80 ff ff 
ffffffff8010afcd:	48 01 d0             	add    %rdx,%rax
ffffffff8010afd0:	48 89 45 f0          	mov    %rax,-0x10(%rbp)
ffffffff8010afd4:	48 8b 45 f0          	mov    -0x10(%rbp),%rax
ffffffff8010afd8:	48 89 c2             	mov    %rax,%rdx
ffffffff8010afdb:	48 b8 00 00 00 00 00 	movabs $0x800000000000,%rax
ffffffff8010afe2:	80 00 00 
ffffffff8010afe5:	48 01 d0             	add    %rdx,%rax
ffffffff8010afe8:	48 8b 4d e8          	mov    -0x18(%rbp),%rcx
ffffffff8010afec:	48 8b 55 d0          	mov    -0x30(%rbp),%rdx
ffffffff8010aff0:	48 c1 e2 03          	shl    $0x3,%rdx
ffffffff8010aff4:	48 01 ca             	add    %rcx,%rdx
ffffffff8010aff7:	48 0b 45 a0          	or     -0x60(%rbp),%rax
ffffffff8010affb:	48 89 02             	mov    %rax,(%rdx)
ffffffff8010affe:	48 8b 45 98          	mov    -0x68(%rbp),%rax
ffffffff8010b002:	25 80 00 00 00       	and    $0x80,%eax
ffffffff8010b007:	48 85 c0             	test   %rax,%rax
ffffffff8010b00a:	75 6a                	jne    ffffffff8010b076 <page_map+0x151>
ffffffff8010b00c:	48 8b 45 f8          	mov    -0x8(%rbp),%rax
ffffffff8010b010:	48 85 c0             	test   %rax,%rax
ffffffff8010b013:	75 45                	jne    ffffffff8010b05a <page_map+0x135>
ffffffff8010b015:	bf 01 00 00 00       	mov    $0x1,%edi
ffffffff8010b01a:	e8 5e ec ff ff       	callq  ffffffff80109c7d <pmm_calloc>
ffffffff8010b01f:	48 ba 00 00 00 00 00 	movabs $0xffff800000000000,%rdx
ffffffff8010b026:	80 ff ff 
ffffffff8010b029:	48 01 d0             	add    %rdx,%rax
ffffffff8010b02c:	48 89 45 f8          	mov    %rax,-0x8(%rbp)
ffffffff8010b030:	48 8b 45 f8          	mov    -0x8(%rbp),%rax
ffffffff8010b034:	48 89 c2             	mov    %rax,%rdx
ffffffff8010b037:	48 b8 00 00 00 00 00 	movabs $0x800000000000,%rax
ffffffff8010b03e:	80 00 00 
ffffffff8010b041:	48 01 d0             	add    %rdx,%rax
ffffffff8010b044:	48 8b 4d f0          	mov    -0x10(%rbp),%rcx
ffffffff8010b048:	48 8b 55 d8          	mov    -0x28(%rbp),%rdx
ffffffff8010b04c:	48 c1 e2 03          	shl    $0x3,%rdx
ffffffff8010b050:	48 01 ca             	add    %rcx,%rdx
ffffffff8010b053:	48 0b 45 a0          	or     -0x60(%rbp),%rax
ffffffff8010b057:	48 89 02             	mov    %rax,(%rdx)
ffffffff8010b05a:	48 8b 55 f8          	mov    -0x8(%rbp),%rdx
ffffffff8010b05e:	48 8b 45 e0          	mov    -0x20(%rbp),%rax
ffffffff8010b062:	48 c1 e0 03          	shl    $0x3,%rax
ffffffff8010b066:	48 01 c2             	add    %rax,%rdx
ffffffff8010b069:	48 8b 45 b0          	mov    -0x50(%rbp),%rax
ffffffff8010b06d:	48 0b 45 98          	or     -0x68(%rbp),%rax
ffffffff8010b071:	48 89 02             	mov    %rax,(%rdx)
ffffffff8010b074:	eb 1a                	jmp    ffffffff8010b090 <page_map+0x16b>
ffffffff8010b076:	48 8b 55 f0          	mov    -0x10(%rbp),%rdx
ffffffff8010b07a:	48 8b 45 d8          	mov    -0x28(%rbp),%rax
ffffffff8010b07e:	48 c1 e0 03          	shl    $0x3,%rax
ffffffff8010b082:	48 01 c2             	add    %rax,%rdx
ffffffff8010b085:	48 8b 45 b0          	mov    -0x50(%rbp),%rax
ffffffff8010b089:	48 0b 45 98          	or     -0x68(%rbp),%rax
ffffffff8010b08d:	48 89 02             	mov    %rax,(%rdx)
ffffffff8010b090:	b8 00 00 00 00       	mov    $0x0,%eax
ffffffff8010b095:	e8 06 04 00 00       	callq  ffffffff8010b4a0 <tlb_flush>
ffffffff8010b09a:	90                   	nop
ffffffff8010b09b:	c9                   	leaveq 
ffffffff8010b09c:	c3                   	retq   

ffffffff8010b09d <page_unmap>:
ffffffff8010b09d:	55                   	push   %rbp
ffffffff8010b09e:	48 89 e5             	mov    %rsp,%rbp
ffffffff8010b0a1:	48 83 ec 60          	sub    $0x60,%rsp
ffffffff8010b0a5:	48 89 7d b8          	mov    %rdi,-0x48(%rbp)
ffffffff8010b0a9:	48 89 75 b0          	mov    %rsi,-0x50(%rbp)
ffffffff8010b0ad:	48 89 55 a8          	mov    %rdx,-0x58(%rbp)
ffffffff8010b0b1:	48 8b 45 b8          	mov    -0x48(%rbp),%rax
ffffffff8010b0b5:	48 8b 08             	mov    (%rax),%rcx
ffffffff8010b0b8:	48 8d 55 c8          	lea    -0x38(%rbp),%rdx
ffffffff8010b0bc:	48 8b 45 b0          	mov    -0x50(%rbp),%rax
ffffffff8010b0c0:	48 89 ce             	mov    %rcx,%rsi
ffffffff8010b0c3:	48 89 c7             	mov    %rax,%rdi
ffffffff8010b0c6:	e8 d1 fc ff ff       	callq  ffffffff8010ad9c <get_page_indexes>
ffffffff8010b0cb:	48 8b 45 a8          	mov    -0x58(%rbp),%rax
ffffffff8010b0cf:	25 80 00 00 00       	and    $0x80,%eax
ffffffff8010b0d4:	48 85 c0             	test   %rax,%rax
ffffffff8010b0d7:	74 18                	je     ffffffff8010b0f1 <page_unmap+0x54>
ffffffff8010b0d9:	48 8b 55 f0          	mov    -0x10(%rbp),%rdx
ffffffff8010b0dd:	48 8b 45 d8          	mov    -0x28(%rbp),%rax
ffffffff8010b0e1:	48 c1 e0 03          	shl    $0x3,%rax
ffffffff8010b0e5:	48 01 d0             	add    %rdx,%rax
ffffffff8010b0e8:	48 c7 00 00 00 00 00 	movq   $0x0,(%rax)
ffffffff8010b0ef:	eb 16                	jmp    ffffffff8010b107 <page_unmap+0x6a>
ffffffff8010b0f1:	48 8b 55 f8          	mov    -0x8(%rbp),%rdx
ffffffff8010b0f5:	48 8b 45 e0          	mov    -0x20(%rbp),%rax
ffffffff8010b0f9:	48 c1 e0 03          	shl    $0x3,%rax
ffffffff8010b0fd:	48 01 d0             	add    %rdx,%rax
ffffffff8010b100:	48 c7 00 00 00 00 00 	movq   $0x0,(%rax)
ffffffff8010b107:	b8 00 00 00 00       	mov    $0x0,%eax
ffffffff8010b10c:	e8 8f 03 00 00       	callq  ffffffff8010b4a0 <tlb_flush>
ffffffff8010b111:	90                   	nop
ffffffff8010b112:	c9                   	leaveq 
ffffffff8010b113:	c3                   	retq   

ffffffff8010b114 <page_copy>:
ffffffff8010b114:	55                   	push   %rbp
ffffffff8010b115:	48 89 e5             	mov    %rsp,%rbp
ffffffff8010b118:	48 83 ec 50          	sub    $0x50,%rsp
ffffffff8010b11c:	48 89 7d b8          	mov    %rdi,-0x48(%rbp)
ffffffff8010b120:	48 89 75 b0          	mov    %rsi,-0x50(%rbp)
ffffffff8010b124:	48 8b 45 b0          	mov    -0x50(%rbp),%rax
ffffffff8010b128:	48 8b 08             	mov    (%rax),%rcx
ffffffff8010b12b:	48 8b 45 b8          	mov    -0x48(%rbp),%rax
ffffffff8010b12f:	48 8b 00             	mov    (%rax),%rax
ffffffff8010b132:	ba 00 02 00 00       	mov    $0x200,%edx
ffffffff8010b137:	48 89 ce             	mov    %rcx,%rsi
ffffffff8010b13a:	48 89 c7             	mov    %rax,%rdi
ffffffff8010b13d:	e8 52 d3 ff ff       	callq  ffffffff80108494 <memcpy64>
ffffffff8010b142:	c7 45 fc 00 00 00 00 	movl   $0x0,-0x4(%rbp)
ffffffff8010b149:	e9 2c 03 00 00       	jmpq   ffffffff8010b47a <page_copy+0x366>
ffffffff8010b14e:	48 8b 45 b0          	mov    -0x50(%rbp),%rax
ffffffff8010b152:	48 8b 10             	mov    (%rax),%rdx
ffffffff8010b155:	8b 45 fc             	mov    -0x4(%rbp),%eax
ffffffff8010b158:	48 98                	cltq   
ffffffff8010b15a:	48 c1 e0 03          	shl    $0x3,%rax
ffffffff8010b15e:	48 01 d0             	add    %rdx,%rax
ffffffff8010b161:	48 8b 00             	mov    (%rax),%rax
ffffffff8010b164:	83 e0 01             	and    $0x1,%eax
ffffffff8010b167:	48 85 c0             	test   %rax,%rax
ffffffff8010b16a:	0f 84 06 03 00 00    	je     ffffffff8010b476 <page_copy+0x362>
ffffffff8010b170:	bf 01 00 00 00       	mov    $0x1,%edi
ffffffff8010b175:	e8 03 eb ff ff       	callq  ffffffff80109c7d <pmm_calloc>
ffffffff8010b17a:	48 89 c2             	mov    %rax,%rdx
ffffffff8010b17d:	48 8b 45 b0          	mov    -0x50(%rbp),%rax
ffffffff8010b181:	48 8b 08             	mov    (%rax),%rcx
ffffffff8010b184:	8b 45 fc             	mov    -0x4(%rbp),%eax
ffffffff8010b187:	48 98                	cltq   
ffffffff8010b189:	48 c1 e0 03          	shl    $0x3,%rax
ffffffff8010b18d:	48 01 c8             	add    %rcx,%rax
ffffffff8010b190:	48 8b 00             	mov    (%rax),%rax
ffffffff8010b193:	25 ff 0f 00 00       	and    $0xfff,%eax
ffffffff8010b198:	48 89 c6             	mov    %rax,%rsi
ffffffff8010b19b:	48 8b 45 b8          	mov    -0x48(%rbp),%rax
ffffffff8010b19f:	48 8b 08             	mov    (%rax),%rcx
ffffffff8010b1a2:	8b 45 fc             	mov    -0x4(%rbp),%eax
ffffffff8010b1a5:	48 98                	cltq   
ffffffff8010b1a7:	48 c1 e0 03          	shl    $0x3,%rax
ffffffff8010b1ab:	48 01 c8             	add    %rcx,%rax
ffffffff8010b1ae:	48 09 f2             	or     %rsi,%rdx
ffffffff8010b1b1:	48 89 10             	mov    %rdx,(%rax)
ffffffff8010b1b4:	48 8b 45 b8          	mov    -0x48(%rbp),%rax
ffffffff8010b1b8:	48 8b 10             	mov    (%rax),%rdx
ffffffff8010b1bb:	8b 45 fc             	mov    -0x4(%rbp),%eax
ffffffff8010b1be:	48 98                	cltq   
ffffffff8010b1c0:	48 c1 e0 03          	shl    $0x3,%rax
ffffffff8010b1c4:	48 01 d0             	add    %rdx,%rax
ffffffff8010b1c7:	48 8b 00             	mov    (%rax),%rax
ffffffff8010b1ca:	48 25 00 f0 ff ff    	and    $0xfffffffffffff000,%rax
ffffffff8010b1d0:	48 89 c2             	mov    %rax,%rdx
ffffffff8010b1d3:	48 b8 00 00 00 00 00 	movabs $0xffff800000000000,%rax
ffffffff8010b1da:	80 ff ff 
ffffffff8010b1dd:	48 01 d0             	add    %rdx,%rax
ffffffff8010b1e0:	48 89 45 e8          	mov    %rax,-0x18(%rbp)
ffffffff8010b1e4:	48 8b 45 b0          	mov    -0x50(%rbp),%rax
ffffffff8010b1e8:	48 8b 10             	mov    (%rax),%rdx
ffffffff8010b1eb:	8b 45 fc             	mov    -0x4(%rbp),%eax
ffffffff8010b1ee:	48 98                	cltq   
ffffffff8010b1f0:	48 c1 e0 03          	shl    $0x3,%rax
ffffffff8010b1f4:	48 01 d0             	add    %rdx,%rax
ffffffff8010b1f7:	48 8b 00             	mov    (%rax),%rax
ffffffff8010b1fa:	48 25 00 f0 ff ff    	and    $0xfffffffffffff000,%rax
ffffffff8010b200:	48 89 c2             	mov    %rax,%rdx
ffffffff8010b203:	48 b8 00 00 00 00 00 	movabs $0xffff800000000000,%rax
ffffffff8010b20a:	80 ff ff 
ffffffff8010b20d:	48 01 d0             	add    %rdx,%rax
ffffffff8010b210:	48 89 45 e0          	mov    %rax,-0x20(%rbp)
ffffffff8010b214:	48 8b 4d e0          	mov    -0x20(%rbp),%rcx
ffffffff8010b218:	48 8b 45 e8          	mov    -0x18(%rbp),%rax
ffffffff8010b21c:	ba 00 02 00 00       	mov    $0x200,%edx
ffffffff8010b221:	48 89 ce             	mov    %rcx,%rsi
ffffffff8010b224:	48 89 c7             	mov    %rax,%rdi
ffffffff8010b227:	e8 68 d2 ff ff       	callq  ffffffff80108494 <memcpy64>
ffffffff8010b22c:	c7 45 f8 00 00 00 00 	movl   $0x0,-0x8(%rbp)
ffffffff8010b233:	e9 31 02 00 00       	jmpq   ffffffff8010b469 <page_copy+0x355>
ffffffff8010b238:	8b 45 f8             	mov    -0x8(%rbp),%eax
ffffffff8010b23b:	48 98                	cltq   
ffffffff8010b23d:	48 8d 14 c5 00 00 00 	lea    0x0(,%rax,8),%rdx
ffffffff8010b244:	00 
ffffffff8010b245:	48 8b 45 e0          	mov    -0x20(%rbp),%rax
ffffffff8010b249:	48 01 d0             	add    %rdx,%rax
ffffffff8010b24c:	48 8b 00             	mov    (%rax),%rax
ffffffff8010b24f:	83 e0 01             	and    $0x1,%eax
ffffffff8010b252:	48 85 c0             	test   %rax,%rax
ffffffff8010b255:	0f 84 0a 02 00 00    	je     ffffffff8010b465 <page_copy+0x351>
ffffffff8010b25b:	8b 45 f8             	mov    -0x8(%rbp),%eax
ffffffff8010b25e:	48 98                	cltq   
ffffffff8010b260:	48 8d 14 c5 00 00 00 	lea    0x0(,%rax,8),%rdx
ffffffff8010b267:	00 
ffffffff8010b268:	48 8b 45 e0          	mov    -0x20(%rbp),%rax
ffffffff8010b26c:	48 01 d0             	add    %rdx,%rax
ffffffff8010b26f:	48 8b 00             	mov    (%rax),%rax
ffffffff8010b272:	25 80 00 00 00       	and    $0x80,%eax
ffffffff8010b277:	48 85 c0             	test   %rax,%rax
ffffffff8010b27a:	0f 85 e5 01 00 00    	jne    ffffffff8010b465 <page_copy+0x351>
ffffffff8010b280:	bf 01 00 00 00       	mov    $0x1,%edi
ffffffff8010b285:	e8 f3 e9 ff ff       	callq  ffffffff80109c7d <pmm_calloc>
ffffffff8010b28a:	48 89 c2             	mov    %rax,%rdx
ffffffff8010b28d:	8b 45 f8             	mov    -0x8(%rbp),%eax
ffffffff8010b290:	48 98                	cltq   
ffffffff8010b292:	48 8d 0c c5 00 00 00 	lea    0x0(,%rax,8),%rcx
ffffffff8010b299:	00 
ffffffff8010b29a:	48 8b 45 e0          	mov    -0x20(%rbp),%rax
ffffffff8010b29e:	48 01 c8             	add    %rcx,%rax
ffffffff8010b2a1:	48 8b 00             	mov    (%rax),%rax
ffffffff8010b2a4:	25 ff 0f 00 00       	and    $0xfff,%eax
ffffffff8010b2a9:	48 89 c1             	mov    %rax,%rcx
ffffffff8010b2ac:	8b 45 f8             	mov    -0x8(%rbp),%eax
ffffffff8010b2af:	48 98                	cltq   
ffffffff8010b2b1:	48 8d 34 c5 00 00 00 	lea    0x0(,%rax,8),%rsi
ffffffff8010b2b8:	00 
ffffffff8010b2b9:	48 8b 45 e8          	mov    -0x18(%rbp),%rax
ffffffff8010b2bd:	48 01 f0             	add    %rsi,%rax
ffffffff8010b2c0:	48 09 ca             	or     %rcx,%rdx
ffffffff8010b2c3:	48 89 10             	mov    %rdx,(%rax)
ffffffff8010b2c6:	8b 45 f8             	mov    -0x8(%rbp),%eax
ffffffff8010b2c9:	48 98                	cltq   
ffffffff8010b2cb:	48 8d 14 c5 00 00 00 	lea    0x0(,%rax,8),%rdx
ffffffff8010b2d2:	00 
ffffffff8010b2d3:	48 8b 45 e8          	mov    -0x18(%rbp),%rax
ffffffff8010b2d7:	48 01 d0             	add    %rdx,%rax
ffffffff8010b2da:	48 8b 00             	mov    (%rax),%rax
ffffffff8010b2dd:	48 25 00 f0 ff ff    	and    $0xfffffffffffff000,%rax
ffffffff8010b2e3:	48 89 c2             	mov    %rax,%rdx
ffffffff8010b2e6:	48 b8 00 00 00 00 00 	movabs $0xffff800000000000,%rax
ffffffff8010b2ed:	80 ff ff 
ffffffff8010b2f0:	48 01 d0             	add    %rdx,%rax
ffffffff8010b2f3:	48 89 45 d8          	mov    %rax,-0x28(%rbp)
ffffffff8010b2f7:	8b 45 f8             	mov    -0x8(%rbp),%eax
ffffffff8010b2fa:	48 98                	cltq   
ffffffff8010b2fc:	48 8d 14 c5 00 00 00 	lea    0x0(,%rax,8),%rdx
ffffffff8010b303:	00 
ffffffff8010b304:	48 8b 45 e0          	mov    -0x20(%rbp),%rax
ffffffff8010b308:	48 01 d0             	add    %rdx,%rax
ffffffff8010b30b:	48 8b 00             	mov    (%rax),%rax
ffffffff8010b30e:	48 25 00 f0 ff ff    	and    $0xfffffffffffff000,%rax
ffffffff8010b314:	48 89 c2             	mov    %rax,%rdx
ffffffff8010b317:	48 b8 00 00 00 00 00 	movabs $0xffff800000000000,%rax
ffffffff8010b31e:	80 ff ff 
ffffffff8010b321:	48 01 d0             	add    %rdx,%rax
ffffffff8010b324:	48 89 45 d0          	mov    %rax,-0x30(%rbp)
ffffffff8010b328:	48 8b 4d d0          	mov    -0x30(%rbp),%rcx
ffffffff8010b32c:	48 8b 45 d8          	mov    -0x28(%rbp),%rax
ffffffff8010b330:	ba 00 02 00 00       	mov    $0x200,%edx
ffffffff8010b335:	48 89 ce             	mov    %rcx,%rsi
ffffffff8010b338:	48 89 c7             	mov    %rax,%rdi
ffffffff8010b33b:	e8 54 d1 ff ff       	callq  ffffffff80108494 <memcpy64>
ffffffff8010b340:	c7 45 f4 00 00 00 00 	movl   $0x0,-0xc(%rbp)
ffffffff8010b347:	e9 0c 01 00 00       	jmpq   ffffffff8010b458 <page_copy+0x344>
ffffffff8010b34c:	8b 45 f4             	mov    -0xc(%rbp),%eax
ffffffff8010b34f:	48 98                	cltq   
ffffffff8010b351:	48 8d 14 c5 00 00 00 	lea    0x0(,%rax,8),%rdx
ffffffff8010b358:	00 
ffffffff8010b359:	48 8b 45 d0          	mov    -0x30(%rbp),%rax
ffffffff8010b35d:	48 01 d0             	add    %rdx,%rax
ffffffff8010b360:	48 8b 00             	mov    (%rax),%rax
ffffffff8010b363:	83 e0 01             	and    $0x1,%eax
ffffffff8010b366:	48 85 c0             	test   %rax,%rax
ffffffff8010b369:	0f 84 e5 00 00 00    	je     ffffffff8010b454 <page_copy+0x340>
ffffffff8010b36f:	8b 45 f4             	mov    -0xc(%rbp),%eax
ffffffff8010b372:	48 98                	cltq   
ffffffff8010b374:	48 8d 14 c5 00 00 00 	lea    0x0(,%rax,8),%rdx
ffffffff8010b37b:	00 
ffffffff8010b37c:	48 8b 45 d0          	mov    -0x30(%rbp),%rax
ffffffff8010b380:	48 01 d0             	add    %rdx,%rax
ffffffff8010b383:	48 8b 00             	mov    (%rax),%rax
ffffffff8010b386:	25 80 00 00 00       	and    $0x80,%eax
ffffffff8010b38b:	48 85 c0             	test   %rax,%rax
ffffffff8010b38e:	0f 85 c0 00 00 00    	jne    ffffffff8010b454 <page_copy+0x340>
ffffffff8010b394:	bf 01 00 00 00       	mov    $0x1,%edi
ffffffff8010b399:	e8 df e8 ff ff       	callq  ffffffff80109c7d <pmm_calloc>
ffffffff8010b39e:	48 89 c2             	mov    %rax,%rdx
ffffffff8010b3a1:	8b 45 f4             	mov    -0xc(%rbp),%eax
ffffffff8010b3a4:	48 98                	cltq   
ffffffff8010b3a6:	48 8d 0c c5 00 00 00 	lea    0x0(,%rax,8),%rcx
ffffffff8010b3ad:	00 
ffffffff8010b3ae:	48 8b 45 d0          	mov    -0x30(%rbp),%rax
ffffffff8010b3b2:	48 01 c8             	add    %rcx,%rax
ffffffff8010b3b5:	48 8b 00             	mov    (%rax),%rax
ffffffff8010b3b8:	25 ff 0f 00 00       	and    $0xfff,%eax
ffffffff8010b3bd:	48 89 c1             	mov    %rax,%rcx
ffffffff8010b3c0:	8b 45 f4             	mov    -0xc(%rbp),%eax
ffffffff8010b3c3:	48 98                	cltq   
ffffffff8010b3c5:	48 8d 34 c5 00 00 00 	lea    0x0(,%rax,8),%rsi
ffffffff8010b3cc:	00 
ffffffff8010b3cd:	48 8b 45 d8          	mov    -0x28(%rbp),%rax
ffffffff8010b3d1:	48 01 f0             	add    %rsi,%rax
ffffffff8010b3d4:	48 09 ca             	or     %rcx,%rdx
ffffffff8010b3d7:	48 89 10             	mov    %rdx,(%rax)
ffffffff8010b3da:	8b 45 f4             	mov    -0xc(%rbp),%eax
ffffffff8010b3dd:	48 98                	cltq   
ffffffff8010b3df:	48 8d 14 c5 00 00 00 	lea    0x0(,%rax,8),%rdx
ffffffff8010b3e6:	00 
ffffffff8010b3e7:	48 8b 45 d8          	mov    -0x28(%rbp),%rax
ffffffff8010b3eb:	48 01 d0             	add    %rdx,%rax
ffffffff8010b3ee:	48 8b 00             	mov    (%rax),%rax
ffffffff8010b3f1:	48 25 00 f0 ff ff    	and    $0xfffffffffffff000,%rax
ffffffff8010b3f7:	48 89 c2             	mov    %rax,%rdx
ffffffff8010b3fa:	48 b8 00 00 00 00 00 	movabs $0xffff800000000000,%rax
ffffffff8010b401:	80 ff ff 
ffffffff8010b404:	48 01 d0             	add    %rdx,%rax
ffffffff8010b407:	48 89 45 c8          	mov    %rax,-0x38(%rbp)
ffffffff8010b40b:	8b 45 f4             	mov    -0xc(%rbp),%eax
ffffffff8010b40e:	48 98                	cltq   
ffffffff8010b410:	48 8d 14 c5 00 00 00 	lea    0x0(,%rax,8),%rdx
ffffffff8010b417:	00 
ffffffff8010b418:	48 8b 45 d0          	mov    -0x30(%rbp),%rax
ffffffff8010b41c:	48 01 d0             	add    %rdx,%rax
ffffffff8010b41f:	48 8b 00             	mov    (%rax),%rax
ffffffff8010b422:	48 25 00 f0 ff ff    	and    $0xfffffffffffff000,%rax
ffffffff8010b428:	48 89 c2             	mov    %rax,%rdx
ffffffff8010b42b:	48 b8 00 00 00 00 00 	movabs $0xffff800000000000,%rax
ffffffff8010b432:	80 ff ff 
ffffffff8010b435:	48 01 d0             	add    %rdx,%rax
ffffffff8010b438:	48 89 45 c0          	mov    %rax,-0x40(%rbp)
ffffffff8010b43c:	48 8b 4d c0          	mov    -0x40(%rbp),%rcx
ffffffff8010b440:	48 8b 45 c8          	mov    -0x38(%rbp),%rax
ffffffff8010b444:	ba 00 02 00 00       	mov    $0x200,%edx
ffffffff8010b449:	48 89 ce             	mov    %rcx,%rsi
ffffffff8010b44c:	48 89 c7             	mov    %rax,%rdi
ffffffff8010b44f:	e8 40 d0 ff ff       	callq  ffffffff80108494 <memcpy64>
ffffffff8010b454:	83 45 f4 01          	addl   $0x1,-0xc(%rbp)
ffffffff8010b458:	81 7d f4 ff 01 00 00 	cmpl   $0x1ff,-0xc(%rbp)
ffffffff8010b45f:	0f 8e e7 fe ff ff    	jle    ffffffff8010b34c <page_copy+0x238>
ffffffff8010b465:	83 45 f8 01          	addl   $0x1,-0x8(%rbp)
ffffffff8010b469:	81 7d f8 ff 01 00 00 	cmpl   $0x1ff,-0x8(%rbp)
ffffffff8010b470:	0f 8e c2 fd ff ff    	jle    ffffffff8010b238 <page_copy+0x124>
ffffffff8010b476:	83 45 fc 01          	addl   $0x1,-0x4(%rbp)
ffffffff8010b47a:	81 7d fc ff 01 00 00 	cmpl   $0x1ff,-0x4(%rbp)
ffffffff8010b481:	0f 8e c7 fc ff ff    	jle    ffffffff8010b14e <page_copy+0x3a>
ffffffff8010b487:	90                   	nop
ffffffff8010b488:	90                   	nop
ffffffff8010b489:	c9                   	leaveq 
ffffffff8010b48a:	c3                   	retq   

ffffffff8010b48b <grab_PML4>:
ffffffff8010b48b:	55                   	push   %rbp
ffffffff8010b48c:	48 89 e5             	mov    %rsp,%rbp
ffffffff8010b48f:	48 83 ec 10          	sub    $0x10,%rsp
ffffffff8010b493:	0f 20 d8             	mov    %cr3,%rax
ffffffff8010b496:	48 89 45 f8          	mov    %rax,-0x8(%rbp)
ffffffff8010b49a:	48 8b 45 f8          	mov    -0x8(%rbp),%rax
ffffffff8010b49e:	c9                   	leaveq 
ffffffff8010b49f:	c3                   	retq   

ffffffff8010b4a0 <tlb_flush>:
ffffffff8010b4a0:	55                   	push   %rbp
ffffffff8010b4a1:	48 89 e5             	mov    %rsp,%rbp
ffffffff8010b4a4:	b8 00 00 00 00       	mov    $0x0,%eax
ffffffff8010b4a9:	e8 dd ff ff ff       	callq  ffffffff8010b48b <grab_PML4>
ffffffff8010b4ae:	0f 22 d8             	mov    %rax,%cr3
ffffffff8010b4b1:	90                   	nop
ffffffff8010b4b2:	5d                   	pop    %rbp
ffffffff8010b4b3:	c3                   	retq   

ffffffff8010b4b4 <pagestruct_init>:
ffffffff8010b4b4:	55                   	push   %rbp
ffffffff8010b4b5:	48 89 e5             	mov    %rsp,%rbp
ffffffff8010b4b8:	48 83 ec 08          	sub    $0x8,%rsp
ffffffff8010b4bc:	48 89 7d f8          	mov    %rdi,-0x8(%rbp)
ffffffff8010b4c0:	48 8b 45 f8          	mov    -0x8(%rbp),%rax
ffffffff8010b4c4:	48 8b 00             	mov    (%rax),%rax
ffffffff8010b4c7:	48 89 c2             	mov    %rax,%rdx
ffffffff8010b4ca:	48 b8 00 00 00 00 00 	movabs $0x800000000000,%rax
ffffffff8010b4d1:	80 00 00 
ffffffff8010b4d4:	48 01 d0             	add    %rdx,%rax
ffffffff8010b4d7:	0f 22 d8             	mov    %rax,%cr3
ffffffff8010b4da:	90                   	nop
ffffffff8010b4db:	c9                   	leaveq 
ffffffff8010b4dc:	c3                   	retq   

ffffffff8010b4dd <vmm_init>:
ffffffff8010b4dd:	55                   	push   %rbp
ffffffff8010b4de:	48 89 e5             	mov    %rsp,%rbp
ffffffff8010b4e1:	48 83 ec 10          	sub    $0x10,%rsp
ffffffff8010b4e5:	bf 01 00 00 00       	mov    $0x1,%edi
ffffffff8010b4ea:	e8 8e e7 ff ff       	callq  ffffffff80109c7d <pmm_calloc>
ffffffff8010b4ef:	48 ba 00 00 00 00 00 	movabs $0xffff800000000000,%rdx
ffffffff8010b4f6:	80 ff ff 
ffffffff8010b4f9:	48 01 d0             	add    %rdx,%rax
ffffffff8010b4fc:	48 89 05 4d e1 00 00 	mov    %rax,0xe14d(%rip)        # ffffffff80119650 <kernel_mapping>
ffffffff8010b503:	c7 05 4b e1 00 00 00 	movl   $0x0,0xe14b(%rip)        # ffffffff80119658 <kernel_mapping+0x8>
ffffffff8010b50a:	00 00 00 
ffffffff8010b50d:	b8 00 00 00 00       	mov    $0x0,%eax
ffffffff8010b512:	e8 74 ff ff ff       	callq  ffffffff8010b48b <grab_PML4>
ffffffff8010b517:	48 ba 00 00 00 00 00 	movabs $0xffff800000000000,%rdx
ffffffff8010b51e:	80 ff ff 
ffffffff8010b521:	48 01 d0             	add    %rdx,%rax
ffffffff8010b524:	48 89 45 f0          	mov    %rax,-0x10(%rbp)
ffffffff8010b528:	c7 45 f8 00 00 00 00 	movl   $0x0,-0x8(%rbp)
ffffffff8010b52f:	48 8d 45 f0          	lea    -0x10(%rbp),%rax
ffffffff8010b533:	48 89 c6             	mov    %rax,%rsi
ffffffff8010b536:	48 c7 c7 50 96 11 80 	mov    $0xffffffff80119650,%rdi
ffffffff8010b53d:	e8 d2 fb ff ff       	callq  ffffffff8010b114 <page_copy>
ffffffff8010b542:	48 c7 c7 50 96 11 80 	mov    $0xffffffff80119650,%rdi
ffffffff8010b549:	e8 66 ff ff ff       	callq  ffffffff8010b4b4 <pagestruct_init>
ffffffff8010b54e:	90                   	nop
ffffffff8010b54f:	c9                   	leaveq 
ffffffff8010b550:	c3                   	retq   
