
rock.elf:     file format elf64-x86-64


Disassembly of section .text:

ffffffff80101000 <ahci_init>:
ffffffff80101000:	55                   	push   %rbp
ffffffff80101001:	48 89 e5             	mov    %rsp,%rbp
ffffffff80101004:	48 83 ec 10          	sub    $0x10,%rsp
ffffffff80101008:	bf 00 02 00 00       	mov    $0x200,%edi
ffffffff8010100d:	e8 35 13 00 00       	callq  ffffffff80102347 <kmalloc>
ffffffff80101012:	48 89 05 ef 3f 01 00 	mov    %rax,0x13fef(%rip)        # ffffffff80115008 <ahci_drives>
ffffffff80101019:	48 c7 45 f8 00 00 00 	movq   $0x0,-0x8(%rbp)
ffffffff80101020:	00 
ffffffff80101021:	e9 e6 00 00 00       	jmpq   ffffffff8010110c <ahci_init+0x10c>
ffffffff80101026:	48 8b 0d 23 d5 01 00 	mov    0x1d523(%rip),%rcx        # ffffffff8011e550 <pci_devices>
ffffffff8010102d:	48 8b 55 f8          	mov    -0x8(%rbp),%rdx
ffffffff80101031:	48 89 d0             	mov    %rdx,%rax
ffffffff80101034:	48 01 c0             	add    %rax,%rax
ffffffff80101037:	48 01 d0             	add    %rdx,%rax
ffffffff8010103a:	48 c1 e0 02          	shl    $0x2,%rax
ffffffff8010103e:	48 01 c8             	add    %rcx,%rax
ffffffff80101041:	0f b6 00             	movzbl (%rax),%eax
ffffffff80101044:	3c 01                	cmp    $0x1,%al
ffffffff80101046:	0f 85 ba 00 00 00    	jne    ffffffff80101106 <ahci_init+0x106>
ffffffff8010104c:	48 8b 0d fd d4 01 00 	mov    0x1d4fd(%rip),%rcx        # ffffffff8011e550 <pci_devices>
ffffffff80101053:	48 8b 55 f8          	mov    -0x8(%rbp),%rdx
ffffffff80101057:	48 89 d0             	mov    %rdx,%rax
ffffffff8010105a:	48 01 c0             	add    %rax,%rax
ffffffff8010105d:	48 01 d0             	add    %rdx,%rax
ffffffff80101060:	48 c1 e0 02          	shl    $0x2,%rax
ffffffff80101064:	48 01 c8             	add    %rcx,%rax
ffffffff80101067:	0f b6 40 01          	movzbl 0x1(%rax),%eax
ffffffff8010106b:	3c 06                	cmp    $0x6,%al
ffffffff8010106d:	0f 85 93 00 00 00    	jne    ffffffff80101106 <ahci_init+0x106>
ffffffff80101073:	48 8b 0d d6 d4 01 00 	mov    0x1d4d6(%rip),%rcx        # ffffffff8011e550 <pci_devices>
ffffffff8010107a:	48 8b 55 f8          	mov    -0x8(%rbp),%rdx
ffffffff8010107e:	48 89 d0             	mov    %rdx,%rax
ffffffff80101081:	48 01 c0             	add    %rax,%rax
ffffffff80101084:	48 01 d0             	add    %rdx,%rax
ffffffff80101087:	48 c1 e0 02          	shl    $0x2,%rax
ffffffff8010108b:	48 01 c8             	add    %rcx,%rax
ffffffff8010108e:	0f b6 40 02          	movzbl 0x2(%rax),%eax
ffffffff80101092:	0f b6 c0             	movzbl %al,%eax
ffffffff80101095:	83 f8 02             	cmp    $0x2,%eax
ffffffff80101098:	74 59                	je     ffffffff801010f3 <ahci_init+0xf3>
ffffffff8010109a:	83 f8 02             	cmp    $0x2,%eax
ffffffff8010109d:	7f 68                	jg     ffffffff80101107 <ahci_init+0x107>
ffffffff8010109f:	85 c0                	test   %eax,%eax
ffffffff801010a1:	74 07                	je     ffffffff801010aa <ahci_init+0xaa>
ffffffff801010a3:	83 f8 01             	cmp    $0x1,%eax
ffffffff801010a6:	74 15                	je     ffffffff801010bd <ahci_init+0xbd>
ffffffff801010a8:	eb 5d                	jmp    ffffffff80101107 <ahci_init+0x107>
ffffffff801010aa:	48 c7 c7 00 00 11 80 	mov    $0xffffffff80110000,%rdi
ffffffff801010b1:	b8 00 00 00 00       	mov    $0x0,%eax
ffffffff801010b6:	e8 e7 9f 00 00       	callq  ffffffff8010b0a2 <kvprintf>
ffffffff801010bb:	eb 4a                	jmp    ffffffff80101107 <ahci_init+0x107>
ffffffff801010bd:	48 c7 c7 40 00 11 80 	mov    $0xffffffff80110040,%rdi
ffffffff801010c4:	b8 00 00 00 00       	mov    $0x0,%eax
ffffffff801010c9:	e8 d4 9f 00 00       	callq  ffffffff8010b0a2 <kvprintf>
ffffffff801010ce:	48 8b 0d 7b d4 01 00 	mov    0x1d47b(%rip),%rcx        # ffffffff8011e550 <pci_devices>
ffffffff801010d5:	48 8b 55 f8          	mov    -0x8(%rbp),%rdx
ffffffff801010d9:	48 89 d0             	mov    %rdx,%rax
ffffffff801010dc:	48 01 c0             	add    %rax,%rax
ffffffff801010df:	48 01 d0             	add    %rdx,%rax
ffffffff801010e2:	48 c1 e0 02          	shl    $0x2,%rax
ffffffff801010e6:	48 01 c8             	add    %rcx,%rax
ffffffff801010e9:	48 89 c7             	mov    %rax,%rdi
ffffffff801010ec:	e8 79 00 00 00       	callq  ffffffff8010116a <init_proto>
ffffffff801010f1:	eb 14                	jmp    ffffffff80101107 <ahci_init+0x107>
ffffffff801010f3:	48 c7 c7 70 00 11 80 	mov    $0xffffffff80110070,%rdi
ffffffff801010fa:	b8 00 00 00 00       	mov    $0x0,%eax
ffffffff801010ff:	e8 9e 9f 00 00       	callq  ffffffff8010b0a2 <kvprintf>
ffffffff80101104:	eb 01                	jmp    ffffffff80101107 <ahci_init+0x107>
ffffffff80101106:	90                   	nop
ffffffff80101107:	48 83 45 f8 01       	addq   $0x1,-0x8(%rbp)
ffffffff8010110c:	48 8b 05 45 d4 01 00 	mov    0x1d445(%rip),%rax        # ffffffff8011e558 <pci_device_cnt>
ffffffff80101113:	48 39 45 f8          	cmp    %rax,-0x8(%rbp)
ffffffff80101117:	0f 82 09 ff ff ff    	jb     ffffffff80101026 <ahci_init+0x26>
ffffffff8010111d:	48 c7 45 f0 00 00 00 	movq   $0x0,-0x10(%rbp)
ffffffff80101124:	00 
ffffffff80101125:	eb 32                	jmp    ffffffff80101159 <ahci_init+0x159>
ffffffff80101127:	48 8b 15 da 3e 01 00 	mov    0x13eda(%rip),%rdx        # ffffffff80115008 <ahci_drives>
ffffffff8010112e:	48 8b 45 f0          	mov    -0x10(%rbp),%rax
ffffffff80101132:	48 c1 e0 04          	shl    $0x4,%rax
ffffffff80101136:	48 01 d0             	add    %rdx,%rax
ffffffff80101139:	48 8b 10             	mov    (%rax),%rdx
ffffffff8010113c:	48 8b 45 f0          	mov    -0x10(%rbp),%rax
ffffffff80101140:	48 89 c6             	mov    %rax,%rsi
ffffffff80101143:	48 c7 c7 98 00 11 80 	mov    $0xffffffff80110098,%rdi
ffffffff8010114a:	b8 00 00 00 00       	mov    $0x0,%eax
ffffffff8010114f:	e8 4e 9f 00 00       	callq  ffffffff8010b0a2 <kvprintf>
ffffffff80101154:	48 83 45 f0 01       	addq   $0x1,-0x10(%rbp)
ffffffff80101159:	48 8b 05 a0 3e 01 00 	mov    0x13ea0(%rip),%rax        # ffffffff80115000 <ahci_drive_cnt>
ffffffff80101160:	48 39 45 f0          	cmp    %rax,-0x10(%rbp)
ffffffff80101164:	72 c1                	jb     ffffffff80101127 <ahci_init+0x127>
ffffffff80101166:	90                   	nop
ffffffff80101167:	90                   	nop
ffffffff80101168:	c9                   	leaveq 
ffffffff80101169:	c3                   	retq   

ffffffff8010116a <init_proto>:
ffffffff8010116a:	55                   	push   %rbp
ffffffff8010116b:	48 89 e5             	mov    %rsp,%rbp
ffffffff8010116e:	41 55                	push   %r13
ffffffff80101170:	41 54                	push   %r12
ffffffff80101172:	53                   	push   %rbx
ffffffff80101173:	48 83 ec 38          	sub    $0x38,%rsp
ffffffff80101177:	48 89 7d b8          	mov    %rdi,-0x48(%rbp)
ffffffff8010117b:	bf 00 02 00 00       	mov    $0x200,%edi
ffffffff80101180:	e8 c2 11 00 00       	callq  ffffffff80102347 <kmalloc>
ffffffff80101185:	48 89 05 7c 3e 01 00 	mov    %rax,0x13e7c(%rip)        # ffffffff80115008 <ahci_drives>
ffffffff8010118c:	48 8b 45 b8          	mov    -0x48(%rbp),%rax
ffffffff80101190:	0f b6 40 0a          	movzbl 0xa(%rax),%eax
ffffffff80101194:	44 0f b6 e8          	movzbl %al,%r13d
ffffffff80101198:	48 8b 45 b8          	mov    -0x48(%rbp),%rax
ffffffff8010119c:	0f b6 40 09          	movzbl 0x9(%rax),%eax
ffffffff801011a0:	44 0f b6 e0          	movzbl %al,%r12d
ffffffff801011a4:	48 8b 45 b8          	mov    -0x48(%rbp),%rax
ffffffff801011a8:	0f b6 40 08          	movzbl 0x8(%rax),%eax
ffffffff801011ac:	0f b6 d8             	movzbl %al,%ebx
ffffffff801011af:	48 8b 45 b8          	mov    -0x48(%rbp),%rax
ffffffff801011b3:	0f b6 40 0a          	movzbl 0xa(%rax),%eax
ffffffff801011b7:	0f b6 d0             	movzbl %al,%edx
ffffffff801011ba:	48 8b 45 b8          	mov    -0x48(%rbp),%rax
ffffffff801011be:	0f b6 40 09          	movzbl 0x9(%rax),%eax
ffffffff801011c2:	0f b6 f0             	movzbl %al,%esi
ffffffff801011c5:	48 8b 45 b8          	mov    -0x48(%rbp),%rax
ffffffff801011c9:	0f b6 40 08          	movzbl 0x8(%rax),%eax
ffffffff801011cd:	0f b6 c0             	movzbl %al,%eax
ffffffff801011d0:	b9 04 00 00 00       	mov    $0x4,%ecx
ffffffff801011d5:	89 c7                	mov    %eax,%edi
ffffffff801011d7:	e8 72 a7 00 00       	callq  ffffffff8010b94e <pci_read>
ffffffff801011dc:	83 c8 04             	or     $0x4,%eax
ffffffff801011df:	41 b8 04 00 00 00    	mov    $0x4,%r8d
ffffffff801011e5:	44 89 e9             	mov    %r13d,%ecx
ffffffff801011e8:	44 89 e2             	mov    %r12d,%edx
ffffffff801011eb:	89 de                	mov    %ebx,%esi
ffffffff801011ed:	89 c7                	mov    %eax,%edi
ffffffff801011ef:	e8 bd a7 00 00       	callq  ffffffff8010b9b1 <pci_write>
ffffffff801011f4:	48 8b 45 b8          	mov    -0x48(%rbp),%rax
ffffffff801011f8:	48 8b 08             	mov    (%rax),%rcx
ffffffff801011fb:	8b 40 08             	mov    0x8(%rax),%eax
ffffffff801011fe:	ba 05 00 00 00       	mov    $0x5,%edx
ffffffff80101203:	48 89 cf             	mov    %rcx,%rdi
ffffffff80101206:	89 c6                	mov    %eax,%esi
ffffffff80101208:	e8 df a8 00 00       	callq  ffffffff8010baec <pci_get_bar>
ffffffff8010120d:	48 89 45 c0          	mov    %rax,-0x40(%rbp)
ffffffff80101211:	8b 45 c0             	mov    -0x40(%rbp),%eax
ffffffff80101214:	89 c2                	mov    %eax,%edx
ffffffff80101216:	48 b8 00 00 00 00 00 	movabs $0xffff800000000000,%rax
ffffffff8010121d:	80 ff ff 
ffffffff80101220:	48 01 d0             	add    %rdx,%rax
ffffffff80101223:	48 89 45 d0          	mov    %rax,-0x30(%rbp)
ffffffff80101227:	48 8b 45 d0          	mov    -0x30(%rbp),%rax
ffffffff8010122b:	48 89 c6             	mov    %rax,%rsi
ffffffff8010122e:	48 c7 c7 c8 00 11 80 	mov    $0xffffffff801100c8,%rdi
ffffffff80101235:	b8 00 00 00 00       	mov    $0x0,%eax
ffffffff8010123a:	e8 63 9e 00 00       	callq  ffffffff8010b0a2 <kvprintf>
ffffffff8010123f:	c6 45 df 00          	movb   $0x0,-0x21(%rbp)
ffffffff80101243:	e9 c6 00 00 00       	jmpq   ffffffff8010130e <init_proto+0x1a4>
ffffffff80101248:	48 8b 45 d0          	mov    -0x30(%rbp),%rax
ffffffff8010124c:	8b 50 0c             	mov    0xc(%rax),%edx
ffffffff8010124f:	0f b6 45 df          	movzbl -0x21(%rbp),%eax
ffffffff80101253:	be 01 00 00 00       	mov    $0x1,%esi
ffffffff80101258:	89 c1                	mov    %eax,%ecx
ffffffff8010125a:	d3 e6                	shl    %cl,%esi
ffffffff8010125c:	89 f0                	mov    %esi,%eax
ffffffff8010125e:	21 d0                	and    %edx,%eax
ffffffff80101260:	85 c0                	test   %eax,%eax
ffffffff80101262:	0f 84 9b 00 00 00    	je     ffffffff80101303 <init_proto+0x199>
ffffffff80101268:	0f b6 45 df          	movzbl -0x21(%rbp),%eax
ffffffff8010126c:	48 98                	cltq   
ffffffff8010126e:	48 69 c0 9c 00 00 00 	imul   $0x9c,%rax,%rax
ffffffff80101275:	48 8d 90 00 01 00 00 	lea    0x100(%rax),%rdx
ffffffff8010127c:	48 8b 45 d0          	mov    -0x30(%rbp),%rax
ffffffff80101280:	48 01 d0             	add    %rdx,%rax
ffffffff80101283:	48 89 45 c8          	mov    %rax,-0x38(%rbp)
ffffffff80101287:	48 8b 45 c8          	mov    -0x38(%rbp),%rax
ffffffff8010128b:	8b 40 24             	mov    0x24(%rax),%eax
ffffffff8010128e:	3d 01 01 14 eb       	cmp    $0xeb140101,%eax
ffffffff80101293:	74 3c                	je     ffffffff801012d1 <init_proto+0x167>
ffffffff80101295:	3d 01 01 14 eb       	cmp    $0xeb140101,%eax
ffffffff8010129a:	77 68                	ja     ffffffff80101304 <init_proto+0x19a>
ffffffff8010129c:	3d 01 01 00 00       	cmp    $0x101,%eax
ffffffff801012a1:	74 09                	je     ffffffff801012ac <init_proto+0x142>
ffffffff801012a3:	3d 01 01 69 96       	cmp    $0x96690101,%eax
ffffffff801012a8:	74 40                	je     ffffffff801012ea <init_proto+0x180>
ffffffff801012aa:	eb 58                	jmp    ffffffff80101304 <init_proto+0x19a>
ffffffff801012ac:	0f b6 45 df          	movzbl -0x21(%rbp),%eax
ffffffff801012b0:	89 c6                	mov    %eax,%esi
ffffffff801012b2:	48 c7 c7 f0 00 11 80 	mov    $0xffffffff801100f0,%rdi
ffffffff801012b9:	b8 00 00 00 00       	mov    $0x0,%eax
ffffffff801012be:	e8 df 9d 00 00       	callq  ffffffff8010b0a2 <kvprintf>
ffffffff801012c3:	48 8b 45 c8          	mov    -0x38(%rbp),%rax
ffffffff801012c7:	48 89 c7             	mov    %rax,%rdi
ffffffff801012ca:	e8 74 03 00 00       	callq  ffffffff80101643 <init_sata_device>
ffffffff801012cf:	eb 33                	jmp    ffffffff80101304 <init_proto+0x19a>
ffffffff801012d1:	0f b6 45 df          	movzbl -0x21(%rbp),%eax
ffffffff801012d5:	89 c6                	mov    %eax,%esi
ffffffff801012d7:	48 c7 c7 18 01 11 80 	mov    $0xffffffff80110118,%rdi
ffffffff801012de:	b8 00 00 00 00       	mov    $0x0,%eax
ffffffff801012e3:	e8 ba 9d 00 00       	callq  ffffffff8010b0a2 <kvprintf>
ffffffff801012e8:	eb 1a                	jmp    ffffffff80101304 <init_proto+0x19a>
ffffffff801012ea:	0f b6 45 df          	movzbl -0x21(%rbp),%eax
ffffffff801012ee:	89 c6                	mov    %eax,%esi
ffffffff801012f0:	48 c7 c7 50 01 11 80 	mov    $0xffffffff80110150,%rdi
ffffffff801012f7:	b8 00 00 00 00       	mov    $0x0,%eax
ffffffff801012fc:	e8 a1 9d 00 00       	callq  ffffffff8010b0a2 <kvprintf>
ffffffff80101301:	eb 01                	jmp    ffffffff80101304 <init_proto+0x19a>
ffffffff80101303:	90                   	nop
ffffffff80101304:	0f b6 45 df          	movzbl -0x21(%rbp),%eax
ffffffff80101308:	83 c0 01             	add    $0x1,%eax
ffffffff8010130b:	88 45 df             	mov    %al,-0x21(%rbp)
ffffffff8010130e:	80 7d df 1f          	cmpb   $0x1f,-0x21(%rbp)
ffffffff80101312:	0f 86 30 ff ff ff    	jbe    ffffffff80101248 <init_proto+0xde>
ffffffff80101318:	90                   	nop
ffffffff80101319:	90                   	nop
ffffffff8010131a:	48 83 c4 38          	add    $0x38,%rsp
ffffffff8010131e:	5b                   	pop    %rbx
ffffffff8010131f:	41 5c                	pop    %r12
ffffffff80101321:	41 5d                	pop    %r13
ffffffff80101323:	5d                   	pop    %rbp
ffffffff80101324:	c3                   	retq   

ffffffff80101325 <find_CMD>:
ffffffff80101325:	55                   	push   %rbp
ffffffff80101326:	48 89 e5             	mov    %rsp,%rbp
ffffffff80101329:	48 83 ec 18          	sub    $0x18,%rsp
ffffffff8010132d:	48 89 7d e8          	mov    %rdi,-0x18(%rbp)
ffffffff80101331:	c7 45 fc 00 00 00 00 	movl   $0x0,-0x4(%rbp)
ffffffff80101338:	eb 2d                	jmp    ffffffff80101367 <find_CMD+0x42>
ffffffff8010133a:	48 8b 45 e8          	mov    -0x18(%rbp),%rax
ffffffff8010133e:	8b 50 34             	mov    0x34(%rax),%edx
ffffffff80101341:	48 8b 45 e8          	mov    -0x18(%rbp),%rax
ffffffff80101345:	8b 40 38             	mov    0x38(%rax),%eax
ffffffff80101348:	09 c2                	or     %eax,%edx
ffffffff8010134a:	8b 45 fc             	mov    -0x4(%rbp),%eax
ffffffff8010134d:	be 01 00 00 00       	mov    $0x1,%esi
ffffffff80101352:	89 c1                	mov    %eax,%ecx
ffffffff80101354:	d3 e6                	shl    %cl,%esi
ffffffff80101356:	89 f0                	mov    %esi,%eax
ffffffff80101358:	21 d0                	and    %edx,%eax
ffffffff8010135a:	85 c0                	test   %eax,%eax
ffffffff8010135c:	75 05                	jne    ffffffff80101363 <find_CMD+0x3e>
ffffffff8010135e:	8b 45 fc             	mov    -0x4(%rbp),%eax
ffffffff80101361:	eb 0f                	jmp    ffffffff80101372 <find_CMD+0x4d>
ffffffff80101363:	83 45 fc 01          	addl   $0x1,-0x4(%rbp)
ffffffff80101367:	83 7d fc 1f          	cmpl   $0x1f,-0x4(%rbp)
ffffffff8010136b:	76 cd                	jbe    ffffffff8010133a <find_CMD+0x15>
ffffffff8010136d:	b8 ff ff ff ff       	mov    $0xffffffff,%eax
ffffffff80101372:	c9                   	leaveq 
ffffffff80101373:	c3                   	retq   

ffffffff80101374 <send_command>:
ffffffff80101374:	55                   	push   %rbp
ffffffff80101375:	48 89 e5             	mov    %rsp,%rbp
ffffffff80101378:	48 83 ec 10          	sub    $0x10,%rsp
ffffffff8010137c:	48 89 7d f8          	mov    %rdi,-0x8(%rbp)
ffffffff80101380:	89 75 f4             	mov    %esi,-0xc(%rbp)
ffffffff80101383:	90                   	nop
ffffffff80101384:	48 8b 45 f8          	mov    -0x8(%rbp),%rax
ffffffff80101388:	8b 40 20             	mov    0x20(%rax),%eax
ffffffff8010138b:	25 88 00 00 00       	and    $0x88,%eax
ffffffff80101390:	85 c0                	test   %eax,%eax
ffffffff80101392:	75 f0                	jne    ffffffff80101384 <send_command+0x10>
ffffffff80101394:	48 8b 45 f8          	mov    -0x8(%rbp),%rax
ffffffff80101398:	8b 40 18             	mov    0x18(%rax),%eax
ffffffff8010139b:	83 e0 fe             	and    $0xfffffffe,%eax
ffffffff8010139e:	89 c2                	mov    %eax,%edx
ffffffff801013a0:	48 8b 45 f8          	mov    -0x8(%rbp),%rax
ffffffff801013a4:	89 50 18             	mov    %edx,0x18(%rax)
ffffffff801013a7:	90                   	nop
ffffffff801013a8:	48 8b 45 f8          	mov    -0x8(%rbp),%rax
ffffffff801013ac:	8b 40 18             	mov    0x18(%rax),%eax
ffffffff801013af:	25 00 80 00 00       	and    $0x8000,%eax
ffffffff801013b4:	85 c0                	test   %eax,%eax
ffffffff801013b6:	75 f0                	jne    ffffffff801013a8 <send_command+0x34>
ffffffff801013b8:	48 8b 45 f8          	mov    -0x8(%rbp),%rax
ffffffff801013bc:	8b 40 18             	mov    0x18(%rax),%eax
ffffffff801013bf:	83 c8 10             	or     $0x10,%eax
ffffffff801013c2:	89 c2                	mov    %eax,%edx
ffffffff801013c4:	48 8b 45 f8          	mov    -0x8(%rbp),%rax
ffffffff801013c8:	89 50 18             	mov    %edx,0x18(%rax)
ffffffff801013cb:	48 8b 45 f8          	mov    -0x8(%rbp),%rax
ffffffff801013cf:	8b 40 18             	mov    0x18(%rax),%eax
ffffffff801013d2:	83 c8 01             	or     $0x1,%eax
ffffffff801013d5:	89 c2                	mov    %eax,%edx
ffffffff801013d7:	48 8b 45 f8          	mov    -0x8(%rbp),%rax
ffffffff801013db:	89 50 18             	mov    %edx,0x18(%rax)
ffffffff801013de:	8b 45 f4             	mov    -0xc(%rbp),%eax
ffffffff801013e1:	ba 01 00 00 00       	mov    $0x1,%edx
ffffffff801013e6:	89 c1                	mov    %eax,%ecx
ffffffff801013e8:	d3 e2                	shl    %cl,%edx
ffffffff801013ea:	89 d0                	mov    %edx,%eax
ffffffff801013ec:	89 c2                	mov    %eax,%edx
ffffffff801013ee:	48 8b 45 f8          	mov    -0x8(%rbp),%rax
ffffffff801013f2:	89 50 38             	mov    %edx,0x38(%rax)
ffffffff801013f5:	48 8b 45 f8          	mov    -0x8(%rbp),%rax
ffffffff801013f9:	8b 50 38             	mov    0x38(%rax),%edx
ffffffff801013fc:	8b 45 f4             	mov    -0xc(%rbp),%eax
ffffffff801013ff:	be 01 00 00 00       	mov    $0x1,%esi
ffffffff80101404:	89 c1                	mov    %eax,%ecx
ffffffff80101406:	d3 e6                	shl    %cl,%esi
ffffffff80101408:	89 f0                	mov    %esi,%eax
ffffffff8010140a:	21 d0                	and    %edx,%eax
ffffffff8010140c:	85 c0                	test   %eax,%eax
ffffffff8010140e:	74 02                	je     ffffffff80101412 <send_command+0x9e>
ffffffff80101410:	eb e3                	jmp    ffffffff801013f5 <send_command+0x81>
ffffffff80101412:	90                   	nop
ffffffff80101413:	48 8b 45 f8          	mov    -0x8(%rbp),%rax
ffffffff80101417:	8b 40 18             	mov    0x18(%rax),%eax
ffffffff8010141a:	83 e0 fe             	and    $0xfffffffe,%eax
ffffffff8010141d:	89 c2                	mov    %eax,%edx
ffffffff8010141f:	48 8b 45 f8          	mov    -0x8(%rbp),%rax
ffffffff80101423:	89 50 18             	mov    %edx,0x18(%rax)
ffffffff80101426:	90                   	nop
ffffffff80101427:	48 8b 45 f8          	mov    -0x8(%rbp),%rax
ffffffff8010142b:	8b 40 18             	mov    0x18(%rax),%eax
ffffffff8010142e:	25 00 80 00 00       	and    $0x8000,%eax
ffffffff80101433:	85 c0                	test   %eax,%eax
ffffffff80101435:	75 f0                	jne    ffffffff80101427 <send_command+0xb3>
ffffffff80101437:	48 8b 45 f8          	mov    -0x8(%rbp),%rax
ffffffff8010143b:	8b 40 18             	mov    0x18(%rax),%eax
ffffffff8010143e:	83 e0 ef             	and    $0xffffffef,%eax
ffffffff80101441:	89 c2                	mov    %eax,%edx
ffffffff80101443:	48 8b 45 f8          	mov    -0x8(%rbp),%rax
ffffffff80101447:	89 50 18             	mov    %edx,0x18(%rax)
ffffffff8010144a:	90                   	nop
ffffffff8010144b:	c9                   	leaveq 
ffffffff8010144c:	c3                   	retq   

ffffffff8010144d <ahci_read>:
ffffffff8010144d:	55                   	push   %rbp
ffffffff8010144e:	48 89 e5             	mov    %rsp,%rbp
ffffffff80101451:	48 83 ec 30          	sub    $0x30,%rsp
ffffffff80101455:	89 7d ec             	mov    %edi,-0x14(%rbp)
ffffffff80101458:	48 89 75 e0          	mov    %rsi,-0x20(%rbp)
ffffffff8010145c:	48 89 55 d8          	mov    %rdx,-0x28(%rbp)
ffffffff80101460:	48 89 4d d0          	mov    %rcx,-0x30(%rbp)
ffffffff80101464:	48 8b 45 d8          	mov    -0x28(%rbp),%rax
ffffffff80101468:	48 05 ff 0f 00 00    	add    $0xfff,%rax
ffffffff8010146e:	48 c1 e8 0c          	shr    $0xc,%rax
ffffffff80101472:	48 89 c7             	mov    %rax,%rdi
ffffffff80101475:	e8 fc ab 00 00       	callq  ffffffff8010c076 <pmm_alloc>
ffffffff8010147a:	48 ba 00 00 00 00 00 	movabs $0xffff800000000000,%rdx
ffffffff80101481:	80 ff ff 
ffffffff80101484:	48 01 d0             	add    %rdx,%rax
ffffffff80101487:	48 89 45 f8          	mov    %rax,-0x8(%rbp)
ffffffff8010148b:	48 8b 45 d8          	mov    -0x28(%rbp),%rax
ffffffff8010148f:	48 05 ff 01 00 00    	add    $0x1ff,%rax
ffffffff80101495:	48 c1 e8 09          	shr    $0x9,%rax
ffffffff80101499:	48 89 c2             	mov    %rax,%rdx
ffffffff8010149c:	48 8b 45 e0          	mov    -0x20(%rbp),%rax
ffffffff801014a0:	48 c1 e8 09          	shr    $0x9,%rax
ffffffff801014a4:	48 89 c6             	mov    %rax,%rsi
ffffffff801014a7:	48 8b 0d 5a 3b 01 00 	mov    0x13b5a(%rip),%rcx        # ffffffff80115008 <ahci_drives>
ffffffff801014ae:	8b 45 ec             	mov    -0x14(%rbp),%eax
ffffffff801014b1:	48 98                	cltq   
ffffffff801014b3:	48 c1 e0 04          	shl    $0x4,%rax
ffffffff801014b7:	48 8d 3c 01          	lea    (%rcx,%rax,1),%rdi
ffffffff801014bb:	48 8b 45 f8          	mov    -0x8(%rbp),%rax
ffffffff801014bf:	41 b8 00 00 00 00    	mov    $0x0,%r8d
ffffffff801014c5:	48 89 c1             	mov    %rax,%rcx
ffffffff801014c8:	e8 da 04 00 00       	callq  ffffffff801019a7 <ahci_RW>
ffffffff801014cd:	48 8b 45 e0          	mov    -0x20(%rbp),%rax
ffffffff801014d1:	25 ff 01 00 00       	and    $0x1ff,%eax
ffffffff801014d6:	48 89 c2             	mov    %rax,%rdx
ffffffff801014d9:	48 8b 45 f8          	mov    -0x8(%rbp),%rax
ffffffff801014dd:	48 8d 0c 02          	lea    (%rdx,%rax,1),%rcx
ffffffff801014e1:	48 8b 55 d8          	mov    -0x28(%rbp),%rdx
ffffffff801014e5:	48 8b 45 d0          	mov    -0x30(%rbp),%rax
ffffffff801014e9:	48 89 ce             	mov    %rcx,%rsi
ffffffff801014ec:	48 89 c7             	mov    %rax,%rdi
ffffffff801014ef:	e8 4a 97 00 00       	callq  ffffffff8010ac3e <memcpy8>
ffffffff801014f4:	48 8b 45 d8          	mov    -0x28(%rbp),%rax
ffffffff801014f8:	48 05 ff 0f 00 00    	add    $0xfff,%rax
ffffffff801014fe:	48 c1 e8 0c          	shr    $0xc,%rax
ffffffff80101502:	48 89 c2             	mov    %rax,%rdx
ffffffff80101505:	48 8b 45 f8          	mov    -0x8(%rbp),%rax
ffffffff80101509:	48 b9 00 00 00 00 00 	movabs $0x800000000000,%rcx
ffffffff80101510:	80 00 00 
ffffffff80101513:	48 01 c8             	add    %rcx,%rax
ffffffff80101516:	48 89 d6             	mov    %rdx,%rsi
ffffffff80101519:	48 89 c7             	mov    %rax,%rdi
ffffffff8010151c:	e8 ea ac 00 00       	callq  ffffffff8010c20b <pmm_free>
ffffffff80101521:	48 8b 45 d8          	mov    -0x28(%rbp),%rax
ffffffff80101525:	c9                   	leaveq 
ffffffff80101526:	c3                   	retq   

ffffffff80101527 <ahci_write>:
ffffffff80101527:	55                   	push   %rbp
ffffffff80101528:	48 89 e5             	mov    %rsp,%rbp
ffffffff8010152b:	48 83 ec 30          	sub    $0x30,%rsp
ffffffff8010152f:	89 7d ec             	mov    %edi,-0x14(%rbp)
ffffffff80101532:	48 89 75 e0          	mov    %rsi,-0x20(%rbp)
ffffffff80101536:	48 89 55 d8          	mov    %rdx,-0x28(%rbp)
ffffffff8010153a:	48 89 4d d0          	mov    %rcx,-0x30(%rbp)
ffffffff8010153e:	48 8b 45 d8          	mov    -0x28(%rbp),%rax
ffffffff80101542:	48 05 ff 0f 00 00    	add    $0xfff,%rax
ffffffff80101548:	48 c1 e8 0c          	shr    $0xc,%rax
ffffffff8010154c:	48 89 c7             	mov    %rax,%rdi
ffffffff8010154f:	e8 22 ab 00 00       	callq  ffffffff8010c076 <pmm_alloc>
ffffffff80101554:	48 ba 00 00 00 00 00 	movabs $0xffff800000000000,%rdx
ffffffff8010155b:	80 ff ff 
ffffffff8010155e:	48 01 d0             	add    %rdx,%rax
ffffffff80101561:	48 89 45 f8          	mov    %rax,-0x8(%rbp)
ffffffff80101565:	48 8b 45 d8          	mov    -0x28(%rbp),%rax
ffffffff80101569:	48 05 ff 01 00 00    	add    $0x1ff,%rax
ffffffff8010156f:	48 c1 e8 09          	shr    $0x9,%rax
ffffffff80101573:	48 89 c2             	mov    %rax,%rdx
ffffffff80101576:	48 8b 45 e0          	mov    -0x20(%rbp),%rax
ffffffff8010157a:	48 c1 e8 09          	shr    $0x9,%rax
ffffffff8010157e:	48 89 c6             	mov    %rax,%rsi
ffffffff80101581:	48 8b 0d 80 3a 01 00 	mov    0x13a80(%rip),%rcx        # ffffffff80115008 <ahci_drives>
ffffffff80101588:	8b 45 ec             	mov    -0x14(%rbp),%eax
ffffffff8010158b:	48 98                	cltq   
ffffffff8010158d:	48 c1 e0 04          	shl    $0x4,%rax
ffffffff80101591:	48 8d 3c 01          	lea    (%rcx,%rax,1),%rdi
ffffffff80101595:	48 8b 45 f8          	mov    -0x8(%rbp),%rax
ffffffff80101599:	41 b8 00 00 00 00    	mov    $0x0,%r8d
ffffffff8010159f:	48 89 c1             	mov    %rax,%rcx
ffffffff801015a2:	e8 00 04 00 00       	callq  ffffffff801019a7 <ahci_RW>
ffffffff801015a7:	48 8b 45 e0          	mov    -0x20(%rbp),%rax
ffffffff801015ab:	25 ff 01 00 00       	and    $0x1ff,%eax
ffffffff801015b0:	48 89 c2             	mov    %rax,%rdx
ffffffff801015b3:	48 8b 45 f8          	mov    -0x8(%rbp),%rax
ffffffff801015b7:	48 8d 0c 02          	lea    (%rdx,%rax,1),%rcx
ffffffff801015bb:	48 8b 55 d8          	mov    -0x28(%rbp),%rdx
ffffffff801015bf:	48 8b 45 d0          	mov    -0x30(%rbp),%rax
ffffffff801015c3:	48 89 c6             	mov    %rax,%rsi
ffffffff801015c6:	48 89 cf             	mov    %rcx,%rdi
ffffffff801015c9:	e8 70 96 00 00       	callq  ffffffff8010ac3e <memcpy8>
ffffffff801015ce:	48 8b 45 d8          	mov    -0x28(%rbp),%rax
ffffffff801015d2:	48 05 ff 01 00 00    	add    $0x1ff,%rax
ffffffff801015d8:	48 c1 e8 09          	shr    $0x9,%rax
ffffffff801015dc:	48 89 c2             	mov    %rax,%rdx
ffffffff801015df:	48 8b 45 e0          	mov    -0x20(%rbp),%rax
ffffffff801015e3:	48 c1 e8 09          	shr    $0x9,%rax
ffffffff801015e7:	48 89 c6             	mov    %rax,%rsi
ffffffff801015ea:	48 8b 0d 17 3a 01 00 	mov    0x13a17(%rip),%rcx        # ffffffff80115008 <ahci_drives>
ffffffff801015f1:	8b 45 ec             	mov    -0x14(%rbp),%eax
ffffffff801015f4:	48 98                	cltq   
ffffffff801015f6:	48 c1 e0 04          	shl    $0x4,%rax
ffffffff801015fa:	48 8d 3c 01          	lea    (%rcx,%rax,1),%rdi
ffffffff801015fe:	48 8b 45 f8          	mov    -0x8(%rbp),%rax
ffffffff80101602:	41 b8 01 00 00 00    	mov    $0x1,%r8d
ffffffff80101608:	48 89 c1             	mov    %rax,%rcx
ffffffff8010160b:	e8 97 03 00 00       	callq  ffffffff801019a7 <ahci_RW>
ffffffff80101610:	48 8b 45 d8          	mov    -0x28(%rbp),%rax
ffffffff80101614:	48 05 ff 0f 00 00    	add    $0xfff,%rax
ffffffff8010161a:	48 c1 e8 0c          	shr    $0xc,%rax
ffffffff8010161e:	48 89 c2             	mov    %rax,%rdx
ffffffff80101621:	48 8b 45 f8          	mov    -0x8(%rbp),%rax
ffffffff80101625:	48 b9 00 00 00 00 00 	movabs $0x800000000000,%rcx
ffffffff8010162c:	80 00 00 
ffffffff8010162f:	48 01 c8             	add    %rcx,%rax
ffffffff80101632:	48 89 d6             	mov    %rdx,%rsi
ffffffff80101635:	48 89 c7             	mov    %rax,%rdi
ffffffff80101638:	e8 ce ab 00 00       	callq  ffffffff8010c20b <pmm_free>
ffffffff8010163d:	48 8b 45 d8          	mov    -0x28(%rbp),%rax
ffffffff80101641:	c9                   	leaveq 
ffffffff80101642:	c3                   	retq   

ffffffff80101643 <init_sata_device>:
ffffffff80101643:	55                   	push   %rbp
ffffffff80101644:	48 89 e5             	mov    %rsp,%rbp
ffffffff80101647:	48 83 c4 80          	add    $0xffffffffffffff80,%rsp
ffffffff8010164b:	48 89 7d 88          	mov    %rdi,-0x78(%rbp)
ffffffff8010164f:	48 8b 45 88          	mov    -0x78(%rbp),%rax
ffffffff80101653:	48 89 c7             	mov    %rax,%rdi
ffffffff80101656:	e8 ca fc ff ff       	callq  ffffffff80101325 <find_CMD>
ffffffff8010165b:	89 45 f4             	mov    %eax,-0xc(%rbp)
ffffffff8010165e:	83 7d f4 ff          	cmpl   $0xffffffff,-0xc(%rbp)
ffffffff80101662:	75 18                	jne    ffffffff8010167c <init_sata_device+0x39>
ffffffff80101664:	48 c7 c6 78 01 11 80 	mov    $0xffffffff80110178,%rsi
ffffffff8010166b:	48 c7 c7 96 01 11 80 	mov    $0xffffffff80110196,%rdi
ffffffff80101672:	b8 00 00 00 00       	mov    $0x0,%eax
ffffffff80101677:	e8 31 98 00 00       	callq  ffffffff8010aead <kprintf>
ffffffff8010167c:	bf 01 00 00 00       	mov    $0x1,%edi
ffffffff80101681:	e8 f0 a9 00 00       	callq  ffffffff8010c076 <pmm_alloc>
ffffffff80101686:	48 ba 00 00 00 00 00 	movabs $0xffff800000000000,%rdx
ffffffff8010168d:	80 ff ff 
ffffffff80101690:	48 01 d0             	add    %rdx,%rax
ffffffff80101693:	48 89 45 e8          	mov    %rax,-0x18(%rbp)
ffffffff80101697:	48 8b 45 88          	mov    -0x78(%rbp),%rax
ffffffff8010169b:	8b 00                	mov    (%rax),%eax
ffffffff8010169d:	89 c2                	mov    %eax,%edx
ffffffff8010169f:	48 b8 00 00 00 00 00 	movabs $0xffff800000000000,%rax
ffffffff801016a6:	80 ff ff 
ffffffff801016a9:	48 01 d0             	add    %rdx,%rax
ffffffff801016ac:	48 89 45 e0          	mov    %rax,-0x20(%rbp)
ffffffff801016b0:	8b 45 f4             	mov    -0xc(%rbp),%eax
ffffffff801016b3:	48 98                	cltq   
ffffffff801016b5:	48 c1 e0 05          	shl    $0x5,%rax
ffffffff801016b9:	48 01 45 e0          	add    %rax,-0x20(%rbp)
ffffffff801016bd:	48 8b 45 e0          	mov    -0x20(%rbp),%rax
ffffffff801016c1:	0f b7 10             	movzwl (%rax),%edx
ffffffff801016c4:	83 e2 e0             	and    $0xffffffe0,%edx
ffffffff801016c7:	83 ca 05             	or     $0x5,%edx
ffffffff801016ca:	66 89 10             	mov    %dx,(%rax)
ffffffff801016cd:	48 8b 45 e0          	mov    -0x20(%rbp),%rax
ffffffff801016d1:	0f b7 10             	movzwl (%rax),%edx
ffffffff801016d4:	83 e2 bf             	and    $0xffffffbf,%edx
ffffffff801016d7:	66 89 10             	mov    %dx,(%rax)
ffffffff801016da:	48 8b 45 e0          	mov    -0x20(%rbp),%rax
ffffffff801016de:	66 c7 40 02 01 00    	movw   $0x1,0x2(%rax)
ffffffff801016e4:	48 8b 45 e0          	mov    -0x20(%rbp),%rax
ffffffff801016e8:	8b 40 08             	mov    0x8(%rax),%eax
ffffffff801016eb:	89 c2                	mov    %eax,%edx
ffffffff801016ed:	48 b8 00 00 00 00 00 	movabs $0xffff800000000000,%rax
ffffffff801016f4:	80 ff ff 
ffffffff801016f7:	48 01 d0             	add    %rdx,%rax
ffffffff801016fa:	48 89 45 d8          	mov    %rax,-0x28(%rbp)
ffffffff801016fe:	48 8b 45 e0          	mov    -0x20(%rbp),%rax
ffffffff80101702:	8b 40 08             	mov    0x8(%rax),%eax
ffffffff80101705:	89 c2                	mov    %eax,%edx
ffffffff80101707:	48 b8 00 00 00 00 00 	movabs $0xffff800000000000,%rax
ffffffff8010170e:	80 ff ff 
ffffffff80101711:	48 01 d0             	add    %rdx,%rax
ffffffff80101714:	ba 90 00 00 00       	mov    $0x90,%edx
ffffffff80101719:	be 00 00 00 00       	mov    $0x0,%esi
ffffffff8010171e:	48 89 c7             	mov    %rax,%rdi
ffffffff80101721:	e8 09 94 00 00       	callq  ffffffff8010ab2f <memset8>
ffffffff80101726:	48 8b 45 e8          	mov    -0x18(%rbp),%rax
ffffffff8010172a:	89 c2                	mov    %eax,%edx
ffffffff8010172c:	48 8b 45 d8          	mov    -0x28(%rbp),%rax
ffffffff80101730:	89 90 80 00 00 00    	mov    %edx,0x80(%rax)
ffffffff80101736:	48 8b 45 d8          	mov    -0x28(%rbp),%rax
ffffffff8010173a:	8b 90 8c 00 00 00    	mov    0x8c(%rax),%edx
ffffffff80101740:	81 e2 00 00 c0 ff    	and    $0xffc00000,%edx
ffffffff80101746:	81 ca ff 01 00 00    	or     $0x1ff,%edx
ffffffff8010174c:	89 90 8c 00 00 00    	mov    %edx,0x8c(%rax)
ffffffff80101752:	48 8b 45 d8          	mov    -0x28(%rbp),%rax
ffffffff80101756:	8b 90 8c 00 00 00    	mov    0x8c(%rax),%edx
ffffffff8010175c:	81 ca 00 00 00 80    	or     $0x80000000,%edx
ffffffff80101762:	89 90 8c 00 00 00    	mov    %edx,0x8c(%rax)
ffffffff80101768:	48 8b 45 d8          	mov    -0x28(%rbp),%rax
ffffffff8010176c:	48 89 45 d0          	mov    %rax,-0x30(%rbp)
ffffffff80101770:	48 8b 45 d8          	mov    -0x28(%rbp),%rax
ffffffff80101774:	ba 14 00 00 00       	mov    $0x14,%edx
ffffffff80101779:	be 00 00 00 00       	mov    $0x0,%esi
ffffffff8010177e:	48 89 c7             	mov    %rax,%rdi
ffffffff80101781:	e8 a9 93 00 00       	callq  ffffffff8010ab2f <memset8>
ffffffff80101786:	48 8b 45 d0          	mov    -0x30(%rbp),%rax
ffffffff8010178a:	c6 40 02 ec          	movb   $0xec,0x2(%rax)
ffffffff8010178e:	48 8b 45 d0          	mov    -0x30(%rbp),%rax
ffffffff80101792:	0f b6 50 01          	movzbl 0x1(%rax),%edx
ffffffff80101796:	83 ca 80             	or     $0xffffff80,%edx
ffffffff80101799:	88 50 01             	mov    %dl,0x1(%rax)
ffffffff8010179c:	48 8b 45 d0          	mov    -0x30(%rbp),%rax
ffffffff801017a0:	c6 40 07 00          	movb   $0x0,0x7(%rax)
ffffffff801017a4:	48 8b 45 d0          	mov    -0x30(%rbp),%rax
ffffffff801017a8:	0f b6 50 01          	movzbl 0x1(%rax),%edx
ffffffff801017ac:	83 e2 f0             	and    $0xfffffff0,%edx
ffffffff801017af:	88 50 01             	mov    %dl,0x1(%rax)
ffffffff801017b2:	48 8b 45 d0          	mov    -0x30(%rbp),%rax
ffffffff801017b6:	c6 00 27             	movb   $0x27,(%rax)
ffffffff801017b9:	8b 55 f4             	mov    -0xc(%rbp),%edx
ffffffff801017bc:	48 8b 45 88          	mov    -0x78(%rbp),%rax
ffffffff801017c0:	89 d6                	mov    %edx,%esi
ffffffff801017c2:	48 89 c7             	mov    %rax,%rdi
ffffffff801017c5:	e8 aa fb ff ff       	callq  ffffffff80101374 <send_command>
ffffffff801017ca:	48 8b 15 37 38 01 00 	mov    0x13837(%rip),%rdx        # ffffffff80115008 <ahci_drives>
ffffffff801017d1:	48 8b 05 28 38 01 00 	mov    0x13828(%rip),%rax        # ffffffff80115000 <ahci_drive_cnt>
ffffffff801017d8:	48 c1 e0 04          	shl    $0x4,%rax
ffffffff801017dc:	48 01 d0             	add    %rdx,%rax
ffffffff801017df:	48 8b 55 e8          	mov    -0x18(%rbp),%rdx
ffffffff801017e3:	48 81 c2 c8 00 00 00 	add    $0xc8,%rdx
ffffffff801017ea:	48 8b 12             	mov    (%rdx),%rdx
ffffffff801017ed:	48 89 10             	mov    %rdx,(%rax)
ffffffff801017f0:	48 8b 55 88          	mov    -0x78(%rbp),%rdx
ffffffff801017f4:	48 89 50 08          	mov    %rdx,0x8(%rax)
ffffffff801017f8:	48 c7 45 98 00 00 00 	movq   $0x0,-0x68(%rbp)
ffffffff801017ff:	00 
ffffffff80101800:	48 c7 45 a0 00 00 00 	movq   $0x0,-0x60(%rbp)
ffffffff80101807:	00 
ffffffff80101808:	48 c7 45 a8 00 00 00 	movq   $0x0,-0x58(%rbp)
ffffffff8010180f:	00 
ffffffff80101810:	48 c7 45 b0 00 00 00 	movq   $0x0,-0x50(%rbp)
ffffffff80101817:	00 
ffffffff80101818:	48 c7 45 b8 00 00 00 	movq   $0x0,-0x48(%rbp)
ffffffff8010181f:	00 
ffffffff80101820:	48 8b 05 d9 37 01 00 	mov    0x137d9(%rip),%rax        # ffffffff80115000 <ahci_drive_cnt>
ffffffff80101827:	48 8d 50 01          	lea    0x1(%rax),%rdx
ffffffff8010182b:	48 89 15 ce 37 01 00 	mov    %rdx,0x137ce(%rip)        # ffffffff80115000 <ahci_drive_cnt>
ffffffff80101832:	48 89 45 a0          	mov    %rax,-0x60(%rbp)
ffffffff80101836:	48 c7 45 b0 4d 14 10 	movq   $0xffffffff8010144d,-0x50(%rbp)
ffffffff8010183d:	80 
ffffffff8010183e:	48 c7 45 b8 27 15 10 	movq   $0xffffffff80101527,-0x48(%rbp)
ffffffff80101845:	80 
ffffffff80101846:	48 c7 c7 48 d0 11 80 	mov    $0xffffffff8011d048,%rdi
ffffffff8010184d:	e8 4e c6 00 00       	callq  ffffffff8010dea0 <spin_lock>
ffffffff80101852:	c7 45 cc 00 00 00 00 	movl   $0x0,-0x34(%rbp)
ffffffff80101859:	48 8b 05 e0 b7 01 00 	mov    0x1b7e0(%rip),%rax        # ffffffff8011d040 <msd_list>
ffffffff80101860:	48 85 c0             	test   %rax,%rax
ffffffff80101863:	75 1c                	jne    ffffffff80101881 <init_sata_device+0x23e>
ffffffff80101865:	bf 00 05 00 00       	mov    $0x500,%edi
ffffffff8010186a:	e8 d8 0a 00 00       	callq  ffffffff80102347 <kmalloc>
ffffffff8010186f:	48 89 05 ca b7 01 00 	mov    %rax,0x1b7ca(%rip)        # ffffffff8011d040 <msd_list>
ffffffff80101876:	48 c7 05 cf b7 01 00 	movq   $0x20,0x1b7cf(%rip)        # ffffffff8011d050 <msd_list+0x10>
ffffffff8010187d:	20 00 00 00 
ffffffff80101881:	48 8b 15 d8 b7 01 00 	mov    0x1b7d8(%rip),%rdx        # ffffffff8011d060 <msd_list+0x20>
ffffffff80101888:	48 8b 05 c1 b7 01 00 	mov    0x1b7c1(%rip),%rax        # ffffffff8011d050 <msd_list+0x10>
ffffffff8010188f:	48 39 c2             	cmp    %rax,%rdx
ffffffff80101892:	76 32                	jbe    ffffffff801018c6 <init_sata_device+0x283>
ffffffff80101894:	48 8b 05 b5 b7 01 00 	mov    0x1b7b5(%rip),%rax        # ffffffff8011d050 <msd_list+0x10>
ffffffff8010189b:	48 83 c0 20          	add    $0x20,%rax
ffffffff8010189f:	48 89 05 aa b7 01 00 	mov    %rax,0x1b7aa(%rip)        # ffffffff8011d050 <msd_list+0x10>
ffffffff801018a6:	48 8b 15 a3 b7 01 00 	mov    0x1b7a3(%rip),%rdx        # ffffffff8011d050 <msd_list+0x10>
ffffffff801018ad:	48 8b 05 8c b7 01 00 	mov    0x1b78c(%rip),%rax        # ffffffff8011d040 <msd_list>
ffffffff801018b4:	48 89 d6             	mov    %rdx,%rsi
ffffffff801018b7:	48 89 c7             	mov    %rax,%rdi
ffffffff801018ba:	e8 50 0d 00 00       	callq  ffffffff8010260f <krealloc>
ffffffff801018bf:	48 89 05 7a b7 01 00 	mov    %rax,0x1b77a(%rip)        # ffffffff8011d040 <msd_list>
ffffffff801018c6:	48 8b 05 93 b7 01 00 	mov    0x1b793(%rip),%rax        # ffffffff8011d060 <msd_list+0x20>
ffffffff801018cd:	89 45 cc             	mov    %eax,-0x34(%rbp)
ffffffff801018d0:	48 8b 0d 69 b7 01 00 	mov    0x1b769(%rip),%rcx        # ffffffff8011d040 <msd_list>
ffffffff801018d7:	48 8b 15 82 b7 01 00 	mov    0x1b782(%rip),%rdx        # ffffffff8011d060 <msd_list+0x20>
ffffffff801018de:	48 8d 42 01          	lea    0x1(%rdx),%rax
ffffffff801018e2:	48 89 05 77 b7 01 00 	mov    %rax,0x1b777(%rip)        # ffffffff8011d060 <msd_list+0x20>
ffffffff801018e9:	48 89 d0             	mov    %rdx,%rax
ffffffff801018ec:	48 c1 e0 02          	shl    $0x2,%rax
ffffffff801018f0:	48 01 d0             	add    %rdx,%rax
ffffffff801018f3:	48 c1 e0 03          	shl    $0x3,%rax
ffffffff801018f7:	48 01 c8             	add    %rcx,%rax
ffffffff801018fa:	48 8b 55 98          	mov    -0x68(%rbp),%rdx
ffffffff801018fe:	48 89 10             	mov    %rdx,(%rax)
ffffffff80101901:	48 8b 55 a0          	mov    -0x60(%rbp),%rdx
ffffffff80101905:	48 89 50 08          	mov    %rdx,0x8(%rax)
ffffffff80101909:	48 8b 55 a8          	mov    -0x58(%rbp),%rdx
ffffffff8010190d:	48 89 50 10          	mov    %rdx,0x10(%rax)
ffffffff80101911:	48 8b 55 b0          	mov    -0x50(%rbp),%rdx
ffffffff80101915:	48 89 50 18          	mov    %rdx,0x18(%rax)
ffffffff80101919:	48 8b 55 b8          	mov    -0x48(%rbp),%rdx
ffffffff8010191d:	48 89 50 20          	mov    %rdx,0x20(%rax)
ffffffff80101921:	48 8b 05 30 b7 01 00 	mov    0x1b730(%rip),%rax        # ffffffff8011d058 <msd_list+0x18>
ffffffff80101928:	48 83 c0 01          	add    $0x1,%rax
ffffffff8010192c:	48 89 05 25 b7 01 00 	mov    %rax,0x1b725(%rip)        # ffffffff8011d058 <msd_list+0x18>
ffffffff80101933:	48 c7 c7 48 d0 11 80 	mov    $0xffffffff8011d048,%rdi
ffffffff8010193a:	e8 b6 c5 00 00       	callq  ffffffff8010def5 <spin_release>
ffffffff8010193f:	8b 45 cc             	mov    -0x34(%rbp),%eax
ffffffff80101942:	48 98                	cltq   
ffffffff80101944:	48 89 45 c0          	mov    %rax,-0x40(%rbp)
ffffffff80101948:	48 c7 45 f8 00 00 00 	movq   $0x0,-0x8(%rbp)
ffffffff8010194f:	00 
ffffffff80101950:	48 c7 c7 48 d0 11 80 	mov    $0xffffffff8011d048,%rdi
ffffffff80101957:	e8 44 c5 00 00       	callq  ffffffff8010dea0 <spin_lock>
ffffffff8010195c:	48 8b 05 f5 b6 01 00 	mov    0x1b6f5(%rip),%rax        # ffffffff8011d058 <msd_list+0x18>
ffffffff80101963:	48 39 45 c0          	cmp    %rax,-0x40(%rbp)
ffffffff80101967:	73 22                	jae    ffffffff8010198b <init_sata_device+0x348>
ffffffff80101969:	48 8b 0d d0 b6 01 00 	mov    0x1b6d0(%rip),%rcx        # ffffffff8011d040 <msd_list>
ffffffff80101970:	48 8b 55 c0          	mov    -0x40(%rbp),%rdx
ffffffff80101974:	48 89 d0             	mov    %rdx,%rax
ffffffff80101977:	48 c1 e0 02          	shl    $0x2,%rax
ffffffff8010197b:	48 01 d0             	add    %rdx,%rax
ffffffff8010197e:	48 c1 e0 03          	shl    $0x3,%rax
ffffffff80101982:	48 01 c8             	add    %rcx,%rax
ffffffff80101985:	48 89 45 f8          	mov    %rax,-0x8(%rbp)
ffffffff80101989:	eb 01                	jmp    ffffffff8010198c <init_sata_device+0x349>
ffffffff8010198b:	90                   	nop
ffffffff8010198c:	48 c7 c7 48 d0 11 80 	mov    $0xffffffff8011d048,%rdi
ffffffff80101993:	e8 5d c5 00 00       	callq  ffffffff8010def5 <spin_release>
ffffffff80101998:	48 8b 45 f8          	mov    -0x8(%rbp),%rax
ffffffff8010199c:	48 89 c7             	mov    %rax,%rdi
ffffffff8010199f:	e8 18 15 00 00       	callq  ffffffff80102ebc <scan_device_partitions>
ffffffff801019a4:	90                   	nop
ffffffff801019a5:	c9                   	leaveq 
ffffffff801019a6:	c3                   	retq   

ffffffff801019a7 <ahci_RW>:
ffffffff801019a7:	55                   	push   %rbp
ffffffff801019a8:	48 89 e5             	mov    %rsp,%rbp
ffffffff801019ab:	48 83 ec 50          	sub    $0x50,%rsp
ffffffff801019af:	48 89 7d d8          	mov    %rdi,-0x28(%rbp)
ffffffff801019b3:	48 89 75 d0          	mov    %rsi,-0x30(%rbp)
ffffffff801019b7:	48 89 55 c8          	mov    %rdx,-0x38(%rbp)
ffffffff801019bb:	48 89 4d c0          	mov    %rcx,-0x40(%rbp)
ffffffff801019bf:	44 89 c0             	mov    %r8d,%eax
ffffffff801019c2:	88 45 bc             	mov    %al,-0x44(%rbp)
ffffffff801019c5:	48 8b 45 d8          	mov    -0x28(%rbp),%rax
ffffffff801019c9:	48 8b 40 08          	mov    0x8(%rax),%rax
ffffffff801019cd:	48 89 c7             	mov    %rax,%rdi
ffffffff801019d0:	e8 50 f9 ff ff       	callq  ffffffff80101325 <find_CMD>
ffffffff801019d5:	89 45 fc             	mov    %eax,-0x4(%rbp)
ffffffff801019d8:	48 8b 45 d8          	mov    -0x28(%rbp),%rax
ffffffff801019dc:	48 8b 40 08          	mov    0x8(%rax),%rax
ffffffff801019e0:	8b 00                	mov    (%rax),%eax
ffffffff801019e2:	89 c2                	mov    %eax,%edx
ffffffff801019e4:	48 b8 00 00 00 00 00 	movabs $0xffff800000000000,%rax
ffffffff801019eb:	80 ff ff 
ffffffff801019ee:	48 01 d0             	add    %rdx,%rax
ffffffff801019f1:	48 89 45 f0          	mov    %rax,-0x10(%rbp)
ffffffff801019f5:	48 8b 45 d8          	mov    -0x28(%rbp),%rax
ffffffff801019f9:	48 8b 40 08          	mov    0x8(%rax),%rax
ffffffff801019fd:	8b 00                	mov    (%rax),%eax
ffffffff801019ff:	89 c2                	mov    %eax,%edx
ffffffff80101a01:	48 b8 00 00 00 00 00 	movabs $0xffff800000000000,%rax
ffffffff80101a08:	80 ff ff 
ffffffff80101a0b:	48 01 d0             	add    %rdx,%rax
ffffffff80101a0e:	ba 20 00 00 00       	mov    $0x20,%edx
ffffffff80101a13:	be 00 00 00 00       	mov    $0x0,%esi
ffffffff80101a18:	48 89 c7             	mov    %rax,%rdi
ffffffff80101a1b:	e8 0f 91 00 00       	callq  ffffffff8010ab2f <memset8>
ffffffff80101a20:	8b 45 fc             	mov    -0x4(%rbp),%eax
ffffffff80101a23:	48 c1 e0 05          	shl    $0x5,%rax
ffffffff80101a27:	48 01 45 f0          	add    %rax,-0x10(%rbp)
ffffffff80101a2b:	48 8b 45 f0          	mov    -0x10(%rbp),%rax
ffffffff80101a2f:	0f b7 10             	movzwl (%rax),%edx
ffffffff80101a32:	83 e2 e0             	and    $0xffffffe0,%edx
ffffffff80101a35:	83 ca 05             	or     $0x5,%edx
ffffffff80101a38:	66 89 10             	mov    %dx,(%rax)
ffffffff80101a3b:	80 7d bc 00          	cmpb   $0x0,-0x44(%rbp)
ffffffff80101a3f:	0f 95 c2             	setne  %dl
ffffffff80101a42:	48 8b 45 f0          	mov    -0x10(%rbp),%rax
ffffffff80101a46:	0f b6 d2             	movzbl %dl,%edx
ffffffff80101a49:	83 e2 01             	and    $0x1,%edx
ffffffff80101a4c:	89 d1                	mov    %edx,%ecx
ffffffff80101a4e:	c1 e1 06             	shl    $0x6,%ecx
ffffffff80101a51:	0f b7 10             	movzwl (%rax),%edx
ffffffff80101a54:	83 e2 bf             	and    $0xffffffbf,%edx
ffffffff80101a57:	09 ca                	or     %ecx,%edx
ffffffff80101a59:	66 89 10             	mov    %dx,(%rax)
ffffffff80101a5c:	48 8b 45 f0          	mov    -0x10(%rbp),%rax
ffffffff80101a60:	66 c7 40 02 01 00    	movw   $0x1,0x2(%rax)
ffffffff80101a66:	48 8b 45 f0          	mov    -0x10(%rbp),%rax
ffffffff80101a6a:	8b 40 08             	mov    0x8(%rax),%eax
ffffffff80101a6d:	89 c2                	mov    %eax,%edx
ffffffff80101a6f:	48 b8 00 00 00 00 00 	movabs $0xffff800000000000,%rax
ffffffff80101a76:	80 ff ff 
ffffffff80101a79:	48 01 d0             	add    %rdx,%rax
ffffffff80101a7c:	48 89 45 e8          	mov    %rax,-0x18(%rbp)
ffffffff80101a80:	48 8b 45 f0          	mov    -0x10(%rbp),%rax
ffffffff80101a84:	8b 40 08             	mov    0x8(%rax),%eax
ffffffff80101a87:	89 c2                	mov    %eax,%edx
ffffffff80101a89:	48 b8 00 00 00 00 00 	movabs $0xffff800000000000,%rax
ffffffff80101a90:	80 ff ff 
ffffffff80101a93:	48 01 d0             	add    %rdx,%rax
ffffffff80101a96:	ba 90 00 00 00       	mov    $0x90,%edx
ffffffff80101a9b:	be 00 00 00 00       	mov    $0x0,%esi
ffffffff80101aa0:	48 89 c7             	mov    %rax,%rdi
ffffffff80101aa3:	e8 87 90 00 00       	callq  ffffffff8010ab2f <memset8>
ffffffff80101aa8:	48 8b 45 c0          	mov    -0x40(%rbp),%rax
ffffffff80101aac:	89 c2                	mov    %eax,%edx
ffffffff80101aae:	48 8b 45 e8          	mov    -0x18(%rbp),%rax
ffffffff80101ab2:	89 90 80 00 00 00    	mov    %edx,0x80(%rax)
ffffffff80101ab8:	48 8b 45 c8          	mov    -0x38(%rbp),%rax
ffffffff80101abc:	c1 e0 09             	shl    $0x9,%eax
ffffffff80101abf:	83 e8 01             	sub    $0x1,%eax
ffffffff80101ac2:	25 ff ff 3f 00       	and    $0x3fffff,%eax
ffffffff80101ac7:	89 c2                	mov    %eax,%edx
ffffffff80101ac9:	48 8b 45 e8          	mov    -0x18(%rbp),%rax
ffffffff80101acd:	89 d1                	mov    %edx,%ecx
ffffffff80101acf:	81 e1 ff ff 3f 00    	and    $0x3fffff,%ecx
ffffffff80101ad5:	8b 90 8c 00 00 00    	mov    0x8c(%rax),%edx
ffffffff80101adb:	81 e2 00 00 c0 ff    	and    $0xffc00000,%edx
ffffffff80101ae1:	09 ca                	or     %ecx,%edx
ffffffff80101ae3:	89 90 8c 00 00 00    	mov    %edx,0x8c(%rax)
ffffffff80101ae9:	48 8b 45 e8          	mov    -0x18(%rbp),%rax
ffffffff80101aed:	8b 90 8c 00 00 00    	mov    0x8c(%rax),%edx
ffffffff80101af3:	81 ca 00 00 00 80    	or     $0x80000000,%edx
ffffffff80101af9:	89 90 8c 00 00 00    	mov    %edx,0x8c(%rax)
ffffffff80101aff:	48 8b 45 e8          	mov    -0x18(%rbp),%rax
ffffffff80101b03:	48 89 45 e0          	mov    %rax,-0x20(%rbp)
ffffffff80101b07:	48 8b 45 e8          	mov    -0x18(%rbp),%rax
ffffffff80101b0b:	ba 14 00 00 00       	mov    $0x14,%edx
ffffffff80101b10:	be 00 00 00 00       	mov    $0x0,%esi
ffffffff80101b15:	48 89 c7             	mov    %rax,%rdi
ffffffff80101b18:	e8 12 90 00 00       	callq  ffffffff8010ab2f <memset8>
ffffffff80101b1d:	48 8b 45 e0          	mov    -0x20(%rbp),%rax
ffffffff80101b21:	c6 00 27             	movb   $0x27,(%rax)
ffffffff80101b24:	48 8b 45 e0          	mov    -0x20(%rbp),%rax
ffffffff80101b28:	0f b6 50 01          	movzbl 0x1(%rax),%edx
ffffffff80101b2c:	83 ca 80             	or     $0xffffff80,%edx
ffffffff80101b2f:	88 50 01             	mov    %dl,0x1(%rax)
ffffffff80101b32:	80 7d bc 00          	cmpb   $0x0,-0x44(%rbp)
ffffffff80101b36:	74 07                	je     ffffffff80101b3f <ahci_RW+0x198>
ffffffff80101b38:	ba 35 00 00 00       	mov    $0x35,%edx
ffffffff80101b3d:	eb 05                	jmp    ffffffff80101b44 <ahci_RW+0x19d>
ffffffff80101b3f:	ba 25 00 00 00       	mov    $0x25,%edx
ffffffff80101b44:	48 8b 45 e0          	mov    -0x20(%rbp),%rax
ffffffff80101b48:	88 50 02             	mov    %dl,0x2(%rax)
ffffffff80101b4b:	48 8b 45 d0          	mov    -0x30(%rbp),%rax
ffffffff80101b4f:	89 c2                	mov    %eax,%edx
ffffffff80101b51:	48 8b 45 e0          	mov    -0x20(%rbp),%rax
ffffffff80101b55:	88 50 04             	mov    %dl,0x4(%rax)
ffffffff80101b58:	48 8b 45 d0          	mov    -0x30(%rbp),%rax
ffffffff80101b5c:	c1 e8 08             	shr    $0x8,%eax
ffffffff80101b5f:	89 c2                	mov    %eax,%edx
ffffffff80101b61:	48 8b 45 e0          	mov    -0x20(%rbp),%rax
ffffffff80101b65:	88 50 05             	mov    %dl,0x5(%rax)
ffffffff80101b68:	48 8b 45 d0          	mov    -0x30(%rbp),%rax
ffffffff80101b6c:	c1 e8 10             	shr    $0x10,%eax
ffffffff80101b6f:	89 c2                	mov    %eax,%edx
ffffffff80101b71:	48 8b 45 e0          	mov    -0x20(%rbp),%rax
ffffffff80101b75:	88 50 06             	mov    %dl,0x6(%rax)
ffffffff80101b78:	48 8b 45 e0          	mov    -0x20(%rbp),%rax
ffffffff80101b7c:	c6 40 07 40          	movb   $0x40,0x7(%rax)
ffffffff80101b80:	48 8b 45 d0          	mov    -0x30(%rbp),%rax
ffffffff80101b84:	c1 e8 18             	shr    $0x18,%eax
ffffffff80101b87:	89 c2                	mov    %eax,%edx
ffffffff80101b89:	48 8b 45 e0          	mov    -0x20(%rbp),%rax
ffffffff80101b8d:	88 50 08             	mov    %dl,0x8(%rax)
ffffffff80101b90:	48 8b 45 e0          	mov    -0x20(%rbp),%rax
ffffffff80101b94:	c6 40 09 00          	movb   $0x0,0x9(%rax)
ffffffff80101b98:	48 8b 45 e0          	mov    -0x20(%rbp),%rax
ffffffff80101b9c:	c6 40 0a 00          	movb   $0x0,0xa(%rax)
ffffffff80101ba0:	48 8b 45 c8          	mov    -0x38(%rbp),%rax
ffffffff80101ba4:	89 c2                	mov    %eax,%edx
ffffffff80101ba6:	48 8b 45 e0          	mov    -0x20(%rbp),%rax
ffffffff80101baa:	88 50 0c             	mov    %dl,0xc(%rax)
ffffffff80101bad:	48 8b 45 c8          	mov    -0x38(%rbp),%rax
ffffffff80101bb1:	48 c1 e8 08          	shr    $0x8,%rax
ffffffff80101bb5:	89 c2                	mov    %eax,%edx
ffffffff80101bb7:	48 8b 45 e0          	mov    -0x20(%rbp),%rax
ffffffff80101bbb:	88 50 0d             	mov    %dl,0xd(%rax)
ffffffff80101bbe:	48 8b 45 d8          	mov    -0x28(%rbp),%rax
ffffffff80101bc2:	48 8b 40 08          	mov    0x8(%rax),%rax
ffffffff80101bc6:	8b 55 fc             	mov    -0x4(%rbp),%edx
ffffffff80101bc9:	89 d6                	mov    %edx,%esi
ffffffff80101bcb:	48 89 c7             	mov    %rax,%rdi
ffffffff80101bce:	e8 a1 f7 ff ff       	callq  ffffffff80101374 <send_command>
ffffffff80101bd3:	90                   	nop
ffffffff80101bd4:	c9                   	leaveq 
ffffffff80101bd5:	c3                   	retq   

ffffffff80101bd6 <lapic_read>:
ffffffff80101bd6:	55                   	push   %rbp
ffffffff80101bd7:	48 89 e5             	mov    %rsp,%rbp
ffffffff80101bda:	48 83 ec 08          	sub    $0x8,%rsp
ffffffff80101bde:	89 f8                	mov    %edi,%eax
ffffffff80101be0:	66 89 45 fc          	mov    %ax,-0x4(%rbp)
ffffffff80101be4:	48 8b 05 3d c9 01 00 	mov    0x1c93d(%rip),%rax        # ffffffff8011e528 <madt>
ffffffff80101beb:	8b 40 24             	mov    0x24(%rax),%eax
ffffffff80101bee:	89 c2                	mov    %eax,%edx
ffffffff80101bf0:	0f b7 45 fc          	movzwl -0x4(%rbp),%eax
ffffffff80101bf4:	48 01 c2             	add    %rax,%rdx
ffffffff80101bf7:	48 b8 00 00 00 00 00 	movabs $0xffff800000000000,%rax
ffffffff80101bfe:	80 ff ff 
ffffffff80101c01:	48 01 d0             	add    %rdx,%rax
ffffffff80101c04:	8b 00                	mov    (%rax),%eax
ffffffff80101c06:	c9                   	leaveq 
ffffffff80101c07:	c3                   	retq   

ffffffff80101c08 <lapic_write>:
ffffffff80101c08:	55                   	push   %rbp
ffffffff80101c09:	48 89 e5             	mov    %rsp,%rbp
ffffffff80101c0c:	48 83 ec 08          	sub    $0x8,%rsp
ffffffff80101c10:	89 f8                	mov    %edi,%eax
ffffffff80101c12:	89 75 f8             	mov    %esi,-0x8(%rbp)
ffffffff80101c15:	66 89 45 fc          	mov    %ax,-0x4(%rbp)
ffffffff80101c19:	48 8b 05 08 c9 01 00 	mov    0x1c908(%rip),%rax        # ffffffff8011e528 <madt>
ffffffff80101c20:	8b 40 24             	mov    0x24(%rax),%eax
ffffffff80101c23:	89 c2                	mov    %eax,%edx
ffffffff80101c25:	0f b7 45 fc          	movzwl -0x4(%rbp),%eax
ffffffff80101c29:	48 01 c2             	add    %rax,%rdx
ffffffff80101c2c:	48 b8 00 00 00 00 00 	movabs $0xffff800000000000,%rax
ffffffff80101c33:	80 ff ff 
ffffffff80101c36:	48 01 d0             	add    %rdx,%rax
ffffffff80101c39:	48 89 c2             	mov    %rax,%rdx
ffffffff80101c3c:	8b 45 f8             	mov    -0x8(%rbp),%eax
ffffffff80101c3f:	89 02                	mov    %eax,(%rdx)
ffffffff80101c41:	90                   	nop
ffffffff80101c42:	c9                   	leaveq 
ffffffff80101c43:	c3                   	retq   

ffffffff80101c44 <send_IPI>:
ffffffff80101c44:	55                   	push   %rbp
ffffffff80101c45:	48 89 e5             	mov    %rsp,%rbp
ffffffff80101c48:	48 83 ec 08          	sub    $0x8,%rsp
ffffffff80101c4c:	89 f8                	mov    %edi,%eax
ffffffff80101c4e:	89 75 f8             	mov    %esi,-0x8(%rbp)
ffffffff80101c51:	88 45 fc             	mov    %al,-0x4(%rbp)
ffffffff80101c54:	0f b6 45 fc          	movzbl -0x4(%rbp),%eax
ffffffff80101c58:	c1 e0 18             	shl    $0x18,%eax
ffffffff80101c5b:	89 c6                	mov    %eax,%esi
ffffffff80101c5d:	bf 10 03 00 00       	mov    $0x310,%edi
ffffffff80101c62:	e8 a1 ff ff ff       	callq  ffffffff80101c08 <lapic_write>
ffffffff80101c67:	8b 45 f8             	mov    -0x8(%rbp),%eax
ffffffff80101c6a:	89 c6                	mov    %eax,%esi
ffffffff80101c6c:	bf 00 03 00 00       	mov    $0x300,%edi
ffffffff80101c71:	e8 92 ff ff ff       	callq  ffffffff80101c08 <lapic_write>
ffffffff80101c76:	90                   	nop
ffffffff80101c77:	c9                   	leaveq 
ffffffff80101c78:	c3                   	retq   

ffffffff80101c79 <ioapic_read>:
ffffffff80101c79:	55                   	push   %rbp
ffffffff80101c7a:	48 89 e5             	mov    %rsp,%rbp
ffffffff80101c7d:	48 83 ec 10          	sub    $0x10,%rsp
ffffffff80101c81:	48 89 7d f8          	mov    %rdi,-0x8(%rbp)
ffffffff80101c85:	89 75 f4             	mov    %esi,-0xc(%rbp)
ffffffff80101c88:	48 ba 10 00 00 00 00 	movabs $0xffff800000000010,%rdx
ffffffff80101c8f:	80 ff ff 
ffffffff80101c92:	48 8b 45 f8          	mov    -0x8(%rbp),%rax
ffffffff80101c96:	48 01 d0             	add    %rdx,%rax
ffffffff80101c99:	48 89 c2             	mov    %rax,%rdx
ffffffff80101c9c:	8b 45 f4             	mov    -0xc(%rbp),%eax
ffffffff80101c9f:	89 02                	mov    %eax,(%rdx)
ffffffff80101ca1:	48 ba 12 00 00 00 00 	movabs $0xffff800000000012,%rdx
ffffffff80101ca8:	80 ff ff 
ffffffff80101cab:	48 8b 45 f8          	mov    -0x8(%rbp),%rax
ffffffff80101caf:	48 01 d0             	add    %rdx,%rax
ffffffff80101cb2:	8b 00                	mov    (%rax),%eax
ffffffff80101cb4:	c9                   	leaveq 
ffffffff80101cb5:	c3                   	retq   

ffffffff80101cb6 <ioapic_write>:
ffffffff80101cb6:	55                   	push   %rbp
ffffffff80101cb7:	48 89 e5             	mov    %rsp,%rbp
ffffffff80101cba:	48 83 ec 10          	sub    $0x10,%rsp
ffffffff80101cbe:	48 89 7d f8          	mov    %rdi,-0x8(%rbp)
ffffffff80101cc2:	89 75 f4             	mov    %esi,-0xc(%rbp)
ffffffff80101cc5:	89 55 f0             	mov    %edx,-0x10(%rbp)
ffffffff80101cc8:	48 ba 00 00 00 00 00 	movabs $0xffff800000000000,%rdx
ffffffff80101ccf:	80 ff ff 
ffffffff80101cd2:	48 8b 45 f8          	mov    -0x8(%rbp),%rax
ffffffff80101cd6:	48 01 d0             	add    %rdx,%rax
ffffffff80101cd9:	48 89 c2             	mov    %rax,%rdx
ffffffff80101cdc:	8b 45 f4             	mov    -0xc(%rbp),%eax
ffffffff80101cdf:	89 02                	mov    %eax,(%rdx)
ffffffff80101ce1:	48 ba 10 00 00 00 00 	movabs $0xffff800000000010,%rdx
ffffffff80101ce8:	80 ff ff 
ffffffff80101ceb:	48 8b 45 f8          	mov    -0x8(%rbp),%rax
ffffffff80101cef:	48 01 d0             	add    %rdx,%rax
ffffffff80101cf2:	48 89 c2             	mov    %rax,%rdx
ffffffff80101cf5:	8b 45 f0             	mov    -0x10(%rbp),%eax
ffffffff80101cf8:	89 02                	mov    %eax,(%rdx)
ffffffff80101cfa:	90                   	nop
ffffffff80101cfb:	c9                   	leaveq 
ffffffff80101cfc:	c3                   	retq   

ffffffff80101cfd <write_redirection>:
ffffffff80101cfd:	55                   	push   %rbp
ffffffff80101cfe:	48 89 e5             	mov    %rsp,%rbp
ffffffff80101d01:	48 83 ec 28          	sub    $0x28,%rsp
ffffffff80101d05:	89 7d ec             	mov    %edi,-0x14(%rbp)
ffffffff80101d08:	48 89 75 e0          	mov    %rsi,-0x20(%rbp)
ffffffff80101d0c:	48 89 55 d8          	mov    %rdx,-0x28(%rbp)
ffffffff80101d10:	48 8b 45 d8          	mov    -0x28(%rbp),%rax
ffffffff80101d14:	8b 50 06             	mov    0x6(%rax),%edx
ffffffff80101d17:	8b 45 ec             	mov    -0x14(%rbp),%eax
ffffffff80101d1a:	29 d0                	sub    %edx,%eax
ffffffff80101d1c:	83 c0 08             	add    $0x8,%eax
ffffffff80101d1f:	01 c0                	add    %eax,%eax
ffffffff80101d21:	89 45 fc             	mov    %eax,-0x4(%rbp)
ffffffff80101d24:	48 8b 45 e0          	mov    -0x20(%rbp),%rax
ffffffff80101d28:	89 c2                	mov    %eax,%edx
ffffffff80101d2a:	48 8b 45 d8          	mov    -0x28(%rbp),%rax
ffffffff80101d2e:	8b 40 02             	mov    0x2(%rax),%eax
ffffffff80101d31:	89 c1                	mov    %eax,%ecx
ffffffff80101d33:	8b 45 fc             	mov    -0x4(%rbp),%eax
ffffffff80101d36:	89 c6                	mov    %eax,%esi
ffffffff80101d38:	48 89 cf             	mov    %rcx,%rdi
ffffffff80101d3b:	e8 76 ff ff ff       	callq  ffffffff80101cb6 <ioapic_write>
ffffffff80101d40:	48 8b 45 e0          	mov    -0x20(%rbp),%rax
ffffffff80101d44:	48 c1 e8 20          	shr    $0x20,%rax
ffffffff80101d48:	89 c6                	mov    %eax,%esi
ffffffff80101d4a:	8b 45 fc             	mov    -0x4(%rbp),%eax
ffffffff80101d4d:	83 c0 01             	add    $0x1,%eax
ffffffff80101d50:	48 8b 55 d8          	mov    -0x28(%rbp),%rdx
ffffffff80101d54:	8b 52 02             	mov    0x2(%rdx),%edx
ffffffff80101d57:	89 d1                	mov    %edx,%ecx
ffffffff80101d59:	89 f2                	mov    %esi,%edx
ffffffff80101d5b:	89 c6                	mov    %eax,%esi
ffffffff80101d5d:	48 89 cf             	mov    %rcx,%rdi
ffffffff80101d60:	e8 51 ff ff ff       	callq  ffffffff80101cb6 <ioapic_write>
ffffffff80101d65:	90                   	nop
ffffffff80101d66:	c9                   	leaveq 
ffffffff80101d67:	c3                   	retq   

ffffffff80101d68 <read_redirection>:
ffffffff80101d68:	55                   	push   %rbp
ffffffff80101d69:	48 89 e5             	mov    %rsp,%rbp
ffffffff80101d6c:	48 83 ec 20          	sub    $0x20,%rsp
ffffffff80101d70:	89 7d ec             	mov    %edi,-0x14(%rbp)
ffffffff80101d73:	48 89 75 e0          	mov    %rsi,-0x20(%rbp)
ffffffff80101d77:	48 8b 45 e0          	mov    -0x20(%rbp),%rax
ffffffff80101d7b:	8b 50 06             	mov    0x6(%rax),%edx
ffffffff80101d7e:	8b 45 ec             	mov    -0x14(%rbp),%eax
ffffffff80101d81:	29 d0                	sub    %edx,%eax
ffffffff80101d83:	83 c0 08             	add    $0x8,%eax
ffffffff80101d86:	01 c0                	add    %eax,%eax
ffffffff80101d88:	89 45 fc             	mov    %eax,-0x4(%rbp)
ffffffff80101d8b:	48 8b 45 e0          	mov    -0x20(%rbp),%rax
ffffffff80101d8f:	8b 40 02             	mov    0x2(%rax),%eax
ffffffff80101d92:	89 c2                	mov    %eax,%edx
ffffffff80101d94:	8b 45 fc             	mov    -0x4(%rbp),%eax
ffffffff80101d97:	89 c6                	mov    %eax,%esi
ffffffff80101d99:	48 89 d7             	mov    %rdx,%rdi
ffffffff80101d9c:	e8 d8 fe ff ff       	callq  ffffffff80101c79 <ioapic_read>
ffffffff80101da1:	89 c0                	mov    %eax,%eax
ffffffff80101da3:	48 89 45 f0          	mov    %rax,-0x10(%rbp)
ffffffff80101da7:	8b 45 fc             	mov    -0x4(%rbp),%eax
ffffffff80101daa:	83 c0 01             	add    $0x1,%eax
ffffffff80101dad:	48 8b 55 e0          	mov    -0x20(%rbp),%rdx
ffffffff80101db1:	8b 52 02             	mov    0x2(%rdx),%edx
ffffffff80101db4:	89 d2                	mov    %edx,%edx
ffffffff80101db6:	89 c6                	mov    %eax,%esi
ffffffff80101db8:	48 89 d7             	mov    %rdx,%rdi
ffffffff80101dbb:	e8 b9 fe ff ff       	callq  ffffffff80101c79 <ioapic_read>
ffffffff80101dc0:	89 c0                	mov    %eax,%eax
ffffffff80101dc2:	48 c1 e0 20          	shl    $0x20,%rax
ffffffff80101dc6:	48 0b 45 f0          	or     -0x10(%rbp),%rax
ffffffff80101dca:	c9                   	leaveq 
ffffffff80101dcb:	c3                   	retq   

ffffffff80101dcc <mask_GSI>:
ffffffff80101dcc:	55                   	push   %rbp
ffffffff80101dcd:	48 89 e5             	mov    %rsp,%rbp
ffffffff80101dd0:	48 83 ec 20          	sub    $0x20,%rsp
ffffffff80101dd4:	89 7d ec             	mov    %edi,-0x14(%rbp)
ffffffff80101dd7:	48 c7 45 f8 00 00 00 	movq   $0x0,-0x8(%rbp)
ffffffff80101dde:	00 
ffffffff80101ddf:	48 c7 c7 48 e4 11 80 	mov    $0xffffffff8011e448,%rdi
ffffffff80101de6:	e8 b5 c0 00 00       	callq  ffffffff8010dea0 <spin_lock>
ffffffff80101deb:	48 8b 05 66 c6 01 00 	mov    0x1c666(%rip),%rax        # ffffffff8011e458 <madt1+0x18>
ffffffff80101df2:	48 85 c0             	test   %rax,%rax
ffffffff80101df5:	74 0d                	je     ffffffff80101e04 <mask_GSI+0x38>
ffffffff80101df7:	48 8b 05 42 c6 01 00 	mov    0x1c642(%rip),%rax        # ffffffff8011e440 <madt1>
ffffffff80101dfe:	48 89 45 f8          	mov    %rax,-0x8(%rbp)
ffffffff80101e02:	eb 01                	jmp    ffffffff80101e05 <mask_GSI+0x39>
ffffffff80101e04:	90                   	nop
ffffffff80101e05:	48 c7 c7 48 e4 11 80 	mov    $0xffffffff8011e448,%rdi
ffffffff80101e0c:	e8 e4 c0 00 00       	callq  ffffffff8010def5 <spin_release>
ffffffff80101e11:	48 8b 45 f8          	mov    -0x8(%rbp),%rax
ffffffff80101e15:	48 89 45 f0          	mov    %rax,-0x10(%rbp)
ffffffff80101e19:	48 8b 55 f0          	mov    -0x10(%rbp),%rdx
ffffffff80101e1d:	8b 45 ec             	mov    -0x14(%rbp),%eax
ffffffff80101e20:	48 89 d6             	mov    %rdx,%rsi
ffffffff80101e23:	89 c7                	mov    %eax,%edi
ffffffff80101e25:	e8 3e ff ff ff       	callq  ffffffff80101d68 <read_redirection>
ffffffff80101e2a:	48 0d 00 00 01 00    	or     $0x10000,%rax
ffffffff80101e30:	48 89 c1             	mov    %rax,%rcx
ffffffff80101e33:	48 8b 55 f0          	mov    -0x10(%rbp),%rdx
ffffffff80101e37:	8b 45 ec             	mov    -0x14(%rbp),%eax
ffffffff80101e3a:	48 89 ce             	mov    %rcx,%rsi
ffffffff80101e3d:	89 c7                	mov    %eax,%edi
ffffffff80101e3f:	e8 b9 fe ff ff       	callq  ffffffff80101cfd <write_redirection>
ffffffff80101e44:	90                   	nop
ffffffff80101e45:	c9                   	leaveq 
ffffffff80101e46:	c3                   	retq   

ffffffff80101e47 <unmask_GSI>:
ffffffff80101e47:	55                   	push   %rbp
ffffffff80101e48:	48 89 e5             	mov    %rsp,%rbp
ffffffff80101e4b:	48 83 ec 20          	sub    $0x20,%rsp
ffffffff80101e4f:	89 7d ec             	mov    %edi,-0x14(%rbp)
ffffffff80101e52:	48 c7 45 f8 00 00 00 	movq   $0x0,-0x8(%rbp)
ffffffff80101e59:	00 
ffffffff80101e5a:	48 c7 c7 48 e4 11 80 	mov    $0xffffffff8011e448,%rdi
ffffffff80101e61:	e8 3a c0 00 00       	callq  ffffffff8010dea0 <spin_lock>
ffffffff80101e66:	48 8b 05 eb c5 01 00 	mov    0x1c5eb(%rip),%rax        # ffffffff8011e458 <madt1+0x18>
ffffffff80101e6d:	48 85 c0             	test   %rax,%rax
ffffffff80101e70:	74 0d                	je     ffffffff80101e7f <unmask_GSI+0x38>
ffffffff80101e72:	48 8b 05 c7 c5 01 00 	mov    0x1c5c7(%rip),%rax        # ffffffff8011e440 <madt1>
ffffffff80101e79:	48 89 45 f8          	mov    %rax,-0x8(%rbp)
ffffffff80101e7d:	eb 01                	jmp    ffffffff80101e80 <unmask_GSI+0x39>
ffffffff80101e7f:	90                   	nop
ffffffff80101e80:	48 c7 c7 48 e4 11 80 	mov    $0xffffffff8011e448,%rdi
ffffffff80101e87:	e8 69 c0 00 00       	callq  ffffffff8010def5 <spin_release>
ffffffff80101e8c:	48 8b 45 f8          	mov    -0x8(%rbp),%rax
ffffffff80101e90:	48 89 45 f0          	mov    %rax,-0x10(%rbp)
ffffffff80101e94:	8b 45 ec             	mov    -0x14(%rbp),%eax
ffffffff80101e97:	be 00 00 00 00       	mov    $0x0,%esi
ffffffff80101e9c:	89 c7                	mov    %eax,%edi
ffffffff80101e9e:	e8 c5 fe ff ff       	callq  ffffffff80101d68 <read_redirection>
ffffffff80101ea3:	25 00 00 01 00       	and    $0x10000,%eax
ffffffff80101ea8:	48 89 c1             	mov    %rax,%rcx
ffffffff80101eab:	48 8b 55 f0          	mov    -0x10(%rbp),%rdx
ffffffff80101eaf:	8b 45 ec             	mov    -0x14(%rbp),%eax
ffffffff80101eb2:	48 89 ce             	mov    %rcx,%rsi
ffffffff80101eb5:	89 c7                	mov    %eax,%edi
ffffffff80101eb7:	e8 41 fe ff ff       	callq  ffffffff80101cfd <write_redirection>
ffffffff80101ebc:	8b 45 ec             	mov    -0x14(%rbp),%eax
ffffffff80101ebf:	83 c0 20             	add    $0x20,%eax
ffffffff80101ec2:	89 c1                	mov    %eax,%ecx
ffffffff80101ec4:	48 8b 55 f0          	mov    -0x10(%rbp),%rdx
ffffffff80101ec8:	8b 45 ec             	mov    -0x14(%rbp),%eax
ffffffff80101ecb:	48 89 ce             	mov    %rcx,%rsi
ffffffff80101ece:	89 c7                	mov    %eax,%edi
ffffffff80101ed0:	e8 28 fe ff ff       	callq  ffffffff80101cfd <write_redirection>
ffffffff80101ed5:	90                   	nop
ffffffff80101ed6:	c9                   	leaveq 
ffffffff80101ed7:	c3                   	retq   

ffffffff80101ed8 <get_max_GSI>:
ffffffff80101ed8:	55                   	push   %rbp
ffffffff80101ed9:	48 89 e5             	mov    %rsp,%rbp
ffffffff80101edc:	48 83 ec 18          	sub    $0x18,%rsp
ffffffff80101ee0:	48 89 7d e8          	mov    %rdi,-0x18(%rbp)
ffffffff80101ee4:	48 8b 45 e8          	mov    -0x18(%rbp),%rax
ffffffff80101ee8:	be 01 00 00 00       	mov    $0x1,%esi
ffffffff80101eed:	48 89 c7             	mov    %rax,%rdi
ffffffff80101ef0:	e8 84 fd ff ff       	callq  ffffffff80101c79 <ioapic_read>
ffffffff80101ef5:	c1 e8 10             	shr    $0x10,%eax
ffffffff80101ef8:	89 45 fc             	mov    %eax,-0x4(%rbp)
ffffffff80101efb:	8b 45 fc             	mov    -0x4(%rbp),%eax
ffffffff80101efe:	24 7f                	and    $0x7f,%al
ffffffff80101f00:	c9                   	leaveq 
ffffffff80101f01:	c3                   	retq   

ffffffff80101f02 <lapic_timer_init>:
ffffffff80101f02:	55                   	push   %rbp
ffffffff80101f03:	48 89 e5             	mov    %rsp,%rbp
ffffffff80101f06:	48 83 ec 20          	sub    $0x20,%rsp
ffffffff80101f0a:	48 89 7d e8          	mov    %rdi,-0x18(%rbp)
ffffffff80101f0e:	be 03 00 00 00       	mov    $0x3,%esi
ffffffff80101f13:	bf e0 03 00 00       	mov    $0x3e0,%edi
ffffffff80101f18:	e8 eb fc ff ff       	callq  ffffffff80101c08 <lapic_write>
ffffffff80101f1d:	be ff ff ff ff       	mov    $0xffffffff,%esi
ffffffff80101f22:	bf 80 03 00 00       	mov    $0x380,%edi
ffffffff80101f27:	e8 dc fc ff ff       	callq  ffffffff80101c08 <lapic_write>
ffffffff80101f2c:	48 8b 45 e8          	mov    -0x18(%rbp),%rax
ffffffff80101f30:	48 89 c7             	mov    %rax,%rdi
ffffffff80101f33:	e8 f0 45 00 00       	callq  ffffffff80106528 <ksleep>
ffffffff80101f38:	bf 90 03 00 00       	mov    $0x390,%edi
ffffffff80101f3d:	e8 94 fc ff ff       	callq  ffffffff80101bd6 <lapic_read>
ffffffff80101f42:	f7 d0                	not    %eax
ffffffff80101f44:	89 45 fc             	mov    %eax,-0x4(%rbp)
ffffffff80101f47:	be 20 00 02 00       	mov    $0x20020,%esi
ffffffff80101f4c:	bf 20 03 00 00       	mov    $0x320,%edi
ffffffff80101f51:	e8 b2 fc ff ff       	callq  ffffffff80101c08 <lapic_write>
ffffffff80101f56:	be 03 00 00 00       	mov    $0x3,%esi
ffffffff80101f5b:	bf e0 03 00 00       	mov    $0x3e0,%edi
ffffffff80101f60:	e8 a3 fc ff ff       	callq  ffffffff80101c08 <lapic_write>
ffffffff80101f65:	8b 45 fc             	mov    -0x4(%rbp),%eax
ffffffff80101f68:	89 c6                	mov    %eax,%esi
ffffffff80101f6a:	bf 80 03 00 00       	mov    $0x380,%edi
ffffffff80101f6f:	e8 94 fc ff ff       	callq  ffffffff80101c08 <lapic_write>
ffffffff80101f74:	90                   	nop
ffffffff80101f75:	c9                   	leaveq 
ffffffff80101f76:	c3                   	retq   

ffffffff80101f77 <apic_init>:
ffffffff80101f77:	55                   	push   %rbp
ffffffff80101f78:	48 89 e5             	mov    %rsp,%rbp
ffffffff80101f7b:	48 83 ec 40          	sub    $0x40,%rsp
ffffffff80101f7f:	be 11 00 00 00       	mov    $0x11,%esi
ffffffff80101f84:	bf 20 00 00 00       	mov    $0x20,%edi
ffffffff80101f89:	e8 fe 01 00 00       	callq  ffffffff8010218c <outb>
ffffffff80101f8e:	be 11 00 00 00       	mov    $0x11,%esi
ffffffff80101f93:	bf a0 00 00 00       	mov    $0xa0,%edi
ffffffff80101f98:	e8 ef 01 00 00       	callq  ffffffff8010218c <outb>
ffffffff80101f9d:	be 20 00 00 00       	mov    $0x20,%esi
ffffffff80101fa2:	bf 21 00 00 00       	mov    $0x21,%edi
ffffffff80101fa7:	e8 e0 01 00 00       	callq  ffffffff8010218c <outb>
ffffffff80101fac:	be 28 00 00 00       	mov    $0x28,%esi
ffffffff80101fb1:	bf a1 00 00 00       	mov    $0xa1,%edi
ffffffff80101fb6:	e8 d1 01 00 00       	callq  ffffffff8010218c <outb>
ffffffff80101fbb:	be 04 00 00 00       	mov    $0x4,%esi
ffffffff80101fc0:	bf 21 00 00 00       	mov    $0x21,%edi
ffffffff80101fc5:	e8 c2 01 00 00       	callq  ffffffff8010218c <outb>
ffffffff80101fca:	be 02 00 00 00       	mov    $0x2,%esi
ffffffff80101fcf:	bf a1 00 00 00       	mov    $0xa1,%edi
ffffffff80101fd4:	e8 b3 01 00 00       	callq  ffffffff8010218c <outb>
ffffffff80101fd9:	be 01 00 00 00       	mov    $0x1,%esi
ffffffff80101fde:	bf 21 00 00 00       	mov    $0x21,%edi
ffffffff80101fe3:	e8 a4 01 00 00       	callq  ffffffff8010218c <outb>
ffffffff80101fe8:	be 01 00 00 00       	mov    $0x1,%esi
ffffffff80101fed:	bf a1 00 00 00       	mov    $0xa1,%edi
ffffffff80101ff2:	e8 95 01 00 00       	callq  ffffffff8010218c <outb>
ffffffff80101ff7:	be 00 00 00 00       	mov    $0x0,%esi
ffffffff80101ffc:	bf 21 00 00 00       	mov    $0x21,%edi
ffffffff80102001:	e8 86 01 00 00       	callq  ffffffff8010218c <outb>
ffffffff80102006:	be 00 00 00 00       	mov    $0x0,%esi
ffffffff8010200b:	bf a1 00 00 00       	mov    $0xa1,%edi
ffffffff80102010:	e8 77 01 00 00       	callq  ffffffff8010218c <outb>
ffffffff80102015:	be ff 00 00 00       	mov    $0xff,%esi
ffffffff8010201a:	bf a1 00 00 00       	mov    $0xa1,%edi
ffffffff8010201f:	e8 68 01 00 00       	callq  ffffffff8010218c <outb>
ffffffff80102024:	be ff 00 00 00       	mov    $0xff,%esi
ffffffff80102029:	bf 21 00 00 00       	mov    $0x21,%edi
ffffffff8010202e:	e8 59 01 00 00       	callq  ffffffff8010218c <outb>
ffffffff80102033:	c6 45 ff 00          	movb   $0x0,-0x1(%rbp)
ffffffff80102037:	e9 97 00 00 00       	jmpq   ffffffff801020d3 <apic_init+0x15c>
ffffffff8010203c:	48 c7 45 f0 00 00 00 	movq   $0x0,-0x10(%rbp)
ffffffff80102043:	00 
ffffffff80102044:	48 c7 c7 48 e4 11 80 	mov    $0xffffffff8011e448,%rdi
ffffffff8010204b:	e8 50 be 00 00       	callq  ffffffff8010dea0 <spin_lock>
ffffffff80102050:	48 8b 15 01 c4 01 00 	mov    0x1c401(%rip),%rdx        # ffffffff8011e458 <madt1+0x18>
ffffffff80102057:	0f b6 45 ff          	movzbl -0x1(%rbp),%eax
ffffffff8010205b:	48 39 c2             	cmp    %rax,%rdx
ffffffff8010205e:	76 21                	jbe    ffffffff80102081 <apic_init+0x10a>
ffffffff80102060:	48 8b 0d d9 c3 01 00 	mov    0x1c3d9(%rip),%rcx        # ffffffff8011e440 <madt1>
ffffffff80102067:	0f b6 55 ff          	movzbl -0x1(%rbp),%edx
ffffffff8010206b:	48 89 d0             	mov    %rdx,%rax
ffffffff8010206e:	48 c1 e0 02          	shl    $0x2,%rax
ffffffff80102072:	48 01 d0             	add    %rdx,%rax
ffffffff80102075:	48 01 c0             	add    %rax,%rax
ffffffff80102078:	48 01 c8             	add    %rcx,%rax
ffffffff8010207b:	48 89 45 f0          	mov    %rax,-0x10(%rbp)
ffffffff8010207f:	eb 01                	jmp    ffffffff80102082 <apic_init+0x10b>
ffffffff80102081:	90                   	nop
ffffffff80102082:	48 c7 c7 48 e4 11 80 	mov    $0xffffffff8011e448,%rdi
ffffffff80102089:	e8 67 be 00 00       	callq  ffffffff8010def5 <spin_release>
ffffffff8010208e:	48 8b 45 f0          	mov    -0x10(%rbp),%rax
ffffffff80102092:	48 8b 10             	mov    (%rax),%rdx
ffffffff80102095:	48 89 55 c6          	mov    %rdx,-0x3a(%rbp)
ffffffff80102099:	0f b7 40 08          	movzwl 0x8(%rax),%eax
ffffffff8010209d:	66 89 45 ce          	mov    %ax,-0x32(%rbp)
ffffffff801020a1:	8b 45 cc             	mov    -0x34(%rbp),%eax
ffffffff801020a4:	89 45 ec             	mov    %eax,-0x14(%rbp)
ffffffff801020a7:	eb 0e                	jmp    ffffffff801020b7 <apic_init+0x140>
ffffffff801020a9:	8b 45 ec             	mov    -0x14(%rbp),%eax
ffffffff801020ac:	89 c7                	mov    %eax,%edi
ffffffff801020ae:	e8 19 fd ff ff       	callq  ffffffff80101dcc <mask_GSI>
ffffffff801020b3:	83 45 ec 01          	addl   $0x1,-0x14(%rbp)
ffffffff801020b7:	8b 45 c8             	mov    -0x38(%rbp),%eax
ffffffff801020ba:	89 c0                	mov    %eax,%eax
ffffffff801020bc:	48 89 c7             	mov    %rax,%rdi
ffffffff801020bf:	e8 14 fe ff ff       	callq  ffffffff80101ed8 <get_max_GSI>
ffffffff801020c4:	39 45 ec             	cmp    %eax,-0x14(%rbp)
ffffffff801020c7:	72 e0                	jb     ffffffff801020a9 <apic_init+0x132>
ffffffff801020c9:	0f b6 45 ff          	movzbl -0x1(%rbp),%eax
ffffffff801020cd:	83 c0 01             	add    $0x1,%eax
ffffffff801020d0:	88 45 ff             	mov    %al,-0x1(%rbp)
ffffffff801020d3:	0f b6 55 ff          	movzbl -0x1(%rbp),%edx
ffffffff801020d7:	48 8b 05 7a c3 01 00 	mov    0x1c37a(%rip),%rax        # ffffffff8011e458 <madt1+0x18>
ffffffff801020de:	48 39 c2             	cmp    %rax,%rdx
ffffffff801020e1:	0f 82 55 ff ff ff    	jb     ffffffff8010203c <apic_init+0xc5>
ffffffff801020e7:	48 c7 45 e0 00 00 00 	movq   $0x0,-0x20(%rbp)
ffffffff801020ee:	00 
ffffffff801020ef:	48 c7 c7 48 e4 11 80 	mov    $0xffffffff8011e448,%rdi
ffffffff801020f6:	e8 a5 bd 00 00       	callq  ffffffff8010dea0 <spin_lock>
ffffffff801020fb:	48 8b 05 56 c3 01 00 	mov    0x1c356(%rip),%rax        # ffffffff8011e458 <madt1+0x18>
ffffffff80102102:	48 85 c0             	test   %rax,%rax
ffffffff80102105:	74 0d                	je     ffffffff80102114 <apic_init+0x19d>
ffffffff80102107:	48 8b 05 32 c3 01 00 	mov    0x1c332(%rip),%rax        # ffffffff8011e440 <madt1>
ffffffff8010210e:	48 89 45 e0          	mov    %rax,-0x20(%rbp)
ffffffff80102112:	eb 01                	jmp    ffffffff80102115 <apic_init+0x19e>
ffffffff80102114:	90                   	nop
ffffffff80102115:	48 c7 c7 48 e4 11 80 	mov    $0xffffffff8011e448,%rdi
ffffffff8010211c:	e8 d4 bd 00 00       	callq  ffffffff8010def5 <spin_release>
ffffffff80102121:	48 8b 45 e0          	mov    -0x20(%rbp),%rax
ffffffff80102125:	48 89 45 d0          	mov    %rax,-0x30(%rbp)
ffffffff80102129:	c6 45 df 00          	movb   $0x0,-0x21(%rbp)
ffffffff8010212d:	eb 26                	jmp    ffffffff80102155 <apic_init+0x1de>
ffffffff8010212f:	0f b6 45 df          	movzbl -0x21(%rbp),%eax
ffffffff80102133:	83 c0 20             	add    $0x20,%eax
ffffffff80102136:	48 63 c8             	movslq %eax,%rcx
ffffffff80102139:	0f b6 45 df          	movzbl -0x21(%rbp),%eax
ffffffff8010213d:	48 8b 55 d0          	mov    -0x30(%rbp),%rdx
ffffffff80102141:	48 89 ce             	mov    %rcx,%rsi
ffffffff80102144:	89 c7                	mov    %eax,%edi
ffffffff80102146:	e8 b2 fb ff ff       	callq  ffffffff80101cfd <write_redirection>
ffffffff8010214b:	0f b6 45 df          	movzbl -0x21(%rbp),%eax
ffffffff8010214f:	83 c0 01             	add    $0x1,%eax
ffffffff80102152:	88 45 df             	mov    %al,-0x21(%rbp)
ffffffff80102155:	80 7d df 0f          	cmpb   $0xf,-0x21(%rbp)
ffffffff80102159:	76 d4                	jbe    ffffffff8010212f <apic_init+0x1b8>
ffffffff8010215b:	bf 02 00 00 00       	mov    $0x2,%edi
ffffffff80102160:	e8 67 fc ff ff       	callq  ffffffff80101dcc <mask_GSI>
ffffffff80102165:	bf f0 00 00 00       	mov    $0xf0,%edi
ffffffff8010216a:	e8 67 fa ff ff       	callq  ffffffff80101bd6 <lapic_read>
ffffffff8010216f:	0d ff 01 00 00       	or     $0x1ff,%eax
ffffffff80102174:	89 c6                	mov    %eax,%esi
ffffffff80102176:	bf f0 00 00 00       	mov    $0xf0,%edi
ffffffff8010217b:	e8 88 fa ff ff       	callq  ffffffff80101c08 <lapic_write>
ffffffff80102180:	b8 00 00 00 00       	mov    $0x0,%eax
ffffffff80102185:	44 0f 22 c0          	mov    %rax,%cr8
ffffffff80102189:	90                   	nop
ffffffff8010218a:	c9                   	leaveq 
ffffffff8010218b:	c3                   	retq   

ffffffff8010218c <outb>:
ffffffff8010218c:	55                   	push   %rbp
ffffffff8010218d:	48 89 e5             	mov    %rsp,%rbp
ffffffff80102190:	48 83 ec 08          	sub    $0x8,%rsp
ffffffff80102194:	89 f8                	mov    %edi,%eax
ffffffff80102196:	89 f2                	mov    %esi,%edx
ffffffff80102198:	66 89 45 fc          	mov    %ax,-0x4(%rbp)
ffffffff8010219c:	89 d0                	mov    %edx,%eax
ffffffff8010219e:	88 45 f8             	mov    %al,-0x8(%rbp)
ffffffff801021a1:	0f b6 45 f8          	movzbl -0x8(%rbp),%eax
ffffffff801021a5:	0f b7 55 fc          	movzwl -0x4(%rbp),%edx
ffffffff801021a9:	ee                   	out    %al,(%dx)
ffffffff801021aa:	90                   	nop
ffffffff801021ab:	c9                   	leaveq 
ffffffff801021ac:	c3                   	retq   

ffffffff801021ad <outw>:
ffffffff801021ad:	55                   	push   %rbp
ffffffff801021ae:	48 89 e5             	mov    %rsp,%rbp
ffffffff801021b1:	48 83 ec 08          	sub    $0x8,%rsp
ffffffff801021b5:	89 fa                	mov    %edi,%edx
ffffffff801021b7:	89 f0                	mov    %esi,%eax
ffffffff801021b9:	66 89 55 fc          	mov    %dx,-0x4(%rbp)
ffffffff801021bd:	66 89 45 f8          	mov    %ax,-0x8(%rbp)
ffffffff801021c1:	0f b7 45 f8          	movzwl -0x8(%rbp),%eax
ffffffff801021c5:	0f b7 55 fc          	movzwl -0x4(%rbp),%edx
ffffffff801021c9:	66 ef                	out    %ax,(%dx)
ffffffff801021cb:	90                   	nop
ffffffff801021cc:	c9                   	leaveq 
ffffffff801021cd:	c3                   	retq   

ffffffff801021ce <outd>:
ffffffff801021ce:	55                   	push   %rbp
ffffffff801021cf:	48 89 e5             	mov    %rsp,%rbp
ffffffff801021d2:	48 83 ec 08          	sub    $0x8,%rsp
ffffffff801021d6:	89 f8                	mov    %edi,%eax
ffffffff801021d8:	89 75 f8             	mov    %esi,-0x8(%rbp)
ffffffff801021db:	66 89 45 fc          	mov    %ax,-0x4(%rbp)
ffffffff801021df:	8b 45 f8             	mov    -0x8(%rbp),%eax
ffffffff801021e2:	0f b7 55 fc          	movzwl -0x4(%rbp),%edx
ffffffff801021e6:	ef                   	out    %eax,(%dx)
ffffffff801021e7:	90                   	nop
ffffffff801021e8:	c9                   	leaveq 
ffffffff801021e9:	c3                   	retq   

ffffffff801021ea <inb>:
ffffffff801021ea:	55                   	push   %rbp
ffffffff801021eb:	48 89 e5             	mov    %rsp,%rbp
ffffffff801021ee:	48 83 ec 18          	sub    $0x18,%rsp
ffffffff801021f2:	89 f8                	mov    %edi,%eax
ffffffff801021f4:	66 89 45 ec          	mov    %ax,-0x14(%rbp)
ffffffff801021f8:	0f b7 45 ec          	movzwl -0x14(%rbp),%eax
ffffffff801021fc:	89 c2                	mov    %eax,%edx
ffffffff801021fe:	ec                   	in     (%dx),%al
ffffffff801021ff:	88 45 ff             	mov    %al,-0x1(%rbp)
ffffffff80102202:	0f b6 45 ff          	movzbl -0x1(%rbp),%eax
ffffffff80102206:	c9                   	leaveq 
ffffffff80102207:	c3                   	retq   

ffffffff80102208 <inw>:
ffffffff80102208:	55                   	push   %rbp
ffffffff80102209:	48 89 e5             	mov    %rsp,%rbp
ffffffff8010220c:	48 83 ec 18          	sub    $0x18,%rsp
ffffffff80102210:	89 f8                	mov    %edi,%eax
ffffffff80102212:	66 89 45 ec          	mov    %ax,-0x14(%rbp)
ffffffff80102216:	0f b7 45 ec          	movzwl -0x14(%rbp),%eax
ffffffff8010221a:	89 c2                	mov    %eax,%edx
ffffffff8010221c:	66 ed                	in     (%dx),%ax
ffffffff8010221e:	66 89 45 fe          	mov    %ax,-0x2(%rbp)
ffffffff80102222:	0f b7 45 fe          	movzwl -0x2(%rbp),%eax
ffffffff80102226:	c9                   	leaveq 
ffffffff80102227:	c3                   	retq   

ffffffff80102228 <ind>:
ffffffff80102228:	55                   	push   %rbp
ffffffff80102229:	48 89 e5             	mov    %rsp,%rbp
ffffffff8010222c:	48 83 ec 18          	sub    $0x18,%rsp
ffffffff80102230:	89 f8                	mov    %edi,%eax
ffffffff80102232:	66 89 45 ec          	mov    %ax,-0x14(%rbp)
ffffffff80102236:	0f b7 45 ec          	movzwl -0x14(%rbp),%eax
ffffffff8010223a:	89 c2                	mov    %eax,%edx
ffffffff8010223c:	ed                   	in     (%dx),%eax
ffffffff8010223d:	89 45 fc             	mov    %eax,-0x4(%rbp)
ffffffff80102240:	8b 45 fc             	mov    -0x4(%rbp),%eax
ffffffff80102243:	c9                   	leaveq 
ffffffff80102244:	c3                   	retq   

ffffffff80102245 <rdmsr>:
ffffffff80102245:	55                   	push   %rbp
ffffffff80102246:	48 89 e5             	mov    %rsp,%rbp
ffffffff80102249:	48 83 ec 18          	sub    $0x18,%rsp
ffffffff8010224d:	48 89 7d e8          	mov    %rdi,-0x18(%rbp)
ffffffff80102251:	48 8b 45 e8          	mov    -0x18(%rbp),%rax
ffffffff80102255:	48 89 c1             	mov    %rax,%rcx
ffffffff80102258:	0f 32                	rdmsr  
ffffffff8010225a:	48 89 45 f8          	mov    %rax,-0x8(%rbp)
ffffffff8010225e:	48 89 55 f0          	mov    %rdx,-0x10(%rbp)
ffffffff80102262:	48 8b 45 f0          	mov    -0x10(%rbp),%rax
ffffffff80102266:	48 c1 e0 20          	shl    $0x20,%rax
ffffffff8010226a:	48 0b 45 f8          	or     -0x8(%rbp),%rax
ffffffff8010226e:	c9                   	leaveq 
ffffffff8010226f:	c3                   	retq   

ffffffff80102270 <wrmsr>:
ffffffff80102270:	55                   	push   %rbp
ffffffff80102271:	48 89 e5             	mov    %rsp,%rbp
ffffffff80102274:	48 83 ec 20          	sub    $0x20,%rsp
ffffffff80102278:	48 89 7d e8          	mov    %rdi,-0x18(%rbp)
ffffffff8010227c:	48 89 75 e0          	mov    %rsi,-0x20(%rbp)
ffffffff80102280:	48 8b 45 e0          	mov    -0x20(%rbp),%rax
ffffffff80102284:	89 c0                	mov    %eax,%eax
ffffffff80102286:	48 89 45 f8          	mov    %rax,-0x8(%rbp)
ffffffff8010228a:	48 8b 45 e0          	mov    -0x20(%rbp),%rax
ffffffff8010228e:	48 c1 e8 20          	shr    $0x20,%rax
ffffffff80102292:	48 89 45 f0          	mov    %rax,-0x10(%rbp)
ffffffff80102296:	48 8b 45 f8          	mov    -0x8(%rbp),%rax
ffffffff8010229a:	48 8b 55 f0          	mov    -0x10(%rbp),%rdx
ffffffff8010229e:	48 8b 4d e8          	mov    -0x18(%rbp),%rcx
ffffffff801022a2:	0f 30                	wrmsr  
ffffffff801022a4:	90                   	nop
ffffffff801022a5:	c9                   	leaveq 
ffffffff801022a6:	c3                   	retq   

ffffffff801022a7 <bitmap_init>:
ffffffff801022a7:	55                   	push   %rbp
ffffffff801022a8:	48 89 e5             	mov    %rsp,%rbp
ffffffff801022ab:	bf 00 10 00 00       	mov    $0x1000,%edi
ffffffff801022b0:	e8 c1 9d 00 00       	callq  ffffffff8010c076 <pmm_alloc>
ffffffff801022b5:	48 89 05 64 2d 01 00 	mov    %rax,0x12d64(%rip)        # ffffffff80115020 <start>
ffffffff801022bc:	bf 00 00 01 00       	mov    $0x10000,%edi
ffffffff801022c1:	e8 b0 9d 00 00       	callq  ffffffff8010c076 <pmm_alloc>
ffffffff801022c6:	48 ba 00 00 00 00 00 	movabs $0xffff800000000000,%rdx
ffffffff801022cd:	80 ff ff 
ffffffff801022d0:	48 01 d0             	add    %rdx,%rax
ffffffff801022d3:	48 89 05 36 2d 01 00 	mov    %rax,0x12d36(%rip)        # ffffffff80115010 <bitmap>
ffffffff801022da:	48 c7 05 43 2d 01 00 	movq   $0x10000,0x12d43(%rip)        # ffffffff80115028 <bitmap_size>
ffffffff801022e1:	00 00 01 00 
ffffffff801022e5:	bf 20 00 00 00       	mov    $0x20,%edi
ffffffff801022ea:	e8 87 9d 00 00       	callq  ffffffff8010c076 <pmm_alloc>
ffffffff801022ef:	48 ba 00 00 00 00 00 	movabs $0xffff800000000000,%rdx
ffffffff801022f6:	80 ff ff 
ffffffff801022f9:	48 01 d0             	add    %rdx,%rax
ffffffff801022fc:	48 89 05 15 2d 01 00 	mov    %rax,0x12d15(%rip)        # ffffffff80115018 <allocs>
ffffffff80102303:	48 c7 05 22 2d 01 00 	movq   $0x20000,0x12d22(%rip)        # ffffffff80115030 <allocation_size>
ffffffff8010230a:	00 00 02 00 
ffffffff8010230e:	48 8b 15 13 2d 01 00 	mov    0x12d13(%rip),%rdx        # ffffffff80115028 <bitmap_size>
ffffffff80102315:	48 8b 05 f4 2c 01 00 	mov    0x12cf4(%rip),%rax        # ffffffff80115010 <bitmap>
ffffffff8010231c:	be 00 00 00 00       	mov    $0x0,%esi
ffffffff80102321:	48 89 c7             	mov    %rax,%rdi
ffffffff80102324:	e8 06 88 00 00       	callq  ffffffff8010ab2f <memset8>
ffffffff80102329:	48 8b 15 00 2d 01 00 	mov    0x12d00(%rip),%rdx        # ffffffff80115030 <allocation_size>
ffffffff80102330:	48 8b 05 e1 2c 01 00 	mov    0x12ce1(%rip),%rax        # ffffffff80115018 <allocs>
ffffffff80102337:	be 00 00 00 00       	mov    $0x0,%esi
ffffffff8010233c:	48 89 c7             	mov    %rax,%rdi
ffffffff8010233f:	e8 eb 87 00 00       	callq  ffffffff8010ab2f <memset8>
ffffffff80102344:	90                   	nop
ffffffff80102345:	5d                   	pop    %rbp
ffffffff80102346:	c3                   	retq   

ffffffff80102347 <kmalloc>:
ffffffff80102347:	55                   	push   %rbp
ffffffff80102348:	48 89 e5             	mov    %rsp,%rbp
ffffffff8010234b:	48 83 ec 40          	sub    $0x40,%rsp
ffffffff8010234f:	48 89 7d c8          	mov    %rdi,-0x38(%rbp)
ffffffff80102353:	c7 45 fc 00 00 00 00 	movl   $0x0,-0x4(%rbp)
ffffffff8010235a:	48 8b 45 c8          	mov    -0x38(%rbp),%rax
ffffffff8010235e:	48 83 c0 1f          	add    $0x1f,%rax
ffffffff80102362:	48 c1 e8 05          	shr    $0x5,%rax
ffffffff80102366:	89 45 dc             	mov    %eax,-0x24(%rbp)
ffffffff80102369:	b8 00 00 00 00       	mov    $0x0,%eax
ffffffff8010236e:	e8 83 03 00 00       	callq  ffffffff801026f6 <first_free>
ffffffff80102373:	48 c1 e0 05          	shl    $0x5,%rax
ffffffff80102377:	48 89 45 f0          	mov    %rax,-0x10(%rbp)
ffffffff8010237b:	b8 00 00 00 00       	mov    $0x0,%eax
ffffffff80102380:	e8 71 03 00 00       	callq  ffffffff801026f6 <first_free>
ffffffff80102385:	48 89 45 e8          	mov    %rax,-0x18(%rbp)
ffffffff80102389:	e9 35 01 00 00       	jmpq   ffffffff801024c3 <kmalloc+0x17c>
ffffffff8010238e:	48 8b 15 7b 2c 01 00 	mov    0x12c7b(%rip),%rdx        # ffffffff80115010 <bitmap>
ffffffff80102395:	48 8b 45 e8          	mov    -0x18(%rbp),%rax
ffffffff80102399:	48 c1 e8 03          	shr    $0x3,%rax
ffffffff8010239d:	48 01 d0             	add    %rdx,%rax
ffffffff801023a0:	0f b6 00             	movzbl (%rax),%eax
ffffffff801023a3:	0f b6 d0             	movzbl %al,%edx
ffffffff801023a6:	48 8b 45 e8          	mov    -0x18(%rbp),%rax
ffffffff801023aa:	83 e0 07             	and    $0x7,%eax
ffffffff801023ad:	89 c1                	mov    %eax,%ecx
ffffffff801023af:	d3 fa                	sar    %cl,%edx
ffffffff801023b1:	89 d0                	mov    %edx,%eax
ffffffff801023b3:	83 e0 01             	and    $0x1,%eax
ffffffff801023b6:	85 c0                	test   %eax,%eax
ffffffff801023b8:	74 22                	je     ffffffff801023dc <kmalloc+0x95>
ffffffff801023ba:	8b 45 fc             	mov    -0x4(%rbp),%eax
ffffffff801023bd:	83 c0 01             	add    $0x1,%eax
ffffffff801023c0:	c1 e0 05             	shl    $0x5,%eax
ffffffff801023c3:	89 c2                	mov    %eax,%edx
ffffffff801023c5:	48 8b 45 f0          	mov    -0x10(%rbp),%rax
ffffffff801023c9:	48 01 d0             	add    %rdx,%rax
ffffffff801023cc:	48 89 45 f0          	mov    %rax,-0x10(%rbp)
ffffffff801023d0:	c7 45 fc 00 00 00 00 	movl   $0x0,-0x4(%rbp)
ffffffff801023d7:	e9 e2 00 00 00       	jmpq   ffffffff801024be <kmalloc+0x177>
ffffffff801023dc:	83 45 fc 01          	addl   $0x1,-0x4(%rbp)
ffffffff801023e0:	8b 45 fc             	mov    -0x4(%rbp),%eax
ffffffff801023e3:	3b 45 dc             	cmp    -0x24(%rbp),%eax
ffffffff801023e6:	0f 85 d2 00 00 00    	jne    ffffffff801024be <kmalloc+0x177>
ffffffff801023ec:	b8 00 00 00 00       	mov    $0x0,%eax
ffffffff801023f1:	e8 5f 03 00 00       	callq  ffffffff80102755 <first_free_alloc>
ffffffff801023f6:	48 89 45 d0          	mov    %rax,-0x30(%rbp)
ffffffff801023fa:	48 8b 15 17 2c 01 00 	mov    0x12c17(%rip),%rdx        # ffffffff80115018 <allocs>
ffffffff80102401:	48 8b 45 d0          	mov    -0x30(%rbp),%rax
ffffffff80102405:	48 c1 e0 03          	shl    $0x3,%rax
ffffffff80102409:	48 01 d0             	add    %rdx,%rax
ffffffff8010240c:	48 8b 55 f0          	mov    -0x10(%rbp),%rdx
ffffffff80102410:	48 c1 ea 05          	shr    $0x5,%rdx
ffffffff80102414:	89 d1                	mov    %edx,%ecx
ffffffff80102416:	8b 55 dc             	mov    -0x24(%rbp),%edx
ffffffff80102419:	89 10                	mov    %edx,(%rax)
ffffffff8010241b:	89 48 04             	mov    %ecx,0x4(%rax)
ffffffff8010241e:	48 c7 45 e0 00 00 00 	movq   $0x0,-0x20(%rbp)
ffffffff80102425:	00 
ffffffff80102426:	eb 70                	jmp    ffffffff80102498 <kmalloc+0x151>
ffffffff80102428:	48 8b 15 e1 2b 01 00 	mov    0x12be1(%rip),%rdx        # ffffffff80115010 <bitmap>
ffffffff8010242f:	48 8b 45 f0          	mov    -0x10(%rbp),%rax
ffffffff80102433:	48 c1 e8 05          	shr    $0x5,%rax
ffffffff80102437:	48 89 c1             	mov    %rax,%rcx
ffffffff8010243a:	48 8b 45 e0          	mov    -0x20(%rbp),%rax
ffffffff8010243e:	48 01 c8             	add    %rcx,%rax
ffffffff80102441:	48 c1 e8 03          	shr    $0x3,%rax
ffffffff80102445:	48 01 d0             	add    %rdx,%rax
ffffffff80102448:	0f b6 00             	movzbl (%rax),%eax
ffffffff8010244b:	89 c6                	mov    %eax,%esi
ffffffff8010244d:	48 8b 45 f0          	mov    -0x10(%rbp),%rax
ffffffff80102451:	48 c1 e8 05          	shr    $0x5,%rax
ffffffff80102455:	89 c2                	mov    %eax,%edx
ffffffff80102457:	48 8b 45 e0          	mov    -0x20(%rbp),%rax
ffffffff8010245b:	01 d0                	add    %edx,%eax
ffffffff8010245d:	83 e0 07             	and    $0x7,%eax
ffffffff80102460:	ba 01 00 00 00       	mov    $0x1,%edx
ffffffff80102465:	89 c1                	mov    %eax,%ecx
ffffffff80102467:	d3 e2                	shl    %cl,%edx
ffffffff80102469:	89 d0                	mov    %edx,%eax
ffffffff8010246b:	09 c6                	or     %eax,%esi
ffffffff8010246d:	89 f1                	mov    %esi,%ecx
ffffffff8010246f:	48 8b 15 9a 2b 01 00 	mov    0x12b9a(%rip),%rdx        # ffffffff80115010 <bitmap>
ffffffff80102476:	48 8b 45 f0          	mov    -0x10(%rbp),%rax
ffffffff8010247a:	48 c1 e8 05          	shr    $0x5,%rax
ffffffff8010247e:	48 89 c6             	mov    %rax,%rsi
ffffffff80102481:	48 8b 45 e0          	mov    -0x20(%rbp),%rax
ffffffff80102485:	48 01 f0             	add    %rsi,%rax
ffffffff80102488:	48 c1 e8 03          	shr    $0x3,%rax
ffffffff8010248c:	48 01 d0             	add    %rdx,%rax
ffffffff8010248f:	89 ca                	mov    %ecx,%edx
ffffffff80102491:	88 10                	mov    %dl,(%rax)
ffffffff80102493:	48 83 45 e0 01       	addq   $0x1,-0x20(%rbp)
ffffffff80102498:	8b 45 dc             	mov    -0x24(%rbp),%eax
ffffffff8010249b:	48 39 45 e0          	cmp    %rax,-0x20(%rbp)
ffffffff8010249f:	7c 87                	jl     ffffffff80102428 <kmalloc+0xe1>
ffffffff801024a1:	48 8b 55 f0          	mov    -0x10(%rbp),%rdx
ffffffff801024a5:	48 8b 05 74 2b 01 00 	mov    0x12b74(%rip),%rax        # ffffffff80115020 <start>
ffffffff801024ac:	48 01 c2             	add    %rax,%rdx
ffffffff801024af:	48 b8 00 00 00 00 00 	movabs $0xffff800000000000,%rax
ffffffff801024b6:	80 ff ff 
ffffffff801024b9:	48 01 d0             	add    %rdx,%rax
ffffffff801024bc:	eb 33                	jmp    ffffffff801024f1 <kmalloc+0x1aa>
ffffffff801024be:	48 83 45 e8 01       	addq   $0x1,-0x18(%rbp)
ffffffff801024c3:	48 8b 05 5e 2b 01 00 	mov    0x12b5e(%rip),%rax        # ffffffff80115028 <bitmap_size>
ffffffff801024ca:	48 39 45 e8          	cmp    %rax,-0x18(%rbp)
ffffffff801024ce:	0f 82 ba fe ff ff    	jb     ffffffff8010238e <kmalloc+0x47>
ffffffff801024d4:	48 c7 c6 9d 01 11 80 	mov    $0xffffffff8011019d,%rsi
ffffffff801024db:	48 c7 c7 aa 01 11 80 	mov    $0xffffffff801101aa,%rdi
ffffffff801024e2:	b8 00 00 00 00       	mov    $0x0,%eax
ffffffff801024e7:	e8 c1 89 00 00       	callq  ffffffff8010aead <kprintf>
ffffffff801024ec:	b8 00 00 00 00       	mov    $0x0,%eax
ffffffff801024f1:	c9                   	leaveq 
ffffffff801024f2:	c3                   	retq   

ffffffff801024f3 <kfree>:
ffffffff801024f3:	55                   	push   %rbp
ffffffff801024f4:	48 89 e5             	mov    %rsp,%rbp
ffffffff801024f7:	48 83 ec 28          	sub    $0x28,%rsp
ffffffff801024fb:	48 89 7d d8          	mov    %rdi,-0x28(%rbp)
ffffffff801024ff:	48 8b 45 d8          	mov    -0x28(%rbp),%rax
ffffffff80102503:	48 8b 15 16 2b 01 00 	mov    0x12b16(%rip),%rdx        # ffffffff80115020 <start>
ffffffff8010250a:	48 29 d0             	sub    %rdx,%rax
ffffffff8010250d:	48 89 c1             	mov    %rax,%rcx
ffffffff80102510:	48 b8 00 00 00 00 00 	movabs $0x800000000000,%rax
ffffffff80102517:	80 00 00 
ffffffff8010251a:	48 01 c8             	add    %rcx,%rax
ffffffff8010251d:	48 c1 e8 05          	shr    $0x5,%rax
ffffffff80102521:	48 89 45 e8          	mov    %rax,-0x18(%rbp)
ffffffff80102525:	48 c7 45 e0 00 00 00 	movq   $0x0,-0x20(%rbp)
ffffffff8010252c:	00 
ffffffff8010252d:	48 c7 45 f8 00 00 00 	movq   $0x0,-0x8(%rbp)
ffffffff80102534:	00 
ffffffff80102535:	eb 22                	jmp    ffffffff80102559 <kfree+0x66>
ffffffff80102537:	48 8b 15 da 2a 01 00 	mov    0x12ada(%rip),%rdx        # ffffffff80115018 <allocs>
ffffffff8010253e:	48 8b 45 f8          	mov    -0x8(%rbp),%rax
ffffffff80102542:	48 c1 e0 03          	shl    $0x3,%rax
ffffffff80102546:	48 01 d0             	add    %rdx,%rax
ffffffff80102549:	8b 40 04             	mov    0x4(%rax),%eax
ffffffff8010254c:	89 c0                	mov    %eax,%eax
ffffffff8010254e:	48 39 45 e8          	cmp    %rax,-0x18(%rbp)
ffffffff80102552:	74 1c                	je     ffffffff80102570 <kfree+0x7d>
ffffffff80102554:	48 83 45 f8 01       	addq   $0x1,-0x8(%rbp)
ffffffff80102559:	48 8b 05 d0 2a 01 00 	mov    0x12ad0(%rip),%rax        # ffffffff80115030 <allocation_size>
ffffffff80102560:	48 39 45 f8          	cmp    %rax,-0x8(%rbp)
ffffffff80102564:	72 d1                	jb     ffffffff80102537 <kfree+0x44>
ffffffff80102566:	b8 00 00 00 00       	mov    $0x0,%eax
ffffffff8010256b:	e9 9d 00 00 00       	jmpq   ffffffff8010260d <kfree+0x11a>
ffffffff80102570:	90                   	nop
ffffffff80102571:	48 8b 15 a0 2a 01 00 	mov    0x12aa0(%rip),%rdx        # ffffffff80115018 <allocs>
ffffffff80102578:	48 8b 45 f8          	mov    -0x8(%rbp),%rax
ffffffff8010257c:	48 c1 e0 03          	shl    $0x3,%rax
ffffffff80102580:	48 01 d0             	add    %rdx,%rax
ffffffff80102583:	8b 00                	mov    (%rax),%eax
ffffffff80102585:	89 c0                	mov    %eax,%eax
ffffffff80102587:	48 89 45 e0          	mov    %rax,-0x20(%rbp)
ffffffff8010258b:	48 8b 45 e8          	mov    -0x18(%rbp),%rax
ffffffff8010258f:	48 89 45 f0          	mov    %rax,-0x10(%rbp)
ffffffff80102593:	eb 4a                	jmp    ffffffff801025df <kfree+0xec>
ffffffff80102595:	48 8b 15 74 2a 01 00 	mov    0x12a74(%rip),%rdx        # ffffffff80115010 <bitmap>
ffffffff8010259c:	48 8b 45 f0          	mov    -0x10(%rbp),%rax
ffffffff801025a0:	48 c1 e8 03          	shr    $0x3,%rax
ffffffff801025a4:	48 01 d0             	add    %rdx,%rax
ffffffff801025a7:	0f b6 00             	movzbl (%rax),%eax
ffffffff801025aa:	89 c6                	mov    %eax,%esi
ffffffff801025ac:	48 8b 45 f0          	mov    -0x10(%rbp),%rax
ffffffff801025b0:	83 e0 07             	and    $0x7,%eax
ffffffff801025b3:	ba 01 00 00 00       	mov    $0x1,%edx
ffffffff801025b8:	89 c1                	mov    %eax,%ecx
ffffffff801025ba:	d3 e2                	shl    %cl,%edx
ffffffff801025bc:	89 d0                	mov    %edx,%eax
ffffffff801025be:	f7 d0                	not    %eax
ffffffff801025c0:	21 c6                	and    %eax,%esi
ffffffff801025c2:	89 f1                	mov    %esi,%ecx
ffffffff801025c4:	48 8b 15 45 2a 01 00 	mov    0x12a45(%rip),%rdx        # ffffffff80115010 <bitmap>
ffffffff801025cb:	48 8b 45 f0          	mov    -0x10(%rbp),%rax
ffffffff801025cf:	48 c1 e8 03          	shr    $0x3,%rax
ffffffff801025d3:	48 01 d0             	add    %rdx,%rax
ffffffff801025d6:	89 ca                	mov    %ecx,%edx
ffffffff801025d8:	88 10                	mov    %dl,(%rax)
ffffffff801025da:	48 83 45 f0 01       	addq   $0x1,-0x10(%rbp)
ffffffff801025df:	48 8b 55 e8          	mov    -0x18(%rbp),%rdx
ffffffff801025e3:	48 8b 45 e0          	mov    -0x20(%rbp),%rax
ffffffff801025e7:	48 01 d0             	add    %rdx,%rax
ffffffff801025ea:	48 39 45 f0          	cmp    %rax,-0x10(%rbp)
ffffffff801025ee:	72 a5                	jb     ffffffff80102595 <kfree+0xa2>
ffffffff801025f0:	48 8b 15 21 2a 01 00 	mov    0x12a21(%rip),%rdx        # ffffffff80115018 <allocs>
ffffffff801025f7:	48 8b 45 f8          	mov    -0x8(%rbp),%rax
ffffffff801025fb:	48 c1 e0 03          	shl    $0x3,%rax
ffffffff801025ff:	48 01 d0             	add    %rdx,%rax
ffffffff80102602:	48 c7 00 00 00 00 00 	movq   $0x0,(%rax)
ffffffff80102609:	48 8b 45 e0          	mov    -0x20(%rbp),%rax
ffffffff8010260d:	c9                   	leaveq 
ffffffff8010260e:	c3                   	retq   

ffffffff8010260f <krealloc>:
ffffffff8010260f:	55                   	push   %rbp
ffffffff80102610:	48 89 e5             	mov    %rsp,%rbp
ffffffff80102613:	48 83 ec 20          	sub    $0x20,%rsp
ffffffff80102617:	48 89 7d e8          	mov    %rdi,-0x18(%rbp)
ffffffff8010261b:	48 89 75 e0          	mov    %rsi,-0x20(%rbp)
ffffffff8010261f:	48 8b 45 e8          	mov    -0x18(%rbp),%rax
ffffffff80102623:	48 89 c7             	mov    %rax,%rdi
ffffffff80102626:	e8 c8 fe ff ff       	callq  ffffffff801024f3 <kfree>
ffffffff8010262b:	48 89 45 f8          	mov    %rax,-0x8(%rbp)
ffffffff8010262f:	48 8b 45 e0          	mov    -0x20(%rbp),%rax
ffffffff80102633:	48 89 c7             	mov    %rax,%rdi
ffffffff80102636:	e8 0c fd ff ff       	callq  ffffffff80102347 <kmalloc>
ffffffff8010263b:	48 89 45 f0          	mov    %rax,-0x10(%rbp)
ffffffff8010263f:	48 8b 45 f8          	mov    -0x8(%rbp),%rax
ffffffff80102643:	48 c1 e0 05          	shl    $0x5,%rax
ffffffff80102647:	48 c1 e8 03          	shr    $0x3,%rax
ffffffff8010264b:	48 89 c2             	mov    %rax,%rdx
ffffffff8010264e:	48 8b 4d e8          	mov    -0x18(%rbp),%rcx
ffffffff80102652:	48 8b 45 f0          	mov    -0x10(%rbp),%rax
ffffffff80102656:	48 89 ce             	mov    %rcx,%rsi
ffffffff80102659:	48 89 c7             	mov    %rax,%rdi
ffffffff8010265c:	e8 d9 86 00 00       	callq  ffffffff8010ad3a <memcpy64>
ffffffff80102661:	48 8b 45 f0          	mov    -0x10(%rbp),%rax
ffffffff80102665:	c9                   	leaveq 
ffffffff80102666:	c3                   	retq   

ffffffff80102667 <krecalloc>:
ffffffff80102667:	55                   	push   %rbp
ffffffff80102668:	48 89 e5             	mov    %rsp,%rbp
ffffffff8010266b:	48 83 ec 20          	sub    $0x20,%rsp
ffffffff8010266f:	48 89 7d e8          	mov    %rdi,-0x18(%rbp)
ffffffff80102673:	48 89 75 e0          	mov    %rsi,-0x20(%rbp)
ffffffff80102677:	48 8b 45 e8          	mov    -0x18(%rbp),%rax
ffffffff8010267b:	48 89 c7             	mov    %rax,%rdi
ffffffff8010267e:	e8 70 fe ff ff       	callq  ffffffff801024f3 <kfree>
ffffffff80102683:	48 89 45 f8          	mov    %rax,-0x8(%rbp)
ffffffff80102687:	48 8b 45 e0          	mov    -0x20(%rbp),%rax
ffffffff8010268b:	48 89 c7             	mov    %rax,%rdi
ffffffff8010268e:	e8 2c 00 00 00       	callq  ffffffff801026bf <kcalloc>
ffffffff80102693:	48 89 45 f0          	mov    %rax,-0x10(%rbp)
ffffffff80102697:	48 8b 45 f8          	mov    -0x8(%rbp),%rax
ffffffff8010269b:	48 c1 e0 05          	shl    $0x5,%rax
ffffffff8010269f:	48 c1 e8 03          	shr    $0x3,%rax
ffffffff801026a3:	48 89 c2             	mov    %rax,%rdx
ffffffff801026a6:	48 8b 4d e8          	mov    -0x18(%rbp),%rcx
ffffffff801026aa:	48 8b 45 f0          	mov    -0x10(%rbp),%rax
ffffffff801026ae:	48 89 ce             	mov    %rcx,%rsi
ffffffff801026b1:	48 89 c7             	mov    %rax,%rdi
ffffffff801026b4:	e8 81 86 00 00       	callq  ffffffff8010ad3a <memcpy64>
ffffffff801026b9:	48 8b 45 f0          	mov    -0x10(%rbp),%rax
ffffffff801026bd:	c9                   	leaveq 
ffffffff801026be:	c3                   	retq   

ffffffff801026bf <kcalloc>:
ffffffff801026bf:	55                   	push   %rbp
ffffffff801026c0:	48 89 e5             	mov    %rsp,%rbp
ffffffff801026c3:	48 83 ec 20          	sub    $0x20,%rsp
ffffffff801026c7:	48 89 7d e8          	mov    %rdi,-0x18(%rbp)
ffffffff801026cb:	48 8b 45 e8          	mov    -0x18(%rbp),%rax
ffffffff801026cf:	48 89 c7             	mov    %rax,%rdi
ffffffff801026d2:	e8 70 fc ff ff       	callq  ffffffff80102347 <kmalloc>
ffffffff801026d7:	48 89 45 f8          	mov    %rax,-0x8(%rbp)
ffffffff801026db:	48 8b 55 e8          	mov    -0x18(%rbp),%rdx
ffffffff801026df:	48 8b 45 f8          	mov    -0x8(%rbp),%rax
ffffffff801026e3:	be 00 00 00 00       	mov    $0x0,%esi
ffffffff801026e8:	48 89 c7             	mov    %rax,%rdi
ffffffff801026eb:	e8 3f 84 00 00       	callq  ffffffff8010ab2f <memset8>
ffffffff801026f0:	48 8b 45 f8          	mov    -0x8(%rbp),%rax
ffffffff801026f4:	c9                   	leaveq 
ffffffff801026f5:	c3                   	retq   

ffffffff801026f6 <first_free>:
ffffffff801026f6:	55                   	push   %rbp
ffffffff801026f7:	48 89 e5             	mov    %rsp,%rbp
ffffffff801026fa:	48 83 ec 10          	sub    $0x10,%rsp
ffffffff801026fe:	48 c7 45 f8 00 00 00 	movq   $0x0,-0x8(%rbp)
ffffffff80102705:	00 
ffffffff80102706:	eb 37                	jmp    ffffffff8010273f <first_free+0x49>
ffffffff80102708:	48 8b 15 01 29 01 00 	mov    0x12901(%rip),%rdx        # ffffffff80115010 <bitmap>
ffffffff8010270f:	48 8b 45 f8          	mov    -0x8(%rbp),%rax
ffffffff80102713:	48 c1 e8 03          	shr    $0x3,%rax
ffffffff80102717:	48 01 d0             	add    %rdx,%rax
ffffffff8010271a:	0f b6 00             	movzbl (%rax),%eax
ffffffff8010271d:	0f b6 d0             	movzbl %al,%edx
ffffffff80102720:	48 8b 45 f8          	mov    -0x8(%rbp),%rax
ffffffff80102724:	83 e0 07             	and    $0x7,%eax
ffffffff80102727:	89 c1                	mov    %eax,%ecx
ffffffff80102729:	d3 fa                	sar    %cl,%edx
ffffffff8010272b:	89 d0                	mov    %edx,%eax
ffffffff8010272d:	83 e0 01             	and    $0x1,%eax
ffffffff80102730:	85 c0                	test   %eax,%eax
ffffffff80102732:	75 06                	jne    ffffffff8010273a <first_free+0x44>
ffffffff80102734:	48 8b 45 f8          	mov    -0x8(%rbp),%rax
ffffffff80102738:	eb 19                	jmp    ffffffff80102753 <first_free+0x5d>
ffffffff8010273a:	48 83 45 f8 01       	addq   $0x1,-0x8(%rbp)
ffffffff8010273f:	48 8b 05 e2 28 01 00 	mov    0x128e2(%rip),%rax        # ffffffff80115028 <bitmap_size>
ffffffff80102746:	48 39 45 f8          	cmp    %rax,-0x8(%rbp)
ffffffff8010274a:	72 bc                	jb     ffffffff80102708 <first_free+0x12>
ffffffff8010274c:	48 c7 c0 ff ff ff ff 	mov    $0xffffffffffffffff,%rax
ffffffff80102753:	c9                   	leaveq 
ffffffff80102754:	c3                   	retq   

ffffffff80102755 <first_free_alloc>:
ffffffff80102755:	55                   	push   %rbp
ffffffff80102756:	48 89 e5             	mov    %rsp,%rbp
ffffffff80102759:	48 83 ec 10          	sub    $0x10,%rsp
ffffffff8010275d:	48 c7 45 f8 00 00 00 	movq   $0x0,-0x8(%rbp)
ffffffff80102764:	00 
ffffffff80102765:	eb 23                	jmp    ffffffff8010278a <first_free_alloc+0x35>
ffffffff80102767:	48 8b 15 aa 28 01 00 	mov    0x128aa(%rip),%rdx        # ffffffff80115018 <allocs>
ffffffff8010276e:	48 8b 45 f8          	mov    -0x8(%rbp),%rax
ffffffff80102772:	48 c1 e0 03          	shl    $0x3,%rax
ffffffff80102776:	48 01 d0             	add    %rdx,%rax
ffffffff80102779:	8b 00                	mov    (%rax),%eax
ffffffff8010277b:	85 c0                	test   %eax,%eax
ffffffff8010277d:	75 06                	jne    ffffffff80102785 <first_free_alloc+0x30>
ffffffff8010277f:	48 8b 45 f8          	mov    -0x8(%rbp),%rax
ffffffff80102783:	eb 19                	jmp    ffffffff8010279e <first_free_alloc+0x49>
ffffffff80102785:	48 83 45 f8 01       	addq   $0x1,-0x8(%rbp)
ffffffff8010278a:	48 8b 05 9f 28 01 00 	mov    0x1289f(%rip),%rax        # ffffffff80115030 <allocation_size>
ffffffff80102791:	48 39 45 f8          	cmp    %rax,-0x8(%rbp)
ffffffff80102795:	72 d0                	jb     ffffffff80102767 <first_free_alloc+0x12>
ffffffff80102797:	48 c7 c0 ff ff ff ff 	mov    $0xffffffffffffffff,%rax
ffffffff8010279e:	c9                   	leaveq 
ffffffff8010279f:	c3                   	retq   

ffffffff801027a0 <bgd_find_block>:
ffffffff801027a0:	55                   	push   %rbp
ffffffff801027a1:	48 89 e5             	mov    %rsp,%rbp
ffffffff801027a4:	48 83 ec 50          	sub    $0x50,%rsp
ffffffff801027a8:	48 89 7d b8          	mov    %rdi,-0x48(%rbp)
ffffffff801027ac:	89 75 b4             	mov    %esi,-0x4c(%rbp)
ffffffff801027af:	48 8b 45 b8          	mov    -0x48(%rbp),%rax
ffffffff801027b3:	48 8b 40 18          	mov    0x18(%rax),%rax
ffffffff801027b7:	48 8b 00             	mov    (%rax),%rax
ffffffff801027ba:	48 8b 40 08          	mov    0x8(%rax),%rax
ffffffff801027be:	48 89 45 f0          	mov    %rax,-0x10(%rbp)
ffffffff801027c2:	48 8d 45 c8          	lea    -0x38(%rbp),%rax
ffffffff801027c6:	8b 55 b4             	mov    -0x4c(%rbp),%edx
ffffffff801027c9:	48 8b 4d b8          	mov    -0x48(%rbp),%rcx
ffffffff801027cd:	48 89 ce             	mov    %rcx,%rsi
ffffffff801027d0:	48 89 c7             	mov    %rax,%rdi
ffffffff801027d3:	e8 1e 03 00 00       	callq  ffffffff80102af6 <ext2_read_bgd>
ffffffff801027d8:	48 8b 45 f0          	mov    -0x10(%rbp),%rax
ffffffff801027dc:	48 8b 80 40 01 00 00 	mov    0x140(%rax),%rax
ffffffff801027e3:	48 89 c7             	mov    %rax,%rdi
ffffffff801027e6:	e8 d4 fe ff ff       	callq  ffffffff801026bf <kcalloc>
ffffffff801027eb:	48 89 45 e8          	mov    %rax,-0x18(%rbp)
ffffffff801027ef:	48 8b 45 f0          	mov    -0x10(%rbp),%rax
ffffffff801027f3:	48 8b 90 40 01 00 00 	mov    0x140(%rax),%rdx
ffffffff801027fa:	8b 45 c8             	mov    -0x38(%rbp),%eax
ffffffff801027fd:	89 c6                	mov    %eax,%esi
ffffffff801027ff:	48 8b 4d e8          	mov    -0x18(%rbp),%rcx
ffffffff80102803:	48 8b 45 b8          	mov    -0x48(%rbp),%rax
ffffffff80102807:	48 89 c7             	mov    %rax,%rdi
ffffffff8010280a:	e8 66 09 00 00       	callq  ffffffff80103175 <msd_raw_read>
ffffffff8010280f:	c7 45 fc 00 00 00 00 	movl   $0x0,-0x4(%rbp)
ffffffff80102816:	e9 bc 00 00 00       	jmpq   ffffffff801028d7 <bgd_find_block+0x137>
ffffffff8010281b:	8b 45 fc             	mov    -0x4(%rbp),%eax
ffffffff8010281e:	c1 e8 03             	shr    $0x3,%eax
ffffffff80102821:	89 c2                	mov    %eax,%edx
ffffffff80102823:	48 8b 45 e8          	mov    -0x18(%rbp),%rax
ffffffff80102827:	48 01 d0             	add    %rdx,%rax
ffffffff8010282a:	0f b6 00             	movzbl (%rax),%eax
ffffffff8010282d:	0f b6 d0             	movzbl %al,%edx
ffffffff80102830:	8b 45 fc             	mov    -0x4(%rbp),%eax
ffffffff80102833:	83 e0 07             	and    $0x7,%eax
ffffffff80102836:	89 c1                	mov    %eax,%ecx
ffffffff80102838:	d3 fa                	sar    %cl,%edx
ffffffff8010283a:	89 d0                	mov    %edx,%eax
ffffffff8010283c:	83 e0 01             	and    $0x1,%eax
ffffffff8010283f:	85 c0                	test   %eax,%eax
ffffffff80102841:	0f 85 8c 00 00 00    	jne    ffffffff801028d3 <bgd_find_block+0x133>
ffffffff80102847:	8b 45 fc             	mov    -0x4(%rbp),%eax
ffffffff8010284a:	c1 e8 03             	shr    $0x3,%eax
ffffffff8010284d:	89 c2                	mov    %eax,%edx
ffffffff8010284f:	48 8b 45 e8          	mov    -0x18(%rbp),%rax
ffffffff80102853:	48 01 d0             	add    %rdx,%rax
ffffffff80102856:	0f b6 00             	movzbl (%rax),%eax
ffffffff80102859:	89 c6                	mov    %eax,%esi
ffffffff8010285b:	8b 45 fc             	mov    -0x4(%rbp),%eax
ffffffff8010285e:	83 e0 07             	and    $0x7,%eax
ffffffff80102861:	ba 01 00 00 00       	mov    $0x1,%edx
ffffffff80102866:	89 c1                	mov    %eax,%ecx
ffffffff80102868:	d3 e2                	shl    %cl,%edx
ffffffff8010286a:	89 d0                	mov    %edx,%eax
ffffffff8010286c:	09 c6                	or     %eax,%esi
ffffffff8010286e:	89 f2                	mov    %esi,%edx
ffffffff80102870:	8b 45 fc             	mov    -0x4(%rbp),%eax
ffffffff80102873:	c1 e8 03             	shr    $0x3,%eax
ffffffff80102876:	89 c1                	mov    %eax,%ecx
ffffffff80102878:	48 8b 45 e8          	mov    -0x18(%rbp),%rax
ffffffff8010287c:	48 01 c8             	add    %rcx,%rax
ffffffff8010287f:	88 10                	mov    %dl,(%rax)
ffffffff80102881:	48 8b 45 f0          	mov    -0x10(%rbp),%rax
ffffffff80102885:	48 8b 90 40 01 00 00 	mov    0x140(%rax),%rdx
ffffffff8010288c:	8b 45 c8             	mov    -0x38(%rbp),%eax
ffffffff8010288f:	89 c6                	mov    %eax,%esi
ffffffff80102891:	48 8b 4d e8          	mov    -0x18(%rbp),%rcx
ffffffff80102895:	48 8b 45 b8          	mov    -0x48(%rbp),%rax
ffffffff80102899:	48 89 c7             	mov    %rax,%rdi
ffffffff8010289c:	e8 2a 09 00 00       	callq  ffffffff801031cb <msd_raw_write>
ffffffff801028a1:	0f b7 45 d4          	movzwl -0x2c(%rbp),%eax
ffffffff801028a5:	83 e8 01             	sub    $0x1,%eax
ffffffff801028a8:	66 89 45 d4          	mov    %ax,-0x2c(%rbp)
ffffffff801028ac:	8b 55 b4             	mov    -0x4c(%rbp),%edx
ffffffff801028af:	48 8d 4d c8          	lea    -0x38(%rbp),%rcx
ffffffff801028b3:	48 8b 45 b8          	mov    -0x48(%rbp),%rax
ffffffff801028b7:	48 89 ce             	mov    %rcx,%rsi
ffffffff801028ba:	48 89 c7             	mov    %rax,%rdi
ffffffff801028bd:	e8 fc 02 00 00       	callq  ffffffff80102bbe <ext2_write_bgd>
ffffffff801028c2:	48 8b 45 e8          	mov    -0x18(%rbp),%rax
ffffffff801028c6:	48 89 c7             	mov    %rax,%rdi
ffffffff801028c9:	e8 25 fc ff ff       	callq  ffffffff801024f3 <kfree>
ffffffff801028ce:	8b 45 fc             	mov    -0x4(%rbp),%eax
ffffffff801028d1:	eb 2c                	jmp    ffffffff801028ff <bgd_find_block+0x15f>
ffffffff801028d3:	83 45 fc 01          	addl   $0x1,-0x4(%rbp)
ffffffff801028d7:	8b 55 fc             	mov    -0x4(%rbp),%edx
ffffffff801028da:	48 8b 45 f0          	mov    -0x10(%rbp),%rax
ffffffff801028de:	48 8b 80 40 01 00 00 	mov    0x140(%rax),%rax
ffffffff801028e5:	48 39 c2             	cmp    %rax,%rdx
ffffffff801028e8:	0f 82 2d ff ff ff    	jb     ffffffff8010281b <bgd_find_block+0x7b>
ffffffff801028ee:	48 8b 45 e8          	mov    -0x18(%rbp),%rax
ffffffff801028f2:	48 89 c7             	mov    %rax,%rdi
ffffffff801028f5:	e8 f9 fb ff ff       	callq  ffffffff801024f3 <kfree>
ffffffff801028fa:	b8 ff ff ff ff       	mov    $0xffffffff,%eax
ffffffff801028ff:	c9                   	leaveq 
ffffffff80102900:	c3                   	retq   

ffffffff80102901 <ext2_alloc_block>:
ffffffff80102901:	55                   	push   %rbp
ffffffff80102902:	48 89 e5             	mov    %rsp,%rbp
ffffffff80102905:	48 83 ec 50          	sub    $0x50,%rsp
ffffffff80102909:	48 89 7d b8          	mov    %rdi,-0x48(%rbp)
ffffffff8010290d:	48 8b 45 b8          	mov    -0x48(%rbp),%rax
ffffffff80102911:	48 8b 40 18          	mov    0x18(%rax),%rax
ffffffff80102915:	48 8b 00             	mov    (%rax),%rax
ffffffff80102918:	48 8b 40 08          	mov    0x8(%rax),%rax
ffffffff8010291c:	48 89 45 f0          	mov    %rax,-0x10(%rbp)
ffffffff80102920:	c7 45 fc 00 00 00 00 	movl   $0x0,-0x4(%rbp)
ffffffff80102927:	eb 55                	jmp    ffffffff8010297e <ext2_alloc_block+0x7d>
ffffffff80102929:	48 8d 45 cc          	lea    -0x34(%rbp),%rax
ffffffff8010292d:	8b 55 fc             	mov    -0x4(%rbp),%edx
ffffffff80102930:	48 8b 4d b8          	mov    -0x48(%rbp),%rcx
ffffffff80102934:	48 89 ce             	mov    %rcx,%rsi
ffffffff80102937:	48 89 c7             	mov    %rax,%rdi
ffffffff8010293a:	e8 b7 01 00 00       	callq  ffffffff80102af6 <ext2_read_bgd>
ffffffff8010293f:	0f b7 45 d8          	movzwl -0x28(%rbp),%eax
ffffffff80102943:	66 85 c0             	test   %ax,%ax
ffffffff80102946:	74 2e                	je     ffffffff80102976 <ext2_alloc_block+0x75>
ffffffff80102948:	8b 55 fc             	mov    -0x4(%rbp),%edx
ffffffff8010294b:	48 8b 45 b8          	mov    -0x48(%rbp),%rax
ffffffff8010294f:	89 d6                	mov    %edx,%esi
ffffffff80102951:	48 89 c7             	mov    %rax,%rdi
ffffffff80102954:	e8 47 fe ff ff       	callq  ffffffff801027a0 <bgd_find_block>
ffffffff80102959:	89 45 ec             	mov    %eax,-0x14(%rbp)
ffffffff8010295c:	83 7d ec ff          	cmpl   $0xffffffff,-0x14(%rbp)
ffffffff80102960:	74 17                	je     ffffffff80102979 <ext2_alloc_block+0x78>
ffffffff80102962:	48 8b 45 f0          	mov    -0x10(%rbp),%rax
ffffffff80102966:	8b 40 20             	mov    0x20(%rax),%eax
ffffffff80102969:	0f af 45 fc          	imul   -0x4(%rbp),%eax
ffffffff8010296d:	89 c2                	mov    %eax,%edx
ffffffff8010296f:	8b 45 ec             	mov    -0x14(%rbp),%eax
ffffffff80102972:	01 d0                	add    %edx,%eax
ffffffff80102974:	eb 1c                	jmp    ffffffff80102992 <ext2_alloc_block+0x91>
ffffffff80102976:	90                   	nop
ffffffff80102977:	eb 01                	jmp    ffffffff8010297a <ext2_alloc_block+0x79>
ffffffff80102979:	90                   	nop
ffffffff8010297a:	83 45 fc 01          	addl   $0x1,-0x4(%rbp)
ffffffff8010297e:	48 8b 45 f0          	mov    -0x10(%rbp),%rax
ffffffff80102982:	8b 80 50 01 00 00    	mov    0x150(%rax),%eax
ffffffff80102988:	39 45 fc             	cmp    %eax,-0x4(%rbp)
ffffffff8010298b:	72 9c                	jb     ffffffff80102929 <ext2_alloc_block+0x28>
ffffffff8010298d:	b8 ff ff ff ff       	mov    $0xffffffff,%eax
ffffffff80102992:	c9                   	leaveq 
ffffffff80102993:	c3                   	retq   

ffffffff80102994 <ext2_free_block>:
ffffffff80102994:	55                   	push   %rbp
ffffffff80102995:	48 89 e5             	mov    %rsp,%rbp
ffffffff80102998:	48 83 ec 50          	sub    $0x50,%rsp
ffffffff8010299c:	48 89 7d b8          	mov    %rdi,-0x48(%rbp)
ffffffff801029a0:	89 75 b4             	mov    %esi,-0x4c(%rbp)
ffffffff801029a3:	48 8b 45 b8          	mov    -0x48(%rbp),%rax
ffffffff801029a7:	48 8b 40 18          	mov    0x18(%rax),%rax
ffffffff801029ab:	48 8b 00             	mov    (%rax),%rax
ffffffff801029ae:	48 8b 40 08          	mov    0x8(%rax),%rax
ffffffff801029b2:	48 89 45 f8          	mov    %rax,-0x8(%rbp)
ffffffff801029b6:	48 8b 45 f8          	mov    -0x8(%rbp),%rax
ffffffff801029ba:	48 8b 80 40 01 00 00 	mov    0x140(%rax),%rax
ffffffff801029c1:	48 89 c7             	mov    %rax,%rdi
ffffffff801029c4:	e8 f6 fc ff ff       	callq  ffffffff801026bf <kcalloc>
ffffffff801029c9:	48 89 45 f0          	mov    %rax,-0x10(%rbp)
ffffffff801029cd:	48 8b 45 f8          	mov    -0x8(%rbp),%rax
ffffffff801029d1:	8b 78 20             	mov    0x20(%rax),%edi
ffffffff801029d4:	8b 45 b4             	mov    -0x4c(%rbp),%eax
ffffffff801029d7:	ba 00 00 00 00       	mov    $0x0,%edx
ffffffff801029dc:	f7 f7                	div    %edi
ffffffff801029de:	89 45 ec             	mov    %eax,-0x14(%rbp)
ffffffff801029e1:	48 8b 45 f8          	mov    -0x8(%rbp),%rax
ffffffff801029e5:	8b 78 20             	mov    0x20(%rax),%edi
ffffffff801029e8:	8b 45 b4             	mov    -0x4c(%rbp),%eax
ffffffff801029eb:	ba 00 00 00 00       	mov    $0x0,%edx
ffffffff801029f0:	f7 f7                	div    %edi
ffffffff801029f2:	89 c2                	mov    %eax,%edx
ffffffff801029f4:	8b 45 b4             	mov    -0x4c(%rbp),%eax
ffffffff801029f7:	29 d0                	sub    %edx,%eax
ffffffff801029f9:	89 45 e8             	mov    %eax,-0x18(%rbp)
ffffffff801029fc:	48 8d 45 c8          	lea    -0x38(%rbp),%rax
ffffffff80102a00:	8b 55 ec             	mov    -0x14(%rbp),%edx
ffffffff80102a03:	48 8b 4d b8          	mov    -0x48(%rbp),%rcx
ffffffff80102a07:	48 89 ce             	mov    %rcx,%rsi
ffffffff80102a0a:	48 89 c7             	mov    %rax,%rdi
ffffffff80102a0d:	e8 e4 00 00 00       	callq  ffffffff80102af6 <ext2_read_bgd>
ffffffff80102a12:	48 8b 45 f8          	mov    -0x8(%rbp),%rax
ffffffff80102a16:	48 8b 90 40 01 00 00 	mov    0x140(%rax),%rdx
ffffffff80102a1d:	8b 45 c8             	mov    -0x38(%rbp),%eax
ffffffff80102a20:	89 c6                	mov    %eax,%esi
ffffffff80102a22:	48 8b 4d f0          	mov    -0x10(%rbp),%rcx
ffffffff80102a26:	48 8b 45 b8          	mov    -0x48(%rbp),%rax
ffffffff80102a2a:	48 89 c7             	mov    %rax,%rdi
ffffffff80102a2d:	e8 43 07 00 00       	callq  ffffffff80103175 <msd_raw_read>
ffffffff80102a32:	8b 45 e8             	mov    -0x18(%rbp),%eax
ffffffff80102a35:	c1 e8 03             	shr    $0x3,%eax
ffffffff80102a38:	89 c2                	mov    %eax,%edx
ffffffff80102a3a:	48 8b 45 f0          	mov    -0x10(%rbp),%rax
ffffffff80102a3e:	48 01 d0             	add    %rdx,%rax
ffffffff80102a41:	0f b6 00             	movzbl (%rax),%eax
ffffffff80102a44:	0f b6 d0             	movzbl %al,%edx
ffffffff80102a47:	8b 45 e8             	mov    -0x18(%rbp),%eax
ffffffff80102a4a:	83 e0 07             	and    $0x7,%eax
ffffffff80102a4d:	89 c1                	mov    %eax,%ecx
ffffffff80102a4f:	d3 fa                	sar    %cl,%edx
ffffffff80102a51:	89 d0                	mov    %edx,%eax
ffffffff80102a53:	83 e0 01             	and    $0x1,%eax
ffffffff80102a56:	85 c0                	test   %eax,%eax
ffffffff80102a58:	75 11                	jne    ffffffff80102a6b <ext2_free_block+0xd7>
ffffffff80102a5a:	48 8b 45 f0          	mov    -0x10(%rbp),%rax
ffffffff80102a5e:	48 89 c7             	mov    %rax,%rdi
ffffffff80102a61:	e8 8d fa ff ff       	callq  ffffffff801024f3 <kfree>
ffffffff80102a66:	e9 89 00 00 00       	jmpq   ffffffff80102af4 <ext2_free_block+0x160>
ffffffff80102a6b:	8b 45 e8             	mov    -0x18(%rbp),%eax
ffffffff80102a6e:	c1 e8 03             	shr    $0x3,%eax
ffffffff80102a71:	89 c2                	mov    %eax,%edx
ffffffff80102a73:	48 8b 45 f0          	mov    -0x10(%rbp),%rax
ffffffff80102a77:	48 01 d0             	add    %rdx,%rax
ffffffff80102a7a:	0f b6 00             	movzbl (%rax),%eax
ffffffff80102a7d:	89 c6                	mov    %eax,%esi
ffffffff80102a7f:	8b 45 e8             	mov    -0x18(%rbp),%eax
ffffffff80102a82:	83 e0 07             	and    $0x7,%eax
ffffffff80102a85:	ba 01 00 00 00       	mov    $0x1,%edx
ffffffff80102a8a:	89 c1                	mov    %eax,%ecx
ffffffff80102a8c:	d3 e2                	shl    %cl,%edx
ffffffff80102a8e:	89 d0                	mov    %edx,%eax
ffffffff80102a90:	f7 d0                	not    %eax
ffffffff80102a92:	21 c6                	and    %eax,%esi
ffffffff80102a94:	89 f2                	mov    %esi,%edx
ffffffff80102a96:	8b 45 e8             	mov    -0x18(%rbp),%eax
ffffffff80102a99:	c1 e8 03             	shr    $0x3,%eax
ffffffff80102a9c:	89 c1                	mov    %eax,%ecx
ffffffff80102a9e:	48 8b 45 f0          	mov    -0x10(%rbp),%rax
ffffffff80102aa2:	48 01 c8             	add    %rcx,%rax
ffffffff80102aa5:	88 10                	mov    %dl,(%rax)
ffffffff80102aa7:	48 8b 45 f8          	mov    -0x8(%rbp),%rax
ffffffff80102aab:	48 8b 90 40 01 00 00 	mov    0x140(%rax),%rdx
ffffffff80102ab2:	8b 45 c8             	mov    -0x38(%rbp),%eax
ffffffff80102ab5:	89 c6                	mov    %eax,%esi
ffffffff80102ab7:	48 8b 4d f0          	mov    -0x10(%rbp),%rcx
ffffffff80102abb:	48 8b 45 b8          	mov    -0x48(%rbp),%rax
ffffffff80102abf:	48 89 c7             	mov    %rax,%rdi
ffffffff80102ac2:	e8 04 07 00 00       	callq  ffffffff801031cb <msd_raw_write>
ffffffff80102ac7:	0f b7 45 d4          	movzwl -0x2c(%rbp),%eax
ffffffff80102acb:	83 c0 01             	add    $0x1,%eax
ffffffff80102ace:	66 89 45 d4          	mov    %ax,-0x2c(%rbp)
ffffffff80102ad2:	8b 55 ec             	mov    -0x14(%rbp),%edx
ffffffff80102ad5:	48 8d 4d c8          	lea    -0x38(%rbp),%rcx
ffffffff80102ad9:	48 8b 45 b8          	mov    -0x48(%rbp),%rax
ffffffff80102add:	48 89 ce             	mov    %rcx,%rsi
ffffffff80102ae0:	48 89 c7             	mov    %rax,%rdi
ffffffff80102ae3:	e8 d6 00 00 00       	callq  ffffffff80102bbe <ext2_write_bgd>
ffffffff80102ae8:	48 8b 45 f0          	mov    -0x10(%rbp),%rax
ffffffff80102aec:	48 89 c7             	mov    %rax,%rdi
ffffffff80102aef:	e8 ff f9 ff ff       	callq  ffffffff801024f3 <kfree>
ffffffff80102af4:	c9                   	leaveq 
ffffffff80102af5:	c3                   	retq   

ffffffff80102af6 <ext2_read_bgd>:
ffffffff80102af6:	55                   	push   %rbp
ffffffff80102af7:	48 89 e5             	mov    %rsp,%rbp
ffffffff80102afa:	48 83 ec 60          	sub    $0x60,%rsp
ffffffff80102afe:	48 89 7d b8          	mov    %rdi,-0x48(%rbp)
ffffffff80102b02:	48 89 75 b0          	mov    %rsi,-0x50(%rbp)
ffffffff80102b06:	89 55 ac             	mov    %edx,-0x54(%rbp)
ffffffff80102b09:	48 8b 45 b0          	mov    -0x50(%rbp),%rax
ffffffff80102b0d:	48 8b 40 18          	mov    0x18(%rax),%rax
ffffffff80102b11:	48 8b 00             	mov    (%rax),%rax
ffffffff80102b14:	48 8b 40 08          	mov    0x8(%rax),%rax
ffffffff80102b18:	48 89 45 f8          	mov    %rax,-0x8(%rbp)
ffffffff80102b1c:	48 8b 45 f8          	mov    -0x8(%rbp),%rax
ffffffff80102b20:	48 8b 80 40 01 00 00 	mov    0x140(%rax),%rax
ffffffff80102b27:	48 3d ff 07 00 00    	cmp    $0x7ff,%rax
ffffffff80102b2d:	76 0d                	jbe    ffffffff80102b3c <ext2_read_bgd+0x46>
ffffffff80102b2f:	48 8b 45 f8          	mov    -0x8(%rbp),%rax
ffffffff80102b33:	48 8b 80 40 01 00 00 	mov    0x140(%rax),%rax
ffffffff80102b3a:	eb 0e                	jmp    ffffffff80102b4a <ext2_read_bgd+0x54>
ffffffff80102b3c:	48 8b 45 f8          	mov    -0x8(%rbp),%rax
ffffffff80102b40:	48 8b 80 40 01 00 00 	mov    0x140(%rax),%rax
ffffffff80102b47:	48 01 c0             	add    %rax,%rax
ffffffff80102b4a:	48 89 45 f0          	mov    %rax,-0x10(%rbp)
ffffffff80102b4e:	8b 45 ac             	mov    -0x54(%rbp),%eax
ffffffff80102b51:	8d 48 ff             	lea    -0x1(%rax),%ecx
ffffffff80102b54:	48 8b 45 f8          	mov    -0x8(%rbp),%rax
ffffffff80102b58:	8b 78 28             	mov    0x28(%rax),%edi
ffffffff80102b5b:	89 c8                	mov    %ecx,%eax
ffffffff80102b5d:	ba 00 00 00 00       	mov    $0x0,%edx
ffffffff80102b62:	f7 f7                	div    %edi
ffffffff80102b64:	89 c0                	mov    %eax,%eax
ffffffff80102b66:	48 89 45 e8          	mov    %rax,-0x18(%rbp)
ffffffff80102b6a:	48 8b 45 e8          	mov    -0x18(%rbp),%rax
ffffffff80102b6e:	48 c1 e0 05          	shl    $0x5,%rax
ffffffff80102b72:	48 89 c2             	mov    %rax,%rdx
ffffffff80102b75:	48 8b 45 f0          	mov    -0x10(%rbp),%rax
ffffffff80102b79:	48 8d 34 02          	lea    (%rdx,%rax,1),%rsi
ffffffff80102b7d:	48 8d 55 c8          	lea    -0x38(%rbp),%rdx
ffffffff80102b81:	48 8b 45 b0          	mov    -0x50(%rbp),%rax
ffffffff80102b85:	48 89 d1             	mov    %rdx,%rcx
ffffffff80102b88:	ba 20 00 00 00       	mov    $0x20,%edx
ffffffff80102b8d:	48 89 c7             	mov    %rax,%rdi
ffffffff80102b90:	e8 e0 05 00 00       	callq  ffffffff80103175 <msd_raw_read>
ffffffff80102b95:	48 8b 45 b8          	mov    -0x48(%rbp),%rax
ffffffff80102b99:	48 8b 55 c8          	mov    -0x38(%rbp),%rdx
ffffffff80102b9d:	48 89 10             	mov    %rdx,(%rax)
ffffffff80102ba0:	48 8b 55 d0          	mov    -0x30(%rbp),%rdx
ffffffff80102ba4:	48 89 50 08          	mov    %rdx,0x8(%rax)
ffffffff80102ba8:	48 8b 55 d8          	mov    -0x28(%rbp),%rdx
ffffffff80102bac:	48 89 50 10          	mov    %rdx,0x10(%rax)
ffffffff80102bb0:	48 8b 55 e0          	mov    -0x20(%rbp),%rdx
ffffffff80102bb4:	48 89 50 18          	mov    %rdx,0x18(%rax)
ffffffff80102bb8:	48 8b 45 b8          	mov    -0x48(%rbp),%rax
ffffffff80102bbc:	c9                   	leaveq 
ffffffff80102bbd:	c3                   	retq   

ffffffff80102bbe <ext2_write_bgd>:
ffffffff80102bbe:	55                   	push   %rbp
ffffffff80102bbf:	48 89 e5             	mov    %rsp,%rbp
ffffffff80102bc2:	48 83 ec 40          	sub    $0x40,%rsp
ffffffff80102bc6:	48 89 7d d8          	mov    %rdi,-0x28(%rbp)
ffffffff80102bca:	48 89 75 d0          	mov    %rsi,-0x30(%rbp)
ffffffff80102bce:	89 55 cc             	mov    %edx,-0x34(%rbp)
ffffffff80102bd1:	48 8b 45 d8          	mov    -0x28(%rbp),%rax
ffffffff80102bd5:	48 8b 40 18          	mov    0x18(%rax),%rax
ffffffff80102bd9:	48 8b 00             	mov    (%rax),%rax
ffffffff80102bdc:	48 8b 40 08          	mov    0x8(%rax),%rax
ffffffff80102be0:	48 89 45 f8          	mov    %rax,-0x8(%rbp)
ffffffff80102be4:	48 8b 45 f8          	mov    -0x8(%rbp),%rax
ffffffff80102be8:	48 8b 80 40 01 00 00 	mov    0x140(%rax),%rax
ffffffff80102bef:	48 3d ff 07 00 00    	cmp    $0x7ff,%rax
ffffffff80102bf5:	76 0d                	jbe    ffffffff80102c04 <ext2_write_bgd+0x46>
ffffffff80102bf7:	48 8b 45 f8          	mov    -0x8(%rbp),%rax
ffffffff80102bfb:	48 8b 80 40 01 00 00 	mov    0x140(%rax),%rax
ffffffff80102c02:	eb 0e                	jmp    ffffffff80102c12 <ext2_write_bgd+0x54>
ffffffff80102c04:	48 8b 45 f8          	mov    -0x8(%rbp),%rax
ffffffff80102c08:	48 8b 80 40 01 00 00 	mov    0x140(%rax),%rax
ffffffff80102c0f:	48 01 c0             	add    %rax,%rax
ffffffff80102c12:	48 89 45 f0          	mov    %rax,-0x10(%rbp)
ffffffff80102c16:	8b 45 cc             	mov    -0x34(%rbp),%eax
ffffffff80102c19:	8d 48 ff             	lea    -0x1(%rax),%ecx
ffffffff80102c1c:	48 8b 45 f8          	mov    -0x8(%rbp),%rax
ffffffff80102c20:	8b 78 28             	mov    0x28(%rax),%edi
ffffffff80102c23:	89 c8                	mov    %ecx,%eax
ffffffff80102c25:	ba 00 00 00 00       	mov    $0x0,%edx
ffffffff80102c2a:	f7 f7                	div    %edi
ffffffff80102c2c:	89 c0                	mov    %eax,%eax
ffffffff80102c2e:	48 89 45 e8          	mov    %rax,-0x18(%rbp)
ffffffff80102c32:	48 8b 45 e8          	mov    -0x18(%rbp),%rax
ffffffff80102c36:	48 c1 e0 05          	shl    $0x5,%rax
ffffffff80102c3a:	48 89 c2             	mov    %rax,%rdx
ffffffff80102c3d:	48 8b 45 f0          	mov    -0x10(%rbp),%rax
ffffffff80102c41:	48 8d 34 02          	lea    (%rdx,%rax,1),%rsi
ffffffff80102c45:	48 8b 55 d0          	mov    -0x30(%rbp),%rdx
ffffffff80102c49:	48 8b 45 d8          	mov    -0x28(%rbp),%rax
ffffffff80102c4d:	48 89 d1             	mov    %rdx,%rcx
ffffffff80102c50:	ba 20 00 00 00       	mov    $0x20,%edx
ffffffff80102c55:	48 89 c7             	mov    %rax,%rdi
ffffffff80102c58:	e8 6e 05 00 00       	callq  ffffffff801031cb <msd_raw_write>
ffffffff80102c5d:	90                   	nop
ffffffff80102c5e:	c9                   	leaveq 
ffffffff80102c5f:	c3                   	retq   

ffffffff80102c60 <devfs_add_device>:
ffffffff80102c60:	55                   	push   %rbp
ffffffff80102c61:	48 89 e5             	mov    %rsp,%rbp
ffffffff80102c64:	48 83 ec 20          	sub    $0x20,%rsp
ffffffff80102c68:	48 c7 c7 b8 01 11 80 	mov    $0xffffffff801101b8,%rdi
ffffffff80102c6f:	e8 9f bc 00 00       	callq  ffffffff8010e913 <vfs_absolute_path>
ffffffff80102c74:	48 89 45 f8          	mov    %rax,-0x8(%rbp)
ffffffff80102c78:	48 83 7d f8 00       	cmpq   $0x0,-0x8(%rbp)
ffffffff80102c7d:	75 0a                	jne    ffffffff80102c89 <devfs_add_device+0x29>
ffffffff80102c7f:	b8 ff ff ff ff       	mov    $0xffffffff,%eax
ffffffff80102c84:	e9 2e 01 00 00       	jmpq   ffffffff80102db7 <devfs_add_device+0x157>
ffffffff80102c89:	48 8b 05 58 a4 01 00 	mov    0x1a458(%rip),%rax        # ffffffff8011d0e8 <devfs_id_cnt>
ffffffff80102c90:	48 8d 50 01          	lea    0x1(%rax),%rdx
ffffffff80102c94:	48 89 15 4d a4 01 00 	mov    %rdx,0x1a44d(%rip)        # ffffffff8011d0e8 <devfs_id_cnt>
ffffffff80102c9b:	48 89 45 10          	mov    %rax,0x10(%rbp)
ffffffff80102c9f:	48 c7 c7 c8 d0 11 80 	mov    $0xffffffff8011d0c8,%rdi
ffffffff80102ca6:	e8 f5 b1 00 00       	callq  ffffffff8010dea0 <spin_lock>
ffffffff80102cab:	c7 45 f4 00 00 00 00 	movl   $0x0,-0xc(%rbp)
ffffffff80102cb2:	48 8b 05 07 a4 01 00 	mov    0x1a407(%rip),%rax        # ffffffff8011d0c0 <devfs_nodes>
ffffffff80102cb9:	48 85 c0             	test   %rax,%rax
ffffffff80102cbc:	75 1c                	jne    ffffffff80102cda <devfs_add_device+0x7a>
ffffffff80102cbe:	bf 00 04 00 00       	mov    $0x400,%edi
ffffffff80102cc3:	e8 7f f6 ff ff       	callq  ffffffff80102347 <kmalloc>
ffffffff80102cc8:	48 89 05 f1 a3 01 00 	mov    %rax,0x1a3f1(%rip)        # ffffffff8011d0c0 <devfs_nodes>
ffffffff80102ccf:	48 c7 05 f6 a3 01 00 	movq   $0x20,0x1a3f6(%rip)        # ffffffff8011d0d0 <devfs_nodes+0x10>
ffffffff80102cd6:	20 00 00 00 
ffffffff80102cda:	48 8b 15 ff a3 01 00 	mov    0x1a3ff(%rip),%rdx        # ffffffff8011d0e0 <devfs_nodes+0x20>
ffffffff80102ce1:	48 8b 05 e8 a3 01 00 	mov    0x1a3e8(%rip),%rax        # ffffffff8011d0d0 <devfs_nodes+0x10>
ffffffff80102ce8:	48 39 c2             	cmp    %rax,%rdx
ffffffff80102ceb:	76 32                	jbe    ffffffff80102d1f <devfs_add_device+0xbf>
ffffffff80102ced:	48 8b 05 dc a3 01 00 	mov    0x1a3dc(%rip),%rax        # ffffffff8011d0d0 <devfs_nodes+0x10>
ffffffff80102cf4:	48 83 c0 20          	add    $0x20,%rax
ffffffff80102cf8:	48 89 05 d1 a3 01 00 	mov    %rax,0x1a3d1(%rip)        # ffffffff8011d0d0 <devfs_nodes+0x10>
ffffffff80102cff:	48 8b 15 ca a3 01 00 	mov    0x1a3ca(%rip),%rdx        # ffffffff8011d0d0 <devfs_nodes+0x10>
ffffffff80102d06:	48 8b 05 b3 a3 01 00 	mov    0x1a3b3(%rip),%rax        # ffffffff8011d0c0 <devfs_nodes>
ffffffff80102d0d:	48 89 d6             	mov    %rdx,%rsi
ffffffff80102d10:	48 89 c7             	mov    %rax,%rdi
ffffffff80102d13:	e8 f7 f8 ff ff       	callq  ffffffff8010260f <krealloc>
ffffffff80102d18:	48 89 05 a1 a3 01 00 	mov    %rax,0x1a3a1(%rip)        # ffffffff8011d0c0 <devfs_nodes>
ffffffff80102d1f:	48 8b 05 ba a3 01 00 	mov    0x1a3ba(%rip),%rax        # ffffffff8011d0e0 <devfs_nodes+0x20>
ffffffff80102d26:	89 45 f4             	mov    %eax,-0xc(%rbp)
ffffffff80102d29:	48 8b 0d 90 a3 01 00 	mov    0x1a390(%rip),%rcx        # ffffffff8011d0c0 <devfs_nodes>
ffffffff80102d30:	48 8b 05 a9 a3 01 00 	mov    0x1a3a9(%rip),%rax        # ffffffff8011d0e0 <devfs_nodes+0x20>
ffffffff80102d37:	48 8d 50 01          	lea    0x1(%rax),%rdx
ffffffff80102d3b:	48 89 15 9e a3 01 00 	mov    %rdx,0x1a39e(%rip)        # ffffffff8011d0e0 <devfs_nodes+0x20>
ffffffff80102d42:	48 c1 e0 05          	shl    $0x5,%rax
ffffffff80102d46:	48 01 c8             	add    %rcx,%rax
ffffffff80102d49:	48 8b 55 10          	mov    0x10(%rbp),%rdx
ffffffff80102d4d:	48 89 10             	mov    %rdx,(%rax)
ffffffff80102d50:	48 8b 55 18          	mov    0x18(%rbp),%rdx
ffffffff80102d54:	48 89 50 08          	mov    %rdx,0x8(%rax)
ffffffff80102d58:	48 8b 55 20          	mov    0x20(%rbp),%rdx
ffffffff80102d5c:	48 89 50 10          	mov    %rdx,0x10(%rax)
ffffffff80102d60:	48 8b 55 28          	mov    0x28(%rbp),%rdx
ffffffff80102d64:	48 89 50 18          	mov    %rdx,0x18(%rax)
ffffffff80102d68:	48 8b 05 69 a3 01 00 	mov    0x1a369(%rip),%rax        # ffffffff8011d0d8 <devfs_nodes+0x18>
ffffffff80102d6f:	48 83 c0 01          	add    $0x1,%rax
ffffffff80102d73:	48 89 05 5e a3 01 00 	mov    %rax,0x1a35e(%rip)        # ffffffff8011d0d8 <devfs_nodes+0x18>
ffffffff80102d7a:	48 c7 c7 c8 d0 11 80 	mov    $0xffffffff8011d0c8,%rdi
ffffffff80102d81:	e8 6f b1 00 00       	callq  ffffffff8010def5 <spin_release>
ffffffff80102d86:	48 8b 55 18          	mov    0x18(%rbp),%rdx
ffffffff80102d8a:	48 8b 45 f8          	mov    -0x8(%rbp),%rax
ffffffff80102d8e:	48 89 d6             	mov    %rdx,%rsi
ffffffff80102d91:	48 89 c7             	mov    %rax,%rdi
ffffffff80102d94:	e8 3f b7 00 00       	callq  ffffffff8010e4d8 <vfs_create_node>
ffffffff80102d99:	48 89 45 e8          	mov    %rax,-0x18(%rbp)
ffffffff80102d9d:	48 8b 45 e8          	mov    -0x18(%rbp),%rax
ffffffff80102da1:	48 8b 40 18          	mov    0x18(%rax),%rax
ffffffff80102da5:	48 8b 50 38          	mov    0x38(%rax),%rdx
ffffffff80102da9:	48 8b 45 e8          	mov    -0x18(%rbp),%rax
ffffffff80102dad:	be 55 05 00 00       	mov    $0x555,%esi
ffffffff80102db2:	48 89 c7             	mov    %rax,%rdi
ffffffff80102db5:	ff d2                	callq  *%rdx
ffffffff80102db7:	c9                   	leaveq 
ffffffff80102db8:	c3                   	retq   

ffffffff80102db9 <path2devfs>:
ffffffff80102db9:	55                   	push   %rbp
ffffffff80102dba:	48 89 e5             	mov    %rsp,%rbp
ffffffff80102dbd:	48 83 ec 30          	sub    $0x30,%rsp
ffffffff80102dc1:	48 89 7d d8          	mov    %rdi,-0x28(%rbp)
ffffffff80102dc5:	48 8b 45 d8          	mov    -0x28(%rbp),%rax
ffffffff80102dc9:	48 89 c7             	mov    %rax,%rdi
ffffffff80102dcc:	e8 42 bb 00 00       	callq  ffffffff8010e913 <vfs_absolute_path>
ffffffff80102dd1:	48 89 45 e8          	mov    %rax,-0x18(%rbp)
ffffffff80102dd5:	48 83 7d e8 00       	cmpq   $0x0,-0x18(%rbp)
ffffffff80102dda:	75 0a                	jne    ffffffff80102de6 <path2devfs+0x2d>
ffffffff80102ddc:	b8 00 00 00 00       	mov    $0x0,%eax
ffffffff80102de1:	e9 98 00 00 00       	jmpq   ffffffff80102e7e <path2devfs+0xc5>
ffffffff80102de6:	48 c7 45 f8 00 00 00 	movq   $0x0,-0x8(%rbp)
ffffffff80102ded:	00 
ffffffff80102dee:	eb 78                	jmp    ffffffff80102e68 <path2devfs+0xaf>
ffffffff80102df0:	48 c7 45 f0 00 00 00 	movq   $0x0,-0x10(%rbp)
ffffffff80102df7:	00 
ffffffff80102df8:	48 c7 c7 c8 d0 11 80 	mov    $0xffffffff8011d0c8,%rdi
ffffffff80102dff:	e8 9c b0 00 00       	callq  ffffffff8010dea0 <spin_lock>
ffffffff80102e04:	48 8b 05 cd a2 01 00 	mov    0x1a2cd(%rip),%rax        # ffffffff8011d0d8 <devfs_nodes+0x18>
ffffffff80102e0b:	48 39 45 f8          	cmp    %rax,-0x8(%rbp)
ffffffff80102e0f:	73 18                	jae    ffffffff80102e29 <path2devfs+0x70>
ffffffff80102e11:	48 8b 15 a8 a2 01 00 	mov    0x1a2a8(%rip),%rdx        # ffffffff8011d0c0 <devfs_nodes>
ffffffff80102e18:	48 8b 45 f8          	mov    -0x8(%rbp),%rax
ffffffff80102e1c:	48 c1 e0 05          	shl    $0x5,%rax
ffffffff80102e20:	48 01 d0             	add    %rdx,%rax
ffffffff80102e23:	48 89 45 f0          	mov    %rax,-0x10(%rbp)
ffffffff80102e27:	eb 01                	jmp    ffffffff80102e2a <path2devfs+0x71>
ffffffff80102e29:	90                   	nop
ffffffff80102e2a:	48 c7 c7 c8 d0 11 80 	mov    $0xffffffff8011d0c8,%rdi
ffffffff80102e31:	e8 bf b0 00 00       	callq  ffffffff8010def5 <spin_release>
ffffffff80102e36:	48 8b 45 f0          	mov    -0x10(%rbp),%rax
ffffffff80102e3a:	48 89 45 e0          	mov    %rax,-0x20(%rbp)
ffffffff80102e3e:	48 8b 45 e8          	mov    -0x18(%rbp),%rax
ffffffff80102e42:	48 8b 50 10          	mov    0x10(%rax),%rdx
ffffffff80102e46:	48 8b 45 e0          	mov    -0x20(%rbp),%rax
ffffffff80102e4a:	48 8b 40 08          	mov    0x8(%rax),%rax
ffffffff80102e4e:	48 89 d6             	mov    %rdx,%rsi
ffffffff80102e51:	48 89 c7             	mov    %rax,%rdi
ffffffff80102e54:	e8 e9 b0 00 00       	callq  ffffffff8010df42 <strcmp>
ffffffff80102e59:	85 c0                	test   %eax,%eax
ffffffff80102e5b:	75 06                	jne    ffffffff80102e63 <path2devfs+0xaa>
ffffffff80102e5d:	48 8b 45 e0          	mov    -0x20(%rbp),%rax
ffffffff80102e61:	eb 1b                	jmp    ffffffff80102e7e <path2devfs+0xc5>
ffffffff80102e63:	48 83 45 f8 01       	addq   $0x1,-0x8(%rbp)
ffffffff80102e68:	48 8b 05 69 a2 01 00 	mov    0x1a269(%rip),%rax        # ffffffff8011d0d8 <devfs_nodes+0x18>
ffffffff80102e6f:	48 39 45 f8          	cmp    %rax,-0x8(%rbp)
ffffffff80102e73:	0f 82 77 ff ff ff    	jb     ffffffff80102df0 <path2devfs+0x37>
ffffffff80102e79:	b8 00 00 00 00       	mov    $0x0,%eax
ffffffff80102e7e:	c9                   	leaveq 
ffffffff80102e7f:	c3                   	retq   

ffffffff80102e80 <device_check_fs>:
ffffffff80102e80:	55                   	push   %rbp
ffffffff80102e81:	48 89 e5             	mov    %rsp,%rbp
ffffffff80102e84:	48 83 ec 10          	sub    $0x10,%rsp
ffffffff80102e88:	48 89 7d f8          	mov    %rdi,-0x8(%rbp)
ffffffff80102e8c:	48 8b 45 f8          	mov    -0x8(%rbp),%rax
ffffffff80102e90:	48 89 c7             	mov    %rax,%rdi
ffffffff80102e93:	e8 24 10 00 00       	callq  ffffffff80103ebc <ext2_check_fs>
ffffffff80102e98:	85 c0                	test   %eax,%eax
ffffffff80102e9a:	75 19                	jne    ffffffff80102eb5 <device_check_fs+0x35>
ffffffff80102e9c:	48 8b 45 f8          	mov    -0x8(%rbp),%rax
ffffffff80102ea0:	48 8b 40 18          	mov    0x18(%rax),%rax
ffffffff80102ea4:	48 8b 00             	mov    (%rax),%rax
ffffffff80102ea7:	48 8b 55 f8          	mov    -0x8(%rbp),%rdx
ffffffff80102eab:	48 89 10             	mov    %rdx,(%rax)
ffffffff80102eae:	b8 00 00 00 00       	mov    $0x0,%eax
ffffffff80102eb3:	eb 05                	jmp    ffffffff80102eba <device_check_fs+0x3a>
ffffffff80102eb5:	b8 ff ff ff ff       	mov    $0xffffffff,%eax
ffffffff80102eba:	c9                   	leaveq 
ffffffff80102ebb:	c3                   	retq   

ffffffff80102ebc <scan_device_partitions>:
ffffffff80102ebc:	55                   	push   %rbp
ffffffff80102ebd:	48 89 e5             	mov    %rsp,%rbp
ffffffff80102ec0:	48 81 ec 10 01 00 00 	sub    $0x110,%rsp
ffffffff80102ec7:	48 89 bd f8 fe ff ff 	mov    %rdi,-0x108(%rbp)
ffffffff80102ece:	48 8b 85 f8 fe ff ff 	mov    -0x108(%rbp),%rax
ffffffff80102ed5:	4c 8b 40 18          	mov    0x18(%rax),%r8
ffffffff80102ed9:	48 8b 85 f8 fe ff ff 	mov    -0x108(%rbp),%rax
ffffffff80102ee0:	48 8b 40 08          	mov    0x8(%rax),%rax
ffffffff80102ee4:	89 c7                	mov    %eax,%edi
ffffffff80102ee6:	48 8d 45 e6          	lea    -0x1a(%rbp),%rax
ffffffff80102eea:	48 89 c1             	mov    %rax,%rcx
ffffffff80102eed:	ba 02 00 00 00       	mov    $0x2,%edx
ffffffff80102ef2:	be fe 01 00 00       	mov    $0x1fe,%esi
ffffffff80102ef7:	41 ff d0             	callq  *%r8
ffffffff80102efa:	0f b7 45 e6          	movzwl -0x1a(%rbp),%eax
ffffffff80102efe:	66 3d 55 aa          	cmp    $0xaa55,%ax
ffffffff80102f02:	0f 85 a4 01 00 00    	jne    ffffffff801030ac <scan_device_partitions+0x1f0>
ffffffff80102f08:	48 8b 85 f8 fe ff ff 	mov    -0x108(%rbp),%rax
ffffffff80102f0f:	4c 8b 40 18          	mov    0x18(%rax),%r8
ffffffff80102f13:	48 8b 85 f8 fe ff ff 	mov    -0x108(%rbp),%rax
ffffffff80102f1a:	48 8b 40 08          	mov    0x8(%rax),%rax
ffffffff80102f1e:	89 c7                	mov    %eax,%edi
ffffffff80102f20:	48 8d 85 28 ff ff ff 	lea    -0xd8(%rbp),%rax
ffffffff80102f27:	48 89 c1             	mov    %rax,%rcx
ffffffff80102f2a:	ba 40 00 00 00       	mov    $0x40,%edx
ffffffff80102f2f:	be be 01 00 00       	mov    $0x1be,%esi
ffffffff80102f34:	41 ff d0             	callq  *%r8
ffffffff80102f37:	c7 45 fc 00 00 00 00 	movl   $0x0,-0x4(%rbp)
ffffffff80102f3e:	e9 5d 01 00 00       	jmpq   ffffffff801030a0 <scan_device_partitions+0x1e4>
ffffffff80102f43:	8b 45 fc             	mov    -0x4(%rbp),%eax
ffffffff80102f46:	48 98                	cltq   
ffffffff80102f48:	48 c1 e0 04          	shl    $0x4,%rax
ffffffff80102f4c:	48 01 e8             	add    %rbp,%rax
ffffffff80102f4f:	48 2d d4 00 00 00    	sub    $0xd4,%rax
ffffffff80102f55:	0f b6 00             	movzbl (%rax),%eax
ffffffff80102f58:	84 c0                	test   %al,%al
ffffffff80102f5a:	0f 84 3b 01 00 00    	je     ffffffff8010309b <scan_device_partitions+0x1df>
ffffffff80102f60:	48 c7 85 08 ff ff ff 	movq   $0x0,-0xf8(%rbp)
ffffffff80102f67:	00 00 00 00 
ffffffff80102f6b:	48 c7 85 10 ff ff ff 	movq   $0x0,-0xf0(%rbp)
ffffffff80102f72:	00 00 00 00 
ffffffff80102f76:	48 c7 85 18 ff ff ff 	movq   $0x0,-0xe8(%rbp)
ffffffff80102f7d:	00 00 00 00 
ffffffff80102f81:	48 c7 85 20 ff ff ff 	movq   $0x0,-0xe0(%rbp)
ffffffff80102f88:	00 00 00 00 
ffffffff80102f8c:	bf 20 00 00 00       	mov    $0x20,%edi
ffffffff80102f91:	e8 b1 f3 ff ff       	callq  ffffffff80102347 <kmalloc>
ffffffff80102f96:	48 89 85 10 ff ff ff 	mov    %rax,-0xf0(%rbp)
ffffffff80102f9d:	8b 45 fc             	mov    -0x4(%rbp),%eax
ffffffff80102fa0:	48 98                	cltq   
ffffffff80102fa2:	48 c1 e0 04          	shl    $0x4,%rax
ffffffff80102fa6:	48 01 e8             	add    %rbp,%rax
ffffffff80102fa9:	48 2d d0 00 00 00    	sub    $0xd0,%rax
ffffffff80102faf:	8b 00                	mov    (%rax),%eax
ffffffff80102fb1:	c1 e0 09             	shl    $0x9,%eax
ffffffff80102fb4:	89 c0                	mov    %eax,%eax
ffffffff80102fb6:	48 89 85 18 ff ff ff 	mov    %rax,-0xe8(%rbp)
ffffffff80102fbd:	48 8b 85 f8 fe ff ff 	mov    -0x108(%rbp),%rax
ffffffff80102fc4:	48 89 85 20 ff ff ff 	mov    %rax,-0xe0(%rbp)
ffffffff80102fcb:	48 8b 85 f8 fe ff ff 	mov    -0x108(%rbp),%rax
ffffffff80102fd2:	48 8b 40 10          	mov    0x10(%rax),%rax
ffffffff80102fd6:	48 8d 48 01          	lea    0x1(%rax),%rcx
ffffffff80102fda:	48 8b 95 f8 fe ff ff 	mov    -0x108(%rbp),%rdx
ffffffff80102fe1:	48 89 4a 10          	mov    %rcx,0x10(%rdx)
ffffffff80102fe5:	48 8b 15 04 a1 01 00 	mov    0x1a104(%rip),%rdx        # ffffffff8011d0f0 <msd_cnt>
ffffffff80102fec:	48 8b bd 10 ff ff ff 	mov    -0xf0(%rbp),%rdi
ffffffff80102ff3:	49 89 c0             	mov    %rax,%r8
ffffffff80102ff6:	48 89 d1             	mov    %rdx,%rcx
ffffffff80102ff9:	ba 01 00 00 00       	mov    $0x1,%edx
ffffffff80102ffe:	48 c7 c6 bd 01 11 80 	mov    $0xffffffff801101bd,%rsi
ffffffff80103005:	b8 00 00 00 00       	mov    $0x0,%eax
ffffffff8010300a:	e8 02 80 00 00       	callq  ffffffff8010b011 <sprintf>
ffffffff8010300f:	ff b5 20 ff ff ff    	pushq  -0xe0(%rbp)
ffffffff80103015:	ff b5 18 ff ff ff    	pushq  -0xe8(%rbp)
ffffffff8010301b:	ff b5 10 ff ff ff    	pushq  -0xf0(%rbp)
ffffffff80103021:	ff b5 08 ff ff ff    	pushq  -0xf8(%rbp)
ffffffff80103027:	e8 34 fc ff ff       	callq  ffffffff80102c60 <devfs_add_device>
ffffffff8010302c:	48 83 c4 20          	add    $0x20,%rsp
ffffffff80103030:	48 8b 85 10 ff ff ff 	mov    -0xf0(%rbp),%rax
ffffffff80103037:	48 89 c6             	mov    %rax,%rsi
ffffffff8010303a:	48 c7 c7 c5 01 11 80 	mov    $0xffffffff801101c5,%rdi
ffffffff80103041:	e8 27 b3 00 00       	callq  ffffffff8010e36d <str_congregate>
ffffffff80103046:	48 89 45 f0          	mov    %rax,-0x10(%rbp)
ffffffff8010304a:	48 8b 45 f0          	mov    -0x10(%rbp),%rax
ffffffff8010304e:	48 89 c7             	mov    %rax,%rdi
ffffffff80103051:	e8 63 fd ff ff       	callq  ffffffff80102db9 <path2devfs>
ffffffff80103056:	48 89 45 e8          	mov    %rax,-0x18(%rbp)
ffffffff8010305a:	48 8b 45 f0          	mov    -0x10(%rbp),%rax
ffffffff8010305e:	48 89 c7             	mov    %rax,%rdi
ffffffff80103061:	e8 8d f4 ff ff       	callq  ffffffff801024f3 <kfree>
ffffffff80103066:	48 8b 45 e8          	mov    -0x18(%rbp),%rax
ffffffff8010306a:	48 89 c7             	mov    %rax,%rdi
ffffffff8010306d:	e8 0e fe ff ff       	callq  ffffffff80102e80 <device_check_fs>
ffffffff80103072:	83 f8 ff             	cmp    $0xffffffff,%eax
ffffffff80103075:	75 25                	jne    ffffffff8010309c <scan_device_partitions+0x1e0>
ffffffff80103077:	48 8b 85 10 ff ff ff 	mov    -0xf0(%rbp),%rax
ffffffff8010307e:	48 89 c2             	mov    %rax,%rdx
ffffffff80103081:	48 c7 c6 d0 01 11 80 	mov    $0xffffffff801101d0,%rsi
ffffffff80103088:	48 c7 c7 f5 01 11 80 	mov    $0xffffffff801101f5,%rdi
ffffffff8010308f:	b8 00 00 00 00       	mov    $0x0,%eax
ffffffff80103094:	e8 14 7e 00 00       	callq  ffffffff8010aead <kprintf>
ffffffff80103099:	eb 01                	jmp    ffffffff8010309c <scan_device_partitions+0x1e0>
ffffffff8010309b:	90                   	nop
ffffffff8010309c:	83 45 fc 01          	addl   $0x1,-0x4(%rbp)
ffffffff801030a0:	83 7d fc 03          	cmpl   $0x3,-0x4(%rbp)
ffffffff801030a4:	0f 8e 99 fe ff ff    	jle    ffffffff80102f43 <scan_device_partitions+0x87>
ffffffff801030aa:	eb 5a                	jmp    ffffffff80103106 <scan_device_partitions+0x24a>
ffffffff801030ac:	48 8b 85 f8 fe ff ff 	mov    -0x108(%rbp),%rax
ffffffff801030b3:	4c 8b 40 18          	mov    0x18(%rax),%r8
ffffffff801030b7:	48 8b 85 f8 fe ff ff 	mov    -0x108(%rbp),%rax
ffffffff801030be:	48 8b 40 08          	mov    0x8(%rax),%rax
ffffffff801030c2:	89 c7                	mov    %eax,%edi
ffffffff801030c4:	48 8d 45 8a          	lea    -0x76(%rbp),%rax
ffffffff801030c8:	48 89 c1             	mov    %rax,%rcx
ffffffff801030cb:	ba 5c 00 00 00       	mov    $0x5c,%edx
ffffffff801030d0:	be 00 02 00 00       	mov    $0x200,%esi
ffffffff801030d5:	41 ff d0             	callq  *%r8
ffffffff801030d8:	48 8b 45 8a          	mov    -0x76(%rbp),%rax
ffffffff801030dc:	48 ba 54 52 41 50 20 	movabs $0x4546492050415254,%rdx
ffffffff801030e3:	49 46 45 
ffffffff801030e6:	48 39 d0             	cmp    %rdx,%rax
ffffffff801030e9:	74 1a                	je     ffffffff80103105 <scan_device_partitions+0x249>
ffffffff801030eb:	48 c7 c6 00 02 11 80 	mov    $0xffffffff80110200,%rsi
ffffffff801030f2:	48 c7 c7 f5 01 11 80 	mov    $0xffffffff801101f5,%rdi
ffffffff801030f9:	b8 00 00 00 00       	mov    $0x0,%eax
ffffffff801030fe:	e8 aa 7d 00 00       	callq  ffffffff8010aead <kprintf>
ffffffff80103103:	eb 01                	jmp    ffffffff80103106 <scan_device_partitions+0x24a>
ffffffff80103105:	90                   	nop
ffffffff80103106:	bf 20 00 00 00       	mov    $0x20,%edi
ffffffff8010310b:	e8 37 f2 ff ff       	callq  ffffffff80102347 <kmalloc>
ffffffff80103110:	48 89 85 70 ff ff ff 	mov    %rax,-0x90(%rbp)
ffffffff80103117:	48 8b 85 f8 fe ff ff 	mov    -0x108(%rbp),%rax
ffffffff8010311e:	48 89 45 80          	mov    %rax,-0x80(%rbp)
ffffffff80103122:	48 8b 05 c7 9f 01 00 	mov    0x19fc7(%rip),%rax        # ffffffff8011d0f0 <msd_cnt>
ffffffff80103129:	48 8d 50 01          	lea    0x1(%rax),%rdx
ffffffff8010312d:	48 89 15 bc 9f 01 00 	mov    %rdx,0x19fbc(%rip)        # ffffffff8011d0f0 <msd_cnt>
ffffffff80103134:	48 8b bd 70 ff ff ff 	mov    -0x90(%rbp),%rdi
ffffffff8010313b:	48 89 c1             	mov    %rax,%rcx
ffffffff8010313e:	ba 01 00 00 00       	mov    $0x1,%edx
ffffffff80103143:	48 c7 c6 2e 02 11 80 	mov    $0xffffffff8011022e,%rsi
ffffffff8010314a:	b8 00 00 00 00       	mov    $0x0,%eax
ffffffff8010314f:	e8 bd 7e 00 00       	callq  ffffffff8010b011 <sprintf>
ffffffff80103154:	ff 75 80             	pushq  -0x80(%rbp)
ffffffff80103157:	ff b5 78 ff ff ff    	pushq  -0x88(%rbp)
ffffffff8010315d:	ff b5 70 ff ff ff    	pushq  -0x90(%rbp)
ffffffff80103163:	ff b5 68 ff ff ff    	pushq  -0x98(%rbp)
ffffffff80103169:	e8 f2 fa ff ff       	callq  ffffffff80102c60 <devfs_add_device>
ffffffff8010316e:	48 83 c4 20          	add    $0x20,%rsp
ffffffff80103172:	90                   	nop
ffffffff80103173:	c9                   	leaveq 
ffffffff80103174:	c3                   	retq   

ffffffff80103175 <msd_raw_read>:
ffffffff80103175:	55                   	push   %rbp
ffffffff80103176:	48 89 e5             	mov    %rsp,%rbp
ffffffff80103179:	48 83 ec 20          	sub    $0x20,%rsp
ffffffff8010317d:	48 89 7d f8          	mov    %rdi,-0x8(%rbp)
ffffffff80103181:	48 89 75 f0          	mov    %rsi,-0x10(%rbp)
ffffffff80103185:	48 89 55 e8          	mov    %rdx,-0x18(%rbp)
ffffffff80103189:	48 89 4d e0          	mov    %rcx,-0x20(%rbp)
ffffffff8010318d:	48 8b 45 f8          	mov    -0x8(%rbp),%rax
ffffffff80103191:	48 8b 40 18          	mov    0x18(%rax),%rax
ffffffff80103195:	4c 8b 40 18          	mov    0x18(%rax),%r8
ffffffff80103199:	48 8b 45 f8          	mov    -0x8(%rbp),%rax
ffffffff8010319d:	48 8b 50 10          	mov    0x10(%rax),%rdx
ffffffff801031a1:	48 8b 45 f0          	mov    -0x10(%rbp),%rax
ffffffff801031a5:	48 8d 34 02          	lea    (%rdx,%rax,1),%rsi
ffffffff801031a9:	48 8b 45 f8          	mov    -0x8(%rbp),%rax
ffffffff801031ad:	48 8b 40 18          	mov    0x18(%rax),%rax
ffffffff801031b1:	48 8b 40 08          	mov    0x8(%rax),%rax
ffffffff801031b5:	89 c7                	mov    %eax,%edi
ffffffff801031b7:	48 8b 55 e0          	mov    -0x20(%rbp),%rdx
ffffffff801031bb:	48 8b 45 e8          	mov    -0x18(%rbp),%rax
ffffffff801031bf:	48 89 d1             	mov    %rdx,%rcx
ffffffff801031c2:	48 89 c2             	mov    %rax,%rdx
ffffffff801031c5:	41 ff d0             	callq  *%r8
ffffffff801031c8:	90                   	nop
ffffffff801031c9:	c9                   	leaveq 
ffffffff801031ca:	c3                   	retq   

ffffffff801031cb <msd_raw_write>:
ffffffff801031cb:	55                   	push   %rbp
ffffffff801031cc:	48 89 e5             	mov    %rsp,%rbp
ffffffff801031cf:	48 83 ec 20          	sub    $0x20,%rsp
ffffffff801031d3:	48 89 7d f8          	mov    %rdi,-0x8(%rbp)
ffffffff801031d7:	48 89 75 f0          	mov    %rsi,-0x10(%rbp)
ffffffff801031db:	48 89 55 e8          	mov    %rdx,-0x18(%rbp)
ffffffff801031df:	48 89 4d e0          	mov    %rcx,-0x20(%rbp)
ffffffff801031e3:	48 8b 45 f8          	mov    -0x8(%rbp),%rax
ffffffff801031e7:	48 8b 40 18          	mov    0x18(%rax),%rax
ffffffff801031eb:	4c 8b 40 20          	mov    0x20(%rax),%r8
ffffffff801031ef:	48 8b 45 f8          	mov    -0x8(%rbp),%rax
ffffffff801031f3:	48 8b 50 10          	mov    0x10(%rax),%rdx
ffffffff801031f7:	48 8b 45 f0          	mov    -0x10(%rbp),%rax
ffffffff801031fb:	48 8d 34 02          	lea    (%rdx,%rax,1),%rsi
ffffffff801031ff:	48 8b 45 f8          	mov    -0x8(%rbp),%rax
ffffffff80103203:	48 8b 40 18          	mov    0x18(%rax),%rax
ffffffff80103207:	48 8b 40 08          	mov    0x8(%rax),%rax
ffffffff8010320b:	89 c7                	mov    %eax,%edi
ffffffff8010320d:	48 8b 55 e0          	mov    -0x20(%rbp),%rdx
ffffffff80103211:	48 8b 45 e8          	mov    -0x18(%rbp),%rax
ffffffff80103215:	48 89 d1             	mov    %rdx,%rcx
ffffffff80103218:	48 89 c2             	mov    %rax,%rdx
ffffffff8010321b:	41 ff d0             	callq  *%r8
ffffffff8010321e:	90                   	nop
ffffffff8010321f:	c9                   	leaveq 
ffffffff80103220:	c3                   	retq   

ffffffff80103221 <init_devfs>:
ffffffff80103221:	55                   	push   %rbp
ffffffff80103222:	48 89 e5             	mov    %rsp,%rbp
ffffffff80103225:	48 c7 c6 33 02 11 80 	mov    $0xffffffff80110233,%rsi
ffffffff8010322c:	48 c7 c7 60 41 11 80 	mov    $0xffffffff80114160,%rdi
ffffffff80103233:	e8 a3 b8 00 00       	callq  ffffffff8010eadb <vfs_mkdir>
ffffffff80103238:	48 c7 c7 00 30 11 80 	mov    $0xffffffff80113000,%rdi
ffffffff8010323f:	e8 1e bb 00 00       	callq  ffffffff8010ed62 <vfs_mount_fs>
ffffffff80103244:	90                   	nop
ffffffff80103245:	5d                   	pop    %rbp
ffffffff80103246:	c3                   	retq   

ffffffff80103247 <find_dir_relative>:
ffffffff80103247:	55                   	push   %rbp
ffffffff80103248:	48 89 e5             	mov    %rsp,%rbp
ffffffff8010324b:	48 83 ec 50          	sub    $0x50,%rsp
ffffffff8010324f:	48 89 7d c8          	mov    %rdi,-0x38(%rbp)
ffffffff80103253:	48 89 75 c0          	mov    %rsi,-0x40(%rbp)
ffffffff80103257:	48 89 55 b8          	mov    %rdx,-0x48(%rbp)
ffffffff8010325b:	48 89 4d b0          	mov    %rcx,-0x50(%rbp)
ffffffff8010325f:	48 8b 45 c0          	mov    -0x40(%rbp),%rax
ffffffff80103263:	8b 40 04             	mov    0x4(%rax),%eax
ffffffff80103266:	89 c0                	mov    %eax,%eax
ffffffff80103268:	48 89 c7             	mov    %rax,%rdi
ffffffff8010326b:	e8 d7 f0 ff ff       	callq  ffffffff80102347 <kmalloc>
ffffffff80103270:	48 89 45 f0          	mov    %rax,-0x10(%rbp)
ffffffff80103274:	48 8b 45 c0          	mov    -0x40(%rbp),%rax
ffffffff80103278:	8b 40 04             	mov    0x4(%rax),%eax
ffffffff8010327b:	89 c1                	mov    %eax,%ecx
ffffffff8010327d:	48 8b 55 f0          	mov    -0x10(%rbp),%rdx
ffffffff80103281:	48 8b 75 c0          	mov    -0x40(%rbp),%rsi
ffffffff80103285:	48 8b 45 c8          	mov    -0x38(%rbp),%rax
ffffffff80103289:	49 89 d0             	mov    %rdx,%r8
ffffffff8010328c:	ba 00 00 00 00       	mov    $0x0,%edx
ffffffff80103291:	48 89 c7             	mov    %rax,%rdi
ffffffff80103294:	e8 27 63 00 00       	callq  ffffffff801095c0 <ext2_inode_read>
ffffffff80103299:	c7 45 fc 00 00 00 00 	movl   $0x0,-0x4(%rbp)
ffffffff801032a0:	e9 e9 00 00 00       	jmpq   ffffffff8010338e <find_dir_relative+0x147>
ffffffff801032a5:	8b 55 fc             	mov    -0x4(%rbp),%edx
ffffffff801032a8:	48 8b 45 f0          	mov    -0x10(%rbp),%rax
ffffffff801032ac:	48 01 d0             	add    %rdx,%rax
ffffffff801032af:	48 89 45 e8          	mov    %rax,-0x18(%rbp)
ffffffff801032b3:	48 8b 45 b0          	mov    -0x50(%rbp),%rax
ffffffff801032b7:	48 89 c7             	mov    %rax,%rdi
ffffffff801032ba:	e8 50 ac 00 00       	callq  ffffffff8010df0f <strlen>
ffffffff801032bf:	48 89 c2             	mov    %rax,%rdx
ffffffff801032c2:	48 8b 45 e8          	mov    -0x18(%rbp),%rax
ffffffff801032c6:	48 8d 48 08          	lea    0x8(%rax),%rcx
ffffffff801032ca:	48 8b 45 b0          	mov    -0x50(%rbp),%rax
ffffffff801032ce:	48 89 c6             	mov    %rax,%rsi
ffffffff801032d1:	48 89 cf             	mov    %rcx,%rdi
ffffffff801032d4:	e8 bc ac 00 00       	callq  ffffffff8010df95 <strncmp>
ffffffff801032d9:	85 c0                	test   %eax,%eax
ffffffff801032db:	75 44                	jne    ffffffff80103321 <find_dir_relative+0xda>
ffffffff801032dd:	48 8b 45 e8          	mov    -0x18(%rbp),%rax
ffffffff801032e1:	8b 00                	mov    (%rax),%eax
ffffffff801032e3:	85 c0                	test   %eax,%eax
ffffffff801032e5:	75 16                	jne    ffffffff801032fd <find_dir_relative+0xb6>
ffffffff801032e7:	48 8b 45 f0          	mov    -0x10(%rbp),%rax
ffffffff801032eb:	48 89 c7             	mov    %rax,%rdi
ffffffff801032ee:	e8 00 f2 ff ff       	callq  ffffffff801024f3 <kfree>
ffffffff801032f3:	b8 ff ff ff ff       	mov    $0xffffffff,%eax
ffffffff801032f8:	e9 a9 00 00 00       	jmpq   ffffffff801033a6 <find_dir_relative+0x15f>
ffffffff801032fd:	48 8b 45 b8          	mov    -0x48(%rbp),%rax
ffffffff80103301:	48 8b 55 e8          	mov    -0x18(%rbp),%rdx
ffffffff80103305:	48 8b 12             	mov    (%rdx),%rdx
ffffffff80103308:	48 89 10             	mov    %rdx,(%rax)
ffffffff8010330b:	48 8b 45 f0          	mov    -0x10(%rbp),%rax
ffffffff8010330f:	48 89 c7             	mov    %rax,%rdi
ffffffff80103312:	e8 dc f1 ff ff       	callq  ffffffff801024f3 <kfree>
ffffffff80103317:	b8 00 00 00 00       	mov    $0x0,%eax
ffffffff8010331c:	e9 85 00 00 00       	jmpq   ffffffff801033a6 <find_dir_relative+0x15f>
ffffffff80103321:	48 8b 45 e8          	mov    -0x18(%rbp),%rax
ffffffff80103325:	0f b6 40 06          	movzbl 0x6(%rax),%eax
ffffffff80103329:	0f b6 c0             	movzbl %al,%eax
ffffffff8010332c:	48 83 c0 08          	add    $0x8,%rax
ffffffff80103330:	48 89 45 e0          	mov    %rax,-0x20(%rbp)
ffffffff80103334:	c7 45 dc 04 00 00 00 	movl   $0x4,-0x24(%rbp)
ffffffff8010333b:	8b 45 dc             	mov    -0x24(%rbp),%eax
ffffffff8010333e:	83 e8 01             	sub    $0x1,%eax
ffffffff80103341:	48 63 d0             	movslq %eax,%rdx
ffffffff80103344:	48 8b 45 e0          	mov    -0x20(%rbp),%rax
ffffffff80103348:	48 01 d0             	add    %rdx,%rax
ffffffff8010334b:	8b 55 dc             	mov    -0x24(%rbp),%edx
ffffffff8010334e:	48 63 f2             	movslq %edx,%rsi
ffffffff80103351:	ba 00 00 00 00       	mov    $0x0,%edx
ffffffff80103356:	48 f7 f6             	div    %rsi
ffffffff80103359:	48 89 c2             	mov    %rax,%rdx
ffffffff8010335c:	8b 45 dc             	mov    -0x24(%rbp),%eax
ffffffff8010335f:	48 98                	cltq   
ffffffff80103361:	48 0f af c2          	imul   %rdx,%rax
ffffffff80103365:	48 89 45 e0          	mov    %rax,-0x20(%rbp)
ffffffff80103369:	48 8b 45 e0          	mov    -0x20(%rbp),%rax
ffffffff8010336d:	89 45 d8             	mov    %eax,-0x28(%rbp)
ffffffff80103370:	48 8b 45 e8          	mov    -0x18(%rbp),%rax
ffffffff80103374:	0f b7 40 04          	movzwl 0x4(%rax),%eax
ffffffff80103378:	0f b7 c0             	movzwl %ax,%eax
ffffffff8010337b:	39 45 d8             	cmp    %eax,-0x28(%rbp)
ffffffff8010337e:	75 20                	jne    ffffffff801033a0 <find_dir_relative+0x159>
ffffffff80103380:	48 8b 45 e8          	mov    -0x18(%rbp),%rax
ffffffff80103384:	0f b7 40 04          	movzwl 0x4(%rax),%eax
ffffffff80103388:	0f b7 c0             	movzwl %ax,%eax
ffffffff8010338b:	01 45 fc             	add    %eax,-0x4(%rbp)
ffffffff8010338e:	48 8b 45 c0          	mov    -0x40(%rbp),%rax
ffffffff80103392:	8b 40 04             	mov    0x4(%rax),%eax
ffffffff80103395:	39 45 fc             	cmp    %eax,-0x4(%rbp)
ffffffff80103398:	0f 82 07 ff ff ff    	jb     ffffffff801032a5 <find_dir_relative+0x5e>
ffffffff8010339e:	eb 01                	jmp    ffffffff801033a1 <find_dir_relative+0x15a>
ffffffff801033a0:	90                   	nop
ffffffff801033a1:	b8 ff ff ff ff       	mov    $0xffffffff,%eax
ffffffff801033a6:	c9                   	leaveq 
ffffffff801033a7:	c3                   	retq   

ffffffff801033a8 <ext2_find_dir>:
ffffffff801033a8:	55                   	push   %rbp
ffffffff801033a9:	48 89 e5             	mov    %rsp,%rbp
ffffffff801033ac:	48 81 ec 30 01 00 00 	sub    $0x130,%rsp
ffffffff801033b3:	48 89 bd 68 ff ff ff 	mov    %rdi,-0x98(%rbp)
ffffffff801033ba:	48 89 b5 60 ff ff ff 	mov    %rsi,-0xa0(%rbp)
ffffffff801033c1:	48 89 95 58 ff ff ff 	mov    %rdx,-0xa8(%rbp)
ffffffff801033c8:	48 89 8d 50 ff ff ff 	mov    %rcx,-0xb0(%rbp)
ffffffff801033cf:	48 8b 85 50 ff ff ff 	mov    -0xb0(%rbp),%rax
ffffffff801033d6:	48 89 c7             	mov    %rax,%rdi
ffffffff801033d9:	e8 31 ab 00 00       	callq  ffffffff8010df0f <strlen>
ffffffff801033de:	48 89 c7             	mov    %rax,%rdi
ffffffff801033e1:	e8 61 ef ff ff       	callq  ffffffff80102347 <kmalloc>
ffffffff801033e6:	48 89 45 f8          	mov    %rax,-0x8(%rbp)
ffffffff801033ea:	48 8b 95 50 ff ff ff 	mov    -0xb0(%rbp),%rdx
ffffffff801033f1:	48 8b 45 f8          	mov    -0x8(%rbp),%rax
ffffffff801033f5:	48 89 d6             	mov    %rdx,%rsi
ffffffff801033f8:	48 89 c7             	mov    %rax,%rdi
ffffffff801033fb:	e8 f0 ab 00 00       	callq  ffffffff8010dff0 <strcpy>
ffffffff80103400:	48 8b 85 60 ff ff ff 	mov    -0xa0(%rbp),%rax
ffffffff80103407:	48 8b 10             	mov    (%rax),%rdx
ffffffff8010340a:	48 89 95 7c ff ff ff 	mov    %rdx,-0x84(%rbp)
ffffffff80103411:	48 8b 50 08          	mov    0x8(%rax),%rdx
ffffffff80103415:	48 89 55 84          	mov    %rdx,-0x7c(%rbp)
ffffffff80103419:	48 8b 50 10          	mov    0x10(%rax),%rdx
ffffffff8010341d:	48 89 55 8c          	mov    %rdx,-0x74(%rbp)
ffffffff80103421:	48 8b 50 18          	mov    0x18(%rax),%rdx
ffffffff80103425:	48 89 55 94          	mov    %rdx,-0x6c(%rbp)
ffffffff80103429:	48 8b 50 20          	mov    0x20(%rax),%rdx
ffffffff8010342d:	48 89 55 9c          	mov    %rdx,-0x64(%rbp)
ffffffff80103431:	48 8b 50 28          	mov    0x28(%rax),%rdx
ffffffff80103435:	48 89 55 a4          	mov    %rdx,-0x5c(%rbp)
ffffffff80103439:	48 8b 50 30          	mov    0x30(%rax),%rdx
ffffffff8010343d:	48 89 55 ac          	mov    %rdx,-0x54(%rbp)
ffffffff80103441:	48 8b 50 38          	mov    0x38(%rax),%rdx
ffffffff80103445:	48 89 55 b4          	mov    %rdx,-0x4c(%rbp)
ffffffff80103449:	48 8b 50 40          	mov    0x40(%rax),%rdx
ffffffff8010344d:	48 89 55 bc          	mov    %rdx,-0x44(%rbp)
ffffffff80103451:	48 8b 50 48          	mov    0x48(%rax),%rdx
ffffffff80103455:	48 89 55 c4          	mov    %rdx,-0x3c(%rbp)
ffffffff80103459:	48 8b 50 50          	mov    0x50(%rax),%rdx
ffffffff8010345d:	48 89 55 cc          	mov    %rdx,-0x34(%rbp)
ffffffff80103461:	48 8b 50 58          	mov    0x58(%rax),%rdx
ffffffff80103465:	48 89 55 d4          	mov    %rdx,-0x2c(%rbp)
ffffffff80103469:	48 8b 50 60          	mov    0x60(%rax),%rdx
ffffffff8010346d:	48 89 55 dc          	mov    %rdx,-0x24(%rbp)
ffffffff80103471:	48 8b 50 68          	mov    0x68(%rax),%rdx
ffffffff80103475:	48 89 55 e4          	mov    %rdx,-0x1c(%rbp)
ffffffff80103479:	8b 40 70             	mov    0x70(%rax),%eax
ffffffff8010347c:	89 45 ec             	mov    %eax,-0x14(%rbp)
ffffffff8010347f:	48 8b 45 f8          	mov    -0x8(%rbp),%rax
ffffffff80103483:	48 89 85 70 ff ff ff 	mov    %rax,-0x90(%rbp)
ffffffff8010348a:	e9 04 01 00 00       	jmpq   ffffffff80103593 <ext2_find_dir+0x1eb>
ffffffff8010348f:	48 8b 4d f0          	mov    -0x10(%rbp),%rcx
ffffffff80103493:	48 8b 95 58 ff ff ff 	mov    -0xa8(%rbp),%rdx
ffffffff8010349a:	48 8d b5 7c ff ff ff 	lea    -0x84(%rbp),%rsi
ffffffff801034a1:	48 8b 85 68 ff ff ff 	mov    -0x98(%rbp),%rax
ffffffff801034a8:	48 89 c7             	mov    %rax,%rdi
ffffffff801034ab:	e8 97 fd ff ff       	callq  ffffffff80103247 <find_dir_relative>
ffffffff801034b0:	83 f8 ff             	cmp    $0xffffffff,%eax
ffffffff801034b3:	75 16                	jne    ffffffff801034cb <ext2_find_dir+0x123>
ffffffff801034b5:	48 8b 45 f8          	mov    -0x8(%rbp),%rax
ffffffff801034b9:	48 89 c7             	mov    %rax,%rdi
ffffffff801034bc:	e8 32 f0 ff ff       	callq  ffffffff801024f3 <kfree>
ffffffff801034c1:	b8 ff ff ff ff       	mov    $0xffffffff,%eax
ffffffff801034c6:	e9 05 01 00 00       	jmpq   ffffffff801035d0 <ext2_find_dir+0x228>
ffffffff801034cb:	48 8b 85 58 ff ff ff 	mov    -0xa8(%rbp),%rax
ffffffff801034d2:	8b 10                	mov    (%rax),%edx
ffffffff801034d4:	48 8d 85 d0 fe ff ff 	lea    -0x130(%rbp),%rax
ffffffff801034db:	48 8b 8d 68 ff ff ff 	mov    -0x98(%rbp),%rcx
ffffffff801034e2:	48 89 ce             	mov    %rcx,%rsi
ffffffff801034e5:	48 89 c7             	mov    %rax,%rdi
ffffffff801034e8:	e8 90 63 00 00       	callq  ffffffff8010987d <ext2_inode_read_entry>
ffffffff801034ed:	48 8b 85 d0 fe ff ff 	mov    -0x130(%rbp),%rax
ffffffff801034f4:	48 89 85 7c ff ff ff 	mov    %rax,-0x84(%rbp)
ffffffff801034fb:	48 8b 85 d8 fe ff ff 	mov    -0x128(%rbp),%rax
ffffffff80103502:	48 89 45 84          	mov    %rax,-0x7c(%rbp)
ffffffff80103506:	48 8b 85 e0 fe ff ff 	mov    -0x120(%rbp),%rax
ffffffff8010350d:	48 89 45 8c          	mov    %rax,-0x74(%rbp)
ffffffff80103511:	48 8b 85 e8 fe ff ff 	mov    -0x118(%rbp),%rax
ffffffff80103518:	48 89 45 94          	mov    %rax,-0x6c(%rbp)
ffffffff8010351c:	48 8b 85 f0 fe ff ff 	mov    -0x110(%rbp),%rax
ffffffff80103523:	48 89 45 9c          	mov    %rax,-0x64(%rbp)
ffffffff80103527:	48 8b 85 f8 fe ff ff 	mov    -0x108(%rbp),%rax
ffffffff8010352e:	48 89 45 a4          	mov    %rax,-0x5c(%rbp)
ffffffff80103532:	48 8b 85 00 ff ff ff 	mov    -0x100(%rbp),%rax
ffffffff80103539:	48 89 45 ac          	mov    %rax,-0x54(%rbp)
ffffffff8010353d:	48 8b 85 08 ff ff ff 	mov    -0xf8(%rbp),%rax
ffffffff80103544:	48 89 45 b4          	mov    %rax,-0x4c(%rbp)
ffffffff80103548:	48 8b 85 10 ff ff ff 	mov    -0xf0(%rbp),%rax
ffffffff8010354f:	48 89 45 bc          	mov    %rax,-0x44(%rbp)
ffffffff80103553:	48 8b 85 18 ff ff ff 	mov    -0xe8(%rbp),%rax
ffffffff8010355a:	48 89 45 c4          	mov    %rax,-0x3c(%rbp)
ffffffff8010355e:	48 8b 85 20 ff ff ff 	mov    -0xe0(%rbp),%rax
ffffffff80103565:	48 89 45 cc          	mov    %rax,-0x34(%rbp)
ffffffff80103569:	48 8b 85 28 ff ff ff 	mov    -0xd8(%rbp),%rax
ffffffff80103570:	48 89 45 d4          	mov    %rax,-0x2c(%rbp)
ffffffff80103574:	48 8b 85 30 ff ff ff 	mov    -0xd0(%rbp),%rax
ffffffff8010357b:	48 89 45 dc          	mov    %rax,-0x24(%rbp)
ffffffff8010357f:	48 8b 85 38 ff ff ff 	mov    -0xc8(%rbp),%rax
ffffffff80103586:	48 89 45 e4          	mov    %rax,-0x1c(%rbp)
ffffffff8010358a:	8b 85 40 ff ff ff    	mov    -0xc0(%rbp),%eax
ffffffff80103590:	89 45 ec             	mov    %eax,-0x14(%rbp)
ffffffff80103593:	48 8b 85 70 ff ff ff 	mov    -0x90(%rbp),%rax
ffffffff8010359a:	48 8d 95 70 ff ff ff 	lea    -0x90(%rbp),%rdx
ffffffff801035a1:	48 c7 c6 37 02 11 80 	mov    $0xffffffff80110237,%rsi
ffffffff801035a8:	48 89 c7             	mov    %rax,%rdi
ffffffff801035ab:	e8 40 ac 00 00       	callq  ffffffff8010e1f0 <strtok_r>
ffffffff801035b0:	48 89 45 f0          	mov    %rax,-0x10(%rbp)
ffffffff801035b4:	48 83 7d f0 00       	cmpq   $0x0,-0x10(%rbp)
ffffffff801035b9:	0f 85 d0 fe ff ff    	jne    ffffffff8010348f <ext2_find_dir+0xe7>
ffffffff801035bf:	48 8b 45 f8          	mov    -0x8(%rbp),%rax
ffffffff801035c3:	48 89 c7             	mov    %rax,%rdi
ffffffff801035c6:	e8 28 ef ff ff       	callq  ffffffff801024f3 <kfree>
ffffffff801035cb:	b8 00 00 00 00       	mov    $0x0,%eax
ffffffff801035d0:	c9                   	leaveq 
ffffffff801035d1:	c3                   	retq   

ffffffff801035d2 <ext2_create_dir>:
ffffffff801035d2:	55                   	push   %rbp
ffffffff801035d3:	48 89 e5             	mov    %rsp,%rbp
ffffffff801035d6:	48 83 ec 60          	sub    $0x60,%rsp
ffffffff801035da:	48 89 7d c8          	mov    %rdi,-0x38(%rbp)
ffffffff801035de:	48 89 75 c0          	mov    %rsi,-0x40(%rbp)
ffffffff801035e2:	89 55 bc             	mov    %edx,-0x44(%rbp)
ffffffff801035e5:	89 4d b8             	mov    %ecx,-0x48(%rbp)
ffffffff801035e8:	44 89 c0             	mov    %r8d,%eax
ffffffff801035eb:	4c 89 4d a8          	mov    %r9,-0x58(%rbp)
ffffffff801035ef:	88 45 b4             	mov    %al,-0x4c(%rbp)
ffffffff801035f2:	48 8b 45 c0          	mov    -0x40(%rbp),%rax
ffffffff801035f6:	8b 40 04             	mov    0x4(%rax),%eax
ffffffff801035f9:	89 c0                	mov    %eax,%eax
ffffffff801035fb:	48 89 c7             	mov    %rax,%rdi
ffffffff801035fe:	e8 44 ed ff ff       	callq  ffffffff80102347 <kmalloc>
ffffffff80103603:	48 89 45 f0          	mov    %rax,-0x10(%rbp)
ffffffff80103607:	48 8b 45 c0          	mov    -0x40(%rbp),%rax
ffffffff8010360b:	8b 40 04             	mov    0x4(%rax),%eax
ffffffff8010360e:	89 c1                	mov    %eax,%ecx
ffffffff80103610:	48 8b 55 f0          	mov    -0x10(%rbp),%rdx
ffffffff80103614:	48 8b 75 c0          	mov    -0x40(%rbp),%rsi
ffffffff80103618:	48 8b 45 c8          	mov    -0x38(%rbp),%rax
ffffffff8010361c:	49 89 d0             	mov    %rdx,%r8
ffffffff8010361f:	ba 00 00 00 00       	mov    $0x0,%edx
ffffffff80103624:	48 89 c7             	mov    %rax,%rdi
ffffffff80103627:	e8 94 5f 00 00       	callq  ffffffff801095c0 <ext2_inode_read>
ffffffff8010362c:	48 8b 45 c8          	mov    -0x38(%rbp),%rax
ffffffff80103630:	48 8b 40 18          	mov    0x18(%rax),%rax
ffffffff80103634:	48 8b 00             	mov    (%rax),%rax
ffffffff80103637:	48 8b 40 08          	mov    0x8(%rax),%rax
ffffffff8010363b:	48 89 45 e8          	mov    %rax,-0x18(%rbp)
ffffffff8010363f:	c7 45 fc 00 00 00 00 	movl   $0x0,-0x4(%rbp)
ffffffff80103646:	c7 45 f8 00 00 00 00 	movl   $0x0,-0x8(%rbp)
ffffffff8010364d:	e9 6d 01 00 00       	jmpq   ffffffff801037bf <ext2_create_dir+0x1ed>
ffffffff80103652:	8b 55 f8             	mov    -0x8(%rbp),%edx
ffffffff80103655:	48 8b 45 f0          	mov    -0x10(%rbp),%rax
ffffffff80103659:	48 01 d0             	add    %rdx,%rax
ffffffff8010365c:	48 89 45 e0          	mov    %rax,-0x20(%rbp)
ffffffff80103660:	83 7d fc 00          	cmpl   $0x0,-0x4(%rbp)
ffffffff80103664:	0f 84 cc 00 00 00    	je     ffffffff80103736 <ext2_create_dir+0x164>
ffffffff8010366a:	48 8b 45 e0          	mov    -0x20(%rbp),%rax
ffffffff8010366e:	8b 55 b8             	mov    -0x48(%rbp),%edx
ffffffff80103671:	89 10                	mov    %edx,(%rax)
ffffffff80103673:	48 8b 45 e0          	mov    -0x20(%rbp),%rax
ffffffff80103677:	0f b6 55 b4          	movzbl -0x4c(%rbp),%edx
ffffffff8010367b:	88 50 07             	mov    %dl,0x7(%rax)
ffffffff8010367e:	48 8b 45 a8          	mov    -0x58(%rbp),%rax
ffffffff80103682:	48 89 c7             	mov    %rax,%rdi
ffffffff80103685:	e8 85 a8 00 00       	callq  ffffffff8010df0f <strlen>
ffffffff8010368a:	89 c2                	mov    %eax,%edx
ffffffff8010368c:	48 8b 45 e0          	mov    -0x20(%rbp),%rax
ffffffff80103690:	88 50 06             	mov    %dl,0x6(%rax)
ffffffff80103693:	48 8b 45 e8          	mov    -0x18(%rbp),%rax
ffffffff80103697:	48 8b 80 40 01 00 00 	mov    0x140(%rax),%rax
ffffffff8010369e:	89 c2                	mov    %eax,%edx
ffffffff801036a0:	8b 45 f8             	mov    -0x8(%rbp),%eax
ffffffff801036a3:	29 c2                	sub    %eax,%edx
ffffffff801036a5:	48 8b 45 e0          	mov    -0x20(%rbp),%rax
ffffffff801036a9:	66 89 50 04          	mov    %dx,0x4(%rax)
ffffffff801036ad:	48 8b 45 e0          	mov    -0x20(%rbp),%rax
ffffffff801036b1:	0f b6 40 06          	movzbl 0x6(%rax),%eax
ffffffff801036b5:	0f b6 d0             	movzbl %al,%edx
ffffffff801036b8:	48 8b 45 e0          	mov    -0x20(%rbp),%rax
ffffffff801036bc:	48 8d 48 08          	lea    0x8(%rax),%rcx
ffffffff801036c0:	48 8b 45 a8          	mov    -0x58(%rbp),%rax
ffffffff801036c4:	48 89 c6             	mov    %rax,%rsi
ffffffff801036c7:	48 89 cf             	mov    %rcx,%rdi
ffffffff801036ca:	e8 6f 75 00 00       	callq  ffffffff8010ac3e <memcpy8>
ffffffff801036cf:	48 8b 45 e0          	mov    -0x20(%rbp),%rax
ffffffff801036d3:	0f b7 40 04          	movzwl 0x4(%rax),%eax
ffffffff801036d7:	0f b7 c0             	movzwl %ax,%eax
ffffffff801036da:	01 45 f8             	add    %eax,-0x8(%rbp)
ffffffff801036dd:	8b 55 f8             	mov    -0x8(%rbp),%edx
ffffffff801036e0:	48 8b 45 f0          	mov    -0x10(%rbp),%rax
ffffffff801036e4:	48 01 d0             	add    %rdx,%rax
ffffffff801036e7:	48 89 45 e0          	mov    %rax,-0x20(%rbp)
ffffffff801036eb:	48 8b 45 e0          	mov    -0x20(%rbp),%rax
ffffffff801036ef:	ba 08 00 00 00       	mov    $0x8,%edx
ffffffff801036f4:	be 00 00 00 00       	mov    $0x0,%esi
ffffffff801036f9:	48 89 c7             	mov    %rax,%rdi
ffffffff801036fc:	e8 2e 74 00 00       	callq  ffffffff8010ab2f <memset8>
ffffffff80103701:	48 8b 45 c0          	mov    -0x40(%rbp),%rax
ffffffff80103705:	8b 40 04             	mov    0x4(%rax),%eax
ffffffff80103708:	89 c7                	mov    %eax,%edi
ffffffff8010370a:	48 8b 4d f0          	mov    -0x10(%rbp),%rcx
ffffffff8010370e:	8b 55 bc             	mov    -0x44(%rbp),%edx
ffffffff80103711:	48 8b 75 c0          	mov    -0x40(%rbp),%rsi
ffffffff80103715:	48 8b 45 c8          	mov    -0x38(%rbp),%rax
ffffffff80103719:	49 89 c9             	mov    %rcx,%r9
ffffffff8010371c:	49 89 f8             	mov    %rdi,%r8
ffffffff8010371f:	b9 00 00 00 00       	mov    $0x0,%ecx
ffffffff80103724:	48 89 c7             	mov    %rax,%rdi
ffffffff80103727:	e8 94 5f 00 00       	callq  ffffffff801096c0 <ext2_inode_write>
ffffffff8010372c:	b8 00 00 00 00       	mov    $0x0,%eax
ffffffff80103731:	e9 9e 00 00 00       	jmpq   ffffffff801037d4 <ext2_create_dir+0x202>
ffffffff80103736:	48 8b 45 e0          	mov    -0x20(%rbp),%rax
ffffffff8010373a:	0f b6 40 06          	movzbl 0x6(%rax),%eax
ffffffff8010373e:	0f b6 c0             	movzbl %al,%eax
ffffffff80103741:	48 83 c0 08          	add    $0x8,%rax
ffffffff80103745:	48 89 45 d8          	mov    %rax,-0x28(%rbp)
ffffffff80103749:	c7 45 d4 04 00 00 00 	movl   $0x4,-0x2c(%rbp)
ffffffff80103750:	8b 45 d4             	mov    -0x2c(%rbp),%eax
ffffffff80103753:	83 e8 01             	sub    $0x1,%eax
ffffffff80103756:	48 63 d0             	movslq %eax,%rdx
ffffffff80103759:	48 8b 45 d8          	mov    -0x28(%rbp),%rax
ffffffff8010375d:	48 01 d0             	add    %rdx,%rax
ffffffff80103760:	8b 55 d4             	mov    -0x2c(%rbp),%edx
ffffffff80103763:	48 63 ca             	movslq %edx,%rcx
ffffffff80103766:	ba 00 00 00 00       	mov    $0x0,%edx
ffffffff8010376b:	48 f7 f1             	div    %rcx
ffffffff8010376e:	48 89 c2             	mov    %rax,%rdx
ffffffff80103771:	8b 45 d4             	mov    -0x2c(%rbp),%eax
ffffffff80103774:	48 98                	cltq   
ffffffff80103776:	48 0f af c2          	imul   %rdx,%rax
ffffffff8010377a:	48 89 45 d8          	mov    %rax,-0x28(%rbp)
ffffffff8010377e:	48 8b 45 d8          	mov    -0x28(%rbp),%rax
ffffffff80103782:	89 45 d0             	mov    %eax,-0x30(%rbp)
ffffffff80103785:	48 8b 45 e0          	mov    -0x20(%rbp),%rax
ffffffff80103789:	0f b7 40 04          	movzwl 0x4(%rax),%eax
ffffffff8010378d:	0f b7 c0             	movzwl %ax,%eax
ffffffff80103790:	39 45 d0             	cmp    %eax,-0x30(%rbp)
ffffffff80103793:	74 1c                	je     ffffffff801037b1 <ext2_create_dir+0x1df>
ffffffff80103795:	8b 45 d0             	mov    -0x30(%rbp),%eax
ffffffff80103798:	89 c2                	mov    %eax,%edx
ffffffff8010379a:	48 8b 45 e0          	mov    -0x20(%rbp),%rax
ffffffff8010379e:	66 89 50 04          	mov    %dx,0x4(%rax)
ffffffff801037a2:	8b 45 d0             	mov    -0x30(%rbp),%eax
ffffffff801037a5:	01 45 f8             	add    %eax,-0x8(%rbp)
ffffffff801037a8:	c7 45 fc 01 00 00 00 	movl   $0x1,-0x4(%rbp)
ffffffff801037af:	eb 0e                	jmp    ffffffff801037bf <ext2_create_dir+0x1ed>
ffffffff801037b1:	48 8b 45 e0          	mov    -0x20(%rbp),%rax
ffffffff801037b5:	0f b7 40 04          	movzwl 0x4(%rax),%eax
ffffffff801037b9:	0f b7 c0             	movzwl %ax,%eax
ffffffff801037bc:	01 45 f8             	add    %eax,-0x8(%rbp)
ffffffff801037bf:	48 8b 45 c0          	mov    -0x40(%rbp),%rax
ffffffff801037c3:	8b 40 04             	mov    0x4(%rax),%eax
ffffffff801037c6:	39 45 f8             	cmp    %eax,-0x8(%rbp)
ffffffff801037c9:	0f 82 83 fe ff ff    	jb     ffffffff80103652 <ext2_create_dir+0x80>
ffffffff801037cf:	b8 ff ff ff ff       	mov    $0xffffffff,%eax
ffffffff801037d4:	c9                   	leaveq 
ffffffff801037d5:	c3                   	retq   

ffffffff801037d6 <ext2_delete_dir_entry>:
ffffffff801037d6:	55                   	push   %rbp
ffffffff801037d7:	48 89 e5             	mov    %rsp,%rbp
ffffffff801037da:	48 81 ec d0 00 00 00 	sub    $0xd0,%rsp
ffffffff801037e1:	48 89 bd 48 ff ff ff 	mov    %rdi,-0xb8(%rbp)
ffffffff801037e8:	48 89 b5 40 ff ff ff 	mov    %rsi,-0xc0(%rbp)
ffffffff801037ef:	89 95 3c ff ff ff    	mov    %edx,-0xc4(%rbp)
ffffffff801037f5:	48 89 8d 30 ff ff ff 	mov    %rcx,-0xd0(%rbp)
ffffffff801037fc:	48 8b 85 40 ff ff ff 	mov    -0xc0(%rbp),%rax
ffffffff80103803:	8b 40 04             	mov    0x4(%rax),%eax
ffffffff80103806:	89 c0                	mov    %eax,%eax
ffffffff80103808:	48 89 c7             	mov    %rax,%rdi
ffffffff8010380b:	e8 37 eb ff ff       	callq  ffffffff80102347 <kmalloc>
ffffffff80103810:	48 89 45 f0          	mov    %rax,-0x10(%rbp)
ffffffff80103814:	48 8b 85 40 ff ff ff 	mov    -0xc0(%rbp),%rax
ffffffff8010381b:	8b 40 04             	mov    0x4(%rax),%eax
ffffffff8010381e:	89 c1                	mov    %eax,%ecx
ffffffff80103820:	48 8b 55 f0          	mov    -0x10(%rbp),%rdx
ffffffff80103824:	48 8b b5 40 ff ff ff 	mov    -0xc0(%rbp),%rsi
ffffffff8010382b:	48 8b 85 48 ff ff ff 	mov    -0xb8(%rbp),%rax
ffffffff80103832:	49 89 d0             	mov    %rdx,%r8
ffffffff80103835:	ba 00 00 00 00       	mov    $0x0,%edx
ffffffff8010383a:	48 89 c7             	mov    %rax,%rdi
ffffffff8010383d:	e8 7e 5d 00 00       	callq  ffffffff801095c0 <ext2_inode_read>
ffffffff80103842:	48 8b 85 48 ff ff ff 	mov    -0xb8(%rbp),%rax
ffffffff80103849:	48 8b 40 18          	mov    0x18(%rax),%rax
ffffffff8010384d:	48 8b 00             	mov    (%rax),%rax
ffffffff80103850:	48 8b 40 08          	mov    0x8(%rax),%rax
ffffffff80103854:	48 89 45 e8          	mov    %rax,-0x18(%rbp)
ffffffff80103858:	c7 45 fc 00 00 00 00 	movl   $0x0,-0x4(%rbp)
ffffffff8010385f:	e9 5b 01 00 00       	jmpq   ffffffff801039bf <ext2_delete_dir_entry+0x1e9>
ffffffff80103864:	8b 55 fc             	mov    -0x4(%rbp),%edx
ffffffff80103867:	48 8b 45 f0          	mov    -0x10(%rbp),%rax
ffffffff8010386b:	48 01 d0             	add    %rdx,%rax
ffffffff8010386e:	48 89 45 e0          	mov    %rax,-0x20(%rbp)
ffffffff80103872:	48 8b 85 30 ff ff ff 	mov    -0xd0(%rbp),%rax
ffffffff80103879:	48 89 c7             	mov    %rax,%rdi
ffffffff8010387c:	e8 8e a6 00 00       	callq  ffffffff8010df0f <strlen>
ffffffff80103881:	48 89 c2             	mov    %rax,%rdx
ffffffff80103884:	48 8b 45 e0          	mov    -0x20(%rbp),%rax
ffffffff80103888:	48 8d 48 08          	lea    0x8(%rax),%rcx
ffffffff8010388c:	48 8b 85 30 ff ff ff 	mov    -0xd0(%rbp),%rax
ffffffff80103893:	48 89 c6             	mov    %rax,%rsi
ffffffff80103896:	48 89 cf             	mov    %rcx,%rdi
ffffffff80103899:	e8 f7 a6 00 00       	callq  ffffffff8010df95 <strncmp>
ffffffff8010389e:	85 c0                	test   %eax,%eax
ffffffff801038a0:	0f 85 ac 00 00 00    	jne    ffffffff80103952 <ext2_delete_dir_entry+0x17c>
ffffffff801038a6:	48 8b 45 e0          	mov    -0x20(%rbp),%rax
ffffffff801038aa:	0f b6 40 06          	movzbl 0x6(%rax),%eax
ffffffff801038ae:	0f b6 c0             	movzbl %al,%eax
ffffffff801038b1:	48 8b 55 e0          	mov    -0x20(%rbp),%rdx
ffffffff801038b5:	48 8d 4a 08          	lea    0x8(%rdx),%rcx
ffffffff801038b9:	48 89 c2             	mov    %rax,%rdx
ffffffff801038bc:	be 00 00 00 00       	mov    $0x0,%esi
ffffffff801038c1:	48 89 cf             	mov    %rcx,%rdi
ffffffff801038c4:	e8 66 72 00 00       	callq  ffffffff8010ab2f <memset8>
ffffffff801038c9:	48 8b 45 e0          	mov    -0x20(%rbp),%rax
ffffffff801038cd:	8b 10                	mov    (%rax),%edx
ffffffff801038cf:	48 8d 85 5c ff ff ff 	lea    -0xa4(%rbp),%rax
ffffffff801038d6:	48 8b 8d 48 ff ff ff 	mov    -0xb8(%rbp),%rcx
ffffffff801038dd:	48 89 ce             	mov    %rcx,%rsi
ffffffff801038e0:	48 89 c7             	mov    %rax,%rdi
ffffffff801038e3:	e8 95 5f 00 00       	callq  ffffffff8010987d <ext2_inode_read_entry>
ffffffff801038e8:	48 8b 45 e0          	mov    -0x20(%rbp),%rax
ffffffff801038ec:	8b 10                	mov    (%rax),%edx
ffffffff801038ee:	48 8d 8d 5c ff ff ff 	lea    -0xa4(%rbp),%rcx
ffffffff801038f5:	48 8b 85 48 ff ff ff 	mov    -0xb8(%rbp),%rax
ffffffff801038fc:	48 89 ce             	mov    %rcx,%rsi
ffffffff801038ff:	48 89 c7             	mov    %rax,%rdi
ffffffff80103902:	e8 da 5e 00 00       	callq  ffffffff801097e1 <ext2_inode_delete>
ffffffff80103907:	48 8b 45 e0          	mov    -0x20(%rbp),%rax
ffffffff8010390b:	c7 00 00 00 00 00    	movl   $0x0,(%rax)
ffffffff80103911:	48 8b 85 40 ff ff ff 	mov    -0xc0(%rbp),%rax
ffffffff80103918:	8b 40 04             	mov    0x4(%rax),%eax
ffffffff8010391b:	89 c7                	mov    %eax,%edi
ffffffff8010391d:	48 8b 4d f0          	mov    -0x10(%rbp),%rcx
ffffffff80103921:	8b 95 3c ff ff ff    	mov    -0xc4(%rbp),%edx
ffffffff80103927:	48 8b b5 40 ff ff ff 	mov    -0xc0(%rbp),%rsi
ffffffff8010392e:	48 8b 85 48 ff ff ff 	mov    -0xb8(%rbp),%rax
ffffffff80103935:	49 89 c9             	mov    %rcx,%r9
ffffffff80103938:	49 89 f8             	mov    %rdi,%r8
ffffffff8010393b:	b9 00 00 00 00       	mov    $0x0,%ecx
ffffffff80103940:	48 89 c7             	mov    %rax,%rdi
ffffffff80103943:	e8 78 5d 00 00       	callq  ffffffff801096c0 <ext2_inode_write>
ffffffff80103948:	b8 00 00 00 00       	mov    $0x0,%eax
ffffffff8010394d:	e9 88 00 00 00       	jmpq   ffffffff801039da <ext2_delete_dir_entry+0x204>
ffffffff80103952:	48 8b 45 e0          	mov    -0x20(%rbp),%rax
ffffffff80103956:	0f b6 40 06          	movzbl 0x6(%rax),%eax
ffffffff8010395a:	0f b6 c0             	movzbl %al,%eax
ffffffff8010395d:	48 83 c0 08          	add    $0x8,%rax
ffffffff80103961:	48 89 45 d8          	mov    %rax,-0x28(%rbp)
ffffffff80103965:	c7 45 d4 04 00 00 00 	movl   $0x4,-0x2c(%rbp)
ffffffff8010396c:	8b 45 d4             	mov    -0x2c(%rbp),%eax
ffffffff8010396f:	83 e8 01             	sub    $0x1,%eax
ffffffff80103972:	48 63 d0             	movslq %eax,%rdx
ffffffff80103975:	48 8b 45 d8          	mov    -0x28(%rbp),%rax
ffffffff80103979:	48 01 d0             	add    %rdx,%rax
ffffffff8010397c:	8b 55 d4             	mov    -0x2c(%rbp),%edx
ffffffff8010397f:	48 63 f2             	movslq %edx,%rsi
ffffffff80103982:	ba 00 00 00 00       	mov    $0x0,%edx
ffffffff80103987:	48 f7 f6             	div    %rsi
ffffffff8010398a:	48 89 c2             	mov    %rax,%rdx
ffffffff8010398d:	8b 45 d4             	mov    -0x2c(%rbp),%eax
ffffffff80103990:	48 98                	cltq   
ffffffff80103992:	48 0f af c2          	imul   %rdx,%rax
ffffffff80103996:	48 89 45 d8          	mov    %rax,-0x28(%rbp)
ffffffff8010399a:	48 8b 45 d8          	mov    -0x28(%rbp),%rax
ffffffff8010399e:	89 45 d0             	mov    %eax,-0x30(%rbp)
ffffffff801039a1:	48 8b 45 e0          	mov    -0x20(%rbp),%rax
ffffffff801039a5:	0f b7 40 04          	movzwl 0x4(%rax),%eax
ffffffff801039a9:	0f b7 c0             	movzwl %ax,%eax
ffffffff801039ac:	39 45 d0             	cmp    %eax,-0x30(%rbp)
ffffffff801039af:	75 23                	jne    ffffffff801039d4 <ext2_delete_dir_entry+0x1fe>
ffffffff801039b1:	48 8b 45 e0          	mov    -0x20(%rbp),%rax
ffffffff801039b5:	0f b7 40 04          	movzwl 0x4(%rax),%eax
ffffffff801039b9:	0f b7 c0             	movzwl %ax,%eax
ffffffff801039bc:	01 45 fc             	add    %eax,-0x4(%rbp)
ffffffff801039bf:	48 8b 85 40 ff ff ff 	mov    -0xc0(%rbp),%rax
ffffffff801039c6:	8b 40 04             	mov    0x4(%rax),%eax
ffffffff801039c9:	39 45 fc             	cmp    %eax,-0x4(%rbp)
ffffffff801039cc:	0f 82 92 fe ff ff    	jb     ffffffff80103864 <ext2_delete_dir_entry+0x8e>
ffffffff801039d2:	eb 01                	jmp    ffffffff801039d5 <ext2_delete_dir_entry+0x1ff>
ffffffff801039d4:	90                   	nop
ffffffff801039d5:	b8 ff ff ff ff       	mov    $0xffffffff,%eax
ffffffff801039da:	c9                   	leaveq 
ffffffff801039db:	c3                   	retq   

ffffffff801039dc <ext2_delete_dir>:
ffffffff801039dc:	55                   	push   %rbp
ffffffff801039dd:	48 89 e5             	mov    %rsp,%rbp
ffffffff801039e0:	48 81 ec 40 01 00 00 	sub    $0x140,%rsp
ffffffff801039e7:	48 89 bd 58 ff ff ff 	mov    %rdi,-0xa8(%rbp)
ffffffff801039ee:	48 89 b5 50 ff ff ff 	mov    %rsi,-0xb0(%rbp)
ffffffff801039f5:	48 89 95 48 ff ff ff 	mov    %rdx,-0xb8(%rbp)
ffffffff801039fc:	48 8b 85 48 ff ff ff 	mov    -0xb8(%rbp),%rax
ffffffff80103a03:	48 89 c7             	mov    %rax,%rdi
ffffffff80103a06:	e8 04 a5 00 00       	callq  ffffffff8010df0f <strlen>
ffffffff80103a0b:	48 89 c7             	mov    %rax,%rdi
ffffffff80103a0e:	e8 34 e9 ff ff       	callq  ffffffff80102347 <kmalloc>
ffffffff80103a13:	48 89 45 f0          	mov    %rax,-0x10(%rbp)
ffffffff80103a17:	48 8b 95 48 ff ff ff 	mov    -0xb8(%rbp),%rdx
ffffffff80103a1e:	48 8b 45 f0          	mov    -0x10(%rbp),%rax
ffffffff80103a22:	48 89 d6             	mov    %rdx,%rsi
ffffffff80103a25:	48 89 c7             	mov    %rax,%rdi
ffffffff80103a28:	e8 c3 a5 00 00       	callq  ffffffff8010dff0 <strcpy>
ffffffff80103a2d:	48 8b 85 50 ff ff ff 	mov    -0xb0(%rbp),%rax
ffffffff80103a34:	48 8b 10             	mov    (%rax),%rdx
ffffffff80103a37:	48 89 95 74 ff ff ff 	mov    %rdx,-0x8c(%rbp)
ffffffff80103a3e:	48 8b 50 08          	mov    0x8(%rax),%rdx
ffffffff80103a42:	48 89 95 7c ff ff ff 	mov    %rdx,-0x84(%rbp)
ffffffff80103a49:	48 8b 50 10          	mov    0x10(%rax),%rdx
ffffffff80103a4d:	48 89 55 84          	mov    %rdx,-0x7c(%rbp)
ffffffff80103a51:	48 8b 50 18          	mov    0x18(%rax),%rdx
ffffffff80103a55:	48 89 55 8c          	mov    %rdx,-0x74(%rbp)
ffffffff80103a59:	48 8b 50 20          	mov    0x20(%rax),%rdx
ffffffff80103a5d:	48 89 55 94          	mov    %rdx,-0x6c(%rbp)
ffffffff80103a61:	48 8b 50 28          	mov    0x28(%rax),%rdx
ffffffff80103a65:	48 89 55 9c          	mov    %rdx,-0x64(%rbp)
ffffffff80103a69:	48 8b 50 30          	mov    0x30(%rax),%rdx
ffffffff80103a6d:	48 89 55 a4          	mov    %rdx,-0x5c(%rbp)
ffffffff80103a71:	48 8b 50 38          	mov    0x38(%rax),%rdx
ffffffff80103a75:	48 89 55 ac          	mov    %rdx,-0x54(%rbp)
ffffffff80103a79:	48 8b 50 40          	mov    0x40(%rax),%rdx
ffffffff80103a7d:	48 89 55 b4          	mov    %rdx,-0x4c(%rbp)
ffffffff80103a81:	48 8b 50 48          	mov    0x48(%rax),%rdx
ffffffff80103a85:	48 89 55 bc          	mov    %rdx,-0x44(%rbp)
ffffffff80103a89:	48 8b 50 50          	mov    0x50(%rax),%rdx
ffffffff80103a8d:	48 89 55 c4          	mov    %rdx,-0x3c(%rbp)
ffffffff80103a91:	48 8b 50 58          	mov    0x58(%rax),%rdx
ffffffff80103a95:	48 89 55 cc          	mov    %rdx,-0x34(%rbp)
ffffffff80103a99:	48 8b 50 60          	mov    0x60(%rax),%rdx
ffffffff80103a9d:	48 89 55 d4          	mov    %rdx,-0x2c(%rbp)
ffffffff80103aa1:	48 8b 50 68          	mov    0x68(%rax),%rdx
ffffffff80103aa5:	48 89 55 dc          	mov    %rdx,-0x24(%rbp)
ffffffff80103aa9:	8b 40 70             	mov    0x70(%rax),%eax
ffffffff80103aac:	89 45 e4             	mov    %eax,-0x1c(%rbp)
ffffffff80103aaf:	48 8b 45 f0          	mov    -0x10(%rbp),%rax
ffffffff80103ab3:	48 89 85 60 ff ff ff 	mov    %rax,-0xa0(%rbp)
ffffffff80103aba:	e9 0d 01 00 00       	jmpq   ffffffff80103bcc <ext2_delete_dir+0x1f0>
ffffffff80103abf:	48 8b 4d e8          	mov    -0x18(%rbp),%rcx
ffffffff80103ac3:	48 8d 95 6c ff ff ff 	lea    -0x94(%rbp),%rdx
ffffffff80103aca:	48 8d b5 74 ff ff ff 	lea    -0x8c(%rbp),%rsi
ffffffff80103ad1:	48 8b 85 58 ff ff ff 	mov    -0xa8(%rbp),%rax
ffffffff80103ad8:	48 89 c7             	mov    %rax,%rdi
ffffffff80103adb:	e8 67 f7 ff ff       	callq  ffffffff80103247 <find_dir_relative>
ffffffff80103ae0:	83 f8 ff             	cmp    $0xffffffff,%eax
ffffffff80103ae3:	75 16                	jne    ffffffff80103afb <ext2_delete_dir+0x11f>
ffffffff80103ae5:	48 8b 45 f0          	mov    -0x10(%rbp),%rax
ffffffff80103ae9:	48 89 c7             	mov    %rax,%rdi
ffffffff80103aec:	e8 02 ea ff ff       	callq  ffffffff801024f3 <kfree>
ffffffff80103af1:	b8 ff ff ff ff       	mov    $0xffffffff,%eax
ffffffff80103af6:	e9 41 01 00 00       	jmpq   ffffffff80103c3c <ext2_delete_dir+0x260>
ffffffff80103afb:	8b 95 6c ff ff ff    	mov    -0x94(%rbp),%edx
ffffffff80103b01:	48 8d 85 c0 fe ff ff 	lea    -0x140(%rbp),%rax
ffffffff80103b08:	48 8b 8d 58 ff ff ff 	mov    -0xa8(%rbp),%rcx
ffffffff80103b0f:	48 89 ce             	mov    %rcx,%rsi
ffffffff80103b12:	48 89 c7             	mov    %rax,%rdi
ffffffff80103b15:	e8 63 5d 00 00       	callq  ffffffff8010987d <ext2_inode_read_entry>
ffffffff80103b1a:	48 8b 85 c0 fe ff ff 	mov    -0x140(%rbp),%rax
ffffffff80103b21:	48 89 85 74 ff ff ff 	mov    %rax,-0x8c(%rbp)
ffffffff80103b28:	48 8b 85 c8 fe ff ff 	mov    -0x138(%rbp),%rax
ffffffff80103b2f:	48 89 85 7c ff ff ff 	mov    %rax,-0x84(%rbp)
ffffffff80103b36:	48 8b 85 d0 fe ff ff 	mov    -0x130(%rbp),%rax
ffffffff80103b3d:	48 89 45 84          	mov    %rax,-0x7c(%rbp)
ffffffff80103b41:	48 8b 85 d8 fe ff ff 	mov    -0x128(%rbp),%rax
ffffffff80103b48:	48 89 45 8c          	mov    %rax,-0x74(%rbp)
ffffffff80103b4c:	48 8b 85 e0 fe ff ff 	mov    -0x120(%rbp),%rax
ffffffff80103b53:	48 89 45 94          	mov    %rax,-0x6c(%rbp)
ffffffff80103b57:	48 8b 85 e8 fe ff ff 	mov    -0x118(%rbp),%rax
ffffffff80103b5e:	48 89 45 9c          	mov    %rax,-0x64(%rbp)
ffffffff80103b62:	48 8b 85 f0 fe ff ff 	mov    -0x110(%rbp),%rax
ffffffff80103b69:	48 89 45 a4          	mov    %rax,-0x5c(%rbp)
ffffffff80103b6d:	48 8b 85 f8 fe ff ff 	mov    -0x108(%rbp),%rax
ffffffff80103b74:	48 89 45 ac          	mov    %rax,-0x54(%rbp)
ffffffff80103b78:	48 8b 85 00 ff ff ff 	mov    -0x100(%rbp),%rax
ffffffff80103b7f:	48 89 45 b4          	mov    %rax,-0x4c(%rbp)
ffffffff80103b83:	48 8b 85 08 ff ff ff 	mov    -0xf8(%rbp),%rax
ffffffff80103b8a:	48 89 45 bc          	mov    %rax,-0x44(%rbp)
ffffffff80103b8e:	48 8b 85 10 ff ff ff 	mov    -0xf0(%rbp),%rax
ffffffff80103b95:	48 89 45 c4          	mov    %rax,-0x3c(%rbp)
ffffffff80103b99:	48 8b 85 18 ff ff ff 	mov    -0xe8(%rbp),%rax
ffffffff80103ba0:	48 89 45 cc          	mov    %rax,-0x34(%rbp)
ffffffff80103ba4:	48 8b 85 20 ff ff ff 	mov    -0xe0(%rbp),%rax
ffffffff80103bab:	48 89 45 d4          	mov    %rax,-0x2c(%rbp)
ffffffff80103baf:	48 8b 85 28 ff ff ff 	mov    -0xd8(%rbp),%rax
ffffffff80103bb6:	48 89 45 dc          	mov    %rax,-0x24(%rbp)
ffffffff80103bba:	8b 85 30 ff ff ff    	mov    -0xd0(%rbp),%eax
ffffffff80103bc0:	89 45 e4             	mov    %eax,-0x1c(%rbp)
ffffffff80103bc3:	8b 85 6c ff ff ff    	mov    -0x94(%rbp),%eax
ffffffff80103bc9:	89 45 fc             	mov    %eax,-0x4(%rbp)
ffffffff80103bcc:	48 8b 85 60 ff ff ff 	mov    -0xa0(%rbp),%rax
ffffffff80103bd3:	48 8d 95 60 ff ff ff 	lea    -0xa0(%rbp),%rdx
ffffffff80103bda:	48 c7 c6 37 02 11 80 	mov    $0xffffffff80110237,%rsi
ffffffff80103be1:	48 89 c7             	mov    %rax,%rdi
ffffffff80103be4:	e8 07 a6 00 00       	callq  ffffffff8010e1f0 <strtok_r>
ffffffff80103be9:	48 89 45 e8          	mov    %rax,-0x18(%rbp)
ffffffff80103bed:	48 83 7d e8 00       	cmpq   $0x0,-0x18(%rbp)
ffffffff80103bf2:	0f 85 c7 fe ff ff    	jne    ffffffff80103abf <ext2_delete_dir+0xe3>
ffffffff80103bf8:	48 8b 45 f0          	mov    -0x10(%rbp),%rax
ffffffff80103bfc:	48 89 c7             	mov    %rax,%rdi
ffffffff80103bff:	e8 ef e8 ff ff       	callq  ffffffff801024f3 <kfree>
ffffffff80103c04:	48 8b 85 48 ff ff ff 	mov    -0xb8(%rbp),%rax
ffffffff80103c0b:	be 2f 00 00 00       	mov    $0x2f,%esi
ffffffff80103c10:	48 89 c7             	mov    %rax,%rdi
ffffffff80103c13:	e8 f6 a7 00 00       	callq  ffffffff8010e40e <last_char>
ffffffff80103c18:	48 8b 95 48 ff ff ff 	mov    -0xb8(%rbp),%rdx
ffffffff80103c1f:	48 8d 0c 10          	lea    (%rax,%rdx,1),%rcx
ffffffff80103c23:	8b 55 fc             	mov    -0x4(%rbp),%edx
ffffffff80103c26:	48 8d b5 74 ff ff ff 	lea    -0x8c(%rbp),%rsi
ffffffff80103c2d:	48 8b 85 58 ff ff ff 	mov    -0xa8(%rbp),%rax
ffffffff80103c34:	48 89 c7             	mov    %rax,%rdi
ffffffff80103c37:	e8 9a fb ff ff       	callq  ffffffff801037d6 <ext2_delete_dir_entry>
ffffffff80103c3c:	c9                   	leaveq 
ffffffff80103c3d:	c3                   	retq   

ffffffff80103c3e <elf64_validate>:
ffffffff80103c3e:	55                   	push   %rbp
ffffffff80103c3f:	48 89 e5             	mov    %rsp,%rbp
ffffffff80103c42:	48 83 ec 10          	sub    $0x10,%rsp
ffffffff80103c46:	89 7d fc             	mov    %edi,-0x4(%rbp)
ffffffff80103c49:	48 89 75 f0          	mov    %rsi,-0x10(%rbp)
ffffffff80103c4d:	48 8b 4d f0          	mov    -0x10(%rbp),%rcx
ffffffff80103c51:	8b 45 fc             	mov    -0x4(%rbp),%eax
ffffffff80103c54:	ba 08 00 00 00       	mov    $0x8,%edx
ffffffff80103c59:	48 89 ce             	mov    %rcx,%rsi
ffffffff80103c5c:	89 c7                	mov    %eax,%edi
ffffffff80103c5e:	e8 58 11 00 00       	callq  ffffffff80104dbb <read>
ffffffff80103c63:	48 8b 45 f0          	mov    -0x10(%rbp),%rax
ffffffff80103c67:	8b 00                	mov    (%rax),%eax
ffffffff80103c69:	3d 46 4c 45 7f       	cmp    $0x7f454c46,%eax
ffffffff80103c6e:	74 07                	je     ffffffff80103c77 <elf64_validate+0x39>
ffffffff80103c70:	b8 ff ff ff ff       	mov    $0xffffffff,%eax
ffffffff80103c75:	eb 3e                	jmp    ffffffff80103cb5 <elf64_validate+0x77>
ffffffff80103c77:	48 8b 45 f0          	mov    -0x10(%rbp),%rax
ffffffff80103c7b:	0f b6 40 07          	movzbl 0x7(%rax),%eax
ffffffff80103c7f:	84 c0                	test   %al,%al
ffffffff80103c81:	75 26                	jne    ffffffff80103ca9 <elf64_validate+0x6b>
ffffffff80103c83:	48 8b 45 f0          	mov    -0x10(%rbp),%rax
ffffffff80103c87:	0f b6 40 05          	movzbl 0x5(%rax),%eax
ffffffff80103c8b:	3c 01                	cmp    $0x1,%al
ffffffff80103c8d:	75 1a                	jne    ffffffff80103ca9 <elf64_validate+0x6b>
ffffffff80103c8f:	48 8b 45 f0          	mov    -0x10(%rbp),%rax
ffffffff80103c93:	0f b6 40 04          	movzbl 0x4(%rax),%eax
ffffffff80103c97:	3c 02                	cmp    $0x2,%al
ffffffff80103c99:	75 0e                	jne    ffffffff80103ca9 <elf64_validate+0x6b>
ffffffff80103c9b:	48 8b 45 f0          	mov    -0x10(%rbp),%rax
ffffffff80103c9f:	0f b7 40 12          	movzwl 0x12(%rax),%eax
ffffffff80103ca3:	66 83 f8 3e          	cmp    $0x3e,%ax
ffffffff80103ca7:	74 07                	je     ffffffff80103cb0 <elf64_validate+0x72>
ffffffff80103ca9:	b8 ff ff ff ff       	mov    $0xffffffff,%eax
ffffffff80103cae:	eb 05                	jmp    ffffffff80103cb5 <elf64_validate+0x77>
ffffffff80103cb0:	b8 00 00 00 00       	mov    $0x0,%eax
ffffffff80103cb5:	c9                   	leaveq 
ffffffff80103cb6:	c3                   	retq   

ffffffff80103cb7 <elf64_load>:
ffffffff80103cb7:	55                   	push   %rbp
ffffffff80103cb8:	48 89 e5             	mov    %rsp,%rbp
ffffffff80103cbb:	48 83 ec 70          	sub    $0x70,%rsp
ffffffff80103cbf:	48 89 7d 98          	mov    %rdi,-0x68(%rbp)
ffffffff80103cc3:	89 75 94             	mov    %esi,-0x6c(%rbp)
ffffffff80103cc6:	48 8d 55 a0          	lea    -0x60(%rbp),%rdx
ffffffff80103cca:	8b 45 94             	mov    -0x6c(%rbp),%eax
ffffffff80103ccd:	48 89 d6             	mov    %rdx,%rsi
ffffffff80103cd0:	89 c7                	mov    %eax,%edi
ffffffff80103cd2:	e8 67 ff ff ff       	callq  ffffffff80103c3e <elf64_validate>
ffffffff80103cd7:	83 f8 ff             	cmp    $0xffffffff,%eax
ffffffff80103cda:	75 0a                	jne    ffffffff80103ce6 <elf64_load+0x2f>
ffffffff80103cdc:	b8 ff ff ff ff       	mov    $0xffffffff,%eax
ffffffff80103ce1:	e9 d4 01 00 00       	jmpq   ffffffff80103eba <elf64_load+0x203>
ffffffff80103ce6:	0f b7 45 d8          	movzwl -0x28(%rbp),%eax
ffffffff80103cea:	0f b7 d0             	movzwl %ax,%edx
ffffffff80103ced:	48 89 d0             	mov    %rdx,%rax
ffffffff80103cf0:	48 c1 e0 03          	shl    $0x3,%rax
ffffffff80103cf4:	48 29 d0             	sub    %rdx,%rax
ffffffff80103cf7:	48 c1 e0 03          	shl    $0x3,%rax
ffffffff80103cfb:	48 89 c7             	mov    %rax,%rdi
ffffffff80103cfe:	e8 44 e6 ff ff       	callq  ffffffff80102347 <kmalloc>
ffffffff80103d03:	48 89 45 f0          	mov    %rax,-0x10(%rbp)
ffffffff80103d07:	48 8b 45 c0          	mov    -0x40(%rbp),%rax
ffffffff80103d0b:	48 89 c1             	mov    %rax,%rcx
ffffffff80103d0e:	8b 45 94             	mov    -0x6c(%rbp),%eax
ffffffff80103d11:	ba 01 00 00 00       	mov    $0x1,%edx
ffffffff80103d16:	48 89 ce             	mov    %rcx,%rsi
ffffffff80103d19:	89 c7                	mov    %eax,%edi
ffffffff80103d1b:	e8 51 13 00 00       	callq  ffffffff80105071 <lseek>
ffffffff80103d20:	0f b7 45 d8          	movzwl -0x28(%rbp),%eax
ffffffff80103d24:	0f b7 d0             	movzwl %ax,%edx
ffffffff80103d27:	48 89 d0             	mov    %rdx,%rax
ffffffff80103d2a:	48 c1 e0 03          	shl    $0x3,%rax
ffffffff80103d2e:	48 29 d0             	sub    %rdx,%rax
ffffffff80103d31:	48 c1 e0 03          	shl    $0x3,%rax
ffffffff80103d35:	48 89 c2             	mov    %rax,%rdx
ffffffff80103d38:	48 8b 4d f0          	mov    -0x10(%rbp),%rcx
ffffffff80103d3c:	8b 45 94             	mov    -0x6c(%rbp),%eax
ffffffff80103d3f:	48 89 ce             	mov    %rcx,%rsi
ffffffff80103d42:	89 c7                	mov    %eax,%edi
ffffffff80103d44:	e8 72 10 00 00       	callq  ffffffff80104dbb <read>
ffffffff80103d49:	48 c7 45 f8 00 00 00 	movq   $0x0,-0x8(%rbp)
ffffffff80103d50:	00 
ffffffff80103d51:	e9 4e 01 00 00       	jmpq   ffffffff80103ea4 <elf64_load+0x1ed>
ffffffff80103d56:	48 8b 55 f8          	mov    -0x8(%rbp),%rdx
ffffffff80103d5a:	48 89 d0             	mov    %rdx,%rax
ffffffff80103d5d:	48 c1 e0 03          	shl    $0x3,%rax
ffffffff80103d61:	48 29 d0             	sub    %rdx,%rax
ffffffff80103d64:	48 c1 e0 03          	shl    $0x3,%rax
ffffffff80103d68:	48 89 c2             	mov    %rax,%rdx
ffffffff80103d6b:	48 8b 45 f0          	mov    -0x10(%rbp),%rax
ffffffff80103d6f:	48 01 d0             	add    %rdx,%rax
ffffffff80103d72:	8b 00                	mov    (%rax),%eax
ffffffff80103d74:	83 f8 01             	cmp    $0x1,%eax
ffffffff80103d77:	0f 85 21 01 00 00    	jne    ffffffff80103e9e <elf64_load+0x1e7>
ffffffff80103d7d:	48 8b 55 f8          	mov    -0x8(%rbp),%rdx
ffffffff80103d81:	48 89 d0             	mov    %rdx,%rax
ffffffff80103d84:	48 c1 e0 03          	shl    $0x3,%rax
ffffffff80103d88:	48 29 d0             	sub    %rdx,%rax
ffffffff80103d8b:	48 c1 e0 03          	shl    $0x3,%rax
ffffffff80103d8f:	48 89 c2             	mov    %rax,%rdx
ffffffff80103d92:	48 8b 45 f0          	mov    -0x10(%rbp),%rax
ffffffff80103d96:	48 01 d0             	add    %rdx,%rax
ffffffff80103d99:	48 8b 40 10          	mov    0x10(%rax),%rax
ffffffff80103d9d:	25 ff 0f 00 00       	and    $0xfff,%eax
ffffffff80103da2:	48 89 45 e8          	mov    %rax,-0x18(%rbp)
ffffffff80103da6:	48 8b 55 f8          	mov    -0x8(%rbp),%rdx
ffffffff80103daa:	48 89 d0             	mov    %rdx,%rax
ffffffff80103dad:	48 c1 e0 03          	shl    $0x3,%rax
ffffffff80103db1:	48 29 d0             	sub    %rdx,%rax
ffffffff80103db4:	48 c1 e0 03          	shl    $0x3,%rax
ffffffff80103db8:	48 89 c2             	mov    %rax,%rdx
ffffffff80103dbb:	48 8b 45 f0          	mov    -0x10(%rbp),%rax
ffffffff80103dbf:	48 01 d0             	add    %rdx,%rax
ffffffff80103dc2:	48 8b 50 28          	mov    0x28(%rax),%rdx
ffffffff80103dc6:	48 8b 45 e8          	mov    -0x18(%rbp),%rax
ffffffff80103dca:	48 01 d0             	add    %rdx,%rax
ffffffff80103dcd:	48 05 ff 0f 00 00    	add    $0xfff,%rax
ffffffff80103dd3:	48 c1 e8 0c          	shr    $0xc,%rax
ffffffff80103dd7:	48 89 45 e0          	mov    %rax,-0x20(%rbp)
ffffffff80103ddb:	48 8b 55 f8          	mov    -0x8(%rbp),%rdx
ffffffff80103ddf:	48 89 d0             	mov    %rdx,%rax
ffffffff80103de2:	48 c1 e0 03          	shl    $0x3,%rax
ffffffff80103de6:	48 29 d0             	sub    %rdx,%rax
ffffffff80103de9:	48 c1 e0 03          	shl    $0x3,%rax
ffffffff80103ded:	48 89 c2             	mov    %rax,%rdx
ffffffff80103df0:	48 8b 45 f0          	mov    -0x10(%rbp),%rax
ffffffff80103df4:	48 01 d0             	add    %rdx,%rax
ffffffff80103df7:	48 8b 70 10          	mov    0x10(%rax),%rsi
ffffffff80103dfb:	48 8b 55 e0          	mov    -0x20(%rbp),%rdx
ffffffff80103dff:	48 8b 45 98          	mov    -0x68(%rbp),%rax
ffffffff80103e03:	b9 07 00 00 00       	mov    $0x7,%ecx
ffffffff80103e08:	48 89 c7             	mov    %rax,%rdi
ffffffff80103e0b:	e8 e6 b4 00 00       	callq  ffffffff8010f2f6 <map_range>
ffffffff80103e10:	48 8b 55 f8          	mov    -0x8(%rbp),%rdx
ffffffff80103e14:	48 89 d0             	mov    %rdx,%rax
ffffffff80103e17:	48 c1 e0 03          	shl    $0x3,%rax
ffffffff80103e1b:	48 29 d0             	sub    %rdx,%rax
ffffffff80103e1e:	48 c1 e0 03          	shl    $0x3,%rax
ffffffff80103e22:	48 89 c2             	mov    %rax,%rdx
ffffffff80103e25:	48 8b 45 f0          	mov    -0x10(%rbp),%rax
ffffffff80103e29:	48 01 d0             	add    %rdx,%rax
ffffffff80103e2c:	48 8b 40 08          	mov    0x8(%rax),%rax
ffffffff80103e30:	48 89 c1             	mov    %rax,%rcx
ffffffff80103e33:	8b 45 94             	mov    -0x6c(%rbp),%eax
ffffffff80103e36:	ba 01 00 00 00       	mov    $0x1,%edx
ffffffff80103e3b:	48 89 ce             	mov    %rcx,%rsi
ffffffff80103e3e:	89 c7                	mov    %eax,%edi
ffffffff80103e40:	e8 2c 12 00 00       	callq  ffffffff80105071 <lseek>
ffffffff80103e45:	48 8b 55 f8          	mov    -0x8(%rbp),%rdx
ffffffff80103e49:	48 89 d0             	mov    %rdx,%rax
ffffffff80103e4c:	48 c1 e0 03          	shl    $0x3,%rax
ffffffff80103e50:	48 29 d0             	sub    %rdx,%rax
ffffffff80103e53:	48 c1 e0 03          	shl    $0x3,%rax
ffffffff80103e57:	48 89 c2             	mov    %rax,%rdx
ffffffff80103e5a:	48 8b 45 f0          	mov    -0x10(%rbp),%rax
ffffffff80103e5e:	48 01 d0             	add    %rdx,%rax
ffffffff80103e61:	48 8b 50 20          	mov    0x20(%rax),%rdx
ffffffff80103e65:	48 8b 4d f8          	mov    -0x8(%rbp),%rcx
ffffffff80103e69:	48 89 c8             	mov    %rcx,%rax
ffffffff80103e6c:	48 c1 e0 03          	shl    $0x3,%rax
ffffffff80103e70:	48 29 c8             	sub    %rcx,%rax
ffffffff80103e73:	48 c1 e0 03          	shl    $0x3,%rax
ffffffff80103e77:	48 89 c1             	mov    %rax,%rcx
ffffffff80103e7a:	48 8b 45 f0          	mov    -0x10(%rbp),%rax
ffffffff80103e7e:	48 01 c8             	add    %rcx,%rax
ffffffff80103e81:	48 8b 48 10          	mov    0x10(%rax),%rcx
ffffffff80103e85:	48 8b 45 e8          	mov    -0x18(%rbp),%rax
ffffffff80103e89:	48 01 c8             	add    %rcx,%rax
ffffffff80103e8c:	48 89 c1             	mov    %rax,%rcx
ffffffff80103e8f:	8b 45 94             	mov    -0x6c(%rbp),%eax
ffffffff80103e92:	48 89 ce             	mov    %rcx,%rsi
ffffffff80103e95:	89 c7                	mov    %eax,%edi
ffffffff80103e97:	e8 1f 0f 00 00       	callq  ffffffff80104dbb <read>
ffffffff80103e9c:	eb 01                	jmp    ffffffff80103e9f <elf64_load+0x1e8>
ffffffff80103e9e:	90                   	nop
ffffffff80103e9f:	48 83 45 f8 01       	addq   $0x1,-0x8(%rbp)
ffffffff80103ea4:	0f b7 45 d8          	movzwl -0x28(%rbp),%eax
ffffffff80103ea8:	0f b7 c0             	movzwl %ax,%eax
ffffffff80103eab:	48 39 45 f8          	cmp    %rax,-0x8(%rbp)
ffffffff80103eaf:	0f 82 a1 fe ff ff    	jb     ffffffff80103d56 <elf64_load+0x9f>
ffffffff80103eb5:	b8 00 00 00 00       	mov    $0x0,%eax
ffffffff80103eba:	c9                   	leaveq 
ffffffff80103ebb:	c3                   	retq   

ffffffff80103ebc <ext2_check_fs>:
ffffffff80103ebc:	55                   	push   %rbp
ffffffff80103ebd:	48 89 e5             	mov    %rsp,%rbp
ffffffff80103ec0:	53                   	push   %rbx
ffffffff80103ec1:	48 81 ec a8 00 00 00 	sub    $0xa8,%rsp
ffffffff80103ec8:	48 89 7d d8          	mov    %rdi,-0x28(%rbp)
ffffffff80103ecc:	bf 58 01 00 00       	mov    $0x158,%edi
ffffffff80103ed1:	e8 71 e4 ff ff       	callq  ffffffff80102347 <kmalloc>
ffffffff80103ed6:	48 89 45 e8          	mov    %rax,-0x18(%rbp)
ffffffff80103eda:	48 8b 55 e8          	mov    -0x18(%rbp),%rdx
ffffffff80103ede:	48 8b 45 d8          	mov    -0x28(%rbp),%rax
ffffffff80103ee2:	48 89 d1             	mov    %rdx,%rcx
ffffffff80103ee5:	ba c8 00 00 00       	mov    $0xc8,%edx
ffffffff80103eea:	be 00 04 00 00       	mov    $0x400,%esi
ffffffff80103eef:	48 89 c7             	mov    %rax,%rdi
ffffffff80103ef2:	e8 7e f2 ff ff       	callq  ffffffff80103175 <msd_raw_read>
ffffffff80103ef7:	48 8b 45 e8          	mov    -0x18(%rbp),%rax
ffffffff80103efb:	0f b7 40 38          	movzwl 0x38(%rax),%eax
ffffffff80103eff:	66 3d 53 ef          	cmp    $0xef53,%ax
ffffffff80103f03:	74 16                	je     ffffffff80103f1b <ext2_check_fs+0x5f>
ffffffff80103f05:	48 8b 45 e8          	mov    -0x18(%rbp),%rax
ffffffff80103f09:	48 89 c7             	mov    %rax,%rdi
ffffffff80103f0c:	e8 e2 e5 ff ff       	callq  ffffffff801024f3 <kfree>
ffffffff80103f11:	b8 ff ff ff ff       	mov    $0xffffffff,%eax
ffffffff80103f16:	e9 d4 01 00 00       	jmpq   ffffffff801040ef <ext2_check_fs+0x233>
ffffffff80103f1b:	48 8b 45 d8          	mov    -0x28(%rbp),%rax
ffffffff80103f1f:	48 8b 58 18          	mov    0x18(%rax),%rbx
ffffffff80103f23:	bf 48 00 00 00       	mov    $0x48,%edi
ffffffff80103f28:	e8 1a e4 ff ff       	callq  ffffffff80102347 <kmalloc>
ffffffff80103f2d:	48 89 03             	mov    %rax,(%rbx)
ffffffff80103f30:	48 8b 45 d8          	mov    -0x28(%rbp),%rax
ffffffff80103f34:	48 8b 40 18          	mov    0x18(%rax),%rax
ffffffff80103f38:	48 8b 00             	mov    (%rax),%rax
ffffffff80103f3b:	48 8b 55 e8          	mov    -0x18(%rbp),%rdx
ffffffff80103f3f:	48 89 50 08          	mov    %rdx,0x8(%rax)
ffffffff80103f43:	48 8b 45 e8          	mov    -0x18(%rbp),%rax
ffffffff80103f47:	8b 40 18             	mov    0x18(%rax),%eax
ffffffff80103f4a:	ba 00 04 00 00       	mov    $0x400,%edx
ffffffff80103f4f:	89 c1                	mov    %eax,%ecx
ffffffff80103f51:	d3 e2                	shl    %cl,%edx
ffffffff80103f53:	89 d0                	mov    %edx,%eax
ffffffff80103f55:	48 63 d0             	movslq %eax,%rdx
ffffffff80103f58:	48 8b 45 e8          	mov    -0x18(%rbp),%rax
ffffffff80103f5c:	48 89 90 40 01 00 00 	mov    %rdx,0x140(%rax)
ffffffff80103f63:	48 8b 45 e8          	mov    -0x18(%rbp),%rax
ffffffff80103f67:	8b 40 1c             	mov    0x1c(%rax),%eax
ffffffff80103f6a:	ba 00 04 00 00       	mov    $0x400,%edx
ffffffff80103f6f:	89 c1                	mov    %eax,%ecx
ffffffff80103f71:	d3 e2                	shl    %cl,%edx
ffffffff80103f73:	89 d0                	mov    %edx,%eax
ffffffff80103f75:	48 63 d0             	movslq %eax,%rdx
ffffffff80103f78:	48 8b 45 e8          	mov    -0x18(%rbp),%rax
ffffffff80103f7c:	48 89 90 48 01 00 00 	mov    %rdx,0x148(%rax)
ffffffff80103f83:	48 8b 45 e8          	mov    -0x18(%rbp),%rax
ffffffff80103f87:	8b 40 04             	mov    0x4(%rax),%eax
ffffffff80103f8a:	48 8b 55 e8          	mov    -0x18(%rbp),%rdx
ffffffff80103f8e:	8b 72 20             	mov    0x20(%rdx),%esi
ffffffff80103f91:	ba 00 00 00 00       	mov    $0x0,%edx
ffffffff80103f96:	f7 f6                	div    %esi
ffffffff80103f98:	89 c2                	mov    %eax,%edx
ffffffff80103f9a:	48 8b 45 e8          	mov    -0x18(%rbp),%rax
ffffffff80103f9e:	89 90 50 01 00 00    	mov    %edx,0x150(%rax)
ffffffff80103fa4:	48 8b 5d e8          	mov    -0x18(%rbp),%rbx
ffffffff80103fa8:	48 8d 85 50 ff ff ff 	lea    -0xb0(%rbp),%rax
ffffffff80103faf:	48 8b 4d d8          	mov    -0x28(%rbp),%rcx
ffffffff80103fb3:	ba 02 00 00 00       	mov    $0x2,%edx
ffffffff80103fb8:	48 89 ce             	mov    %rcx,%rsi
ffffffff80103fbb:	48 89 c7             	mov    %rax,%rdi
ffffffff80103fbe:	e8 ba 58 00 00       	callq  ffffffff8010987d <ext2_inode_read_entry>
ffffffff80103fc3:	48 8b 85 50 ff ff ff 	mov    -0xb0(%rbp),%rax
ffffffff80103fca:	48 89 83 c8 00 00 00 	mov    %rax,0xc8(%rbx)
ffffffff80103fd1:	48 8b 85 58 ff ff ff 	mov    -0xa8(%rbp),%rax
ffffffff80103fd8:	48 89 83 d0 00 00 00 	mov    %rax,0xd0(%rbx)
ffffffff80103fdf:	48 8b 85 60 ff ff ff 	mov    -0xa0(%rbp),%rax
ffffffff80103fe6:	48 89 83 d8 00 00 00 	mov    %rax,0xd8(%rbx)
ffffffff80103fed:	48 8b 85 68 ff ff ff 	mov    -0x98(%rbp),%rax
ffffffff80103ff4:	48 89 83 e0 00 00 00 	mov    %rax,0xe0(%rbx)
ffffffff80103ffb:	48 8b 85 70 ff ff ff 	mov    -0x90(%rbp),%rax
ffffffff80104002:	48 89 83 e8 00 00 00 	mov    %rax,0xe8(%rbx)
ffffffff80104009:	48 8b 85 78 ff ff ff 	mov    -0x88(%rbp),%rax
ffffffff80104010:	48 89 83 f0 00 00 00 	mov    %rax,0xf0(%rbx)
ffffffff80104017:	48 8b 45 80          	mov    -0x80(%rbp),%rax
ffffffff8010401b:	48 89 83 f8 00 00 00 	mov    %rax,0xf8(%rbx)
ffffffff80104022:	48 8b 45 88          	mov    -0x78(%rbp),%rax
ffffffff80104026:	48 89 83 00 01 00 00 	mov    %rax,0x100(%rbx)
ffffffff8010402d:	48 8b 45 90          	mov    -0x70(%rbp),%rax
ffffffff80104031:	48 89 83 08 01 00 00 	mov    %rax,0x108(%rbx)
ffffffff80104038:	48 8b 45 98          	mov    -0x68(%rbp),%rax
ffffffff8010403c:	48 89 83 10 01 00 00 	mov    %rax,0x110(%rbx)
ffffffff80104043:	48 8b 45 a0          	mov    -0x60(%rbp),%rax
ffffffff80104047:	48 89 83 18 01 00 00 	mov    %rax,0x118(%rbx)
ffffffff8010404e:	48 8b 45 a8          	mov    -0x58(%rbp),%rax
ffffffff80104052:	48 89 83 20 01 00 00 	mov    %rax,0x120(%rbx)
ffffffff80104059:	48 8b 45 b0          	mov    -0x50(%rbp),%rax
ffffffff8010405d:	48 89 83 28 01 00 00 	mov    %rax,0x128(%rbx)
ffffffff80104064:	48 8b 45 b8          	mov    -0x48(%rbp),%rax
ffffffff80104068:	48 89 83 30 01 00 00 	mov    %rax,0x130(%rbx)
ffffffff8010406f:	8b 45 c0             	mov    -0x40(%rbp),%eax
ffffffff80104072:	89 83 38 01 00 00    	mov    %eax,0x138(%rbx)
ffffffff80104078:	48 8b 45 d8          	mov    -0x28(%rbp),%rax
ffffffff8010407c:	48 8b 40 18          	mov    0x18(%rax),%rax
ffffffff80104080:	48 8b 00             	mov    (%rax),%rax
ffffffff80104083:	48 c7 40 18 db 45 10 	movq   $0xffffffff801045db,0x18(%rax)
ffffffff8010408a:	80 
ffffffff8010408b:	48 8b 45 d8          	mov    -0x28(%rbp),%rax
ffffffff8010408f:	48 8b 40 18          	mov    0x18(%rax),%rax
ffffffff80104093:	48 8b 00             	mov    (%rax),%rax
ffffffff80104096:	48 c7 40 20 fe 46 10 	movq   $0xffffffff801046fe,0x20(%rax)
ffffffff8010409d:	80 
ffffffff8010409e:	48 8b 45 d8          	mov    -0x28(%rbp),%rax
ffffffff801040a2:	48 8b 40 18          	mov    0x18(%rax),%rax
ffffffff801040a6:	48 8b 00             	mov    (%rax),%rax
ffffffff801040a9:	48 c7 40 28 18 4b 10 	movq   $0xffffffff80104b18,0x28(%rax)
ffffffff801040b0:	80 
ffffffff801040b1:	48 8b 45 d8          	mov    -0x28(%rbp),%rax
ffffffff801040b5:	48 8b 40 18          	mov    0x18(%rax),%rax
ffffffff801040b9:	48 8b 00             	mov    (%rax),%rax
ffffffff801040bc:	48 c7 40 38 f5 40 10 	movq   $0xffffffff801040f5,0x38(%rax)
ffffffff801040c3:	80 
ffffffff801040c4:	48 8b 45 d8          	mov    -0x28(%rbp),%rax
ffffffff801040c8:	48 8b 40 18          	mov    0x18(%rax),%rax
ffffffff801040cc:	48 8b 00             	mov    (%rax),%rax
ffffffff801040cf:	48 c7 40 40 c1 4a 10 	movq   $0xffffffff80104ac1,0x40(%rax)
ffffffff801040d6:	80 
ffffffff801040d7:	48 8b 45 d8          	mov    -0x28(%rbp),%rax
ffffffff801040db:	48 8b 40 18          	mov    0x18(%rax),%rax
ffffffff801040df:	48 8b 00             	mov    (%rax),%rax
ffffffff801040e2:	48 c7 40 30 63 4a 10 	movq   $0xffffffff80104a63,0x30(%rax)
ffffffff801040e9:	80 
ffffffff801040ea:	b8 00 00 00 00       	mov    $0x0,%eax
ffffffff801040ef:	48 8b 5d f8          	mov    -0x8(%rbp),%rbx
ffffffff801040f3:	c9                   	leaveq 
ffffffff801040f4:	c3                   	retq   

ffffffff801040f5 <ext2_open>:
ffffffff801040f5:	55                   	push   %rbp
ffffffff801040f6:	48 89 e5             	mov    %rsp,%rbp
ffffffff801040f9:	53                   	push   %rbx
ffffffff801040fa:	48 81 ec 28 02 00 00 	sub    $0x228,%rsp
ffffffff80104101:	48 89 bd 58 fe ff ff 	mov    %rdi,-0x1a8(%rbp)
ffffffff80104108:	89 b5 54 fe ff ff    	mov    %esi,-0x1ac(%rbp)
ffffffff8010410e:	48 8b 85 58 fe ff ff 	mov    -0x1a8(%rbp),%rax
ffffffff80104115:	48 8b 40 18          	mov    0x18(%rax),%rax
ffffffff80104119:	48 8b 00             	mov    (%rax),%rax
ffffffff8010411c:	48 89 45 e0          	mov    %rax,-0x20(%rbp)
ffffffff80104120:	48 8b 45 e0          	mov    -0x20(%rbp),%rax
ffffffff80104124:	48 8b 40 18          	mov    0x18(%rax),%rax
ffffffff80104128:	48 8b 00             	mov    (%rax),%rax
ffffffff8010412b:	48 8b 40 08          	mov    0x8(%rax),%rax
ffffffff8010412f:	48 89 45 d8          	mov    %rax,-0x28(%rbp)
ffffffff80104133:	8b 85 54 fe ff ff    	mov    -0x1ac(%rbp),%eax
ffffffff80104139:	83 e0 10             	and    $0x10,%eax
ffffffff8010413c:	85 c0                	test   %eax,%eax
ffffffff8010413e:	0f 84 16 04 00 00    	je     ffffffff8010455a <ext2_open+0x465>
ffffffff80104144:	48 8b 85 58 fe ff ff 	mov    -0x1a8(%rbp),%rax
ffffffff8010414b:	48 8b 80 b8 00 00 00 	mov    0xb8(%rax),%rax
ffffffff80104152:	48 8b 40 08          	mov    0x8(%rax),%rax
ffffffff80104156:	48 c7 c6 39 02 11 80 	mov    $0xffffffff80110239,%rsi
ffffffff8010415d:	48 89 c7             	mov    %rax,%rdi
ffffffff80104160:	e8 dd 9d 00 00       	callq  ffffffff8010df42 <strcmp>
ffffffff80104165:	85 c0                	test   %eax,%eax
ffffffff80104167:	0f 85 e0 00 00 00    	jne    ffffffff8010424d <ext2_open+0x158>
ffffffff8010416d:	48 8b 45 d8          	mov    -0x28(%rbp),%rax
ffffffff80104171:	48 8b 90 c8 00 00 00 	mov    0xc8(%rax),%rdx
ffffffff80104178:	48 89 95 68 fe ff ff 	mov    %rdx,-0x198(%rbp)
ffffffff8010417f:	48 8b 90 d0 00 00 00 	mov    0xd0(%rax),%rdx
ffffffff80104186:	48 89 95 70 fe ff ff 	mov    %rdx,-0x190(%rbp)
ffffffff8010418d:	48 8b 90 d8 00 00 00 	mov    0xd8(%rax),%rdx
ffffffff80104194:	48 89 95 78 fe ff ff 	mov    %rdx,-0x188(%rbp)
ffffffff8010419b:	48 8b 90 e0 00 00 00 	mov    0xe0(%rax),%rdx
ffffffff801041a2:	48 89 95 80 fe ff ff 	mov    %rdx,-0x180(%rbp)
ffffffff801041a9:	48 8b 90 e8 00 00 00 	mov    0xe8(%rax),%rdx
ffffffff801041b0:	48 89 95 88 fe ff ff 	mov    %rdx,-0x178(%rbp)
ffffffff801041b7:	48 8b 90 f0 00 00 00 	mov    0xf0(%rax),%rdx
ffffffff801041be:	48 89 95 90 fe ff ff 	mov    %rdx,-0x170(%rbp)
ffffffff801041c5:	48 8b 90 f8 00 00 00 	mov    0xf8(%rax),%rdx
ffffffff801041cc:	48 89 95 98 fe ff ff 	mov    %rdx,-0x168(%rbp)
ffffffff801041d3:	48 8b 90 00 01 00 00 	mov    0x100(%rax),%rdx
ffffffff801041da:	48 89 95 a0 fe ff ff 	mov    %rdx,-0x160(%rbp)
ffffffff801041e1:	48 8b 90 08 01 00 00 	mov    0x108(%rax),%rdx
ffffffff801041e8:	48 89 95 a8 fe ff ff 	mov    %rdx,-0x158(%rbp)
ffffffff801041ef:	48 8b 90 10 01 00 00 	mov    0x110(%rax),%rdx
ffffffff801041f6:	48 89 95 b0 fe ff ff 	mov    %rdx,-0x150(%rbp)
ffffffff801041fd:	48 8b 90 18 01 00 00 	mov    0x118(%rax),%rdx
ffffffff80104204:	48 89 95 b8 fe ff ff 	mov    %rdx,-0x148(%rbp)
ffffffff8010420b:	48 8b 90 20 01 00 00 	mov    0x120(%rax),%rdx
ffffffff80104212:	48 89 95 c0 fe ff ff 	mov    %rdx,-0x140(%rbp)
ffffffff80104219:	48 8b 90 28 01 00 00 	mov    0x128(%rax),%rdx
ffffffff80104220:	48 89 95 c8 fe ff ff 	mov    %rdx,-0x138(%rbp)
ffffffff80104227:	48 8b 90 30 01 00 00 	mov    0x130(%rax),%rdx
ffffffff8010422e:	48 89 95 d0 fe ff ff 	mov    %rdx,-0x130(%rbp)
ffffffff80104235:	8b 80 38 01 00 00    	mov    0x138(%rax),%eax
ffffffff8010423b:	89 85 d8 fe ff ff    	mov    %eax,-0x128(%rbp)
ffffffff80104241:	c7 45 ec 02 00 00 00 	movl   $0x2,-0x14(%rbp)
ffffffff80104248:	e9 34 01 00 00       	jmpq   ffffffff80104381 <ext2_open+0x28c>
ffffffff8010424d:	48 8b 85 58 fe ff ff 	mov    -0x1a8(%rbp),%rax
ffffffff80104254:	48 8b 80 b8 00 00 00 	mov    0xb8(%rax),%rax
ffffffff8010425b:	48 8b 48 08          	mov    0x8(%rax),%rcx
ffffffff8010425f:	48 8b 45 d8          	mov    -0x28(%rbp),%rax
ffffffff80104263:	48 8d b0 c8 00 00 00 	lea    0xc8(%rax),%rsi
ffffffff8010426a:	48 8d 95 50 ff ff ff 	lea    -0xb0(%rbp),%rdx
ffffffff80104271:	48 8b 45 e0          	mov    -0x20(%rbp),%rax
ffffffff80104275:	48 89 c7             	mov    %rax,%rdi
ffffffff80104278:	e8 2b f1 ff ff       	callq  ffffffff801033a8 <ext2_find_dir>
ffffffff8010427d:	83 f8 ff             	cmp    $0xffffffff,%eax
ffffffff80104280:	75 0a                	jne    ffffffff8010428c <ext2_open+0x197>
ffffffff80104282:	b8 ff ff ff ff       	mov    $0xffffffff,%eax
ffffffff80104287:	e9 49 03 00 00       	jmpq   ffffffff801045d5 <ext2_open+0x4e0>
ffffffff8010428c:	8b 95 50 ff ff ff    	mov    -0xb0(%rbp),%edx
ffffffff80104292:	48 8d 85 d0 fd ff ff 	lea    -0x230(%rbp),%rax
ffffffff80104299:	48 8b 4d e0          	mov    -0x20(%rbp),%rcx
ffffffff8010429d:	48 89 ce             	mov    %rcx,%rsi
ffffffff801042a0:	48 89 c7             	mov    %rax,%rdi
ffffffff801042a3:	e8 d5 55 00 00       	callq  ffffffff8010987d <ext2_inode_read_entry>
ffffffff801042a8:	48 8b 85 d0 fd ff ff 	mov    -0x230(%rbp),%rax
ffffffff801042af:	48 89 85 68 fe ff ff 	mov    %rax,-0x198(%rbp)
ffffffff801042b6:	48 8b 85 d8 fd ff ff 	mov    -0x228(%rbp),%rax
ffffffff801042bd:	48 89 85 70 fe ff ff 	mov    %rax,-0x190(%rbp)
ffffffff801042c4:	48 8b 85 e0 fd ff ff 	mov    -0x220(%rbp),%rax
ffffffff801042cb:	48 89 85 78 fe ff ff 	mov    %rax,-0x188(%rbp)
ffffffff801042d2:	48 8b 85 e8 fd ff ff 	mov    -0x218(%rbp),%rax
ffffffff801042d9:	48 89 85 80 fe ff ff 	mov    %rax,-0x180(%rbp)
ffffffff801042e0:	48 8b 85 f0 fd ff ff 	mov    -0x210(%rbp),%rax
ffffffff801042e7:	48 89 85 88 fe ff ff 	mov    %rax,-0x178(%rbp)
ffffffff801042ee:	48 8b 85 f8 fd ff ff 	mov    -0x208(%rbp),%rax
ffffffff801042f5:	48 89 85 90 fe ff ff 	mov    %rax,-0x170(%rbp)
ffffffff801042fc:	48 8b 85 00 fe ff ff 	mov    -0x200(%rbp),%rax
ffffffff80104303:	48 89 85 98 fe ff ff 	mov    %rax,-0x168(%rbp)
ffffffff8010430a:	48 8b 85 08 fe ff ff 	mov    -0x1f8(%rbp),%rax
ffffffff80104311:	48 89 85 a0 fe ff ff 	mov    %rax,-0x160(%rbp)
ffffffff80104318:	48 8b 85 10 fe ff ff 	mov    -0x1f0(%rbp),%rax
ffffffff8010431f:	48 89 85 a8 fe ff ff 	mov    %rax,-0x158(%rbp)
ffffffff80104326:	48 8b 85 18 fe ff ff 	mov    -0x1e8(%rbp),%rax
ffffffff8010432d:	48 89 85 b0 fe ff ff 	mov    %rax,-0x150(%rbp)
ffffffff80104334:	48 8b 85 20 fe ff ff 	mov    -0x1e0(%rbp),%rax
ffffffff8010433b:	48 89 85 b8 fe ff ff 	mov    %rax,-0x148(%rbp)
ffffffff80104342:	48 8b 85 28 fe ff ff 	mov    -0x1d8(%rbp),%rax
ffffffff80104349:	48 89 85 c0 fe ff ff 	mov    %rax,-0x140(%rbp)
ffffffff80104350:	48 8b 85 30 fe ff ff 	mov    -0x1d0(%rbp),%rax
ffffffff80104357:	48 89 85 c8 fe ff ff 	mov    %rax,-0x138(%rbp)
ffffffff8010435e:	48 8b 85 38 fe ff ff 	mov    -0x1c8(%rbp),%rax
ffffffff80104365:	48 89 85 d0 fe ff ff 	mov    %rax,-0x130(%rbp)
ffffffff8010436c:	8b 85 40 fe ff ff    	mov    -0x1c0(%rbp),%eax
ffffffff80104372:	89 85 d8 fe ff ff    	mov    %eax,-0x128(%rbp)
ffffffff80104378:	8b 85 50 ff ff ff    	mov    -0xb0(%rbp),%eax
ffffffff8010437e:	89 45 ec             	mov    %eax,-0x14(%rbp)
ffffffff80104381:	48 8b 45 e0          	mov    -0x20(%rbp),%rax
ffffffff80104385:	48 89 c7             	mov    %rax,%rdi
ffffffff80104388:	e8 b0 4a 00 00       	callq  ffffffff80108e3d <ext2_alloc_inode>
ffffffff8010438d:	89 45 d4             	mov    %eax,-0x2c(%rbp)
ffffffff80104390:	48 8d 85 d0 fd ff ff 	lea    -0x230(%rbp),%rax
ffffffff80104397:	8b 55 d4             	mov    -0x2c(%rbp),%edx
ffffffff8010439a:	48 8b 4d e0          	mov    -0x20(%rbp),%rcx
ffffffff8010439e:	48 89 ce             	mov    %rcx,%rsi
ffffffff801043a1:	48 89 c7             	mov    %rax,%rdi
ffffffff801043a4:	e8 d4 54 00 00       	callq  ffffffff8010987d <ext2_inode_read_entry>
ffffffff801043a9:	48 8b 85 d0 fd ff ff 	mov    -0x230(%rbp),%rax
ffffffff801043b0:	48 89 85 dc fe ff ff 	mov    %rax,-0x124(%rbp)
ffffffff801043b7:	48 8b 85 d8 fd ff ff 	mov    -0x228(%rbp),%rax
ffffffff801043be:	48 89 85 e4 fe ff ff 	mov    %rax,-0x11c(%rbp)
ffffffff801043c5:	48 8b 85 e0 fd ff ff 	mov    -0x220(%rbp),%rax
ffffffff801043cc:	48 89 85 ec fe ff ff 	mov    %rax,-0x114(%rbp)
ffffffff801043d3:	48 8b 85 e8 fd ff ff 	mov    -0x218(%rbp),%rax
ffffffff801043da:	48 89 85 f4 fe ff ff 	mov    %rax,-0x10c(%rbp)
ffffffff801043e1:	48 8b 85 f0 fd ff ff 	mov    -0x210(%rbp),%rax
ffffffff801043e8:	48 89 85 fc fe ff ff 	mov    %rax,-0x104(%rbp)
ffffffff801043ef:	48 8b 85 f8 fd ff ff 	mov    -0x208(%rbp),%rax
ffffffff801043f6:	48 89 85 04 ff ff ff 	mov    %rax,-0xfc(%rbp)
ffffffff801043fd:	48 8b 85 00 fe ff ff 	mov    -0x200(%rbp),%rax
ffffffff80104404:	48 89 85 0c ff ff ff 	mov    %rax,-0xf4(%rbp)
ffffffff8010440b:	48 8b 85 08 fe ff ff 	mov    -0x1f8(%rbp),%rax
ffffffff80104412:	48 89 85 14 ff ff ff 	mov    %rax,-0xec(%rbp)
ffffffff80104419:	48 8b 85 10 fe ff ff 	mov    -0x1f0(%rbp),%rax
ffffffff80104420:	48 89 85 1c ff ff ff 	mov    %rax,-0xe4(%rbp)
ffffffff80104427:	48 8b 85 18 fe ff ff 	mov    -0x1e8(%rbp),%rax
ffffffff8010442e:	48 89 85 24 ff ff ff 	mov    %rax,-0xdc(%rbp)
ffffffff80104435:	48 8b 85 20 fe ff ff 	mov    -0x1e0(%rbp),%rax
ffffffff8010443c:	48 89 85 2c ff ff ff 	mov    %rax,-0xd4(%rbp)
ffffffff80104443:	48 8b 85 28 fe ff ff 	mov    -0x1d8(%rbp),%rax
ffffffff8010444a:	48 89 85 34 ff ff ff 	mov    %rax,-0xcc(%rbp)
ffffffff80104451:	48 8b 85 30 fe ff ff 	mov    -0x1d0(%rbp),%rax
ffffffff80104458:	48 89 85 3c ff ff ff 	mov    %rax,-0xc4(%rbp)
ffffffff8010445f:	48 8b 85 38 fe ff ff 	mov    -0x1c8(%rbp),%rax
ffffffff80104466:	48 89 85 44 ff ff ff 	mov    %rax,-0xbc(%rbp)
ffffffff8010446d:	8b 85 40 fe ff ff    	mov    -0x1c0(%rbp),%eax
ffffffff80104473:	89 85 4c ff ff ff    	mov    %eax,-0xb4(%rbp)
ffffffff80104479:	48 8b 45 e0          	mov    -0x20(%rbp),%rax
ffffffff8010447d:	48 89 c7             	mov    %rax,%rdi
ffffffff80104480:	e8 7c e4 ff ff       	callq  ffffffff80102901 <ext2_alloc_block>
ffffffff80104485:	89 c1                	mov    %eax,%ecx
ffffffff80104487:	8b 55 d4             	mov    -0x2c(%rbp),%edx
ffffffff8010448a:	48 8d b5 dc fe ff ff 	lea    -0x124(%rbp),%rsi
ffffffff80104491:	48 8b 45 e0          	mov    -0x20(%rbp),%rax
ffffffff80104495:	41 89 c8             	mov    %ecx,%r8d
ffffffff80104498:	b9 00 00 00 00       	mov    $0x0,%ecx
ffffffff8010449d:	48 89 c7             	mov    %rax,%rdi
ffffffff801044a0:	e8 c4 4d 00 00       	callq  ffffffff80109269 <inode_set_block>
ffffffff801044a5:	83 f8 ff             	cmp    $0xffffffff,%eax
ffffffff801044a8:	75 0a                	jne    ffffffff801044b4 <ext2_open+0x3bf>
ffffffff801044aa:	b8 ff ff ff ff       	mov    $0xffffffff,%eax
ffffffff801044af:	e9 21 01 00 00       	jmpq   ffffffff801045d5 <ext2_open+0x4e0>
ffffffff801044b4:	48 8b 45 d8          	mov    -0x28(%rbp),%rax
ffffffff801044b8:	48 8b 80 40 01 00 00 	mov    0x140(%rax),%rax
ffffffff801044bf:	48 c1 e8 09          	shr    $0x9,%rax
ffffffff801044c3:	89 85 f8 fe ff ff    	mov    %eax,-0x108(%rbp)
ffffffff801044c9:	8b 55 d4             	mov    -0x2c(%rbp),%edx
ffffffff801044cc:	48 8d 8d dc fe ff ff 	lea    -0x124(%rbp),%rcx
ffffffff801044d3:	48 8b 45 e0          	mov    -0x20(%rbp),%rax
ffffffff801044d7:	48 89 ce             	mov    %rcx,%rsi
ffffffff801044da:	48 89 c7             	mov    %rax,%rdi
ffffffff801044dd:	e8 e7 54 00 00       	callq  ffffffff801099c9 <ext2_inode_write_entry>
ffffffff801044e2:	48 8b 85 58 fe ff ff 	mov    -0x1a8(%rbp),%rax
ffffffff801044e9:	48 8b 18             	mov    (%rax),%rbx
ffffffff801044ec:	48 8b 85 58 fe ff ff 	mov    -0x1a8(%rbp),%rax
ffffffff801044f3:	48 8b 00             	mov    (%rax),%rax
ffffffff801044f6:	be 2f 00 00 00       	mov    $0x2f,%esi
ffffffff801044fb:	48 89 c7             	mov    %rax,%rdi
ffffffff801044fe:	e8 0b 9f 00 00       	callq  ffffffff8010e40e <last_char>
ffffffff80104503:	48 8d 3c 03          	lea    (%rbx,%rax,1),%rdi
ffffffff80104507:	8b 4d d4             	mov    -0x2c(%rbp),%ecx
ffffffff8010450a:	8b 55 ec             	mov    -0x14(%rbp),%edx
ffffffff8010450d:	48 8d b5 68 fe ff ff 	lea    -0x198(%rbp),%rsi
ffffffff80104514:	48 8b 45 e0          	mov    -0x20(%rbp),%rax
ffffffff80104518:	49 89 f9             	mov    %rdi,%r9
ffffffff8010451b:	41 b8 00 00 00 00    	mov    $0x0,%r8d
ffffffff80104521:	48 89 c7             	mov    %rax,%rdi
ffffffff80104524:	e8 a9 f0 ff ff       	callq  ffffffff801035d2 <ext2_create_dir>
ffffffff80104529:	0f b7 85 82 fe ff ff 	movzwl -0x17e(%rbp),%eax
ffffffff80104530:	83 c0 01             	add    $0x1,%eax
ffffffff80104533:	66 89 85 82 fe ff ff 	mov    %ax,-0x17e(%rbp)
ffffffff8010453a:	8b 55 ec             	mov    -0x14(%rbp),%edx
ffffffff8010453d:	48 8d 8d 68 fe ff ff 	lea    -0x198(%rbp),%rcx
ffffffff80104544:	48 8b 45 e0          	mov    -0x20(%rbp),%rax
ffffffff80104548:	48 89 ce             	mov    %rcx,%rsi
ffffffff8010454b:	48 89 c7             	mov    %rax,%rdi
ffffffff8010454e:	e8 76 54 00 00       	callq  ffffffff801099c9 <ext2_inode_write_entry>
ffffffff80104553:	b8 00 00 00 00       	mov    $0x0,%eax
ffffffff80104558:	eb 7b                	jmp    ffffffff801045d5 <ext2_open+0x4e0>
ffffffff8010455a:	48 8b 85 58 fe ff ff 	mov    -0x1a8(%rbp),%rax
ffffffff80104561:	48 8b 48 08          	mov    0x8(%rax),%rcx
ffffffff80104565:	48 8b 85 58 fe ff ff 	mov    -0x1a8(%rbp),%rax
ffffffff8010456c:	48 8b 40 18          	mov    0x18(%rax),%rax
ffffffff80104570:	48 8b 40 08          	mov    0x8(%rax),%rax
ffffffff80104574:	48 8d b0 c8 00 00 00 	lea    0xc8(%rax),%rsi
ffffffff8010457b:	48 8b 85 58 fe ff ff 	mov    -0x1a8(%rbp),%rax
ffffffff80104582:	48 8b 40 18          	mov    0x18(%rax),%rax
ffffffff80104586:	48 8b 00             	mov    (%rax),%rax
ffffffff80104589:	48 8d 55 cc          	lea    -0x34(%rbp),%rdx
ffffffff8010458d:	48 89 c7             	mov    %rax,%rdi
ffffffff80104590:	e8 13 ee ff ff       	callq  ffffffff801033a8 <ext2_find_dir>
ffffffff80104595:	83 f8 ff             	cmp    $0xffffffff,%eax
ffffffff80104598:	75 07                	jne    ffffffff801045a1 <ext2_open+0x4ac>
ffffffff8010459a:	b8 ff ff ff ff       	mov    $0xffffffff,%eax
ffffffff8010459f:	eb 34                	jmp    ffffffff801045d5 <ext2_open+0x4e0>
ffffffff801045a1:	8b 55 cc             	mov    -0x34(%rbp),%edx
ffffffff801045a4:	48 8d 85 58 ff ff ff 	lea    -0xa8(%rbp),%rax
ffffffff801045ab:	48 8b 4d e0          	mov    -0x20(%rbp),%rcx
ffffffff801045af:	48 89 ce             	mov    %rcx,%rsi
ffffffff801045b2:	48 89 c7             	mov    %rax,%rdi
ffffffff801045b5:	e8 c3 52 00 00       	callq  ffffffff8010987d <ext2_inode_read_entry>
ffffffff801045ba:	8b 85 74 ff ff ff    	mov    -0x8c(%rbp),%eax
ffffffff801045c0:	c1 e0 09             	shl    $0x9,%eax
ffffffff801045c3:	89 c2                	mov    %eax,%edx
ffffffff801045c5:	48 8b 85 58 fe ff ff 	mov    -0x1a8(%rbp),%rax
ffffffff801045cc:	48 89 50 48          	mov    %rdx,0x48(%rax)
ffffffff801045d0:	b8 00 00 00 00       	mov    $0x0,%eax
ffffffff801045d5:	48 8b 5d f8          	mov    -0x8(%rbp),%rbx
ffffffff801045d9:	c9                   	leaveq 
ffffffff801045da:	c3                   	retq   

ffffffff801045db <ext2_read>:
ffffffff801045db:	55                   	push   %rbp
ffffffff801045dc:	48 89 e5             	mov    %rsp,%rbp
ffffffff801045df:	48 81 ec b0 00 00 00 	sub    $0xb0,%rsp
ffffffff801045e6:	48 89 bd 68 ff ff ff 	mov    %rdi,-0x98(%rbp)
ffffffff801045ed:	48 89 b5 60 ff ff ff 	mov    %rsi,-0xa0(%rbp)
ffffffff801045f4:	48 89 95 58 ff ff ff 	mov    %rdx,-0xa8(%rbp)
ffffffff801045fb:	48 89 8d 50 ff ff ff 	mov    %rcx,-0xb0(%rbp)
ffffffff80104602:	48 8b 85 68 ff ff ff 	mov    -0x98(%rbp),%rax
ffffffff80104609:	48 8b 40 18          	mov    0x18(%rax),%rax
ffffffff8010460d:	48 8b 00             	mov    (%rax),%rax
ffffffff80104610:	48 89 45 f8          	mov    %rax,-0x8(%rbp)
ffffffff80104614:	48 8b 45 f8          	mov    -0x8(%rbp),%rax
ffffffff80104618:	48 8b 40 18          	mov    0x18(%rax),%rax
ffffffff8010461c:	48 8b 00             	mov    (%rax),%rax
ffffffff8010461f:	48 8b 40 08          	mov    0x8(%rax),%rax
ffffffff80104623:	48 89 45 f0          	mov    %rax,-0x10(%rbp)
ffffffff80104627:	48 8b 85 68 ff ff ff 	mov    -0x98(%rbp),%rax
ffffffff8010462e:	48 8b 40 48          	mov    0x48(%rax),%rax
ffffffff80104632:	48 39 85 60 ff ff ff 	cmp    %rax,-0xa0(%rbp)
ffffffff80104639:	7e 0a                	jle    ffffffff80104645 <ext2_read+0x6a>
ffffffff8010463b:	b8 ff ff ff ff       	mov    $0xffffffff,%eax
ffffffff80104640:	e9 b7 00 00 00       	jmpq   ffffffff801046fc <ext2_read+0x121>
ffffffff80104645:	48 8b 95 60 ff ff ff 	mov    -0xa0(%rbp),%rdx
ffffffff8010464c:	48 8b 85 58 ff ff ff 	mov    -0xa8(%rbp),%rax
ffffffff80104653:	48 01 c2             	add    %rax,%rdx
ffffffff80104656:	48 8b 85 68 ff ff ff 	mov    -0x98(%rbp),%rax
ffffffff8010465d:	48 8b 40 48          	mov    0x48(%rax),%rax
ffffffff80104661:	48 39 c2             	cmp    %rax,%rdx
ffffffff80104664:	7e 19                	jle    ffffffff8010467f <ext2_read+0xa4>
ffffffff80104666:	48 8b 85 68 ff ff ff 	mov    -0x98(%rbp),%rax
ffffffff8010466d:	48 8b 40 48          	mov    0x48(%rax),%rax
ffffffff80104671:	48 2b 85 60 ff ff ff 	sub    -0xa0(%rbp),%rax
ffffffff80104678:	48 89 85 58 ff ff ff 	mov    %rax,-0xa8(%rbp)
ffffffff8010467f:	48 8b 85 68 ff ff ff 	mov    -0x98(%rbp),%rax
ffffffff80104686:	48 8b 48 08          	mov    0x8(%rax),%rcx
ffffffff8010468a:	48 8b 45 f0          	mov    -0x10(%rbp),%rax
ffffffff8010468e:	48 8d b0 c8 00 00 00 	lea    0xc8(%rax),%rsi
ffffffff80104695:	48 8d 55 e8          	lea    -0x18(%rbp),%rdx
ffffffff80104699:	48 8b 45 f8          	mov    -0x8(%rbp),%rax
ffffffff8010469d:	48 89 c7             	mov    %rax,%rdi
ffffffff801046a0:	e8 03 ed ff ff       	callq  ffffffff801033a8 <ext2_find_dir>
ffffffff801046a5:	83 f8 ff             	cmp    $0xffffffff,%eax
ffffffff801046a8:	75 07                	jne    ffffffff801046b1 <ext2_read+0xd6>
ffffffff801046aa:	b8 ff ff ff ff       	mov    $0xffffffff,%eax
ffffffff801046af:	eb 4b                	jmp    ffffffff801046fc <ext2_read+0x121>
ffffffff801046b1:	8b 55 e8             	mov    -0x18(%rbp),%edx
ffffffff801046b4:	48 8d 85 74 ff ff ff 	lea    -0x8c(%rbp),%rax
ffffffff801046bb:	48 8b 4d f8          	mov    -0x8(%rbp),%rcx
ffffffff801046bf:	48 89 ce             	mov    %rcx,%rsi
ffffffff801046c2:	48 89 c7             	mov    %rax,%rdi
ffffffff801046c5:	e8 b3 51 00 00       	callq  ffffffff8010987d <ext2_inode_read_entry>
ffffffff801046ca:	48 8b bd 50 ff ff ff 	mov    -0xb0(%rbp),%rdi
ffffffff801046d1:	48 8b 8d 58 ff ff ff 	mov    -0xa8(%rbp),%rcx
ffffffff801046d8:	48 8b 95 60 ff ff ff 	mov    -0xa0(%rbp),%rdx
ffffffff801046df:	48 8d b5 74 ff ff ff 	lea    -0x8c(%rbp),%rsi
ffffffff801046e6:	48 8b 45 f8          	mov    -0x8(%rbp),%rax
ffffffff801046ea:	49 89 f8             	mov    %rdi,%r8
ffffffff801046ed:	48 89 c7             	mov    %rax,%rdi
ffffffff801046f0:	e8 cb 4e 00 00       	callq  ffffffff801095c0 <ext2_inode_read>
ffffffff801046f5:	48 8b 85 58 ff ff ff 	mov    -0xa8(%rbp),%rax
ffffffff801046fc:	c9                   	leaveq 
ffffffff801046fd:	c3                   	retq   

ffffffff801046fe <ext2_write>:
ffffffff801046fe:	55                   	push   %rbp
ffffffff801046ff:	48 89 e5             	mov    %rsp,%rbp
ffffffff80104702:	48 81 ec b0 00 00 00 	sub    $0xb0,%rsp
ffffffff80104709:	48 89 bd 68 ff ff ff 	mov    %rdi,-0x98(%rbp)
ffffffff80104710:	48 89 b5 60 ff ff ff 	mov    %rsi,-0xa0(%rbp)
ffffffff80104717:	48 89 95 58 ff ff ff 	mov    %rdx,-0xa8(%rbp)
ffffffff8010471e:	48 89 8d 50 ff ff ff 	mov    %rcx,-0xb0(%rbp)
ffffffff80104725:	48 8b 85 68 ff ff ff 	mov    -0x98(%rbp),%rax
ffffffff8010472c:	48 8b 40 18          	mov    0x18(%rax),%rax
ffffffff80104730:	48 8b 00             	mov    (%rax),%rax
ffffffff80104733:	48 89 45 f8          	mov    %rax,-0x8(%rbp)
ffffffff80104737:	48 8b 45 f8          	mov    -0x8(%rbp),%rax
ffffffff8010473b:	48 8b 40 18          	mov    0x18(%rax),%rax
ffffffff8010473f:	48 8b 00             	mov    (%rax),%rax
ffffffff80104742:	48 8b 40 08          	mov    0x8(%rax),%rax
ffffffff80104746:	48 89 45 f0          	mov    %rax,-0x10(%rbp)
ffffffff8010474a:	48 8b 95 60 ff ff ff 	mov    -0xa0(%rbp),%rdx
ffffffff80104751:	48 8b 85 58 ff ff ff 	mov    -0xa8(%rbp),%rax
ffffffff80104758:	48 01 c2             	add    %rax,%rdx
ffffffff8010475b:	48 8b 85 68 ff ff ff 	mov    -0x98(%rbp),%rax
ffffffff80104762:	48 8b 40 48          	mov    0x48(%rax),%rax
ffffffff80104766:	48 39 c2             	cmp    %rax,%rdx
ffffffff80104769:	7e 1c                	jle    ffffffff80104787 <ext2_write+0x89>
ffffffff8010476b:	48 8b 95 60 ff ff ff 	mov    -0xa0(%rbp),%rdx
ffffffff80104772:	48 8b 85 58 ff ff ff 	mov    -0xa8(%rbp),%rax
ffffffff80104779:	48 01 c2             	add    %rax,%rdx
ffffffff8010477c:	48 8b 85 68 ff ff ff 	mov    -0x98(%rbp),%rax
ffffffff80104783:	48 89 50 48          	mov    %rdx,0x48(%rax)
ffffffff80104787:	48 8b 85 68 ff ff ff 	mov    -0x98(%rbp),%rax
ffffffff8010478e:	48 8b 48 08          	mov    0x8(%rax),%rcx
ffffffff80104792:	48 8b 45 f0          	mov    -0x10(%rbp),%rax
ffffffff80104796:	48 8d b0 c8 00 00 00 	lea    0xc8(%rax),%rsi
ffffffff8010479d:	48 8d 55 e8          	lea    -0x18(%rbp),%rdx
ffffffff801047a1:	48 8b 45 f8          	mov    -0x8(%rbp),%rax
ffffffff801047a5:	48 89 c7             	mov    %rax,%rdi
ffffffff801047a8:	e8 fb eb ff ff       	callq  ffffffff801033a8 <ext2_find_dir>
ffffffff801047ad:	83 f8 ff             	cmp    $0xffffffff,%eax
ffffffff801047b0:	75 07                	jne    ffffffff801047b9 <ext2_write+0xbb>
ffffffff801047b2:	b8 ff ff ff ff       	mov    $0xffffffff,%eax
ffffffff801047b7:	eb 51                	jmp    ffffffff8010480a <ext2_write+0x10c>
ffffffff801047b9:	8b 55 e8             	mov    -0x18(%rbp),%edx
ffffffff801047bc:	48 8d 85 74 ff ff ff 	lea    -0x8c(%rbp),%rax
ffffffff801047c3:	48 8b 4d f8          	mov    -0x8(%rbp),%rcx
ffffffff801047c7:	48 89 ce             	mov    %rcx,%rsi
ffffffff801047ca:	48 89 c7             	mov    %rax,%rdi
ffffffff801047cd:	e8 ab 50 00 00       	callq  ffffffff8010987d <ext2_inode_read_entry>
ffffffff801047d2:	8b 55 e8             	mov    -0x18(%rbp),%edx
ffffffff801047d5:	4c 8b 85 50 ff ff ff 	mov    -0xb0(%rbp),%r8
ffffffff801047dc:	48 8b bd 58 ff ff ff 	mov    -0xa8(%rbp),%rdi
ffffffff801047e3:	48 8b 8d 60 ff ff ff 	mov    -0xa0(%rbp),%rcx
ffffffff801047ea:	48 8d b5 74 ff ff ff 	lea    -0x8c(%rbp),%rsi
ffffffff801047f1:	48 8b 45 f8          	mov    -0x8(%rbp),%rax
ffffffff801047f5:	4d 89 c1             	mov    %r8,%r9
ffffffff801047f8:	49 89 f8             	mov    %rdi,%r8
ffffffff801047fb:	48 89 c7             	mov    %rax,%rdi
ffffffff801047fe:	e8 bd 4e 00 00       	callq  ffffffff801096c0 <ext2_inode_write>
ffffffff80104803:	48 8b 85 58 ff ff ff 	mov    -0xa8(%rbp),%rax
ffffffff8010480a:	c9                   	leaveq 
ffffffff8010480b:	c3                   	retq   

ffffffff8010480c <ext2_refresh_node>:
ffffffff8010480c:	55                   	push   %rbp
ffffffff8010480d:	48 89 e5             	mov    %rsp,%rbp
ffffffff80104810:	48 81 ec e0 00 00 00 	sub    $0xe0,%rsp
ffffffff80104817:	48 89 bd 38 ff ff ff 	mov    %rdi,-0xc8(%rbp)
ffffffff8010481e:	48 89 b5 30 ff ff ff 	mov    %rsi,-0xd0(%rbp)
ffffffff80104825:	48 89 95 28 ff ff ff 	mov    %rdx,-0xd8(%rbp)
ffffffff8010482c:	48 8b 85 30 ff ff ff 	mov    -0xd0(%rbp),%rax
ffffffff80104833:	8b 40 04             	mov    0x4(%rax),%eax
ffffffff80104836:	89 c0                	mov    %eax,%eax
ffffffff80104838:	48 89 c7             	mov    %rax,%rdi
ffffffff8010483b:	e8 7f de ff ff       	callq  ffffffff801026bf <kcalloc>
ffffffff80104840:	48 89 45 f0          	mov    %rax,-0x10(%rbp)
ffffffff80104844:	48 8b 85 30 ff ff ff 	mov    -0xd0(%rbp),%rax
ffffffff8010484b:	8b 40 04             	mov    0x4(%rax),%eax
ffffffff8010484e:	89 c1                	mov    %eax,%ecx
ffffffff80104850:	48 8b 55 f0          	mov    -0x10(%rbp),%rdx
ffffffff80104854:	48 8b b5 30 ff ff ff 	mov    -0xd0(%rbp),%rsi
ffffffff8010485b:	48 8b 85 38 ff ff ff 	mov    -0xc8(%rbp),%rax
ffffffff80104862:	49 89 d0             	mov    %rdx,%r8
ffffffff80104865:	ba 00 00 00 00       	mov    $0x0,%edx
ffffffff8010486a:	48 89 c7             	mov    %rax,%rdi
ffffffff8010486d:	e8 4e 4d 00 00       	callq  ffffffff801095c0 <ext2_inode_read>
ffffffff80104872:	c7 45 fc 00 00 00 00 	movl   $0x0,-0x4(%rbp)
ffffffff80104879:	e9 cd 01 00 00       	jmpq   ffffffff80104a4b <ext2_refresh_node+0x23f>
ffffffff8010487e:	8b 55 fc             	mov    -0x4(%rbp),%edx
ffffffff80104881:	48 8b 45 f0          	mov    -0x10(%rbp),%rax
ffffffff80104885:	48 01 d0             	add    %rdx,%rax
ffffffff80104888:	48 89 45 e8          	mov    %rax,-0x18(%rbp)
ffffffff8010488c:	48 8b 45 e8          	mov    -0x18(%rbp),%rax
ffffffff80104890:	0f b6 40 06          	movzbl 0x6(%rax),%eax
ffffffff80104894:	0f b6 c0             	movzbl %al,%eax
ffffffff80104897:	83 c0 01             	add    $0x1,%eax
ffffffff8010489a:	48 98                	cltq   
ffffffff8010489c:	48 89 c7             	mov    %rax,%rdi
ffffffff8010489f:	e8 a3 da ff ff       	callq  ffffffff80102347 <kmalloc>
ffffffff801048a4:	48 89 45 e0          	mov    %rax,-0x20(%rbp)
ffffffff801048a8:	48 8b 45 e8          	mov    -0x18(%rbp),%rax
ffffffff801048ac:	0f b6 40 06          	movzbl 0x6(%rax),%eax
ffffffff801048b0:	0f b6 d0             	movzbl %al,%edx
ffffffff801048b3:	48 8b 45 e8          	mov    -0x18(%rbp),%rax
ffffffff801048b7:	48 8d 48 08          	lea    0x8(%rax),%rcx
ffffffff801048bb:	48 8b 45 e0          	mov    -0x20(%rbp),%rax
ffffffff801048bf:	48 89 ce             	mov    %rcx,%rsi
ffffffff801048c2:	48 89 c7             	mov    %rax,%rdi
ffffffff801048c5:	e8 86 97 00 00       	callq  ffffffff8010e050 <strncpy>
ffffffff801048ca:	48 8b 45 e8          	mov    -0x18(%rbp),%rax
ffffffff801048ce:	0f b6 40 06          	movzbl 0x6(%rax),%eax
ffffffff801048d2:	0f b6 d0             	movzbl %al,%edx
ffffffff801048d5:	48 8b 45 e0          	mov    -0x20(%rbp),%rax
ffffffff801048d9:	48 01 d0             	add    %rdx,%rax
ffffffff801048dc:	c6 00 00             	movb   $0x0,(%rax)
ffffffff801048df:	48 8b 55 e0          	mov    -0x20(%rbp),%rdx
ffffffff801048e3:	48 8b 85 28 ff ff ff 	mov    -0xd8(%rbp),%rax
ffffffff801048ea:	48 89 d6             	mov    %rdx,%rsi
ffffffff801048ed:	48 89 c7             	mov    %rax,%rdi
ffffffff801048f0:	e8 78 9a 00 00       	callq  ffffffff8010e36d <str_congregate>
ffffffff801048f5:	48 89 45 d8          	mov    %rax,-0x28(%rbp)
ffffffff801048f9:	48 8b 45 e0          	mov    -0x20(%rbp),%rax
ffffffff801048fd:	48 89 c7             	mov    %rax,%rdi
ffffffff80104900:	e8 ee db ff ff       	callq  ffffffff801024f3 <kfree>
ffffffff80104905:	48 8b 45 e0          	mov    -0x20(%rbp),%rax
ffffffff80104909:	48 c7 c6 3b 02 11 80 	mov    $0xffffffff8011023b,%rsi
ffffffff80104910:	48 89 c7             	mov    %rax,%rdi
ffffffff80104913:	e8 2a 96 00 00       	callq  ffffffff8010df42 <strcmp>
ffffffff80104918:	85 c0                	test   %eax,%eax
ffffffff8010491a:	74 17                	je     ffffffff80104933 <ext2_refresh_node+0x127>
ffffffff8010491c:	48 8b 45 e0          	mov    -0x20(%rbp),%rax
ffffffff80104920:	48 c7 c6 3d 02 11 80 	mov    $0xffffffff8011023d,%rsi
ffffffff80104927:	48 89 c7             	mov    %rax,%rdi
ffffffff8010492a:	e8 13 96 00 00       	callq  ffffffff8010df42 <strcmp>
ffffffff8010492f:	85 c0                	test   %eax,%eax
ffffffff80104931:	75 1f                	jne    ffffffff80104952 <ext2_refresh_node+0x146>
ffffffff80104933:	48 8b 45 d8          	mov    -0x28(%rbp),%rax
ffffffff80104937:	48 89 c7             	mov    %rax,%rdi
ffffffff8010493a:	e8 b9 9e 00 00       	callq  ffffffff8010e7f8 <vfs_create_node_deep>
ffffffff8010493f:	48 8b 45 e8          	mov    -0x18(%rbp),%rax
ffffffff80104943:	0f b7 40 04          	movzwl 0x4(%rax),%eax
ffffffff80104947:	0f b7 c0             	movzwl %ax,%eax
ffffffff8010494a:	01 45 fc             	add    %eax,-0x4(%rbp)
ffffffff8010494d:	e9 f9 00 00 00       	jmpq   ffffffff80104a4b <ext2_refresh_node+0x23f>
ffffffff80104952:	48 8b 45 e8          	mov    -0x18(%rbp),%rax
ffffffff80104956:	8b 10                	mov    (%rax),%edx
ffffffff80104958:	48 8d 85 4c ff ff ff 	lea    -0xb4(%rbp),%rax
ffffffff8010495f:	48 8b 8d 38 ff ff ff 	mov    -0xc8(%rbp),%rcx
ffffffff80104966:	48 89 ce             	mov    %rcx,%rsi
ffffffff80104969:	48 89 c7             	mov    %rax,%rdi
ffffffff8010496c:	e8 0c 4f 00 00       	callq  ffffffff8010987d <ext2_inode_read_entry>
ffffffff80104971:	0f b7 85 4c ff ff ff 	movzwl -0xb4(%rbp),%eax
ffffffff80104978:	0f b7 c0             	movzwl %ax,%eax
ffffffff8010497b:	25 00 40 00 00       	and    $0x4000,%eax
ffffffff80104980:	85 c0                	test   %eax,%eax
ffffffff80104982:	74 4e                	je     ffffffff801049d2 <ext2_refresh_node+0x1c6>
ffffffff80104984:	48 8b 45 d8          	mov    -0x28(%rbp),%rax
ffffffff80104988:	48 c7 c6 39 02 11 80 	mov    $0xffffffff80110239,%rsi
ffffffff8010498f:	48 89 c7             	mov    %rax,%rdi
ffffffff80104992:	e8 d6 99 00 00       	callq  ffffffff8010e36d <str_congregate>
ffffffff80104997:	48 89 45 d0          	mov    %rax,-0x30(%rbp)
ffffffff8010499b:	48 8b 45 d8          	mov    -0x28(%rbp),%rax
ffffffff8010499f:	48 89 c7             	mov    %rax,%rdi
ffffffff801049a2:	e8 4c db ff ff       	callq  ffffffff801024f3 <kfree>
ffffffff801049a7:	48 8b 45 d0          	mov    -0x30(%rbp),%rax
ffffffff801049ab:	48 89 c7             	mov    %rax,%rdi
ffffffff801049ae:	e8 45 9e 00 00       	callq  ffffffff8010e7f8 <vfs_create_node_deep>
ffffffff801049b3:	48 8b 55 d0          	mov    -0x30(%rbp),%rdx
ffffffff801049b7:	48 8d 8d 4c ff ff ff 	lea    -0xb4(%rbp),%rcx
ffffffff801049be:	48 8b 85 38 ff ff ff 	mov    -0xc8(%rbp),%rax
ffffffff801049c5:	48 89 ce             	mov    %rcx,%rsi
ffffffff801049c8:	48 89 c7             	mov    %rax,%rdi
ffffffff801049cb:	e8 3c fe ff ff       	callq  ffffffff8010480c <ext2_refresh_node>
ffffffff801049d0:	eb 0c                	jmp    ffffffff801049de <ext2_refresh_node+0x1d2>
ffffffff801049d2:	48 8b 45 d8          	mov    -0x28(%rbp),%rax
ffffffff801049d6:	48 89 c7             	mov    %rax,%rdi
ffffffff801049d9:	e8 1a 9e 00 00       	callq  ffffffff8010e7f8 <vfs_create_node_deep>
ffffffff801049de:	48 8b 45 e8          	mov    -0x18(%rbp),%rax
ffffffff801049e2:	0f b6 40 06          	movzbl 0x6(%rax),%eax
ffffffff801049e6:	0f b6 c0             	movzbl %al,%eax
ffffffff801049e9:	48 83 c0 08          	add    $0x8,%rax
ffffffff801049ed:	48 89 45 c8          	mov    %rax,-0x38(%rbp)
ffffffff801049f1:	c7 45 c4 04 00 00 00 	movl   $0x4,-0x3c(%rbp)
ffffffff801049f8:	8b 45 c4             	mov    -0x3c(%rbp),%eax
ffffffff801049fb:	83 e8 01             	sub    $0x1,%eax
ffffffff801049fe:	48 63 d0             	movslq %eax,%rdx
ffffffff80104a01:	48 8b 45 c8          	mov    -0x38(%rbp),%rax
ffffffff80104a05:	48 01 d0             	add    %rdx,%rax
ffffffff80104a08:	8b 55 c4             	mov    -0x3c(%rbp),%edx
ffffffff80104a0b:	48 63 ca             	movslq %edx,%rcx
ffffffff80104a0e:	ba 00 00 00 00       	mov    $0x0,%edx
ffffffff80104a13:	48 f7 f1             	div    %rcx
ffffffff80104a16:	48 89 c2             	mov    %rax,%rdx
ffffffff80104a19:	8b 45 c4             	mov    -0x3c(%rbp),%eax
ffffffff80104a1c:	48 98                	cltq   
ffffffff80104a1e:	48 0f af c2          	imul   %rdx,%rax
ffffffff80104a22:	48 89 45 c8          	mov    %rax,-0x38(%rbp)
ffffffff80104a26:	48 8b 45 c8          	mov    -0x38(%rbp),%rax
ffffffff80104a2a:	89 45 c0             	mov    %eax,-0x40(%rbp)
ffffffff80104a2d:	48 8b 45 e8          	mov    -0x18(%rbp),%rax
ffffffff80104a31:	0f b7 40 04          	movzwl 0x4(%rax),%eax
ffffffff80104a35:	0f b7 c0             	movzwl %ax,%eax
ffffffff80104a38:	39 45 c0             	cmp    %eax,-0x40(%rbp)
ffffffff80104a3b:	75 23                	jne    ffffffff80104a60 <ext2_refresh_node+0x254>
ffffffff80104a3d:	48 8b 45 e8          	mov    -0x18(%rbp),%rax
ffffffff80104a41:	0f b7 40 04          	movzwl 0x4(%rax),%eax
ffffffff80104a45:	0f b7 c0             	movzwl %ax,%eax
ffffffff80104a48:	01 45 fc             	add    %eax,-0x4(%rbp)
ffffffff80104a4b:	48 8b 85 30 ff ff ff 	mov    -0xd0(%rbp),%rax
ffffffff80104a52:	8b 40 04             	mov    0x4(%rax),%eax
ffffffff80104a55:	39 45 fc             	cmp    %eax,-0x4(%rbp)
ffffffff80104a58:	0f 82 20 fe ff ff    	jb     ffffffff8010487e <ext2_refresh_node+0x72>
ffffffff80104a5e:	eb 01                	jmp    ffffffff80104a61 <ext2_refresh_node+0x255>
ffffffff80104a60:	90                   	nop
ffffffff80104a61:	c9                   	leaveq 
ffffffff80104a62:	c3                   	retq   

ffffffff80104a63 <ext2_refresh>:
ffffffff80104a63:	55                   	push   %rbp
ffffffff80104a64:	48 89 e5             	mov    %rsp,%rbp
ffffffff80104a67:	48 83 ec 20          	sub    $0x20,%rsp
ffffffff80104a6b:	48 89 7d e8          	mov    %rdi,-0x18(%rbp)
ffffffff80104a6f:	48 8b 45 e8          	mov    -0x18(%rbp),%rax
ffffffff80104a73:	48 8b 40 18          	mov    0x18(%rax),%rax
ffffffff80104a77:	48 8b 00             	mov    (%rax),%rax
ffffffff80104a7a:	48 89 45 f8          	mov    %rax,-0x8(%rbp)
ffffffff80104a7e:	48 8b 45 f8          	mov    -0x8(%rbp),%rax
ffffffff80104a82:	48 8b 40 18          	mov    0x18(%rax),%rax
ffffffff80104a86:	48 8b 00             	mov    (%rax),%rax
ffffffff80104a89:	48 8b 40 08          	mov    0x8(%rax),%rax
ffffffff80104a8d:	48 89 45 f0          	mov    %rax,-0x10(%rbp)
ffffffff80104a91:	48 8b 45 f8          	mov    -0x8(%rbp),%rax
ffffffff80104a95:	48 8b 40 18          	mov    0x18(%rax),%rax
ffffffff80104a99:	48 8b 00             	mov    (%rax),%rax
ffffffff80104a9c:	48 8b 50 10          	mov    0x10(%rax),%rdx
ffffffff80104aa0:	48 8b 45 f0          	mov    -0x10(%rbp),%rax
ffffffff80104aa4:	48 8d 88 c8 00 00 00 	lea    0xc8(%rax),%rcx
ffffffff80104aab:	48 8b 45 f8          	mov    -0x8(%rbp),%rax
ffffffff80104aaf:	48 89 ce             	mov    %rcx,%rsi
ffffffff80104ab2:	48 89 c7             	mov    %rax,%rdi
ffffffff80104ab5:	e8 52 fd ff ff       	callq  ffffffff8010480c <ext2_refresh_node>
ffffffff80104aba:	b8 00 00 00 00       	mov    $0x0,%eax
ffffffff80104abf:	c9                   	leaveq 
ffffffff80104ac0:	c3                   	retq   

ffffffff80104ac1 <ext2_unlink>:
ffffffff80104ac1:	55                   	push   %rbp
ffffffff80104ac2:	48 89 e5             	mov    %rsp,%rbp
ffffffff80104ac5:	48 83 ec 20          	sub    $0x20,%rsp
ffffffff80104ac9:	48 89 7d e8          	mov    %rdi,-0x18(%rbp)
ffffffff80104acd:	48 8b 45 e8          	mov    -0x18(%rbp),%rax
ffffffff80104ad1:	48 8b 40 18          	mov    0x18(%rax),%rax
ffffffff80104ad5:	48 8b 00             	mov    (%rax),%rax
ffffffff80104ad8:	48 89 45 f8          	mov    %rax,-0x8(%rbp)
ffffffff80104adc:	48 8b 45 f8          	mov    -0x8(%rbp),%rax
ffffffff80104ae0:	48 8b 40 18          	mov    0x18(%rax),%rax
ffffffff80104ae4:	48 8b 00             	mov    (%rax),%rax
ffffffff80104ae7:	48 8b 40 08          	mov    0x8(%rax),%rax
ffffffff80104aeb:	48 89 45 f0          	mov    %rax,-0x10(%rbp)
ffffffff80104aef:	48 8b 45 e8          	mov    -0x18(%rbp),%rax
ffffffff80104af3:	48 8b 50 08          	mov    0x8(%rax),%rdx
ffffffff80104af7:	48 8b 45 f0          	mov    -0x10(%rbp),%rax
ffffffff80104afb:	48 8d 88 c8 00 00 00 	lea    0xc8(%rax),%rcx
ffffffff80104b02:	48 8b 45 f8          	mov    -0x8(%rbp),%rax
ffffffff80104b06:	48 89 ce             	mov    %rcx,%rsi
ffffffff80104b09:	48 89 c7             	mov    %rax,%rdi
ffffffff80104b0c:	e8 cb ee ff ff       	callq  ffffffff801039dc <ext2_delete_dir>
ffffffff80104b11:	b8 00 00 00 00       	mov    $0x0,%eax
ffffffff80104b16:	c9                   	leaveq 
ffffffff80104b17:	c3                   	retq   

ffffffff80104b18 <ext2_mkdir>:
ffffffff80104b18:	55                   	push   %rbp
ffffffff80104b19:	48 89 e5             	mov    %rsp,%rbp
ffffffff80104b1c:	48 83 ec 10          	sub    $0x10,%rsp
ffffffff80104b20:	48 89 7d f8          	mov    %rdi,-0x8(%rbp)
ffffffff80104b24:	89 f0                	mov    %esi,%eax
ffffffff80104b26:	66 89 45 f4          	mov    %ax,-0xc(%rbp)
ffffffff80104b2a:	b8 00 00 00 00       	mov    $0x0,%eax
ffffffff80104b2f:	c9                   	leaveq 
ffffffff80104b30:	c3                   	retq   

ffffffff80104b31 <open>:
ffffffff80104b31:	55                   	push   %rbp
ffffffff80104b32:	48 89 e5             	mov    %rsp,%rbp
ffffffff80104b35:	48 83 ec 60          	sub    $0x60,%rsp
ffffffff80104b39:	48 89 7d a8          	mov    %rdi,-0x58(%rbp)
ffffffff80104b3d:	89 75 a4             	mov    %esi,-0x5c(%rbp)
ffffffff80104b40:	8b 55 a4             	mov    -0x5c(%rbp),%edx
ffffffff80104b43:	48 8b 45 a8          	mov    -0x58(%rbp),%rax
ffffffff80104b47:	89 d6                	mov    %edx,%esi
ffffffff80104b49:	48 89 c7             	mov    %rax,%rdi
ffffffff80104b4c:	e8 e6 a2 00 00       	callq  ffffffff8010ee37 <vfs_open>
ffffffff80104b51:	83 f8 ff             	cmp    $0xffffffff,%eax
ffffffff80104b54:	75 0a                	jne    ffffffff80104b60 <open+0x2f>
ffffffff80104b56:	b8 ff ff ff ff       	mov    $0xffffffff,%eax
ffffffff80104b5b:	e9 59 02 00 00       	jmpq   ffffffff80104db9 <open+0x288>
ffffffff80104b60:	48 8b 45 a8          	mov    -0x58(%rbp),%rax
ffffffff80104b64:	48 89 c7             	mov    %rax,%rdi
ffffffff80104b67:	e8 a7 9d 00 00       	callq  ffffffff8010e913 <vfs_absolute_path>
ffffffff80104b6c:	48 89 45 f8          	mov    %rax,-0x8(%rbp)
ffffffff80104b70:	48 83 7d f8 00       	cmpq   $0x0,-0x8(%rbp)
ffffffff80104b75:	75 0a                	jne    ffffffff80104b81 <open+0x50>
ffffffff80104b77:	b8 ff ff ff ff       	mov    $0xffffffff,%eax
ffffffff80104b7c:	e9 38 02 00 00       	jmpq   ffffffff80104db9 <open+0x288>
ffffffff80104b81:	48 8d 55 b8          	lea    -0x48(%rbp),%rdx
ffffffff80104b85:	b8 00 00 00 00       	mov    $0x0,%eax
ffffffff80104b8a:	b9 06 00 00 00       	mov    $0x6,%ecx
ffffffff80104b8f:	48 89 d7             	mov    %rdx,%rdi
ffffffff80104b92:	f3 48 ab             	rep stos %rax,%es:(%rdi)
ffffffff80104b95:	48 8b 45 f8          	mov    -0x8(%rbp),%rax
ffffffff80104b99:	48 89 45 c0          	mov    %rax,-0x40(%rbp)
ffffffff80104b9d:	bf 08 00 00 00       	mov    $0x8,%edi
ffffffff80104ba2:	e8 a0 d7 ff ff       	callq  ffffffff80102347 <kmalloc>
ffffffff80104ba7:	48 89 45 d0          	mov    %rax,-0x30(%rbp)
ffffffff80104bab:	bf 04 00 00 00       	mov    $0x4,%edi
ffffffff80104bb0:	e8 92 d7 ff ff       	callq  ffffffff80102347 <kmalloc>
ffffffff80104bb5:	48 89 45 d8          	mov    %rax,-0x28(%rbp)
ffffffff80104bb9:	48 8b 45 d8          	mov    -0x28(%rbp),%rax
ffffffff80104bbd:	8b 55 a4             	mov    -0x5c(%rbp),%edx
ffffffff80104bc0:	89 10                	mov    %edx,(%rax)
ffffffff80104bc2:	48 8b 45 d0          	mov    -0x30(%rbp),%rax
ffffffff80104bc6:	48 c7 00 00 00 00 00 	movq   $0x0,(%rax)
ffffffff80104bcd:	48 8b 05 2c 85 01 00 	mov    0x1852c(%rip),%rax        # ffffffff8011d100 <fd_list>
ffffffff80104bd4:	48 89 45 f0          	mov    %rax,-0x10(%rbp)
ffffffff80104bd8:	48 c7 c7 10 d1 11 80 	mov    $0xffffffff8011d110,%rdi
ffffffff80104bdf:	e8 bc 92 00 00       	callq  ffffffff8010dea0 <spin_lock>
ffffffff80104be4:	c7 45 ec 00 00 00 00 	movl   $0x0,-0x14(%rbp)
ffffffff80104beb:	48 8b 05 16 85 01 00 	mov    0x18516(%rip),%rax        # ffffffff8011d108 <fd_list+0x8>
ffffffff80104bf2:	48 85 c0             	test   %rax,%rax
ffffffff80104bf5:	75 1c                	jne    ffffffff80104c13 <open+0xe2>
ffffffff80104bf7:	bf 00 06 00 00       	mov    $0x600,%edi
ffffffff80104bfc:	e8 46 d7 ff ff       	callq  ffffffff80102347 <kmalloc>
ffffffff80104c01:	48 89 05 00 85 01 00 	mov    %rax,0x18500(%rip)        # ffffffff8011d108 <fd_list+0x8>
ffffffff80104c08:	48 c7 05 05 85 01 00 	movq   $0x20,0x18505(%rip)        # ffffffff8011d118 <fd_list+0x18>
ffffffff80104c0f:	20 00 00 00 
ffffffff80104c13:	48 8b 15 0e 85 01 00 	mov    0x1850e(%rip),%rdx        # ffffffff8011d128 <fd_list+0x28>
ffffffff80104c1a:	48 8b 05 f7 84 01 00 	mov    0x184f7(%rip),%rax        # ffffffff8011d118 <fd_list+0x18>
ffffffff80104c21:	48 39 c2             	cmp    %rax,%rdx
ffffffff80104c24:	76 32                	jbe    ffffffff80104c58 <open+0x127>
ffffffff80104c26:	48 8b 05 eb 84 01 00 	mov    0x184eb(%rip),%rax        # ffffffff8011d118 <fd_list+0x18>
ffffffff80104c2d:	48 83 c0 20          	add    $0x20,%rax
ffffffff80104c31:	48 89 05 e0 84 01 00 	mov    %rax,0x184e0(%rip)        # ffffffff8011d118 <fd_list+0x18>
ffffffff80104c38:	48 8b 15 d9 84 01 00 	mov    0x184d9(%rip),%rdx        # ffffffff8011d118 <fd_list+0x18>
ffffffff80104c3f:	48 8b 05 c2 84 01 00 	mov    0x184c2(%rip),%rax        # ffffffff8011d108 <fd_list+0x8>
ffffffff80104c46:	48 89 d6             	mov    %rdx,%rsi
ffffffff80104c49:	48 89 c7             	mov    %rax,%rdi
ffffffff80104c4c:	e8 be d9 ff ff       	callq  ffffffff8010260f <krealloc>
ffffffff80104c51:	48 89 05 b0 84 01 00 	mov    %rax,0x184b0(%rip)        # ffffffff8011d108 <fd_list+0x8>
ffffffff80104c58:	48 8b 05 c9 84 01 00 	mov    0x184c9(%rip),%rax        # ffffffff8011d128 <fd_list+0x28>
ffffffff80104c5f:	89 45 ec             	mov    %eax,-0x14(%rbp)
ffffffff80104c62:	48 8b 0d 9f 84 01 00 	mov    0x1849f(%rip),%rcx        # ffffffff8011d108 <fd_list+0x8>
ffffffff80104c69:	48 8b 15 b8 84 01 00 	mov    0x184b8(%rip),%rdx        # ffffffff8011d128 <fd_list+0x28>
ffffffff80104c70:	48 8d 42 01          	lea    0x1(%rdx),%rax
ffffffff80104c74:	48 89 05 ad 84 01 00 	mov    %rax,0x184ad(%rip)        # ffffffff8011d128 <fd_list+0x28>
ffffffff80104c7b:	48 89 d0             	mov    %rdx,%rax
ffffffff80104c7e:	48 01 c0             	add    %rax,%rax
ffffffff80104c81:	48 01 d0             	add    %rdx,%rax
ffffffff80104c84:	48 c1 e0 04          	shl    $0x4,%rax
ffffffff80104c88:	48 01 c8             	add    %rcx,%rax
ffffffff80104c8b:	48 8b 55 b8          	mov    -0x48(%rbp),%rdx
ffffffff80104c8f:	48 89 10             	mov    %rdx,(%rax)
ffffffff80104c92:	48 8b 55 c0          	mov    -0x40(%rbp),%rdx
ffffffff80104c96:	48 89 50 08          	mov    %rdx,0x8(%rax)
ffffffff80104c9a:	48 8b 55 c8          	mov    -0x38(%rbp),%rdx
ffffffff80104c9e:	48 89 50 10          	mov    %rdx,0x10(%rax)
ffffffff80104ca2:	48 8b 55 d0          	mov    -0x30(%rbp),%rdx
ffffffff80104ca6:	48 89 50 18          	mov    %rdx,0x18(%rax)
ffffffff80104caa:	48 8b 55 d8          	mov    -0x28(%rbp),%rdx
ffffffff80104cae:	48 89 50 20          	mov    %rdx,0x20(%rax)
ffffffff80104cb2:	48 8b 55 e0          	mov    -0x20(%rbp),%rdx
ffffffff80104cb6:	48 89 50 28          	mov    %rdx,0x28(%rax)
ffffffff80104cba:	48 8b 05 5f 84 01 00 	mov    0x1845f(%rip),%rax        # ffffffff8011d120 <fd_list+0x20>
ffffffff80104cc1:	48 83 c0 01          	add    $0x1,%rax
ffffffff80104cc5:	48 89 05 54 84 01 00 	mov    %rax,0x18454(%rip)        # ffffffff8011d120 <fd_list+0x20>
ffffffff80104ccc:	48 c7 c7 10 d1 11 80 	mov    $0xffffffff8011d110,%rdi
ffffffff80104cd3:	e8 1d 92 00 00       	callq  ffffffff8010def5 <spin_release>
ffffffff80104cd8:	48 c7 c7 38 d1 11 80 	mov    $0xffffffff8011d138,%rdi
ffffffff80104cdf:	e8 bc 91 00 00       	callq  ffffffff8010dea0 <spin_lock>
ffffffff80104ce4:	c7 45 e8 00 00 00 00 	movl   $0x0,-0x18(%rbp)
ffffffff80104ceb:	48 8b 05 3e 84 01 00 	mov    0x1843e(%rip),%rax        # ffffffff8011d130 <fd_list+0x30>
ffffffff80104cf2:	48 85 c0             	test   %rax,%rax
ffffffff80104cf5:	75 1c                	jne    ffffffff80104d13 <open+0x1e2>
ffffffff80104cf7:	bf 00 06 00 00       	mov    $0x600,%edi
ffffffff80104cfc:	e8 46 d6 ff ff       	callq  ffffffff80102347 <kmalloc>
ffffffff80104d01:	48 89 05 28 84 01 00 	mov    %rax,0x18428(%rip)        # ffffffff8011d130 <fd_list+0x30>
ffffffff80104d08:	48 c7 05 2d 84 01 00 	movq   $0x20,0x1842d(%rip)        # ffffffff8011d140 <fd_list+0x40>
ffffffff80104d0f:	20 00 00 00 
ffffffff80104d13:	48 8b 15 36 84 01 00 	mov    0x18436(%rip),%rdx        # ffffffff8011d150 <fd_list+0x50>
ffffffff80104d1a:	48 8b 05 1f 84 01 00 	mov    0x1841f(%rip),%rax        # ffffffff8011d140 <fd_list+0x40>
ffffffff80104d21:	48 39 c2             	cmp    %rax,%rdx
ffffffff80104d24:	76 32                	jbe    ffffffff80104d58 <open+0x227>
ffffffff80104d26:	48 8b 05 13 84 01 00 	mov    0x18413(%rip),%rax        # ffffffff8011d140 <fd_list+0x40>
ffffffff80104d2d:	48 83 c0 20          	add    $0x20,%rax
ffffffff80104d31:	48 89 05 08 84 01 00 	mov    %rax,0x18408(%rip)        # ffffffff8011d140 <fd_list+0x40>
ffffffff80104d38:	48 8b 15 01 84 01 00 	mov    0x18401(%rip),%rdx        # ffffffff8011d140 <fd_list+0x40>
ffffffff80104d3f:	48 8b 05 ea 83 01 00 	mov    0x183ea(%rip),%rax        # ffffffff8011d130 <fd_list+0x30>
ffffffff80104d46:	48 89 d6             	mov    %rdx,%rsi
ffffffff80104d49:	48 89 c7             	mov    %rax,%rdi
ffffffff80104d4c:	e8 be d8 ff ff       	callq  ffffffff8010260f <krealloc>
ffffffff80104d51:	48 89 05 d8 83 01 00 	mov    %rax,0x183d8(%rip)        # ffffffff8011d130 <fd_list+0x30>
ffffffff80104d58:	48 8b 05 f1 83 01 00 	mov    0x183f1(%rip),%rax        # ffffffff8011d150 <fd_list+0x50>
ffffffff80104d5f:	89 45 e8             	mov    %eax,-0x18(%rbp)
ffffffff80104d62:	48 8b 05 97 83 01 00 	mov    0x18397(%rip),%rax        # ffffffff8011d100 <fd_list>
ffffffff80104d69:	48 8d 50 01          	lea    0x1(%rax),%rdx
ffffffff80104d6d:	48 89 15 8c 83 01 00 	mov    %rdx,0x1838c(%rip)        # ffffffff8011d100 <fd_list>
ffffffff80104d74:	48 8b 35 b5 83 01 00 	mov    0x183b5(%rip),%rsi        # ffffffff8011d130 <fd_list+0x30>
ffffffff80104d7b:	48 8b 15 ce 83 01 00 	mov    0x183ce(%rip),%rdx        # ffffffff8011d150 <fd_list+0x50>
ffffffff80104d82:	48 8d 4a 01          	lea    0x1(%rdx),%rcx
ffffffff80104d86:	48 89 0d c3 83 01 00 	mov    %rcx,0x183c3(%rip)        # ffffffff8011d150 <fd_list+0x50>
ffffffff80104d8d:	48 c1 e2 03          	shl    $0x3,%rdx
ffffffff80104d91:	48 01 f2             	add    %rsi,%rdx
ffffffff80104d94:	48 89 02             	mov    %rax,(%rdx)
ffffffff80104d97:	48 8b 05 aa 83 01 00 	mov    0x183aa(%rip),%rax        # ffffffff8011d148 <fd_list+0x48>
ffffffff80104d9e:	48 83 c0 01          	add    $0x1,%rax
ffffffff80104da2:	48 89 05 9f 83 01 00 	mov    %rax,0x1839f(%rip)        # ffffffff8011d148 <fd_list+0x48>
ffffffff80104da9:	48 c7 c7 38 d1 11 80 	mov    $0xffffffff8011d138,%rdi
ffffffff80104db0:	e8 40 91 00 00       	callq  ffffffff8010def5 <spin_release>
ffffffff80104db5:	48 8b 45 f0          	mov    -0x10(%rbp),%rax
ffffffff80104db9:	c9                   	leaveq 
ffffffff80104dba:	c3                   	retq   

ffffffff80104dbb <read>:
ffffffff80104dbb:	55                   	push   %rbp
ffffffff80104dbc:	48 89 e5             	mov    %rsp,%rbp
ffffffff80104dbf:	48 83 ec 60          	sub    $0x60,%rsp
ffffffff80104dc3:	89 7d bc             	mov    %edi,-0x44(%rbp)
ffffffff80104dc6:	48 89 75 b0          	mov    %rsi,-0x50(%rbp)
ffffffff80104dca:	48 89 55 a8          	mov    %rdx,-0x58(%rbp)
ffffffff80104dce:	48 c7 45 f8 00 00 00 	movq   $0x0,-0x8(%rbp)
ffffffff80104dd5:	00 
ffffffff80104dd6:	48 c7 45 f0 00 00 00 	movq   $0x0,-0x10(%rbp)
ffffffff80104ddd:	00 
ffffffff80104dde:	eb 61                	jmp    ffffffff80104e41 <read+0x86>
ffffffff80104de0:	48 c7 45 e8 00 00 00 	movq   $0x0,-0x18(%rbp)
ffffffff80104de7:	00 
ffffffff80104de8:	48 c7 c7 38 d1 11 80 	mov    $0xffffffff8011d138,%rdi
ffffffff80104def:	e8 ac 90 00 00       	callq  ffffffff8010dea0 <spin_lock>
ffffffff80104df4:	48 8b 05 4d 83 01 00 	mov    0x1834d(%rip),%rax        # ffffffff8011d148 <fd_list+0x48>
ffffffff80104dfb:	48 39 45 f0          	cmp    %rax,-0x10(%rbp)
ffffffff80104dff:	73 18                	jae    ffffffff80104e19 <read+0x5e>
ffffffff80104e01:	48 8b 15 28 83 01 00 	mov    0x18328(%rip),%rdx        # ffffffff8011d130 <fd_list+0x30>
ffffffff80104e08:	48 8b 45 f0          	mov    -0x10(%rbp),%rax
ffffffff80104e0c:	48 c1 e0 03          	shl    $0x3,%rax
ffffffff80104e10:	48 01 d0             	add    %rdx,%rax
ffffffff80104e13:	48 89 45 e8          	mov    %rax,-0x18(%rbp)
ffffffff80104e17:	eb 01                	jmp    ffffffff80104e1a <read+0x5f>
ffffffff80104e19:	90                   	nop
ffffffff80104e1a:	48 c7 c7 38 d1 11 80 	mov    $0xffffffff8011d138,%rdi
ffffffff80104e21:	e8 cf 90 00 00       	callq  ffffffff8010def5 <spin_release>
ffffffff80104e26:	48 8b 45 e8          	mov    -0x18(%rbp),%rax
ffffffff80104e2a:	48 8b 00             	mov    (%rax),%rax
ffffffff80104e2d:	48 89 45 d8          	mov    %rax,-0x28(%rbp)
ffffffff80104e31:	8b 45 bc             	mov    -0x44(%rbp),%eax
ffffffff80104e34:	48 98                	cltq   
ffffffff80104e36:	48 39 45 d8          	cmp    %rax,-0x28(%rbp)
ffffffff80104e3a:	74 14                	je     ffffffff80104e50 <read+0x95>
ffffffff80104e3c:	48 83 45 f0 01       	addq   $0x1,-0x10(%rbp)
ffffffff80104e41:	48 8b 05 00 83 01 00 	mov    0x18300(%rip),%rax        # ffffffff8011d148 <fd_list+0x48>
ffffffff80104e48:	48 39 45 f0          	cmp    %rax,-0x10(%rbp)
ffffffff80104e4c:	72 92                	jb     ffffffff80104de0 <read+0x25>
ffffffff80104e4e:	eb 58                	jmp    ffffffff80104ea8 <read+0xed>
ffffffff80104e50:	90                   	nop
ffffffff80104e51:	48 c7 45 e0 00 00 00 	movq   $0x0,-0x20(%rbp)
ffffffff80104e58:	00 
ffffffff80104e59:	48 c7 c7 10 d1 11 80 	mov    $0xffffffff8011d110,%rdi
ffffffff80104e60:	e8 3b 90 00 00       	callq  ffffffff8010dea0 <spin_lock>
ffffffff80104e65:	48 8b 05 b4 82 01 00 	mov    0x182b4(%rip),%rax        # ffffffff8011d120 <fd_list+0x20>
ffffffff80104e6c:	48 39 45 f0          	cmp    %rax,-0x10(%rbp)
ffffffff80104e70:	73 21                	jae    ffffffff80104e93 <read+0xd8>
ffffffff80104e72:	48 8b 0d 8f 82 01 00 	mov    0x1828f(%rip),%rcx        # ffffffff8011d108 <fd_list+0x8>
ffffffff80104e79:	48 8b 55 f0          	mov    -0x10(%rbp),%rdx
ffffffff80104e7d:	48 89 d0             	mov    %rdx,%rax
ffffffff80104e80:	48 01 c0             	add    %rax,%rax
ffffffff80104e83:	48 01 d0             	add    %rdx,%rax
ffffffff80104e86:	48 c1 e0 04          	shl    $0x4,%rax
ffffffff80104e8a:	48 01 c8             	add    %rcx,%rax
ffffffff80104e8d:	48 89 45 e0          	mov    %rax,-0x20(%rbp)
ffffffff80104e91:	eb 01                	jmp    ffffffff80104e94 <read+0xd9>
ffffffff80104e93:	90                   	nop
ffffffff80104e94:	48 c7 c7 10 d1 11 80 	mov    $0xffffffff8011d110,%rdi
ffffffff80104e9b:	e8 55 90 00 00       	callq  ffffffff8010def5 <spin_release>
ffffffff80104ea0:	48 8b 45 e0          	mov    -0x20(%rbp),%rax
ffffffff80104ea4:	48 89 45 f8          	mov    %rax,-0x8(%rbp)
ffffffff80104ea8:	48 8b 45 f8          	mov    -0x8(%rbp),%rax
ffffffff80104eac:	48 89 45 d0          	mov    %rax,-0x30(%rbp)
ffffffff80104eb0:	48 83 7d d0 00       	cmpq   $0x0,-0x30(%rbp)
ffffffff80104eb5:	75 07                	jne    ffffffff80104ebe <read+0x103>
ffffffff80104eb7:	b8 ff ff ff ff       	mov    $0xffffffff,%eax
ffffffff80104ebc:	eb 56                	jmp    ffffffff80104f14 <read+0x159>
ffffffff80104ebe:	48 8b 55 a8          	mov    -0x58(%rbp),%rdx
ffffffff80104ec2:	48 8b 45 d0          	mov    -0x30(%rbp),%rax
ffffffff80104ec6:	48 8b 40 18          	mov    0x18(%rax),%rax
ffffffff80104eca:	48 8b 00             	mov    (%rax),%rax
ffffffff80104ecd:	48 89 c6             	mov    %rax,%rsi
ffffffff80104ed0:	48 8b 45 d0          	mov    -0x30(%rbp),%rax
ffffffff80104ed4:	48 8b 40 08          	mov    0x8(%rax),%rax
ffffffff80104ed8:	48 8b 4d b0          	mov    -0x50(%rbp),%rcx
ffffffff80104edc:	48 89 c7             	mov    %rax,%rdi
ffffffff80104edf:	e8 09 9f 00 00       	callq  ffffffff8010eded <vfs_read>
ffffffff80104ee4:	89 45 cc             	mov    %eax,-0x34(%rbp)
ffffffff80104ee7:	83 7d cc ff          	cmpl   $0xffffffff,-0x34(%rbp)
ffffffff80104eeb:	75 07                	jne    ffffffff80104ef4 <read+0x139>
ffffffff80104eed:	b8 ff ff ff ff       	mov    $0xffffffff,%eax
ffffffff80104ef2:	eb 20                	jmp    ffffffff80104f14 <read+0x159>
ffffffff80104ef4:	48 8b 45 d0          	mov    -0x30(%rbp),%rax
ffffffff80104ef8:	48 8b 40 18          	mov    0x18(%rax),%rax
ffffffff80104efc:	48 8b 08             	mov    (%rax),%rcx
ffffffff80104eff:	48 8b 45 d0          	mov    -0x30(%rbp),%rax
ffffffff80104f03:	48 8b 40 18          	mov    0x18(%rax),%rax
ffffffff80104f07:	48 8b 55 a8          	mov    -0x58(%rbp),%rdx
ffffffff80104f0b:	48 01 ca             	add    %rcx,%rdx
ffffffff80104f0e:	48 89 10             	mov    %rdx,(%rax)
ffffffff80104f11:	8b 45 cc             	mov    -0x34(%rbp),%eax
ffffffff80104f14:	c9                   	leaveq 
ffffffff80104f15:	c3                   	retq   

ffffffff80104f16 <write>:
ffffffff80104f16:	55                   	push   %rbp
ffffffff80104f17:	48 89 e5             	mov    %rsp,%rbp
ffffffff80104f1a:	48 83 ec 60          	sub    $0x60,%rsp
ffffffff80104f1e:	89 7d bc             	mov    %edi,-0x44(%rbp)
ffffffff80104f21:	48 89 75 b0          	mov    %rsi,-0x50(%rbp)
ffffffff80104f25:	48 89 55 a8          	mov    %rdx,-0x58(%rbp)
ffffffff80104f29:	48 c7 45 f8 00 00 00 	movq   $0x0,-0x8(%rbp)
ffffffff80104f30:	00 
ffffffff80104f31:	48 c7 45 f0 00 00 00 	movq   $0x0,-0x10(%rbp)
ffffffff80104f38:	00 
ffffffff80104f39:	eb 61                	jmp    ffffffff80104f9c <write+0x86>
ffffffff80104f3b:	48 c7 45 e8 00 00 00 	movq   $0x0,-0x18(%rbp)
ffffffff80104f42:	00 
ffffffff80104f43:	48 c7 c7 38 d1 11 80 	mov    $0xffffffff8011d138,%rdi
ffffffff80104f4a:	e8 51 8f 00 00       	callq  ffffffff8010dea0 <spin_lock>
ffffffff80104f4f:	48 8b 05 f2 81 01 00 	mov    0x181f2(%rip),%rax        # ffffffff8011d148 <fd_list+0x48>
ffffffff80104f56:	48 39 45 f0          	cmp    %rax,-0x10(%rbp)
ffffffff80104f5a:	73 18                	jae    ffffffff80104f74 <write+0x5e>
ffffffff80104f5c:	48 8b 15 cd 81 01 00 	mov    0x181cd(%rip),%rdx        # ffffffff8011d130 <fd_list+0x30>
ffffffff80104f63:	48 8b 45 f0          	mov    -0x10(%rbp),%rax
ffffffff80104f67:	48 c1 e0 03          	shl    $0x3,%rax
ffffffff80104f6b:	48 01 d0             	add    %rdx,%rax
ffffffff80104f6e:	48 89 45 e8          	mov    %rax,-0x18(%rbp)
ffffffff80104f72:	eb 01                	jmp    ffffffff80104f75 <write+0x5f>
ffffffff80104f74:	90                   	nop
ffffffff80104f75:	48 c7 c7 38 d1 11 80 	mov    $0xffffffff8011d138,%rdi
ffffffff80104f7c:	e8 74 8f 00 00       	callq  ffffffff8010def5 <spin_release>
ffffffff80104f81:	48 8b 45 e8          	mov    -0x18(%rbp),%rax
ffffffff80104f85:	48 8b 00             	mov    (%rax),%rax
ffffffff80104f88:	48 89 45 d8          	mov    %rax,-0x28(%rbp)
ffffffff80104f8c:	8b 45 bc             	mov    -0x44(%rbp),%eax
ffffffff80104f8f:	48 98                	cltq   
ffffffff80104f91:	48 39 45 d8          	cmp    %rax,-0x28(%rbp)
ffffffff80104f95:	74 14                	je     ffffffff80104fab <write+0x95>
ffffffff80104f97:	48 83 45 f0 01       	addq   $0x1,-0x10(%rbp)
ffffffff80104f9c:	48 8b 05 a5 81 01 00 	mov    0x181a5(%rip),%rax        # ffffffff8011d148 <fd_list+0x48>
ffffffff80104fa3:	48 39 45 f0          	cmp    %rax,-0x10(%rbp)
ffffffff80104fa7:	72 92                	jb     ffffffff80104f3b <write+0x25>
ffffffff80104fa9:	eb 58                	jmp    ffffffff80105003 <write+0xed>
ffffffff80104fab:	90                   	nop
ffffffff80104fac:	48 c7 45 e0 00 00 00 	movq   $0x0,-0x20(%rbp)
ffffffff80104fb3:	00 
ffffffff80104fb4:	48 c7 c7 10 d1 11 80 	mov    $0xffffffff8011d110,%rdi
ffffffff80104fbb:	e8 e0 8e 00 00       	callq  ffffffff8010dea0 <spin_lock>
ffffffff80104fc0:	48 8b 05 59 81 01 00 	mov    0x18159(%rip),%rax        # ffffffff8011d120 <fd_list+0x20>
ffffffff80104fc7:	48 39 45 f0          	cmp    %rax,-0x10(%rbp)
ffffffff80104fcb:	73 21                	jae    ffffffff80104fee <write+0xd8>
ffffffff80104fcd:	48 8b 0d 34 81 01 00 	mov    0x18134(%rip),%rcx        # ffffffff8011d108 <fd_list+0x8>
ffffffff80104fd4:	48 8b 55 f0          	mov    -0x10(%rbp),%rdx
ffffffff80104fd8:	48 89 d0             	mov    %rdx,%rax
ffffffff80104fdb:	48 01 c0             	add    %rax,%rax
ffffffff80104fde:	48 01 d0             	add    %rdx,%rax
ffffffff80104fe1:	48 c1 e0 04          	shl    $0x4,%rax
ffffffff80104fe5:	48 01 c8             	add    %rcx,%rax
ffffffff80104fe8:	48 89 45 e0          	mov    %rax,-0x20(%rbp)
ffffffff80104fec:	eb 01                	jmp    ffffffff80104fef <write+0xd9>
ffffffff80104fee:	90                   	nop
ffffffff80104fef:	48 c7 c7 10 d1 11 80 	mov    $0xffffffff8011d110,%rdi
ffffffff80104ff6:	e8 fa 8e 00 00       	callq  ffffffff8010def5 <spin_release>
ffffffff80104ffb:	48 8b 45 e0          	mov    -0x20(%rbp),%rax
ffffffff80104fff:	48 89 45 f8          	mov    %rax,-0x8(%rbp)
ffffffff80105003:	48 8b 45 f8          	mov    -0x8(%rbp),%rax
ffffffff80105007:	48 89 45 d0          	mov    %rax,-0x30(%rbp)
ffffffff8010500b:	48 83 7d d0 00       	cmpq   $0x0,-0x30(%rbp)
ffffffff80105010:	75 07                	jne    ffffffff80105019 <write+0x103>
ffffffff80105012:	b8 ff ff ff ff       	mov    $0xffffffff,%eax
ffffffff80105017:	eb 56                	jmp    ffffffff8010506f <write+0x159>
ffffffff80105019:	48 8b 55 a8          	mov    -0x58(%rbp),%rdx
ffffffff8010501d:	48 8b 45 d0          	mov    -0x30(%rbp),%rax
ffffffff80105021:	48 8b 40 18          	mov    0x18(%rax),%rax
ffffffff80105025:	48 8b 00             	mov    (%rax),%rax
ffffffff80105028:	48 89 c6             	mov    %rax,%rsi
ffffffff8010502b:	48 8b 45 d0          	mov    -0x30(%rbp),%rax
ffffffff8010502f:	48 8b 40 08          	mov    0x8(%rax),%rax
ffffffff80105033:	48 8b 4d b0          	mov    -0x50(%rbp),%rcx
ffffffff80105037:	48 89 c7             	mov    %rax,%rdi
ffffffff8010503a:	e8 64 9d 00 00       	callq  ffffffff8010eda3 <vfs_write>
ffffffff8010503f:	89 45 cc             	mov    %eax,-0x34(%rbp)
ffffffff80105042:	83 7d cc ff          	cmpl   $0xffffffff,-0x34(%rbp)
ffffffff80105046:	75 07                	jne    ffffffff8010504f <write+0x139>
ffffffff80105048:	b8 ff ff ff ff       	mov    $0xffffffff,%eax
ffffffff8010504d:	eb 20                	jmp    ffffffff8010506f <write+0x159>
ffffffff8010504f:	48 8b 45 d0          	mov    -0x30(%rbp),%rax
ffffffff80105053:	48 8b 40 18          	mov    0x18(%rax),%rax
ffffffff80105057:	48 8b 08             	mov    (%rax),%rcx
ffffffff8010505a:	48 8b 45 d0          	mov    -0x30(%rbp),%rax
ffffffff8010505e:	48 8b 40 18          	mov    0x18(%rax),%rax
ffffffff80105062:	48 8b 55 a8          	mov    -0x58(%rbp),%rdx
ffffffff80105066:	48 01 ca             	add    %rcx,%rdx
ffffffff80105069:	48 89 10             	mov    %rdx,(%rax)
ffffffff8010506c:	8b 45 cc             	mov    -0x34(%rbp),%eax
ffffffff8010506f:	c9                   	leaveq 
ffffffff80105070:	c3                   	retq   

ffffffff80105071 <lseek>:
ffffffff80105071:	55                   	push   %rbp
ffffffff80105072:	48 89 e5             	mov    %rsp,%rbp
ffffffff80105075:	48 83 ec 40          	sub    $0x40,%rsp
ffffffff80105079:	89 7d cc             	mov    %edi,-0x34(%rbp)
ffffffff8010507c:	48 89 75 c0          	mov    %rsi,-0x40(%rbp)
ffffffff80105080:	89 55 c8             	mov    %edx,-0x38(%rbp)
ffffffff80105083:	48 c7 45 f8 00 00 00 	movq   $0x0,-0x8(%rbp)
ffffffff8010508a:	00 
ffffffff8010508b:	48 c7 45 f0 00 00 00 	movq   $0x0,-0x10(%rbp)
ffffffff80105092:	00 
ffffffff80105093:	eb 61                	jmp    ffffffff801050f6 <lseek+0x85>
ffffffff80105095:	48 c7 45 e8 00 00 00 	movq   $0x0,-0x18(%rbp)
ffffffff8010509c:	00 
ffffffff8010509d:	48 c7 c7 38 d1 11 80 	mov    $0xffffffff8011d138,%rdi
ffffffff801050a4:	e8 f7 8d 00 00       	callq  ffffffff8010dea0 <spin_lock>
ffffffff801050a9:	48 8b 05 98 80 01 00 	mov    0x18098(%rip),%rax        # ffffffff8011d148 <fd_list+0x48>
ffffffff801050b0:	48 39 45 f0          	cmp    %rax,-0x10(%rbp)
ffffffff801050b4:	73 18                	jae    ffffffff801050ce <lseek+0x5d>
ffffffff801050b6:	48 8b 15 73 80 01 00 	mov    0x18073(%rip),%rdx        # ffffffff8011d130 <fd_list+0x30>
ffffffff801050bd:	48 8b 45 f0          	mov    -0x10(%rbp),%rax
ffffffff801050c1:	48 c1 e0 03          	shl    $0x3,%rax
ffffffff801050c5:	48 01 d0             	add    %rdx,%rax
ffffffff801050c8:	48 89 45 e8          	mov    %rax,-0x18(%rbp)
ffffffff801050cc:	eb 01                	jmp    ffffffff801050cf <lseek+0x5e>
ffffffff801050ce:	90                   	nop
ffffffff801050cf:	48 c7 c7 38 d1 11 80 	mov    $0xffffffff8011d138,%rdi
ffffffff801050d6:	e8 1a 8e 00 00       	callq  ffffffff8010def5 <spin_release>
ffffffff801050db:	48 8b 45 e8          	mov    -0x18(%rbp),%rax
ffffffff801050df:	48 8b 00             	mov    (%rax),%rax
ffffffff801050e2:	48 89 45 d8          	mov    %rax,-0x28(%rbp)
ffffffff801050e6:	8b 45 cc             	mov    -0x34(%rbp),%eax
ffffffff801050e9:	48 98                	cltq   
ffffffff801050eb:	48 39 45 d8          	cmp    %rax,-0x28(%rbp)
ffffffff801050ef:	74 14                	je     ffffffff80105105 <lseek+0x94>
ffffffff801050f1:	48 83 45 f0 01       	addq   $0x1,-0x10(%rbp)
ffffffff801050f6:	48 8b 05 4b 80 01 00 	mov    0x1804b(%rip),%rax        # ffffffff8011d148 <fd_list+0x48>
ffffffff801050fd:	48 39 45 f0          	cmp    %rax,-0x10(%rbp)
ffffffff80105101:	72 92                	jb     ffffffff80105095 <lseek+0x24>
ffffffff80105103:	eb 58                	jmp    ffffffff8010515d <lseek+0xec>
ffffffff80105105:	90                   	nop
ffffffff80105106:	48 c7 45 e0 00 00 00 	movq   $0x0,-0x20(%rbp)
ffffffff8010510d:	00 
ffffffff8010510e:	48 c7 c7 10 d1 11 80 	mov    $0xffffffff8011d110,%rdi
ffffffff80105115:	e8 86 8d 00 00       	callq  ffffffff8010dea0 <spin_lock>
ffffffff8010511a:	48 8b 05 ff 7f 01 00 	mov    0x17fff(%rip),%rax        # ffffffff8011d120 <fd_list+0x20>
ffffffff80105121:	48 39 45 f0          	cmp    %rax,-0x10(%rbp)
ffffffff80105125:	73 21                	jae    ffffffff80105148 <lseek+0xd7>
ffffffff80105127:	48 8b 0d da 7f 01 00 	mov    0x17fda(%rip),%rcx        # ffffffff8011d108 <fd_list+0x8>
ffffffff8010512e:	48 8b 55 f0          	mov    -0x10(%rbp),%rdx
ffffffff80105132:	48 89 d0             	mov    %rdx,%rax
ffffffff80105135:	48 01 c0             	add    %rax,%rax
ffffffff80105138:	48 01 d0             	add    %rdx,%rax
ffffffff8010513b:	48 c1 e0 04          	shl    $0x4,%rax
ffffffff8010513f:	48 01 c8             	add    %rcx,%rax
ffffffff80105142:	48 89 45 e0          	mov    %rax,-0x20(%rbp)
ffffffff80105146:	eb 01                	jmp    ffffffff80105149 <lseek+0xd8>
ffffffff80105148:	90                   	nop
ffffffff80105149:	48 c7 c7 10 d1 11 80 	mov    $0xffffffff8011d110,%rdi
ffffffff80105150:	e8 a0 8d 00 00       	callq  ffffffff8010def5 <spin_release>
ffffffff80105155:	48 8b 45 e0          	mov    -0x20(%rbp),%rax
ffffffff80105159:	48 89 45 f8          	mov    %rax,-0x8(%rbp)
ffffffff8010515d:	48 8b 45 f8          	mov    -0x8(%rbp),%rax
ffffffff80105161:	48 89 45 d0          	mov    %rax,-0x30(%rbp)
ffffffff80105165:	48 83 7d d0 00       	cmpq   $0x0,-0x30(%rbp)
ffffffff8010516a:	75 07                	jne    ffffffff80105173 <lseek+0x102>
ffffffff8010516c:	b8 ff ff ff ff       	mov    $0xffffffff,%eax
ffffffff80105171:	eb 78                	jmp    ffffffff801051eb <lseek+0x17a>
ffffffff80105173:	83 7d c8 03          	cmpl   $0x3,-0x38(%rbp)
ffffffff80105177:	74 4a                	je     ffffffff801051c3 <lseek+0x152>
ffffffff80105179:	83 7d c8 03          	cmpl   $0x3,-0x38(%rbp)
ffffffff8010517d:	7f 67                	jg     ffffffff801051e6 <lseek+0x175>
ffffffff8010517f:	83 7d c8 01          	cmpl   $0x1,-0x38(%rbp)
ffffffff80105183:	74 08                	je     ffffffff8010518d <lseek+0x11c>
ffffffff80105185:	83 7d c8 02          	cmpl   $0x2,-0x38(%rbp)
ffffffff80105189:	74 16                	je     ffffffff801051a1 <lseek+0x130>
ffffffff8010518b:	eb 59                	jmp    ffffffff801051e6 <lseek+0x175>
ffffffff8010518d:	48 8b 45 d0          	mov    -0x30(%rbp),%rax
ffffffff80105191:	48 8b 40 18          	mov    0x18(%rax),%rax
ffffffff80105195:	48 8b 55 c0          	mov    -0x40(%rbp),%rdx
ffffffff80105199:	48 89 10             	mov    %rdx,(%rax)
ffffffff8010519c:	48 8b 00             	mov    (%rax),%rax
ffffffff8010519f:	eb 4a                	jmp    ffffffff801051eb <lseek+0x17a>
ffffffff801051a1:	48 8b 45 d0          	mov    -0x30(%rbp),%rax
ffffffff801051a5:	48 8b 40 18          	mov    0x18(%rax),%rax
ffffffff801051a9:	48 8b 08             	mov    (%rax),%rcx
ffffffff801051ac:	48 8b 55 c0          	mov    -0x40(%rbp),%rdx
ffffffff801051b0:	48 8b 45 d0          	mov    -0x30(%rbp),%rax
ffffffff801051b4:	48 8b 40 18          	mov    0x18(%rax),%rax
ffffffff801051b8:	48 01 ca             	add    %rcx,%rdx
ffffffff801051bb:	48 89 10             	mov    %rdx,(%rax)
ffffffff801051be:	48 8b 00             	mov    (%rax),%rax
ffffffff801051c1:	eb 28                	jmp    ffffffff801051eb <lseek+0x17a>
ffffffff801051c3:	48 8b 45 d0          	mov    -0x30(%rbp),%rax
ffffffff801051c7:	48 8b 40 08          	mov    0x8(%rax),%rax
ffffffff801051cb:	48 8b 50 48          	mov    0x48(%rax),%rdx
ffffffff801051cf:	48 8b 45 c0          	mov    -0x40(%rbp),%rax
ffffffff801051d3:	48 01 c2             	add    %rax,%rdx
ffffffff801051d6:	48 8b 45 d0          	mov    -0x30(%rbp),%rax
ffffffff801051da:	48 8b 40 18          	mov    0x18(%rax),%rax
ffffffff801051de:	48 89 10             	mov    %rdx,(%rax)
ffffffff801051e1:	48 8b 00             	mov    (%rax),%rax
ffffffff801051e4:	eb 05                	jmp    ffffffff801051eb <lseek+0x17a>
ffffffff801051e6:	b8 ff ff ff ff       	mov    $0xffffffff,%eax
ffffffff801051eb:	c9                   	leaveq 
ffffffff801051ec:	c3                   	retq   

ffffffff801051ed <close>:
ffffffff801051ed:	55                   	push   %rbp
ffffffff801051ee:	48 89 e5             	mov    %rsp,%rbp
ffffffff801051f1:	48 81 ec a0 00 00 00 	sub    $0xa0,%rsp
ffffffff801051f8:	89 bd 6c ff ff ff    	mov    %edi,-0x94(%rbp)
ffffffff801051fe:	48 c7 45 d8 00 00 00 	movq   $0x0,-0x28(%rbp)
ffffffff80105205:	00 
ffffffff80105206:	48 c7 45 d0 00 00 00 	movq   $0x0,-0x30(%rbp)
ffffffff8010520d:	00 
ffffffff8010520e:	eb 64                	jmp    ffffffff80105274 <close+0x87>
ffffffff80105210:	48 c7 45 c8 00 00 00 	movq   $0x0,-0x38(%rbp)
ffffffff80105217:	00 
ffffffff80105218:	48 c7 c7 38 d1 11 80 	mov    $0xffffffff8011d138,%rdi
ffffffff8010521f:	e8 7c 8c 00 00       	callq  ffffffff8010dea0 <spin_lock>
ffffffff80105224:	48 8b 05 1d 7f 01 00 	mov    0x17f1d(%rip),%rax        # ffffffff8011d148 <fd_list+0x48>
ffffffff8010522b:	48 39 45 d0          	cmp    %rax,-0x30(%rbp)
ffffffff8010522f:	73 18                	jae    ffffffff80105249 <close+0x5c>
ffffffff80105231:	48 8b 15 f8 7e 01 00 	mov    0x17ef8(%rip),%rdx        # ffffffff8011d130 <fd_list+0x30>
ffffffff80105238:	48 8b 45 d0          	mov    -0x30(%rbp),%rax
ffffffff8010523c:	48 c1 e0 03          	shl    $0x3,%rax
ffffffff80105240:	48 01 d0             	add    %rdx,%rax
ffffffff80105243:	48 89 45 c8          	mov    %rax,-0x38(%rbp)
ffffffff80105247:	eb 01                	jmp    ffffffff8010524a <close+0x5d>
ffffffff80105249:	90                   	nop
ffffffff8010524a:	48 c7 c7 38 d1 11 80 	mov    $0xffffffff8011d138,%rdi
ffffffff80105251:	e8 9f 8c 00 00       	callq  ffffffff8010def5 <spin_release>
ffffffff80105256:	48 8b 45 c8          	mov    -0x38(%rbp),%rax
ffffffff8010525a:	48 8b 00             	mov    (%rax),%rax
ffffffff8010525d:	48 89 45 a0          	mov    %rax,-0x60(%rbp)
ffffffff80105261:	8b 85 6c ff ff ff    	mov    -0x94(%rbp),%eax
ffffffff80105267:	48 98                	cltq   
ffffffff80105269:	48 39 45 a0          	cmp    %rax,-0x60(%rbp)
ffffffff8010526d:	74 14                	je     ffffffff80105283 <close+0x96>
ffffffff8010526f:	48 83 45 d0 01       	addq   $0x1,-0x30(%rbp)
ffffffff80105274:	48 8b 05 cd 7e 01 00 	mov    0x17ecd(%rip),%rax        # ffffffff8011d148 <fd_list+0x48>
ffffffff8010527b:	48 39 45 d0          	cmp    %rax,-0x30(%rbp)
ffffffff8010527f:	72 8f                	jb     ffffffff80105210 <close+0x23>
ffffffff80105281:	eb 58                	jmp    ffffffff801052db <close+0xee>
ffffffff80105283:	90                   	nop
ffffffff80105284:	48 c7 45 c0 00 00 00 	movq   $0x0,-0x40(%rbp)
ffffffff8010528b:	00 
ffffffff8010528c:	48 c7 c7 10 d1 11 80 	mov    $0xffffffff8011d110,%rdi
ffffffff80105293:	e8 08 8c 00 00       	callq  ffffffff8010dea0 <spin_lock>
ffffffff80105298:	48 8b 05 81 7e 01 00 	mov    0x17e81(%rip),%rax        # ffffffff8011d120 <fd_list+0x20>
ffffffff8010529f:	48 39 45 d0          	cmp    %rax,-0x30(%rbp)
ffffffff801052a3:	73 21                	jae    ffffffff801052c6 <close+0xd9>
ffffffff801052a5:	48 8b 0d 5c 7e 01 00 	mov    0x17e5c(%rip),%rcx        # ffffffff8011d108 <fd_list+0x8>
ffffffff801052ac:	48 8b 55 d0          	mov    -0x30(%rbp),%rdx
ffffffff801052b0:	48 89 d0             	mov    %rdx,%rax
ffffffff801052b3:	48 01 c0             	add    %rax,%rax
ffffffff801052b6:	48 01 d0             	add    %rdx,%rax
ffffffff801052b9:	48 c1 e0 04          	shl    $0x4,%rax
ffffffff801052bd:	48 01 c8             	add    %rcx,%rax
ffffffff801052c0:	48 89 45 c0          	mov    %rax,-0x40(%rbp)
ffffffff801052c4:	eb 01                	jmp    ffffffff801052c7 <close+0xda>
ffffffff801052c6:	90                   	nop
ffffffff801052c7:	48 c7 c7 10 d1 11 80 	mov    $0xffffffff8011d110,%rdi
ffffffff801052ce:	e8 22 8c 00 00       	callq  ffffffff8010def5 <spin_release>
ffffffff801052d3:	48 8b 45 c0          	mov    -0x40(%rbp),%rax
ffffffff801052d7:	48 89 45 d8          	mov    %rax,-0x28(%rbp)
ffffffff801052db:	48 8b 45 d8          	mov    -0x28(%rbp),%rax
ffffffff801052df:	48 89 45 98          	mov    %rax,-0x68(%rbp)
ffffffff801052e3:	48 83 7d 98 00       	cmpq   $0x0,-0x68(%rbp)
ffffffff801052e8:	75 0a                	jne    ffffffff801052f4 <close+0x107>
ffffffff801052ea:	b8 ff ff ff ff       	mov    $0xffffffff,%eax
ffffffff801052ef:	e9 df 01 00 00       	jmpq   ffffffff801054d3 <close+0x2e6>
ffffffff801052f4:	c7 45 bc ff ff ff ff 	movl   $0xffffffff,-0x44(%rbp)
ffffffff801052fb:	48 c7 45 b0 00 00 00 	movq   $0x0,-0x50(%rbp)
ffffffff80105302:	00 
ffffffff80105303:	eb 66                	jmp    ffffffff8010536b <close+0x17e>
ffffffff80105305:	48 c7 45 a8 00 00 00 	movq   $0x0,-0x58(%rbp)
ffffffff8010530c:	00 
ffffffff8010530d:	48 c7 c7 10 d1 11 80 	mov    $0xffffffff8011d110,%rdi
ffffffff80105314:	e8 87 8b 00 00       	callq  ffffffff8010dea0 <spin_lock>
ffffffff80105319:	48 8b 05 00 7e 01 00 	mov    0x17e00(%rip),%rax        # ffffffff8011d120 <fd_list+0x20>
ffffffff80105320:	48 39 45 b0          	cmp    %rax,-0x50(%rbp)
ffffffff80105324:	73 21                	jae    ffffffff80105347 <close+0x15a>
ffffffff80105326:	48 8b 0d db 7d 01 00 	mov    0x17ddb(%rip),%rcx        # ffffffff8011d108 <fd_list+0x8>
ffffffff8010532d:	48 8b 55 b0          	mov    -0x50(%rbp),%rdx
ffffffff80105331:	48 89 d0             	mov    %rdx,%rax
ffffffff80105334:	48 01 c0             	add    %rax,%rax
ffffffff80105337:	48 01 d0             	add    %rdx,%rax
ffffffff8010533a:	48 c1 e0 04          	shl    $0x4,%rax
ffffffff8010533e:	48 01 c8             	add    %rcx,%rax
ffffffff80105341:	48 89 45 a8          	mov    %rax,-0x58(%rbp)
ffffffff80105345:	eb 01                	jmp    ffffffff80105348 <close+0x15b>
ffffffff80105347:	90                   	nop
ffffffff80105348:	48 c7 c7 10 d1 11 80 	mov    $0xffffffff8011d110,%rdi
ffffffff8010534f:	e8 a1 8b 00 00       	callq  ffffffff8010def5 <spin_release>
ffffffff80105354:	48 8b 45 a8          	mov    -0x58(%rbp),%rax
ffffffff80105358:	48 89 45 90          	mov    %rax,-0x70(%rbp)
ffffffff8010535c:	48 8b 45 90          	mov    -0x70(%rbp),%rax
ffffffff80105360:	48 3b 45 98          	cmp    -0x68(%rbp),%rax
ffffffff80105364:	74 17                	je     ffffffff8010537d <close+0x190>
ffffffff80105366:	48 83 45 b0 01       	addq   $0x1,-0x50(%rbp)
ffffffff8010536b:	48 8b 05 ae 7d 01 00 	mov    0x17dae(%rip),%rax        # ffffffff8011d120 <fd_list+0x20>
ffffffff80105372:	48 39 45 b0          	cmp    %rax,-0x50(%rbp)
ffffffff80105376:	72 8d                	jb     ffffffff80105305 <close+0x118>
ffffffff80105378:	e9 52 01 00 00       	jmpq   ffffffff801054cf <close+0x2e2>
ffffffff8010537d:	90                   	nop
ffffffff8010537e:	c7 45 fc 00 00 00 00 	movl   $0x0,-0x4(%rbp)
ffffffff80105385:	48 c7 c7 10 d1 11 80 	mov    $0xffffffff8011d110,%rdi
ffffffff8010538c:	e8 0f 8b 00 00       	callq  ffffffff8010dea0 <spin_lock>
ffffffff80105391:	48 8b 05 88 7d 01 00 	mov    0x17d88(%rip),%rax        # ffffffff8011d120 <fd_list+0x20>
ffffffff80105398:	48 39 45 b0          	cmp    %rax,-0x50(%rbp)
ffffffff8010539c:	72 09                	jb     ffffffff801053a7 <close+0x1ba>
ffffffff8010539e:	c7 45 fc ff ff ff ff 	movl   $0xffffffff,-0x4(%rbp)
ffffffff801053a5:	eb 70                	jmp    ffffffff80105417 <close+0x22a>
ffffffff801053a7:	48 8b 15 6a 7d 01 00 	mov    0x17d6a(%rip),%rdx        # ffffffff8011d118 <fd_list+0x18>
ffffffff801053ae:	48 89 d0             	mov    %rdx,%rax
ffffffff801053b1:	48 01 c0             	add    %rax,%rax
ffffffff801053b4:	48 01 d0             	add    %rdx,%rax
ffffffff801053b7:	48 c1 e0 04          	shl    $0x4,%rax
ffffffff801053bb:	48 89 c7             	mov    %rax,%rdi
ffffffff801053be:	e8 84 cf ff ff       	callq  ffffffff80102347 <kmalloc>
ffffffff801053c3:	48 89 45 88          	mov    %rax,-0x78(%rbp)
ffffffff801053c7:	48 c7 45 80 00 00 00 	movq   $0x0,-0x80(%rbp)
ffffffff801053ce:	00 
ffffffff801053cf:	48 c7 45 f0 00 00 00 	movq   $0x0,-0x10(%rbp)
ffffffff801053d6:	00 
ffffffff801053d7:	eb 05                	jmp    ffffffff801053de <close+0x1f1>
ffffffff801053d9:	48 83 45 f0 01       	addq   $0x1,-0x10(%rbp)
ffffffff801053de:	48 8b 05 3b 7d 01 00 	mov    0x17d3b(%rip),%rax        # ffffffff8011d120 <fd_list+0x20>
ffffffff801053e5:	48 39 45 f0          	cmp    %rax,-0x10(%rbp)
ffffffff801053e9:	72 ee                	jb     ffffffff801053d9 <close+0x1ec>
ffffffff801053eb:	48 8b 05 2e 7d 01 00 	mov    0x17d2e(%rip),%rax        # ffffffff8011d120 <fd_list+0x20>
ffffffff801053f2:	48 83 e8 01          	sub    $0x1,%rax
ffffffff801053f6:	48 89 05 23 7d 01 00 	mov    %rax,0x17d23(%rip)        # ffffffff8011d120 <fd_list+0x20>
ffffffff801053fd:	48 8b 05 04 7d 01 00 	mov    0x17d04(%rip),%rax        # ffffffff8011d108 <fd_list+0x8>
ffffffff80105404:	48 89 c7             	mov    %rax,%rdi
ffffffff80105407:	e8 e7 d0 ff ff       	callq  ffffffff801024f3 <kfree>
ffffffff8010540c:	48 8b 45 88          	mov    -0x78(%rbp),%rax
ffffffff80105410:	48 89 05 f1 7c 01 00 	mov    %rax,0x17cf1(%rip)        # ffffffff8011d108 <fd_list+0x8>
ffffffff80105417:	48 c7 c7 10 d1 11 80 	mov    $0xffffffff8011d110,%rdi
ffffffff8010541e:	e8 d2 8a 00 00       	callq  ffffffff8010def5 <spin_release>
ffffffff80105423:	c7 45 ec 00 00 00 00 	movl   $0x0,-0x14(%rbp)
ffffffff8010542a:	48 c7 c7 38 d1 11 80 	mov    $0xffffffff8011d138,%rdi
ffffffff80105431:	e8 6a 8a 00 00       	callq  ffffffff8010dea0 <spin_lock>
ffffffff80105436:	48 8b 05 0b 7d 01 00 	mov    0x17d0b(%rip),%rax        # ffffffff8011d148 <fd_list+0x48>
ffffffff8010543d:	48 39 45 b0          	cmp    %rax,-0x50(%rbp)
ffffffff80105441:	72 09                	jb     ffffffff8010544c <close+0x25f>
ffffffff80105443:	c7 45 ec ff ff ff ff 	movl   $0xffffffff,-0x14(%rbp)
ffffffff8010544a:	eb 70                	jmp    ffffffff801054bc <close+0x2cf>
ffffffff8010544c:	48 8b 05 ed 7c 01 00 	mov    0x17ced(%rip),%rax        # ffffffff8011d140 <fd_list+0x40>
ffffffff80105453:	48 c1 e0 03          	shl    $0x3,%rax
ffffffff80105457:	48 89 c7             	mov    %rax,%rdi
ffffffff8010545a:	e8 e8 ce ff ff       	callq  ffffffff80102347 <kmalloc>
ffffffff8010545f:	48 89 85 78 ff ff ff 	mov    %rax,-0x88(%rbp)
ffffffff80105466:	48 c7 85 70 ff ff ff 	movq   $0x0,-0x90(%rbp)
ffffffff8010546d:	00 00 00 00 
ffffffff80105471:	48 c7 45 e0 00 00 00 	movq   $0x0,-0x20(%rbp)
ffffffff80105478:	00 
ffffffff80105479:	eb 05                	jmp    ffffffff80105480 <close+0x293>
ffffffff8010547b:	48 83 45 e0 01       	addq   $0x1,-0x20(%rbp)
ffffffff80105480:	48 8b 05 c1 7c 01 00 	mov    0x17cc1(%rip),%rax        # ffffffff8011d148 <fd_list+0x48>
ffffffff80105487:	48 39 45 e0          	cmp    %rax,-0x20(%rbp)
ffffffff8010548b:	72 ee                	jb     ffffffff8010547b <close+0x28e>
ffffffff8010548d:	48 8b 05 b4 7c 01 00 	mov    0x17cb4(%rip),%rax        # ffffffff8011d148 <fd_list+0x48>
ffffffff80105494:	48 83 e8 01          	sub    $0x1,%rax
ffffffff80105498:	48 89 05 a9 7c 01 00 	mov    %rax,0x17ca9(%rip)        # ffffffff8011d148 <fd_list+0x48>
ffffffff8010549f:	48 8b 05 8a 7c 01 00 	mov    0x17c8a(%rip),%rax        # ffffffff8011d130 <fd_list+0x30>
ffffffff801054a6:	48 89 c7             	mov    %rax,%rdi
ffffffff801054a9:	e8 45 d0 ff ff       	callq  ffffffff801024f3 <kfree>
ffffffff801054ae:	48 8b 85 78 ff ff ff 	mov    -0x88(%rbp),%rax
ffffffff801054b5:	48 89 05 74 7c 01 00 	mov    %rax,0x17c74(%rip)        # ffffffff8011d130 <fd_list+0x30>
ffffffff801054bc:	48 c7 c7 38 d1 11 80 	mov    $0xffffffff8011d138,%rdi
ffffffff801054c3:	e8 2d 8a 00 00       	callq  ffffffff8010def5 <spin_release>
ffffffff801054c8:	c7 45 bc 00 00 00 00 	movl   $0x0,-0x44(%rbp)
ffffffff801054cf:	8b 45 bc             	mov    -0x44(%rbp),%eax
ffffffff801054d2:	90                   	nop
ffffffff801054d3:	c9                   	leaveq 
ffffffff801054d4:	c3                   	retq   

ffffffff801054d5 <dup>:
ffffffff801054d5:	55                   	push   %rbp
ffffffff801054d6:	48 89 e5             	mov    %rsp,%rbp
ffffffff801054d9:	48 83 c4 80          	add    $0xffffffffffffff80,%rsp
ffffffff801054dd:	89 7d 8c             	mov    %edi,-0x74(%rbp)
ffffffff801054e0:	48 c7 45 f8 00 00 00 	movq   $0x0,-0x8(%rbp)
ffffffff801054e7:	00 
ffffffff801054e8:	48 c7 45 f0 00 00 00 	movq   $0x0,-0x10(%rbp)
ffffffff801054ef:	00 
ffffffff801054f0:	eb 61                	jmp    ffffffff80105553 <dup+0x7e>
ffffffff801054f2:	48 c7 45 e8 00 00 00 	movq   $0x0,-0x18(%rbp)
ffffffff801054f9:	00 
ffffffff801054fa:	48 c7 c7 38 d1 11 80 	mov    $0xffffffff8011d138,%rdi
ffffffff80105501:	e8 9a 89 00 00       	callq  ffffffff8010dea0 <spin_lock>
ffffffff80105506:	48 8b 05 3b 7c 01 00 	mov    0x17c3b(%rip),%rax        # ffffffff8011d148 <fd_list+0x48>
ffffffff8010550d:	48 39 45 f0          	cmp    %rax,-0x10(%rbp)
ffffffff80105511:	73 18                	jae    ffffffff8010552b <dup+0x56>
ffffffff80105513:	48 8b 15 16 7c 01 00 	mov    0x17c16(%rip),%rdx        # ffffffff8011d130 <fd_list+0x30>
ffffffff8010551a:	48 8b 45 f0          	mov    -0x10(%rbp),%rax
ffffffff8010551e:	48 c1 e0 03          	shl    $0x3,%rax
ffffffff80105522:	48 01 d0             	add    %rdx,%rax
ffffffff80105525:	48 89 45 e8          	mov    %rax,-0x18(%rbp)
ffffffff80105529:	eb 01                	jmp    ffffffff8010552c <dup+0x57>
ffffffff8010552b:	90                   	nop
ffffffff8010552c:	48 c7 c7 38 d1 11 80 	mov    $0xffffffff8011d138,%rdi
ffffffff80105533:	e8 bd 89 00 00       	callq  ffffffff8010def5 <spin_release>
ffffffff80105538:	48 8b 45 e8          	mov    -0x18(%rbp),%rax
ffffffff8010553c:	48 8b 00             	mov    (%rax),%rax
ffffffff8010553f:	48 89 45 d8          	mov    %rax,-0x28(%rbp)
ffffffff80105543:	8b 45 8c             	mov    -0x74(%rbp),%eax
ffffffff80105546:	48 98                	cltq   
ffffffff80105548:	48 39 45 d8          	cmp    %rax,-0x28(%rbp)
ffffffff8010554c:	74 14                	je     ffffffff80105562 <dup+0x8d>
ffffffff8010554e:	48 83 45 f0 01       	addq   $0x1,-0x10(%rbp)
ffffffff80105553:	48 8b 05 ee 7b 01 00 	mov    0x17bee(%rip),%rax        # ffffffff8011d148 <fd_list+0x48>
ffffffff8010555a:	48 39 45 f0          	cmp    %rax,-0x10(%rbp)
ffffffff8010555e:	72 92                	jb     ffffffff801054f2 <dup+0x1d>
ffffffff80105560:	eb 58                	jmp    ffffffff801055ba <dup+0xe5>
ffffffff80105562:	90                   	nop
ffffffff80105563:	48 c7 45 e0 00 00 00 	movq   $0x0,-0x20(%rbp)
ffffffff8010556a:	00 
ffffffff8010556b:	48 c7 c7 10 d1 11 80 	mov    $0xffffffff8011d110,%rdi
ffffffff80105572:	e8 29 89 00 00       	callq  ffffffff8010dea0 <spin_lock>
ffffffff80105577:	48 8b 05 a2 7b 01 00 	mov    0x17ba2(%rip),%rax        # ffffffff8011d120 <fd_list+0x20>
ffffffff8010557e:	48 39 45 f0          	cmp    %rax,-0x10(%rbp)
ffffffff80105582:	73 21                	jae    ffffffff801055a5 <dup+0xd0>
ffffffff80105584:	48 8b 0d 7d 7b 01 00 	mov    0x17b7d(%rip),%rcx        # ffffffff8011d108 <fd_list+0x8>
ffffffff8010558b:	48 8b 55 f0          	mov    -0x10(%rbp),%rdx
ffffffff8010558f:	48 89 d0             	mov    %rdx,%rax
ffffffff80105592:	48 01 c0             	add    %rax,%rax
ffffffff80105595:	48 01 d0             	add    %rdx,%rax
ffffffff80105598:	48 c1 e0 04          	shl    $0x4,%rax
ffffffff8010559c:	48 01 c8             	add    %rcx,%rax
ffffffff8010559f:	48 89 45 e0          	mov    %rax,-0x20(%rbp)
ffffffff801055a3:	eb 01                	jmp    ffffffff801055a6 <dup+0xd1>
ffffffff801055a5:	90                   	nop
ffffffff801055a6:	48 c7 c7 10 d1 11 80 	mov    $0xffffffff8011d110,%rdi
ffffffff801055ad:	e8 43 89 00 00       	callq  ffffffff8010def5 <spin_release>
ffffffff801055b2:	48 8b 45 e0          	mov    -0x20(%rbp),%rax
ffffffff801055b6:	48 89 45 f8          	mov    %rax,-0x8(%rbp)
ffffffff801055ba:	48 8b 45 f8          	mov    -0x8(%rbp),%rax
ffffffff801055be:	48 89 45 d0          	mov    %rax,-0x30(%rbp)
ffffffff801055c2:	48 83 7d d0 00       	cmpq   $0x0,-0x30(%rbp)
ffffffff801055c7:	75 0a                	jne    ffffffff801055d3 <dup+0xfe>
ffffffff801055c9:	b8 ff ff ff ff       	mov    $0xffffffff,%eax
ffffffff801055ce:	e9 1f 02 00 00       	jmpq   ffffffff801057f2 <dup+0x31d>
ffffffff801055d3:	48 8b 45 d0          	mov    -0x30(%rbp),%rax
ffffffff801055d7:	48 8b 10             	mov    (%rax),%rdx
ffffffff801055da:	48 89 55 90          	mov    %rdx,-0x70(%rbp)
ffffffff801055de:	48 8b 50 08          	mov    0x8(%rax),%rdx
ffffffff801055e2:	48 89 55 98          	mov    %rdx,-0x68(%rbp)
ffffffff801055e6:	48 8b 50 10          	mov    0x10(%rax),%rdx
ffffffff801055ea:	48 89 55 a0          	mov    %rdx,-0x60(%rbp)
ffffffff801055ee:	48 8b 50 18          	mov    0x18(%rax),%rdx
ffffffff801055f2:	48 89 55 a8          	mov    %rdx,-0x58(%rbp)
ffffffff801055f6:	48 8b 50 20          	mov    0x20(%rax),%rdx
ffffffff801055fa:	48 89 55 b0          	mov    %rdx,-0x50(%rbp)
ffffffff801055fe:	48 8b 40 28          	mov    0x28(%rax),%rax
ffffffff80105602:	48 89 45 b8          	mov    %rax,-0x48(%rbp)
ffffffff80105606:	48 8b 05 f3 7a 01 00 	mov    0x17af3(%rip),%rax        # ffffffff8011d100 <fd_list>
ffffffff8010560d:	48 89 45 c8          	mov    %rax,-0x38(%rbp)
ffffffff80105611:	48 c7 c7 10 d1 11 80 	mov    $0xffffffff8011d110,%rdi
ffffffff80105618:	e8 83 88 00 00       	callq  ffffffff8010dea0 <spin_lock>
ffffffff8010561d:	c7 45 c4 00 00 00 00 	movl   $0x0,-0x3c(%rbp)
ffffffff80105624:	48 8b 05 dd 7a 01 00 	mov    0x17add(%rip),%rax        # ffffffff8011d108 <fd_list+0x8>
ffffffff8010562b:	48 85 c0             	test   %rax,%rax
ffffffff8010562e:	75 1c                	jne    ffffffff8010564c <dup+0x177>
ffffffff80105630:	bf 00 06 00 00       	mov    $0x600,%edi
ffffffff80105635:	e8 0d cd ff ff       	callq  ffffffff80102347 <kmalloc>
ffffffff8010563a:	48 89 05 c7 7a 01 00 	mov    %rax,0x17ac7(%rip)        # ffffffff8011d108 <fd_list+0x8>
ffffffff80105641:	48 c7 05 cc 7a 01 00 	movq   $0x20,0x17acc(%rip)        # ffffffff8011d118 <fd_list+0x18>
ffffffff80105648:	20 00 00 00 
ffffffff8010564c:	48 8b 15 d5 7a 01 00 	mov    0x17ad5(%rip),%rdx        # ffffffff8011d128 <fd_list+0x28>
ffffffff80105653:	48 8b 05 be 7a 01 00 	mov    0x17abe(%rip),%rax        # ffffffff8011d118 <fd_list+0x18>
ffffffff8010565a:	48 39 c2             	cmp    %rax,%rdx
ffffffff8010565d:	76 32                	jbe    ffffffff80105691 <dup+0x1bc>
ffffffff8010565f:	48 8b 05 b2 7a 01 00 	mov    0x17ab2(%rip),%rax        # ffffffff8011d118 <fd_list+0x18>
ffffffff80105666:	48 83 c0 20          	add    $0x20,%rax
ffffffff8010566a:	48 89 05 a7 7a 01 00 	mov    %rax,0x17aa7(%rip)        # ffffffff8011d118 <fd_list+0x18>
ffffffff80105671:	48 8b 15 a0 7a 01 00 	mov    0x17aa0(%rip),%rdx        # ffffffff8011d118 <fd_list+0x18>
ffffffff80105678:	48 8b 05 89 7a 01 00 	mov    0x17a89(%rip),%rax        # ffffffff8011d108 <fd_list+0x8>
ffffffff8010567f:	48 89 d6             	mov    %rdx,%rsi
ffffffff80105682:	48 89 c7             	mov    %rax,%rdi
ffffffff80105685:	e8 85 cf ff ff       	callq  ffffffff8010260f <krealloc>
ffffffff8010568a:	48 89 05 77 7a 01 00 	mov    %rax,0x17a77(%rip)        # ffffffff8011d108 <fd_list+0x8>
ffffffff80105691:	48 8b 05 90 7a 01 00 	mov    0x17a90(%rip),%rax        # ffffffff8011d128 <fd_list+0x28>
ffffffff80105698:	89 45 c4             	mov    %eax,-0x3c(%rbp)
ffffffff8010569b:	48 8b 0d 66 7a 01 00 	mov    0x17a66(%rip),%rcx        # ffffffff8011d108 <fd_list+0x8>
ffffffff801056a2:	48 8b 15 7f 7a 01 00 	mov    0x17a7f(%rip),%rdx        # ffffffff8011d128 <fd_list+0x28>
ffffffff801056a9:	48 8d 42 01          	lea    0x1(%rdx),%rax
ffffffff801056ad:	48 89 05 74 7a 01 00 	mov    %rax,0x17a74(%rip)        # ffffffff8011d128 <fd_list+0x28>
ffffffff801056b4:	48 89 d0             	mov    %rdx,%rax
ffffffff801056b7:	48 01 c0             	add    %rax,%rax
ffffffff801056ba:	48 01 d0             	add    %rdx,%rax
ffffffff801056bd:	48 c1 e0 04          	shl    $0x4,%rax
ffffffff801056c1:	48 01 c8             	add    %rcx,%rax
ffffffff801056c4:	48 8b 55 90          	mov    -0x70(%rbp),%rdx
ffffffff801056c8:	48 89 10             	mov    %rdx,(%rax)
ffffffff801056cb:	48 8b 55 98          	mov    -0x68(%rbp),%rdx
ffffffff801056cf:	48 89 50 08          	mov    %rdx,0x8(%rax)
ffffffff801056d3:	48 8b 55 a0          	mov    -0x60(%rbp),%rdx
ffffffff801056d7:	48 89 50 10          	mov    %rdx,0x10(%rax)
ffffffff801056db:	48 8b 55 a8          	mov    -0x58(%rbp),%rdx
ffffffff801056df:	48 89 50 18          	mov    %rdx,0x18(%rax)
ffffffff801056e3:	48 8b 55 b0          	mov    -0x50(%rbp),%rdx
ffffffff801056e7:	48 89 50 20          	mov    %rdx,0x20(%rax)
ffffffff801056eb:	48 8b 55 b8          	mov    -0x48(%rbp),%rdx
ffffffff801056ef:	48 89 50 28          	mov    %rdx,0x28(%rax)
ffffffff801056f3:	48 8b 05 26 7a 01 00 	mov    0x17a26(%rip),%rax        # ffffffff8011d120 <fd_list+0x20>
ffffffff801056fa:	48 83 c0 01          	add    $0x1,%rax
ffffffff801056fe:	48 89 05 1b 7a 01 00 	mov    %rax,0x17a1b(%rip)        # ffffffff8011d120 <fd_list+0x20>
ffffffff80105705:	48 c7 c7 10 d1 11 80 	mov    $0xffffffff8011d110,%rdi
ffffffff8010570c:	e8 e4 87 00 00       	callq  ffffffff8010def5 <spin_release>
ffffffff80105711:	48 c7 c7 38 d1 11 80 	mov    $0xffffffff8011d138,%rdi
ffffffff80105718:	e8 83 87 00 00       	callq  ffffffff8010dea0 <spin_lock>
ffffffff8010571d:	c7 45 c0 00 00 00 00 	movl   $0x0,-0x40(%rbp)
ffffffff80105724:	48 8b 05 05 7a 01 00 	mov    0x17a05(%rip),%rax        # ffffffff8011d130 <fd_list+0x30>
ffffffff8010572b:	48 85 c0             	test   %rax,%rax
ffffffff8010572e:	75 1c                	jne    ffffffff8010574c <dup+0x277>
ffffffff80105730:	bf 00 06 00 00       	mov    $0x600,%edi
ffffffff80105735:	e8 0d cc ff ff       	callq  ffffffff80102347 <kmalloc>
ffffffff8010573a:	48 89 05 ef 79 01 00 	mov    %rax,0x179ef(%rip)        # ffffffff8011d130 <fd_list+0x30>
ffffffff80105741:	48 c7 05 f4 79 01 00 	movq   $0x20,0x179f4(%rip)        # ffffffff8011d140 <fd_list+0x40>
ffffffff80105748:	20 00 00 00 
ffffffff8010574c:	48 8b 15 fd 79 01 00 	mov    0x179fd(%rip),%rdx        # ffffffff8011d150 <fd_list+0x50>
ffffffff80105753:	48 8b 05 e6 79 01 00 	mov    0x179e6(%rip),%rax        # ffffffff8011d140 <fd_list+0x40>
ffffffff8010575a:	48 39 c2             	cmp    %rax,%rdx
ffffffff8010575d:	76 32                	jbe    ffffffff80105791 <dup+0x2bc>
ffffffff8010575f:	48 8b 05 da 79 01 00 	mov    0x179da(%rip),%rax        # ffffffff8011d140 <fd_list+0x40>
ffffffff80105766:	48 83 c0 20          	add    $0x20,%rax
ffffffff8010576a:	48 89 05 cf 79 01 00 	mov    %rax,0x179cf(%rip)        # ffffffff8011d140 <fd_list+0x40>
ffffffff80105771:	48 8b 15 c8 79 01 00 	mov    0x179c8(%rip),%rdx        # ffffffff8011d140 <fd_list+0x40>
ffffffff80105778:	48 8b 05 b1 79 01 00 	mov    0x179b1(%rip),%rax        # ffffffff8011d130 <fd_list+0x30>
ffffffff8010577f:	48 89 d6             	mov    %rdx,%rsi
ffffffff80105782:	48 89 c7             	mov    %rax,%rdi
ffffffff80105785:	e8 85 ce ff ff       	callq  ffffffff8010260f <krealloc>
ffffffff8010578a:	48 89 05 9f 79 01 00 	mov    %rax,0x1799f(%rip)        # ffffffff8011d130 <fd_list+0x30>
ffffffff80105791:	48 8b 05 b8 79 01 00 	mov    0x179b8(%rip),%rax        # ffffffff8011d150 <fd_list+0x50>
ffffffff80105798:	89 45 c0             	mov    %eax,-0x40(%rbp)
ffffffff8010579b:	48 8b 05 5e 79 01 00 	mov    0x1795e(%rip),%rax        # ffffffff8011d100 <fd_list>
ffffffff801057a2:	48 8d 50 01          	lea    0x1(%rax),%rdx
ffffffff801057a6:	48 89 15 53 79 01 00 	mov    %rdx,0x17953(%rip)        # ffffffff8011d100 <fd_list>
ffffffff801057ad:	48 8b 35 7c 79 01 00 	mov    0x1797c(%rip),%rsi        # ffffffff8011d130 <fd_list+0x30>
ffffffff801057b4:	48 8b 15 95 79 01 00 	mov    0x17995(%rip),%rdx        # ffffffff8011d150 <fd_list+0x50>
ffffffff801057bb:	48 8d 4a 01          	lea    0x1(%rdx),%rcx
ffffffff801057bf:	48 89 0d 8a 79 01 00 	mov    %rcx,0x1798a(%rip)        # ffffffff8011d150 <fd_list+0x50>
ffffffff801057c6:	48 c1 e2 03          	shl    $0x3,%rdx
ffffffff801057ca:	48 01 f2             	add    %rsi,%rdx
ffffffff801057cd:	48 89 02             	mov    %rax,(%rdx)
ffffffff801057d0:	48 8b 05 71 79 01 00 	mov    0x17971(%rip),%rax        # ffffffff8011d148 <fd_list+0x48>
ffffffff801057d7:	48 83 c0 01          	add    $0x1,%rax
ffffffff801057db:	48 89 05 66 79 01 00 	mov    %rax,0x17966(%rip)        # ffffffff8011d148 <fd_list+0x48>
ffffffff801057e2:	48 c7 c7 38 d1 11 80 	mov    $0xffffffff8011d138,%rdi
ffffffff801057e9:	e8 07 87 00 00       	callq  ffffffff8010def5 <spin_release>
ffffffff801057ee:	48 8b 45 c8          	mov    -0x38(%rbp),%rax
ffffffff801057f2:	c9                   	leaveq 
ffffffff801057f3:	c3                   	retq   

ffffffff801057f4 <dup2>:
ffffffff801057f4:	55                   	push   %rbp
ffffffff801057f5:	48 89 e5             	mov    %rsp,%rbp
ffffffff801057f8:	48 81 ec b0 00 00 00 	sub    $0xb0,%rsp
ffffffff801057ff:	89 bd 5c ff ff ff    	mov    %edi,-0xa4(%rbp)
ffffffff80105805:	89 b5 58 ff ff ff    	mov    %esi,-0xa8(%rbp)
ffffffff8010580b:	48 c7 45 f8 00 00 00 	movq   $0x0,-0x8(%rbp)
ffffffff80105812:	00 
ffffffff80105813:	48 c7 45 f0 00 00 00 	movq   $0x0,-0x10(%rbp)
ffffffff8010581a:	00 
ffffffff8010581b:	eb 64                	jmp    ffffffff80105881 <dup2+0x8d>
ffffffff8010581d:	48 c7 45 e8 00 00 00 	movq   $0x0,-0x18(%rbp)
ffffffff80105824:	00 
ffffffff80105825:	48 c7 c7 38 d1 11 80 	mov    $0xffffffff8011d138,%rdi
ffffffff8010582c:	e8 6f 86 00 00       	callq  ffffffff8010dea0 <spin_lock>
ffffffff80105831:	48 8b 05 10 79 01 00 	mov    0x17910(%rip),%rax        # ffffffff8011d148 <fd_list+0x48>
ffffffff80105838:	48 39 45 f0          	cmp    %rax,-0x10(%rbp)
ffffffff8010583c:	73 18                	jae    ffffffff80105856 <dup2+0x62>
ffffffff8010583e:	48 8b 15 eb 78 01 00 	mov    0x178eb(%rip),%rdx        # ffffffff8011d130 <fd_list+0x30>
ffffffff80105845:	48 8b 45 f0          	mov    -0x10(%rbp),%rax
ffffffff80105849:	48 c1 e0 03          	shl    $0x3,%rax
ffffffff8010584d:	48 01 d0             	add    %rdx,%rax
ffffffff80105850:	48 89 45 e8          	mov    %rax,-0x18(%rbp)
ffffffff80105854:	eb 01                	jmp    ffffffff80105857 <dup2+0x63>
ffffffff80105856:	90                   	nop
ffffffff80105857:	48 c7 c7 38 d1 11 80 	mov    $0xffffffff8011d138,%rdi
ffffffff8010585e:	e8 92 86 00 00       	callq  ffffffff8010def5 <spin_release>
ffffffff80105863:	48 8b 45 e8          	mov    -0x18(%rbp),%rax
ffffffff80105867:	48 8b 00             	mov    (%rax),%rax
ffffffff8010586a:	48 89 45 b8          	mov    %rax,-0x48(%rbp)
ffffffff8010586e:	8b 85 5c ff ff ff    	mov    -0xa4(%rbp),%eax
ffffffff80105874:	48 98                	cltq   
ffffffff80105876:	48 39 45 b8          	cmp    %rax,-0x48(%rbp)
ffffffff8010587a:	74 14                	je     ffffffff80105890 <dup2+0x9c>
ffffffff8010587c:	48 83 45 f0 01       	addq   $0x1,-0x10(%rbp)
ffffffff80105881:	48 8b 05 c0 78 01 00 	mov    0x178c0(%rip),%rax        # ffffffff8011d148 <fd_list+0x48>
ffffffff80105888:	48 39 45 f0          	cmp    %rax,-0x10(%rbp)
ffffffff8010588c:	72 8f                	jb     ffffffff8010581d <dup2+0x29>
ffffffff8010588e:	eb 58                	jmp    ffffffff801058e8 <dup2+0xf4>
ffffffff80105890:	90                   	nop
ffffffff80105891:	48 c7 45 e0 00 00 00 	movq   $0x0,-0x20(%rbp)
ffffffff80105898:	00 
ffffffff80105899:	48 c7 c7 10 d1 11 80 	mov    $0xffffffff8011d110,%rdi
ffffffff801058a0:	e8 fb 85 00 00       	callq  ffffffff8010dea0 <spin_lock>
ffffffff801058a5:	48 8b 05 74 78 01 00 	mov    0x17874(%rip),%rax        # ffffffff8011d120 <fd_list+0x20>
ffffffff801058ac:	48 39 45 f0          	cmp    %rax,-0x10(%rbp)
ffffffff801058b0:	73 21                	jae    ffffffff801058d3 <dup2+0xdf>
ffffffff801058b2:	48 8b 0d 4f 78 01 00 	mov    0x1784f(%rip),%rcx        # ffffffff8011d108 <fd_list+0x8>
ffffffff801058b9:	48 8b 55 f0          	mov    -0x10(%rbp),%rdx
ffffffff801058bd:	48 89 d0             	mov    %rdx,%rax
ffffffff801058c0:	48 01 c0             	add    %rax,%rax
ffffffff801058c3:	48 01 d0             	add    %rdx,%rax
ffffffff801058c6:	48 c1 e0 04          	shl    $0x4,%rax
ffffffff801058ca:	48 01 c8             	add    %rcx,%rax
ffffffff801058cd:	48 89 45 e0          	mov    %rax,-0x20(%rbp)
ffffffff801058d1:	eb 01                	jmp    ffffffff801058d4 <dup2+0xe0>
ffffffff801058d3:	90                   	nop
ffffffff801058d4:	48 c7 c7 10 d1 11 80 	mov    $0xffffffff8011d110,%rdi
ffffffff801058db:	e8 15 86 00 00       	callq  ffffffff8010def5 <spin_release>
ffffffff801058e0:	48 8b 45 e0          	mov    -0x20(%rbp),%rax
ffffffff801058e4:	48 89 45 f8          	mov    %rax,-0x8(%rbp)
ffffffff801058e8:	48 8b 45 f8          	mov    -0x8(%rbp),%rax
ffffffff801058ec:	48 89 45 b0          	mov    %rax,-0x50(%rbp)
ffffffff801058f0:	48 83 7d b0 00       	cmpq   $0x0,-0x50(%rbp)
ffffffff801058f5:	75 0a                	jne    ffffffff80105901 <dup2+0x10d>
ffffffff801058f7:	b8 ff ff ff ff       	mov    $0xffffffff,%eax
ffffffff801058fc:	e9 30 03 00 00       	jmpq   ffffffff80105c31 <dup2+0x43d>
ffffffff80105901:	48 c7 45 d8 00 00 00 	movq   $0x0,-0x28(%rbp)
ffffffff80105908:	00 
ffffffff80105909:	48 c7 45 d0 00 00 00 	movq   $0x0,-0x30(%rbp)
ffffffff80105910:	00 
ffffffff80105911:	eb 64                	jmp    ffffffff80105977 <dup2+0x183>
ffffffff80105913:	48 c7 45 c8 00 00 00 	movq   $0x0,-0x38(%rbp)
ffffffff8010591a:	00 
ffffffff8010591b:	48 c7 c7 38 d1 11 80 	mov    $0xffffffff8011d138,%rdi
ffffffff80105922:	e8 79 85 00 00       	callq  ffffffff8010dea0 <spin_lock>
ffffffff80105927:	48 8b 05 1a 78 01 00 	mov    0x1781a(%rip),%rax        # ffffffff8011d148 <fd_list+0x48>
ffffffff8010592e:	48 39 45 d0          	cmp    %rax,-0x30(%rbp)
ffffffff80105932:	73 18                	jae    ffffffff8010594c <dup2+0x158>
ffffffff80105934:	48 8b 15 f5 77 01 00 	mov    0x177f5(%rip),%rdx        # ffffffff8011d130 <fd_list+0x30>
ffffffff8010593b:	48 8b 45 d0          	mov    -0x30(%rbp),%rax
ffffffff8010593f:	48 c1 e0 03          	shl    $0x3,%rax
ffffffff80105943:	48 01 d0             	add    %rdx,%rax
ffffffff80105946:	48 89 45 c8          	mov    %rax,-0x38(%rbp)
ffffffff8010594a:	eb 01                	jmp    ffffffff8010594d <dup2+0x159>
ffffffff8010594c:	90                   	nop
ffffffff8010594d:	48 c7 c7 38 d1 11 80 	mov    $0xffffffff8011d138,%rdi
ffffffff80105954:	e8 9c 85 00 00       	callq  ffffffff8010def5 <spin_release>
ffffffff80105959:	48 8b 45 c8          	mov    -0x38(%rbp),%rax
ffffffff8010595d:	48 8b 00             	mov    (%rax),%rax
ffffffff80105960:	48 89 45 a8          	mov    %rax,-0x58(%rbp)
ffffffff80105964:	8b 85 58 ff ff ff    	mov    -0xa8(%rbp),%eax
ffffffff8010596a:	48 98                	cltq   
ffffffff8010596c:	48 39 45 a8          	cmp    %rax,-0x58(%rbp)
ffffffff80105970:	74 14                	je     ffffffff80105986 <dup2+0x192>
ffffffff80105972:	48 83 45 d0 01       	addq   $0x1,-0x30(%rbp)
ffffffff80105977:	48 8b 05 ca 77 01 00 	mov    0x177ca(%rip),%rax        # ffffffff8011d148 <fd_list+0x48>
ffffffff8010597e:	48 39 45 d0          	cmp    %rax,-0x30(%rbp)
ffffffff80105982:	72 8f                	jb     ffffffff80105913 <dup2+0x11f>
ffffffff80105984:	eb 58                	jmp    ffffffff801059de <dup2+0x1ea>
ffffffff80105986:	90                   	nop
ffffffff80105987:	48 c7 45 c0 00 00 00 	movq   $0x0,-0x40(%rbp)
ffffffff8010598e:	00 
ffffffff8010598f:	48 c7 c7 10 d1 11 80 	mov    $0xffffffff8011d110,%rdi
ffffffff80105996:	e8 05 85 00 00       	callq  ffffffff8010dea0 <spin_lock>
ffffffff8010599b:	48 8b 05 7e 77 01 00 	mov    0x1777e(%rip),%rax        # ffffffff8011d120 <fd_list+0x20>
ffffffff801059a2:	48 39 45 d0          	cmp    %rax,-0x30(%rbp)
ffffffff801059a6:	73 21                	jae    ffffffff801059c9 <dup2+0x1d5>
ffffffff801059a8:	48 8b 0d 59 77 01 00 	mov    0x17759(%rip),%rcx        # ffffffff8011d108 <fd_list+0x8>
ffffffff801059af:	48 8b 55 d0          	mov    -0x30(%rbp),%rdx
ffffffff801059b3:	48 89 d0             	mov    %rdx,%rax
ffffffff801059b6:	48 01 c0             	add    %rax,%rax
ffffffff801059b9:	48 01 d0             	add    %rdx,%rax
ffffffff801059bc:	48 c1 e0 04          	shl    $0x4,%rax
ffffffff801059c0:	48 01 c8             	add    %rcx,%rax
ffffffff801059c3:	48 89 45 c0          	mov    %rax,-0x40(%rbp)
ffffffff801059c7:	eb 01                	jmp    ffffffff801059ca <dup2+0x1d6>
ffffffff801059c9:	90                   	nop
ffffffff801059ca:	48 c7 c7 10 d1 11 80 	mov    $0xffffffff8011d110,%rdi
ffffffff801059d1:	e8 1f 85 00 00       	callq  ffffffff8010def5 <spin_release>
ffffffff801059d6:	48 8b 45 c0          	mov    -0x40(%rbp),%rax
ffffffff801059da:	48 89 45 d8          	mov    %rax,-0x28(%rbp)
ffffffff801059de:	48 8b 45 d8          	mov    -0x28(%rbp),%rax
ffffffff801059e2:	48 89 45 a0          	mov    %rax,-0x60(%rbp)
ffffffff801059e6:	48 83 7d a0 00       	cmpq   $0x0,-0x60(%rbp)
ffffffff801059eb:	74 0d                	je     ffffffff801059fa <dup2+0x206>
ffffffff801059ed:	8b 85 58 ff ff ff    	mov    -0xa8(%rbp),%eax
ffffffff801059f3:	89 c7                	mov    %eax,%edi
ffffffff801059f5:	e8 f3 f7 ff ff       	callq  ffffffff801051ed <close>
ffffffff801059fa:	48 8b 45 b0          	mov    -0x50(%rbp),%rax
ffffffff801059fe:	48 8b 10             	mov    (%rax),%rdx
ffffffff80105a01:	48 89 95 60 ff ff ff 	mov    %rdx,-0xa0(%rbp)
ffffffff80105a08:	48 8b 50 08          	mov    0x8(%rax),%rdx
ffffffff80105a0c:	48 89 95 68 ff ff ff 	mov    %rdx,-0x98(%rbp)
ffffffff80105a13:	48 8b 50 10          	mov    0x10(%rax),%rdx
ffffffff80105a17:	48 89 95 70 ff ff ff 	mov    %rdx,-0x90(%rbp)
ffffffff80105a1e:	48 8b 50 18          	mov    0x18(%rax),%rdx
ffffffff80105a22:	48 89 95 78 ff ff ff 	mov    %rdx,-0x88(%rbp)
ffffffff80105a29:	48 8b 50 20          	mov    0x20(%rax),%rdx
ffffffff80105a2d:	48 89 55 80          	mov    %rdx,-0x80(%rbp)
ffffffff80105a31:	48 8b 40 28          	mov    0x28(%rax),%rax
ffffffff80105a35:	48 89 45 88          	mov    %rax,-0x78(%rbp)
ffffffff80105a39:	48 8b 05 c0 76 01 00 	mov    0x176c0(%rip),%rax        # ffffffff8011d100 <fd_list>
ffffffff80105a40:	48 89 45 98          	mov    %rax,-0x68(%rbp)
ffffffff80105a44:	48 c7 c7 10 d1 11 80 	mov    $0xffffffff8011d110,%rdi
ffffffff80105a4b:	e8 50 84 00 00       	callq  ffffffff8010dea0 <spin_lock>
ffffffff80105a50:	c7 45 94 00 00 00 00 	movl   $0x0,-0x6c(%rbp)
ffffffff80105a57:	48 8b 05 aa 76 01 00 	mov    0x176aa(%rip),%rax        # ffffffff8011d108 <fd_list+0x8>
ffffffff80105a5e:	48 85 c0             	test   %rax,%rax
ffffffff80105a61:	75 1c                	jne    ffffffff80105a7f <dup2+0x28b>
ffffffff80105a63:	bf 00 06 00 00       	mov    $0x600,%edi
ffffffff80105a68:	e8 da c8 ff ff       	callq  ffffffff80102347 <kmalloc>
ffffffff80105a6d:	48 89 05 94 76 01 00 	mov    %rax,0x17694(%rip)        # ffffffff8011d108 <fd_list+0x8>
ffffffff80105a74:	48 c7 05 99 76 01 00 	movq   $0x20,0x17699(%rip)        # ffffffff8011d118 <fd_list+0x18>
ffffffff80105a7b:	20 00 00 00 
ffffffff80105a7f:	48 8b 15 a2 76 01 00 	mov    0x176a2(%rip),%rdx        # ffffffff8011d128 <fd_list+0x28>
ffffffff80105a86:	48 8b 05 8b 76 01 00 	mov    0x1768b(%rip),%rax        # ffffffff8011d118 <fd_list+0x18>
ffffffff80105a8d:	48 39 c2             	cmp    %rax,%rdx
ffffffff80105a90:	76 32                	jbe    ffffffff80105ac4 <dup2+0x2d0>
ffffffff80105a92:	48 8b 05 7f 76 01 00 	mov    0x1767f(%rip),%rax        # ffffffff8011d118 <fd_list+0x18>
ffffffff80105a99:	48 83 c0 20          	add    $0x20,%rax
ffffffff80105a9d:	48 89 05 74 76 01 00 	mov    %rax,0x17674(%rip)        # ffffffff8011d118 <fd_list+0x18>
ffffffff80105aa4:	48 8b 15 6d 76 01 00 	mov    0x1766d(%rip),%rdx        # ffffffff8011d118 <fd_list+0x18>
ffffffff80105aab:	48 8b 05 56 76 01 00 	mov    0x17656(%rip),%rax        # ffffffff8011d108 <fd_list+0x8>
ffffffff80105ab2:	48 89 d6             	mov    %rdx,%rsi
ffffffff80105ab5:	48 89 c7             	mov    %rax,%rdi
ffffffff80105ab8:	e8 52 cb ff ff       	callq  ffffffff8010260f <krealloc>
ffffffff80105abd:	48 89 05 44 76 01 00 	mov    %rax,0x17644(%rip)        # ffffffff8011d108 <fd_list+0x8>
ffffffff80105ac4:	48 8b 05 5d 76 01 00 	mov    0x1765d(%rip),%rax        # ffffffff8011d128 <fd_list+0x28>
ffffffff80105acb:	89 45 94             	mov    %eax,-0x6c(%rbp)
ffffffff80105ace:	48 8b 0d 33 76 01 00 	mov    0x17633(%rip),%rcx        # ffffffff8011d108 <fd_list+0x8>
ffffffff80105ad5:	48 8b 15 4c 76 01 00 	mov    0x1764c(%rip),%rdx        # ffffffff8011d128 <fd_list+0x28>
ffffffff80105adc:	48 8d 42 01          	lea    0x1(%rdx),%rax
ffffffff80105ae0:	48 89 05 41 76 01 00 	mov    %rax,0x17641(%rip)        # ffffffff8011d128 <fd_list+0x28>
ffffffff80105ae7:	48 89 d0             	mov    %rdx,%rax
ffffffff80105aea:	48 01 c0             	add    %rax,%rax
ffffffff80105aed:	48 01 d0             	add    %rdx,%rax
ffffffff80105af0:	48 c1 e0 04          	shl    $0x4,%rax
ffffffff80105af4:	48 01 c8             	add    %rcx,%rax
ffffffff80105af7:	48 8b 95 60 ff ff ff 	mov    -0xa0(%rbp),%rdx
ffffffff80105afe:	48 89 10             	mov    %rdx,(%rax)
ffffffff80105b01:	48 8b 95 68 ff ff ff 	mov    -0x98(%rbp),%rdx
ffffffff80105b08:	48 89 50 08          	mov    %rdx,0x8(%rax)
ffffffff80105b0c:	48 8b 95 70 ff ff ff 	mov    -0x90(%rbp),%rdx
ffffffff80105b13:	48 89 50 10          	mov    %rdx,0x10(%rax)
ffffffff80105b17:	48 8b 95 78 ff ff ff 	mov    -0x88(%rbp),%rdx
ffffffff80105b1e:	48 89 50 18          	mov    %rdx,0x18(%rax)
ffffffff80105b22:	48 8b 55 80          	mov    -0x80(%rbp),%rdx
ffffffff80105b26:	48 89 50 20          	mov    %rdx,0x20(%rax)
ffffffff80105b2a:	48 8b 55 88          	mov    -0x78(%rbp),%rdx
ffffffff80105b2e:	48 89 50 28          	mov    %rdx,0x28(%rax)
ffffffff80105b32:	48 8b 05 e7 75 01 00 	mov    0x175e7(%rip),%rax        # ffffffff8011d120 <fd_list+0x20>
ffffffff80105b39:	48 83 c0 01          	add    $0x1,%rax
ffffffff80105b3d:	48 89 05 dc 75 01 00 	mov    %rax,0x175dc(%rip)        # ffffffff8011d120 <fd_list+0x20>
ffffffff80105b44:	48 c7 c7 10 d1 11 80 	mov    $0xffffffff8011d110,%rdi
ffffffff80105b4b:	e8 a5 83 00 00       	callq  ffffffff8010def5 <spin_release>
ffffffff80105b50:	48 c7 c7 38 d1 11 80 	mov    $0xffffffff8011d138,%rdi
ffffffff80105b57:	e8 44 83 00 00       	callq  ffffffff8010dea0 <spin_lock>
ffffffff80105b5c:	c7 45 90 00 00 00 00 	movl   $0x0,-0x70(%rbp)
ffffffff80105b63:	48 8b 05 c6 75 01 00 	mov    0x175c6(%rip),%rax        # ffffffff8011d130 <fd_list+0x30>
ffffffff80105b6a:	48 85 c0             	test   %rax,%rax
ffffffff80105b6d:	75 1c                	jne    ffffffff80105b8b <dup2+0x397>
ffffffff80105b6f:	bf 00 06 00 00       	mov    $0x600,%edi
ffffffff80105b74:	e8 ce c7 ff ff       	callq  ffffffff80102347 <kmalloc>
ffffffff80105b79:	48 89 05 b0 75 01 00 	mov    %rax,0x175b0(%rip)        # ffffffff8011d130 <fd_list+0x30>
ffffffff80105b80:	48 c7 05 b5 75 01 00 	movq   $0x20,0x175b5(%rip)        # ffffffff8011d140 <fd_list+0x40>
ffffffff80105b87:	20 00 00 00 
ffffffff80105b8b:	48 8b 15 be 75 01 00 	mov    0x175be(%rip),%rdx        # ffffffff8011d150 <fd_list+0x50>
ffffffff80105b92:	48 8b 05 a7 75 01 00 	mov    0x175a7(%rip),%rax        # ffffffff8011d140 <fd_list+0x40>
ffffffff80105b99:	48 39 c2             	cmp    %rax,%rdx
ffffffff80105b9c:	76 32                	jbe    ffffffff80105bd0 <dup2+0x3dc>
ffffffff80105b9e:	48 8b 05 9b 75 01 00 	mov    0x1759b(%rip),%rax        # ffffffff8011d140 <fd_list+0x40>
ffffffff80105ba5:	48 83 c0 20          	add    $0x20,%rax
ffffffff80105ba9:	48 89 05 90 75 01 00 	mov    %rax,0x17590(%rip)        # ffffffff8011d140 <fd_list+0x40>
ffffffff80105bb0:	48 8b 15 89 75 01 00 	mov    0x17589(%rip),%rdx        # ffffffff8011d140 <fd_list+0x40>
ffffffff80105bb7:	48 8b 05 72 75 01 00 	mov    0x17572(%rip),%rax        # ffffffff8011d130 <fd_list+0x30>
ffffffff80105bbe:	48 89 d6             	mov    %rdx,%rsi
ffffffff80105bc1:	48 89 c7             	mov    %rax,%rdi
ffffffff80105bc4:	e8 46 ca ff ff       	callq  ffffffff8010260f <krealloc>
ffffffff80105bc9:	48 89 05 60 75 01 00 	mov    %rax,0x17560(%rip)        # ffffffff8011d130 <fd_list+0x30>
ffffffff80105bd0:	48 8b 05 79 75 01 00 	mov    0x17579(%rip),%rax        # ffffffff8011d150 <fd_list+0x50>
ffffffff80105bd7:	89 45 90             	mov    %eax,-0x70(%rbp)
ffffffff80105bda:	48 8b 05 1f 75 01 00 	mov    0x1751f(%rip),%rax        # ffffffff8011d100 <fd_list>
ffffffff80105be1:	48 8d 50 01          	lea    0x1(%rax),%rdx
ffffffff80105be5:	48 89 15 14 75 01 00 	mov    %rdx,0x17514(%rip)        # ffffffff8011d100 <fd_list>
ffffffff80105bec:	48 8b 35 3d 75 01 00 	mov    0x1753d(%rip),%rsi        # ffffffff8011d130 <fd_list+0x30>
ffffffff80105bf3:	48 8b 15 56 75 01 00 	mov    0x17556(%rip),%rdx        # ffffffff8011d150 <fd_list+0x50>
ffffffff80105bfa:	48 8d 4a 01          	lea    0x1(%rdx),%rcx
ffffffff80105bfe:	48 89 0d 4b 75 01 00 	mov    %rcx,0x1754b(%rip)        # ffffffff8011d150 <fd_list+0x50>
ffffffff80105c05:	48 c1 e2 03          	shl    $0x3,%rdx
ffffffff80105c09:	48 01 f2             	add    %rsi,%rdx
ffffffff80105c0c:	48 89 02             	mov    %rax,(%rdx)
ffffffff80105c0f:	48 8b 05 32 75 01 00 	mov    0x17532(%rip),%rax        # ffffffff8011d148 <fd_list+0x48>
ffffffff80105c16:	48 83 c0 01          	add    $0x1,%rax
ffffffff80105c1a:	48 89 05 27 75 01 00 	mov    %rax,0x17527(%rip)        # ffffffff8011d148 <fd_list+0x48>
ffffffff80105c21:	48 c7 c7 38 d1 11 80 	mov    $0xffffffff8011d138,%rdi
ffffffff80105c28:	e8 c8 82 00 00       	callq  ffffffff8010def5 <spin_release>
ffffffff80105c2d:	48 8b 45 98          	mov    -0x68(%rbp),%rax
ffffffff80105c31:	c9                   	leaveq 
ffffffff80105c32:	c3                   	retq   

ffffffff80105c33 <gdt_init>:
ffffffff80105c33:	55                   	push   %rbp
ffffffff80105c34:	48 89 e5             	mov    %rsp,%rbp
ffffffff80105c37:	66 c7 05 28 75 01 00 	movw   $0x0,0x17528(%rip)        # ffffffff8011d168 <gdt+0x8>
ffffffff80105c3e:	00 00 
ffffffff80105c40:	66 c7 05 21 75 01 00 	movw   $0x0,0x17521(%rip)        # ffffffff8011d16a <gdt+0xa>
ffffffff80105c47:	00 00 
ffffffff80105c49:	c6 05 1c 75 01 00 00 	movb   $0x0,0x1751c(%rip)        # ffffffff8011d16c <gdt+0xc>
ffffffff80105c50:	c6 05 16 75 01 00 9a 	movb   $0x9a,0x17516(%rip)        # ffffffff8011d16d <gdt+0xd>
ffffffff80105c57:	c6 05 10 75 01 00 20 	movb   $0x20,0x17510(%rip)        # ffffffff8011d16e <gdt+0xe>
ffffffff80105c5e:	c6 05 0a 75 01 00 00 	movb   $0x0,0x1750a(%rip)        # ffffffff8011d16f <gdt+0xf>
ffffffff80105c65:	66 c7 05 02 75 01 00 	movw   $0x0,0x17502(%rip)        # ffffffff8011d170 <gdt+0x10>
ffffffff80105c6c:	00 00 
ffffffff80105c6e:	66 c7 05 fb 74 01 00 	movw   $0x0,0x174fb(%rip)        # ffffffff8011d172 <gdt+0x12>
ffffffff80105c75:	00 00 
ffffffff80105c77:	c6 05 f6 74 01 00 00 	movb   $0x0,0x174f6(%rip)        # ffffffff8011d174 <gdt+0x14>
ffffffff80105c7e:	c6 05 f0 74 01 00 96 	movb   $0x96,0x174f0(%rip)        # ffffffff8011d175 <gdt+0x15>
ffffffff80105c85:	c6 05 ea 74 01 00 00 	movb   $0x0,0x174ea(%rip)        # ffffffff8011d176 <gdt+0x16>
ffffffff80105c8c:	c6 05 e4 74 01 00 00 	movb   $0x0,0x174e4(%rip)        # ffffffff8011d177 <gdt+0x17>
ffffffff80105c93:	66 c7 05 dc 74 01 00 	movw   $0x0,0x174dc(%rip)        # ffffffff8011d178 <gdt+0x18>
ffffffff80105c9a:	00 00 
ffffffff80105c9c:	66 c7 05 d5 74 01 00 	movw   $0x0,0x174d5(%rip)        # ffffffff8011d17a <gdt+0x1a>
ffffffff80105ca3:	00 00 
ffffffff80105ca5:	c6 05 d0 74 01 00 00 	movb   $0x0,0x174d0(%rip)        # ffffffff8011d17c <gdt+0x1c>
ffffffff80105cac:	c6 05 ca 74 01 00 fd 	movb   $0xfd,0x174ca(%rip)        # ffffffff8011d17d <gdt+0x1d>
ffffffff80105cb3:	c6 05 c4 74 01 00 af 	movb   $0xaf,0x174c4(%rip)        # ffffffff8011d17e <gdt+0x1e>
ffffffff80105cba:	c6 05 be 74 01 00 00 	movb   $0x0,0x174be(%rip)        # ffffffff8011d17f <gdt+0x1f>
ffffffff80105cc1:	66 c7 05 b6 74 01 00 	movw   $0x0,0x174b6(%rip)        # ffffffff8011d180 <gdt+0x20>
ffffffff80105cc8:	00 00 
ffffffff80105cca:	66 c7 05 af 74 01 00 	movw   $0x0,0x174af(%rip)        # ffffffff8011d182 <gdt+0x22>
ffffffff80105cd1:	00 00 
ffffffff80105cd3:	c6 05 aa 74 01 00 00 	movb   $0x0,0x174aa(%rip)        # ffffffff8011d184 <gdt+0x24>
ffffffff80105cda:	c6 05 a4 74 01 00 f3 	movb   $0xf3,0x174a4(%rip)        # ffffffff8011d185 <gdt+0x25>
ffffffff80105ce1:	c6 05 9e 74 01 00 cf 	movb   $0xcf,0x1749e(%rip)        # ffffffff8011d186 <gdt+0x26>
ffffffff80105ce8:	c6 05 98 74 01 00 00 	movb   $0x0,0x17498(%rip)        # ffffffff8011d187 <gdt+0x27>
ffffffff80105cef:	48 c7 c0 60 d1 11 80 	mov    $0xffffffff8011d160,%rax
ffffffff80105cf6:	48 89 05 8d 76 01 00 	mov    %rax,0x1768d(%rip)        # ffffffff8011d38a <gdt+0x22a>
ffffffff80105cfd:	66 c7 05 82 76 01 00 	movw   $0x27,0x17682(%rip)        # ffffffff8011d388 <gdt+0x228>
ffffffff80105d04:	27 00 
ffffffff80105d06:	48 c7 c0 88 d3 11 80 	mov    $0xffffffff8011d388,%rax
ffffffff80105d0d:	48 89 c7             	mov    %rax,%rdi
ffffffff80105d10:	e8 9b 01 00 00       	callq  ffffffff80105eb0 <lgdt>
ffffffff80105d15:	90                   	nop
ffffffff80105d16:	5d                   	pop    %rbp
ffffffff80105d17:	c3                   	retq   

ffffffff80105d18 <gdt_tss_segment>:
ffffffff80105d18:	55                   	push   %rbp
ffffffff80105d19:	48 89 e5             	mov    %rsp,%rbp
ffffffff80105d1c:	48 83 ec 10          	sub    $0x10,%rsp
ffffffff80105d20:	48 89 7d f8          	mov    %rdi,-0x8(%rbp)
ffffffff80105d24:	8b 05 6a 76 01 00    	mov    0x1766a(%rip),%eax        # ffffffff8011d394 <tss_cnt>
ffffffff80105d2a:	48 98                	cltq   
ffffffff80105d2c:	48 83 c0 02          	add    $0x2,%rax
ffffffff80105d30:	48 c1 e0 04          	shl    $0x4,%rax
ffffffff80105d34:	48 05 68 d1 11 80    	add    $0xffffffff8011d168,%rax
ffffffff80105d3a:	66 c7 00 68 00       	movw   $0x68,(%rax)
ffffffff80105d3f:	8b 05 4f 76 01 00    	mov    0x1764f(%rip),%eax        # ffffffff8011d394 <tss_cnt>
ffffffff80105d45:	48 8b 55 f8          	mov    -0x8(%rbp),%rdx
ffffffff80105d49:	48 98                	cltq   
ffffffff80105d4b:	48 83 c0 02          	add    $0x2,%rax
ffffffff80105d4f:	48 c1 e0 04          	shl    $0x4,%rax
ffffffff80105d53:	48 05 6a d1 11 80    	add    $0xffffffff8011d16a,%rax
ffffffff80105d59:	66 89 10             	mov    %dx,(%rax)
ffffffff80105d5c:	48 8b 45 f8          	mov    -0x8(%rbp),%rax
ffffffff80105d60:	48 c1 e8 10          	shr    $0x10,%rax
ffffffff80105d64:	48 89 c2             	mov    %rax,%rdx
ffffffff80105d67:	8b 05 27 76 01 00    	mov    0x17627(%rip),%eax        # ffffffff8011d394 <tss_cnt>
ffffffff80105d6d:	48 98                	cltq   
ffffffff80105d6f:	48 83 c0 02          	add    $0x2,%rax
ffffffff80105d73:	48 c1 e0 04          	shl    $0x4,%rax
ffffffff80105d77:	48 05 6c d1 11 80    	add    $0xffffffff8011d16c,%rax
ffffffff80105d7d:	88 10                	mov    %dl,(%rax)
ffffffff80105d7f:	8b 05 0f 76 01 00    	mov    0x1760f(%rip),%eax        # ffffffff8011d394 <tss_cnt>
ffffffff80105d85:	48 98                	cltq   
ffffffff80105d87:	48 83 c0 02          	add    $0x2,%rax
ffffffff80105d8b:	48 c1 e0 04          	shl    $0x4,%rax
ffffffff80105d8f:	48 05 6d d1 11 80    	add    $0xffffffff8011d16d,%rax
ffffffff80105d95:	c6 00 89             	movb   $0x89,(%rax)
ffffffff80105d98:	8b 05 f6 75 01 00    	mov    0x175f6(%rip),%eax        # ffffffff8011d394 <tss_cnt>
ffffffff80105d9e:	48 98                	cltq   
ffffffff80105da0:	48 83 c0 02          	add    $0x2,%rax
ffffffff80105da4:	48 c1 e0 04          	shl    $0x4,%rax
ffffffff80105da8:	48 05 6e d1 11 80    	add    $0xffffffff8011d16e,%rax
ffffffff80105dae:	c6 00 00             	movb   $0x0,(%rax)
ffffffff80105db1:	48 8b 45 f8          	mov    -0x8(%rbp),%rax
ffffffff80105db5:	48 c1 e8 18          	shr    $0x18,%rax
ffffffff80105db9:	48 89 c2             	mov    %rax,%rdx
ffffffff80105dbc:	8b 05 d2 75 01 00    	mov    0x175d2(%rip),%eax        # ffffffff8011d394 <tss_cnt>
ffffffff80105dc2:	48 98                	cltq   
ffffffff80105dc4:	48 83 c0 02          	add    $0x2,%rax
ffffffff80105dc8:	48 c1 e0 04          	shl    $0x4,%rax
ffffffff80105dcc:	48 05 6f d1 11 80    	add    $0xffffffff8011d16f,%rax
ffffffff80105dd2:	88 10                	mov    %dl,(%rax)
ffffffff80105dd4:	48 8b 45 f8          	mov    -0x8(%rbp),%rax
ffffffff80105dd8:	48 c1 e8 20          	shr    $0x20,%rax
ffffffff80105ddc:	48 89 c1             	mov    %rax,%rcx
ffffffff80105ddf:	8b 05 af 75 01 00    	mov    0x175af(%rip),%eax        # ffffffff8011d394 <tss_cnt>
ffffffff80105de5:	8d 50 01             	lea    0x1(%rax),%edx
ffffffff80105de8:	89 15 a6 75 01 00    	mov    %edx,0x175a6(%rip)        # ffffffff8011d394 <tss_cnt>
ffffffff80105dee:	89 ca                	mov    %ecx,%edx
ffffffff80105df0:	48 98                	cltq   
ffffffff80105df2:	48 83 c0 02          	add    $0x2,%rax
ffffffff80105df6:	48 c1 e0 04          	shl    $0x4,%rax
ffffffff80105dfa:	48 05 70 d1 11 80    	add    $0xffffffff8011d170,%rax
ffffffff80105e00:	89 10                	mov    %edx,(%rax)
ffffffff80105e02:	0f b7 05 7f 75 01 00 	movzwl 0x1757f(%rip),%eax        # ffffffff8011d388 <gdt+0x228>
ffffffff80105e09:	83 c0 10             	add    $0x10,%eax
ffffffff80105e0c:	66 89 05 75 75 01 00 	mov    %ax,0x17575(%rip)        # ffffffff8011d388 <gdt+0x228>
ffffffff80105e13:	48 c7 c0 88 d3 11 80 	mov    $0xffffffff8011d388,%rax
ffffffff80105e1a:	48 89 c7             	mov    %rax,%rdi
ffffffff80105e1d:	e8 8e 00 00 00       	callq  ffffffff80105eb0 <lgdt>
ffffffff80105e22:	0f b7 05 5f 75 01 00 	movzwl 0x1755f(%rip),%eax        # ffffffff8011d388 <gdt+0x228>
ffffffff80105e29:	0f b7 c0             	movzwl %ax,%eax
ffffffff80105e2c:	48 83 e8 0f          	sub    $0xf,%rax
ffffffff80105e30:	48 89 c7             	mov    %rax,%rdi
ffffffff80105e33:	e8 95 00 00 00       	callq  ffffffff80105ecd <ltr>
ffffffff80105e38:	90                   	nop
ffffffff80105e39:	c9                   	leaveq 
ffffffff80105e3a:	c3                   	retq   

ffffffff80105e3b <create_generic_tss>:
ffffffff80105e3b:	55                   	push   %rbp
ffffffff80105e3c:	48 89 e5             	mov    %rsp,%rbp
ffffffff80105e3f:	48 83 ec 10          	sub    $0x10,%rsp
ffffffff80105e43:	bf 68 00 00 00       	mov    $0x68,%edi
ffffffff80105e48:	e8 fa c4 ff ff       	callq  ffffffff80102347 <kmalloc>
ffffffff80105e4d:	48 89 45 f8          	mov    %rax,-0x8(%rbp)
ffffffff80105e51:	bf 02 00 00 00       	mov    $0x2,%edi
ffffffff80105e56:	e8 1b 62 00 00       	callq  ffffffff8010c076 <pmm_alloc>
ffffffff80105e5b:	48 8d 90 00 20 00 00 	lea    0x2000(%rax),%rdx
ffffffff80105e62:	48 8b 45 f8          	mov    -0x8(%rbp),%rax
ffffffff80105e66:	48 89 50 04          	mov    %rdx,0x4(%rax)
ffffffff80105e6a:	bf 02 00 00 00       	mov    $0x2,%edi
ffffffff80105e6f:	e8 02 62 00 00       	callq  ffffffff8010c076 <pmm_alloc>
ffffffff80105e74:	48 8d 90 00 20 00 00 	lea    0x2000(%rax),%rdx
ffffffff80105e7b:	48 8b 45 f8          	mov    -0x8(%rbp),%rax
ffffffff80105e7f:	48 89 50 0c          	mov    %rdx,0xc(%rax)
ffffffff80105e83:	bf 02 00 00 00       	mov    $0x2,%edi
ffffffff80105e88:	e8 e9 61 00 00       	callq  ffffffff8010c076 <pmm_alloc>
ffffffff80105e8d:	48 8d 90 00 20 00 00 	lea    0x2000(%rax),%rdx
ffffffff80105e94:	48 8b 45 f8          	mov    -0x8(%rbp),%rax
ffffffff80105e98:	48 89 50 14          	mov    %rdx,0x14(%rax)
ffffffff80105e9c:	48 8b 45 f8          	mov    -0x8(%rbp),%rax
ffffffff80105ea0:	48 89 c7             	mov    %rax,%rdi
ffffffff80105ea3:	e8 70 fe ff ff       	callq  ffffffff80105d18 <gdt_tss_segment>
ffffffff80105ea8:	90                   	nop
ffffffff80105ea9:	c9                   	leaveq 
ffffffff80105eaa:	c3                   	retq   
ffffffff80105eab:	0f 1f 44 00 00       	nopl   0x0(%rax,%rax,1)

ffffffff80105eb0 <lgdt>:
ffffffff80105eb0:	0f 01 17             	lgdt   (%rdi)
ffffffff80105eb3:	6a 08                	pushq  $0x8
ffffffff80105eb5:	68 bc 5e 10 80       	pushq  $0xffffffff80105ebc
ffffffff80105eba:	48 cb                	lretq  

ffffffff80105ebc <entry>:
ffffffff80105ebc:	66 b8 10 00          	mov    $0x10,%ax
ffffffff80105ec0:	8e d8                	mov    %eax,%ds
ffffffff80105ec2:	8e c0                	mov    %eax,%es
ffffffff80105ec4:	8e e8                	mov    %eax,%gs
ffffffff80105ec6:	8e d0                	mov    %eax,%ss
ffffffff80105ec8:	8e e0                	mov    %eax,%fs
ffffffff80105eca:	8e e8                	mov    %eax,%gs
ffffffff80105ecc:	c3                   	retq   

ffffffff80105ecd <ltr>:
ffffffff80105ecd:	0f 00 df             	ltr    %di
ffffffff80105ed0:	c3                   	retq   

ffffffff80105ed1 <init_graphics>:
ffffffff80105ed1:	55                   	push   %rbp
ffffffff80105ed2:	48 89 e5             	mov    %rsp,%rbp
ffffffff80105ed5:	48 83 ec 10          	sub    $0x10,%rsp
ffffffff80105ed9:	48 89 7d f8          	mov    %rdi,-0x8(%rbp)
ffffffff80105edd:	48 8b 45 f8          	mov    -0x8(%rbp),%rax
ffffffff80105ee1:	48 8b 40 18          	mov    0x18(%rax),%rax
ffffffff80105ee5:	48 ba 00 00 00 00 00 	movabs $0xffff800000000000,%rdx
ffffffff80105eec:	80 ff ff 
ffffffff80105eef:	48 01 d0             	add    %rdx,%rax
ffffffff80105ef2:	48 89 05 9f 74 01 00 	mov    %rax,0x1749f(%rip)        # ffffffff8011d398 <framebuffer>
ffffffff80105ef9:	48 8b 45 f8          	mov    -0x8(%rbp),%rax
ffffffff80105efd:	0f b7 40 24          	movzwl 0x24(%rax),%eax
ffffffff80105f01:	0f b7 c0             	movzwl %ax,%eax
ffffffff80105f04:	89 05 96 74 01 00    	mov    %eax,0x17496(%rip)        # ffffffff8011d3a0 <fb_height>
ffffffff80105f0a:	48 8b 45 f8          	mov    -0x8(%rbp),%rax
ffffffff80105f0e:	0f b7 40 22          	movzwl 0x22(%rax),%eax
ffffffff80105f12:	0f b7 c0             	movzwl %ax,%eax
ffffffff80105f15:	89 05 89 74 01 00    	mov    %eax,0x17489(%rip)        # ffffffff8011d3a4 <fb_width>
ffffffff80105f1b:	48 8b 45 f8          	mov    -0x8(%rbp),%rax
ffffffff80105f1f:	0f b7 40 26          	movzwl 0x26(%rax),%eax
ffffffff80105f23:	0f b7 c0             	movzwl %ax,%eax
ffffffff80105f26:	89 05 80 74 01 00    	mov    %eax,0x17480(%rip)        # ffffffff8011d3ac <fb_bpp>
ffffffff80105f2c:	48 8b 45 f8          	mov    -0x8(%rbp),%rax
ffffffff80105f30:	0f b7 40 20          	movzwl 0x20(%rax),%eax
ffffffff80105f34:	0f b7 c0             	movzwl %ax,%eax
ffffffff80105f37:	89 05 6b 74 01 00    	mov    %eax,0x1746b(%rip)        # ffffffff8011d3a8 <fb_pitch>
ffffffff80105f3d:	8b 15 5d 74 01 00    	mov    0x1745d(%rip),%edx        # ffffffff8011d3a0 <fb_height>
ffffffff80105f43:	8b 05 5f 74 01 00    	mov    0x1745f(%rip),%eax        # ffffffff8011d3a8 <fb_pitch>
ffffffff80105f49:	0f af c2             	imul   %edx,%eax
ffffffff80105f4c:	89 05 66 74 01 00    	mov    %eax,0x17466(%rip)        # ffffffff8011d3b8 <fb_size>
ffffffff80105f52:	8b 15 48 74 01 00    	mov    0x17448(%rip),%edx        # ffffffff8011d3a0 <fb_height>
ffffffff80105f58:	8b 05 46 74 01 00    	mov    0x17446(%rip),%eax        # ffffffff8011d3a4 <fb_width>
ffffffff80105f5e:	0f af c2             	imul   %edx,%eax
ffffffff80105f61:	8b 15 45 74 01 00    	mov    0x17445(%rip),%edx        # ffffffff8011d3ac <fb_bpp>
ffffffff80105f67:	c1 ea 03             	shr    $0x3,%edx
ffffffff80105f6a:	0f af c2             	imul   %edx,%eax
ffffffff80105f6d:	05 ff 0f 00 00       	add    $0xfff,%eax
ffffffff80105f72:	c1 e8 0c             	shr    $0xc,%eax
ffffffff80105f75:	89 c0                	mov    %eax,%eax
ffffffff80105f77:	48 89 c7             	mov    %rax,%rdi
ffffffff80105f7a:	e8 3a 62 00 00       	callq  ffffffff8010c1b9 <pmm_calloc>
ffffffff80105f7f:	48 ba 00 00 00 00 00 	movabs $0xffff800000000000,%rdx
ffffffff80105f86:	80 ff ff 
ffffffff80105f89:	48 01 d0             	add    %rdx,%rax
ffffffff80105f8c:	48 89 05 1d 74 01 00 	mov    %rax,0x1741d(%rip)        # ffffffff8011d3b0 <double_buffer>
ffffffff80105f93:	bf ff ff ff 00       	mov    $0xffffff,%edi
ffffffff80105f98:	e8 d7 01 00 00       	callq  ffffffff80106174 <clear_screen>
ffffffff80105f9d:	90                   	nop
ffffffff80105f9e:	c9                   	leaveq 
ffffffff80105f9f:	c3                   	retq   

ffffffff80105fa0 <set_pixel>:
ffffffff80105fa0:	55                   	push   %rbp
ffffffff80105fa1:	48 89 e5             	mov    %rsp,%rbp
ffffffff80105fa4:	48 83 ec 10          	sub    $0x10,%rsp
ffffffff80105fa8:	89 7d fc             	mov    %edi,-0x4(%rbp)
ffffffff80105fab:	89 75 f8             	mov    %esi,-0x8(%rbp)
ffffffff80105fae:	89 55 f4             	mov    %edx,-0xc(%rbp)
ffffffff80105fb1:	8b 05 f1 73 01 00    	mov    0x173f1(%rip),%eax        # ffffffff8011d3a8 <fb_pitch>
ffffffff80105fb7:	0f af 45 f8          	imul   -0x8(%rbp),%eax
ffffffff80105fbb:	89 c2                	mov    %eax,%edx
ffffffff80105fbd:	8b 05 e9 73 01 00    	mov    0x173e9(%rip),%eax        # ffffffff8011d3ac <fb_bpp>
ffffffff80105fc3:	0f af 45 fc          	imul   -0x4(%rbp),%eax
ffffffff80105fc7:	c1 e8 03             	shr    $0x3,%eax
ffffffff80105fca:	01 d0                	add    %edx,%eax
ffffffff80105fcc:	89 c2                	mov    %eax,%edx
ffffffff80105fce:	48 8b 05 c3 73 01 00 	mov    0x173c3(%rip),%rax        # ffffffff8011d398 <framebuffer>
ffffffff80105fd5:	48 01 d0             	add    %rdx,%rax
ffffffff80105fd8:	48 89 c2             	mov    %rax,%rdx
ffffffff80105fdb:	8b 45 f4             	mov    -0xc(%rbp),%eax
ffffffff80105fde:	89 02                	mov    %eax,(%rdx)
ffffffff80105fe0:	8b 05 c2 73 01 00    	mov    0x173c2(%rip),%eax        # ffffffff8011d3a8 <fb_pitch>
ffffffff80105fe6:	0f af 45 f8          	imul   -0x8(%rbp),%eax
ffffffff80105fea:	89 c2                	mov    %eax,%edx
ffffffff80105fec:	8b 05 ba 73 01 00    	mov    0x173ba(%rip),%eax        # ffffffff8011d3ac <fb_bpp>
ffffffff80105ff2:	0f af 45 fc          	imul   -0x4(%rbp),%eax
ffffffff80105ff6:	c1 e8 03             	shr    $0x3,%eax
ffffffff80105ff9:	01 d0                	add    %edx,%eax
ffffffff80105ffb:	89 c2                	mov    %eax,%edx
ffffffff80105ffd:	48 8b 05 ac 73 01 00 	mov    0x173ac(%rip),%rax        # ffffffff8011d3b0 <double_buffer>
ffffffff80106004:	48 01 d0             	add    %rdx,%rax
ffffffff80106007:	48 89 c2             	mov    %rax,%rdx
ffffffff8010600a:	8b 45 f4             	mov    -0xc(%rbp),%eax
ffffffff8010600d:	89 02                	mov    %eax,(%rdx)
ffffffff8010600f:	90                   	nop
ffffffff80106010:	c9                   	leaveq 
ffffffff80106011:	c3                   	retq   

ffffffff80106012 <get_pixel>:
ffffffff80106012:	55                   	push   %rbp
ffffffff80106013:	48 89 e5             	mov    %rsp,%rbp
ffffffff80106016:	48 83 ec 08          	sub    $0x8,%rsp
ffffffff8010601a:	89 7d fc             	mov    %edi,-0x4(%rbp)
ffffffff8010601d:	89 75 f8             	mov    %esi,-0x8(%rbp)
ffffffff80106020:	8b 05 82 73 01 00    	mov    0x17382(%rip),%eax        # ffffffff8011d3a8 <fb_pitch>
ffffffff80106026:	0f af 45 f8          	imul   -0x8(%rbp),%eax
ffffffff8010602a:	89 c2                	mov    %eax,%edx
ffffffff8010602c:	8b 05 7a 73 01 00    	mov    0x1737a(%rip),%eax        # ffffffff8011d3ac <fb_bpp>
ffffffff80106032:	0f af 45 fc          	imul   -0x4(%rbp),%eax
ffffffff80106036:	c1 e8 03             	shr    $0x3,%eax
ffffffff80106039:	01 d0                	add    %edx,%eax
ffffffff8010603b:	89 c2                	mov    %eax,%edx
ffffffff8010603d:	48 8b 05 6c 73 01 00 	mov    0x1736c(%rip),%rax        # ffffffff8011d3b0 <double_buffer>
ffffffff80106044:	48 01 d0             	add    %rdx,%rax
ffffffff80106047:	8b 00                	mov    (%rax),%eax
ffffffff80106049:	c9                   	leaveq 
ffffffff8010604a:	c3                   	retq   

ffffffff8010604b <scroll>:
ffffffff8010604b:	55                   	push   %rbp
ffffffff8010604c:	48 89 e5             	mov    %rsp,%rbp
ffffffff8010604f:	48 83 ec 10          	sub    $0x10,%rsp
ffffffff80106053:	89 7d fc             	mov    %edi,-0x4(%rbp)
ffffffff80106056:	89 75 f8             	mov    %esi,-0x8(%rbp)
ffffffff80106059:	8b 15 59 73 01 00    	mov    0x17359(%rip),%edx        # ffffffff8011d3b8 <fb_size>
ffffffff8010605f:	8b 05 43 73 01 00    	mov    0x17343(%rip),%eax        # ffffffff8011d3a8 <fb_pitch>
ffffffff80106065:	0f af 45 f8          	imul   -0x8(%rbp),%eax
ffffffff80106069:	89 c1                	mov    %eax,%ecx
ffffffff8010606b:	89 d0                	mov    %edx,%eax
ffffffff8010606d:	29 c8                	sub    %ecx,%eax
ffffffff8010606f:	c1 e8 03             	shr    $0x3,%eax
ffffffff80106072:	89 c2                	mov    %eax,%edx
ffffffff80106074:	8b 05 2e 73 01 00    	mov    0x1732e(%rip),%eax        # ffffffff8011d3a8 <fb_pitch>
ffffffff8010607a:	0f af 45 f8          	imul   -0x8(%rbp),%eax
ffffffff8010607e:	89 c1                	mov    %eax,%ecx
ffffffff80106080:	48 8b 05 29 73 01 00 	mov    0x17329(%rip),%rax        # ffffffff8011d3b0 <double_buffer>
ffffffff80106087:	48 01 c8             	add    %rcx,%rax
ffffffff8010608a:	48 89 c1             	mov    %rax,%rcx
ffffffff8010608d:	48 8b 05 04 73 01 00 	mov    0x17304(%rip),%rax        # ffffffff8011d398 <framebuffer>
ffffffff80106094:	48 89 ce             	mov    %rcx,%rsi
ffffffff80106097:	48 89 c7             	mov    %rax,%rdi
ffffffff8010609a:	e8 9b 4c 00 00       	callq  ffffffff8010ad3a <memcpy64>
ffffffff8010609f:	8b 15 13 73 01 00    	mov    0x17313(%rip),%edx        # ffffffff8011d3b8 <fb_size>
ffffffff801060a5:	8b 05 fd 72 01 00    	mov    0x172fd(%rip),%eax        # ffffffff8011d3a8 <fb_pitch>
ffffffff801060ab:	0f af 45 f8          	imul   -0x8(%rbp),%eax
ffffffff801060af:	89 c1                	mov    %eax,%ecx
ffffffff801060b1:	89 d0                	mov    %edx,%eax
ffffffff801060b3:	29 c8                	sub    %ecx,%eax
ffffffff801060b5:	c1 e8 03             	shr    $0x3,%eax
ffffffff801060b8:	89 c2                	mov    %eax,%edx
ffffffff801060ba:	8b 05 e8 72 01 00    	mov    0x172e8(%rip),%eax        # ffffffff8011d3a8 <fb_pitch>
ffffffff801060c0:	0f af 45 f8          	imul   -0x8(%rbp),%eax
ffffffff801060c4:	89 c1                	mov    %eax,%ecx
ffffffff801060c6:	48 8b 05 e3 72 01 00 	mov    0x172e3(%rip),%rax        # ffffffff8011d3b0 <double_buffer>
ffffffff801060cd:	48 01 c8             	add    %rcx,%rax
ffffffff801060d0:	48 89 c1             	mov    %rax,%rcx
ffffffff801060d3:	48 8b 05 d6 72 01 00 	mov    0x172d6(%rip),%rax        # ffffffff8011d3b0 <double_buffer>
ffffffff801060da:	48 89 ce             	mov    %rcx,%rsi
ffffffff801060dd:	48 89 c7             	mov    %rax,%rdi
ffffffff801060e0:	e8 55 4c 00 00       	callq  ffffffff8010ad3a <memcpy64>
ffffffff801060e5:	8b 05 bd 72 01 00    	mov    0x172bd(%rip),%eax        # ffffffff8011d3a8 <fb_pitch>
ffffffff801060eb:	0f af 45 f8          	imul   -0x8(%rbp),%eax
ffffffff801060ef:	c1 e8 02             	shr    $0x2,%eax
ffffffff801060f2:	89 c6                	mov    %eax,%esi
ffffffff801060f4:	8b 05 be 72 01 00    	mov    0x172be(%rip),%eax        # ffffffff8011d3b8 <fb_size>
ffffffff801060fa:	89 c2                	mov    %eax,%edx
ffffffff801060fc:	48 8b 05 95 72 01 00 	mov    0x17295(%rip),%rax        # ffffffff8011d398 <framebuffer>
ffffffff80106103:	48 01 c2             	add    %rax,%rdx
ffffffff80106106:	8b 05 9c 72 01 00    	mov    0x1729c(%rip),%eax        # ffffffff8011d3a8 <fb_pitch>
ffffffff8010610c:	0f af 45 f8          	imul   -0x8(%rbp),%eax
ffffffff80106110:	89 c1                	mov    %eax,%ecx
ffffffff80106112:	48 89 d0             	mov    %rdx,%rax
ffffffff80106115:	48 29 c8             	sub    %rcx,%rax
ffffffff80106118:	48 89 c1             	mov    %rax,%rcx
ffffffff8010611b:	8b 45 fc             	mov    -0x4(%rbp),%eax
ffffffff8010611e:	48 89 f2             	mov    %rsi,%rdx
ffffffff80106121:	89 c6                	mov    %eax,%esi
ffffffff80106123:	48 89 cf             	mov    %rcx,%rdi
ffffffff80106126:	e8 8e 4a 00 00       	callq  ffffffff8010abb9 <memset32>
ffffffff8010612b:	8b 05 77 72 01 00    	mov    0x17277(%rip),%eax        # ffffffff8011d3a8 <fb_pitch>
ffffffff80106131:	0f af 45 f8          	imul   -0x8(%rbp),%eax
ffffffff80106135:	c1 e8 02             	shr    $0x2,%eax
ffffffff80106138:	89 c6                	mov    %eax,%esi
ffffffff8010613a:	8b 05 78 72 01 00    	mov    0x17278(%rip),%eax        # ffffffff8011d3b8 <fb_size>
ffffffff80106140:	89 c2                	mov    %eax,%edx
ffffffff80106142:	48 8b 05 67 72 01 00 	mov    0x17267(%rip),%rax        # ffffffff8011d3b0 <double_buffer>
ffffffff80106149:	48 01 c2             	add    %rax,%rdx
ffffffff8010614c:	8b 05 56 72 01 00    	mov    0x17256(%rip),%eax        # ffffffff8011d3a8 <fb_pitch>
ffffffff80106152:	0f af 45 f8          	imul   -0x8(%rbp),%eax
ffffffff80106156:	89 c1                	mov    %eax,%ecx
ffffffff80106158:	48 89 d0             	mov    %rdx,%rax
ffffffff8010615b:	48 29 c8             	sub    %rcx,%rax
ffffffff8010615e:	48 89 c1             	mov    %rax,%rcx
ffffffff80106161:	8b 45 fc             	mov    -0x4(%rbp),%eax
ffffffff80106164:	48 89 f2             	mov    %rsi,%rdx
ffffffff80106167:	89 c6                	mov    %eax,%esi
ffffffff80106169:	48 89 cf             	mov    %rcx,%rdi
ffffffff8010616c:	e8 48 4a 00 00       	callq  ffffffff8010abb9 <memset32>
ffffffff80106171:	90                   	nop
ffffffff80106172:	c9                   	leaveq 
ffffffff80106173:	c3                   	retq   

ffffffff80106174 <clear_screen>:
ffffffff80106174:	55                   	push   %rbp
ffffffff80106175:	48 89 e5             	mov    %rsp,%rbp
ffffffff80106178:	48 83 ec 10          	sub    $0x10,%rsp
ffffffff8010617c:	89 7d fc             	mov    %edi,-0x4(%rbp)
ffffffff8010617f:	8b 05 33 72 01 00    	mov    0x17233(%rip),%eax        # ffffffff8011d3b8 <fb_size>
ffffffff80106185:	c1 e8 02             	shr    $0x2,%eax
ffffffff80106188:	89 c2                	mov    %eax,%edx
ffffffff8010618a:	48 8b 05 07 72 01 00 	mov    0x17207(%rip),%rax        # ffffffff8011d398 <framebuffer>
ffffffff80106191:	8b 4d fc             	mov    -0x4(%rbp),%ecx
ffffffff80106194:	89 ce                	mov    %ecx,%esi
ffffffff80106196:	48 89 c7             	mov    %rax,%rdi
ffffffff80106199:	e8 1b 4a 00 00       	callq  ffffffff8010abb9 <memset32>
ffffffff8010619e:	8b 05 14 72 01 00    	mov    0x17214(%rip),%eax        # ffffffff8011d3b8 <fb_size>
ffffffff801061a4:	c1 e8 02             	shr    $0x2,%eax
ffffffff801061a7:	89 c2                	mov    %eax,%edx
ffffffff801061a9:	48 8b 05 00 72 01 00 	mov    0x17200(%rip),%rax        # ffffffff8011d3b0 <double_buffer>
ffffffff801061b0:	8b 4d fc             	mov    -0x4(%rbp),%ecx
ffffffff801061b3:	89 ce                	mov    %ecx,%esi
ffffffff801061b5:	48 89 c7             	mov    %rax,%rdi
ffffffff801061b8:	e8 fc 49 00 00       	callq  ffffffff8010abb9 <memset32>
ffffffff801061bd:	90                   	nop
ffffffff801061be:	c9                   	leaveq 
ffffffff801061bf:	c3                   	retq   

ffffffff801061c0 <render_char>:
ffffffff801061c0:	55                   	push   %rbp
ffffffff801061c1:	48 89 e5             	mov    %rsp,%rbp
ffffffff801061c4:	48 83 ec 20          	sub    $0x20,%rsp
ffffffff801061c8:	89 7d ec             	mov    %edi,-0x14(%rbp)
ffffffff801061cb:	89 75 e8             	mov    %esi,-0x18(%rbp)
ffffffff801061ce:	89 55 e4             	mov    %edx,-0x1c(%rbp)
ffffffff801061d1:	89 c8                	mov    %ecx,%eax
ffffffff801061d3:	88 45 e0             	mov    %al,-0x20(%rbp)
ffffffff801061d6:	0f b6 45 e0          	movzbl -0x20(%rbp),%eax
ffffffff801061da:	0f b6 c0             	movzbl %al,%eax
ffffffff801061dd:	83 e8 20             	sub    $0x20,%eax
ffffffff801061e0:	c1 e0 04             	shl    $0x4,%eax
ffffffff801061e3:	66 89 45 fa          	mov    %ax,-0x6(%rbp)
ffffffff801061e7:	c6 45 ff 00          	movb   $0x0,-0x1(%rbp)
ffffffff801061eb:	c6 45 fe 08          	movb   $0x8,-0x2(%rbp)
ffffffff801061ef:	eb 71                	jmp    ffffffff80106262 <render_char+0xa2>
ffffffff801061f1:	c6 45 fd 00          	movb   $0x0,-0x3(%rbp)
ffffffff801061f5:	eb 51                	jmp    ffffffff80106248 <render_char+0x88>
ffffffff801061f7:	0f b7 55 fa          	movzwl -0x6(%rbp),%edx
ffffffff801061fb:	0f b6 45 fd          	movzbl -0x3(%rbp),%eax
ffffffff801061ff:	01 d0                	add    %edx,%eax
ffffffff80106201:	48 98                	cltq   
ffffffff80106203:	0f b6 80 60 30 11 80 	movzbl -0x7feecfa0(%rax),%eax
ffffffff8010620a:	0f b6 d0             	movzbl %al,%edx
ffffffff8010620d:	0f b6 45 ff          	movzbl -0x1(%rbp),%eax
ffffffff80106211:	89 c1                	mov    %eax,%ecx
ffffffff80106213:	d3 fa                	sar    %cl,%edx
ffffffff80106215:	89 d0                	mov    %edx,%eax
ffffffff80106217:	83 e0 01             	and    $0x1,%eax
ffffffff8010621a:	85 c0                	test   %eax,%eax
ffffffff8010621c:	74 20                	je     ffffffff8010623e <render_char+0x7e>
ffffffff8010621e:	0f b6 55 fd          	movzbl -0x3(%rbp),%edx
ffffffff80106222:	8b 45 e8             	mov    -0x18(%rbp),%eax
ffffffff80106225:	8d 34 02             	lea    (%rdx,%rax,1),%esi
ffffffff80106228:	0f b6 55 fe          	movzbl -0x2(%rbp),%edx
ffffffff8010622c:	8b 45 ec             	mov    -0x14(%rbp),%eax
ffffffff8010622f:	8d 0c 02             	lea    (%rdx,%rax,1),%ecx
ffffffff80106232:	8b 45 e4             	mov    -0x1c(%rbp),%eax
ffffffff80106235:	89 c2                	mov    %eax,%edx
ffffffff80106237:	89 cf                	mov    %ecx,%edi
ffffffff80106239:	e8 62 fd ff ff       	callq  ffffffff80105fa0 <set_pixel>
ffffffff8010623e:	0f b6 45 fd          	movzbl -0x3(%rbp),%eax
ffffffff80106242:	83 c0 01             	add    $0x1,%eax
ffffffff80106245:	88 45 fd             	mov    %al,-0x3(%rbp)
ffffffff80106248:	80 7d fd 0f          	cmpb   $0xf,-0x3(%rbp)
ffffffff8010624c:	76 a9                	jbe    ffffffff801061f7 <render_char+0x37>
ffffffff8010624e:	0f b6 45 ff          	movzbl -0x1(%rbp),%eax
ffffffff80106252:	83 c0 01             	add    $0x1,%eax
ffffffff80106255:	88 45 ff             	mov    %al,-0x1(%rbp)
ffffffff80106258:	0f b6 45 fe          	movzbl -0x2(%rbp),%eax
ffffffff8010625c:	83 e8 01             	sub    $0x1,%eax
ffffffff8010625f:	88 45 fe             	mov    %al,-0x2(%rbp)
ffffffff80106262:	80 7d ff 07          	cmpb   $0x7,-0x1(%rbp)
ffffffff80106266:	77 06                	ja     ffffffff8010626e <render_char+0xae>
ffffffff80106268:	80 7d fe 00          	cmpb   $0x0,-0x2(%rbp)
ffffffff8010626c:	75 83                	jne    ffffffff801061f1 <render_char+0x31>
ffffffff8010626e:	90                   	nop
ffffffff8010626f:	c9                   	leaveq 
ffffffff80106270:	c3                   	retq   

ffffffff80106271 <draw_shape>:
ffffffff80106271:	55                   	push   %rbp
ffffffff80106272:	48 89 e5             	mov    %rsp,%rbp
ffffffff80106275:	53                   	push   %rbx
ffffffff80106276:	48 83 ec 18          	sub    $0x18,%rsp
ffffffff8010627a:	48 89 7d e0          	mov    %rdi,-0x20(%rbp)
ffffffff8010627e:	c7 45 f4 00 00 00 00 	movl   $0x0,-0xc(%rbp)
ffffffff80106285:	e9 e3 00 00 00       	jmpq   ffffffff8010636d <draw_shape+0xfc>
ffffffff8010628a:	c7 45 f0 00 00 00 00 	movl   $0x0,-0x10(%rbp)
ffffffff80106291:	e9 c3 00 00 00       	jmpq   ffffffff80106359 <draw_shape+0xe8>
ffffffff80106296:	48 8b 45 e0          	mov    -0x20(%rbp),%rax
ffffffff8010629a:	48 8b 10             	mov    (%rax),%rdx
ffffffff8010629d:	48 8b 45 e0          	mov    -0x20(%rbp),%rax
ffffffff801062a1:	8b 40 1c             	mov    0x1c(%rax),%eax
ffffffff801062a4:	0f af 45 f4          	imul   -0xc(%rbp),%eax
ffffffff801062a8:	89 c1                	mov    %eax,%ecx
ffffffff801062aa:	8b 45 f0             	mov    -0x10(%rbp),%eax
ffffffff801062ad:	01 c8                	add    %ecx,%eax
ffffffff801062af:	89 c0                	mov    %eax,%eax
ffffffff801062b1:	48 c1 e0 02          	shl    $0x2,%rax
ffffffff801062b5:	48 01 d0             	add    %rdx,%rax
ffffffff801062b8:	8b 00                	mov    (%rax),%eax
ffffffff801062ba:	3d 69 69 69 69       	cmp    $0x69696969,%eax
ffffffff801062bf:	0f 84 8f 00 00 00    	je     ffffffff80106354 <draw_shape+0xe3>
ffffffff801062c5:	48 8b 45 e0          	mov    -0x20(%rbp),%rax
ffffffff801062c9:	8b 50 14             	mov    0x14(%rax),%edx
ffffffff801062cc:	8b 45 f4             	mov    -0xc(%rbp),%eax
ffffffff801062cf:	01 c2                	add    %eax,%edx
ffffffff801062d1:	48 8b 45 e0          	mov    -0x20(%rbp),%rax
ffffffff801062d5:	8b 48 10             	mov    0x10(%rax),%ecx
ffffffff801062d8:	8b 45 f0             	mov    -0x10(%rbp),%eax
ffffffff801062db:	01 c8                	add    %ecx,%eax
ffffffff801062dd:	48 8b 4d e0          	mov    -0x20(%rbp),%rcx
ffffffff801062e1:	48 8b 71 08          	mov    0x8(%rcx),%rsi
ffffffff801062e5:	48 8b 4d e0          	mov    -0x20(%rbp),%rcx
ffffffff801062e9:	8b 49 1c             	mov    0x1c(%rcx),%ecx
ffffffff801062ec:	89 cf                	mov    %ecx,%edi
ffffffff801062ee:	0f af 7d f4          	imul   -0xc(%rbp),%edi
ffffffff801062f2:	8b 4d f0             	mov    -0x10(%rbp),%ecx
ffffffff801062f5:	01 f9                	add    %edi,%ecx
ffffffff801062f7:	89 c9                	mov    %ecx,%ecx
ffffffff801062f9:	48 c1 e1 02          	shl    $0x2,%rcx
ffffffff801062fd:	48 8d 1c 0e          	lea    (%rsi,%rcx,1),%rbx
ffffffff80106301:	89 d6                	mov    %edx,%esi
ffffffff80106303:	89 c7                	mov    %eax,%edi
ffffffff80106305:	e8 08 fd ff ff       	callq  ffffffff80106012 <get_pixel>
ffffffff8010630a:	89 03                	mov    %eax,(%rbx)
ffffffff8010630c:	48 8b 45 e0          	mov    -0x20(%rbp),%rax
ffffffff80106310:	48 8b 10             	mov    (%rax),%rdx
ffffffff80106313:	48 8b 45 e0          	mov    -0x20(%rbp),%rax
ffffffff80106317:	8b 40 1c             	mov    0x1c(%rax),%eax
ffffffff8010631a:	0f af 45 f4          	imul   -0xc(%rbp),%eax
ffffffff8010631e:	89 c1                	mov    %eax,%ecx
ffffffff80106320:	8b 45 f0             	mov    -0x10(%rbp),%eax
ffffffff80106323:	01 c8                	add    %ecx,%eax
ffffffff80106325:	89 c0                	mov    %eax,%eax
ffffffff80106327:	48 c1 e0 02          	shl    $0x2,%rax
ffffffff8010632b:	48 01 d0             	add    %rdx,%rax
ffffffff8010632e:	8b 00                	mov    (%rax),%eax
ffffffff80106330:	48 8b 55 e0          	mov    -0x20(%rbp),%rdx
ffffffff80106334:	8b 4a 14             	mov    0x14(%rdx),%ecx
ffffffff80106337:	8b 55 f4             	mov    -0xc(%rbp),%edx
ffffffff8010633a:	8d 34 11             	lea    (%rcx,%rdx,1),%esi
ffffffff8010633d:	48 8b 55 e0          	mov    -0x20(%rbp),%rdx
ffffffff80106341:	8b 4a 10             	mov    0x10(%rdx),%ecx
ffffffff80106344:	8b 55 f0             	mov    -0x10(%rbp),%edx
ffffffff80106347:	01 d1                	add    %edx,%ecx
ffffffff80106349:	89 c2                	mov    %eax,%edx
ffffffff8010634b:	89 cf                	mov    %ecx,%edi
ffffffff8010634d:	e8 4e fc ff ff       	callq  ffffffff80105fa0 <set_pixel>
ffffffff80106352:	eb 01                	jmp    ffffffff80106355 <draw_shape+0xe4>
ffffffff80106354:	90                   	nop
ffffffff80106355:	83 45 f0 01          	addl   $0x1,-0x10(%rbp)
ffffffff80106359:	48 8b 45 e0          	mov    -0x20(%rbp),%rax
ffffffff8010635d:	8b 40 1c             	mov    0x1c(%rax),%eax
ffffffff80106360:	39 45 f0             	cmp    %eax,-0x10(%rbp)
ffffffff80106363:	0f 82 2d ff ff ff    	jb     ffffffff80106296 <draw_shape+0x25>
ffffffff80106369:	83 45 f4 01          	addl   $0x1,-0xc(%rbp)
ffffffff8010636d:	48 8b 45 e0          	mov    -0x20(%rbp),%rax
ffffffff80106371:	8b 40 18             	mov    0x18(%rax),%eax
ffffffff80106374:	39 45 f4             	cmp    %eax,-0xc(%rbp)
ffffffff80106377:	0f 82 0d ff ff ff    	jb     ffffffff8010628a <draw_shape+0x19>
ffffffff8010637d:	b8 00 00 00 00       	mov    $0x0,%eax
ffffffff80106382:	48 8b 5d f8          	mov    -0x8(%rbp),%rbx
ffffffff80106386:	c9                   	leaveq 
ffffffff80106387:	c3                   	retq   

ffffffff80106388 <redraw_shape>:
ffffffff80106388:	55                   	push   %rbp
ffffffff80106389:	48 89 e5             	mov    %rsp,%rbp
ffffffff8010638c:	48 83 ec 20          	sub    $0x20,%rsp
ffffffff80106390:	48 89 7d e8          	mov    %rdi,-0x18(%rbp)
ffffffff80106394:	89 75 e4             	mov    %esi,-0x1c(%rbp)
ffffffff80106397:	89 55 e0             	mov    %edx,-0x20(%rbp)
ffffffff8010639a:	c7 45 fc 00 00 00 00 	movl   $0x0,-0x4(%rbp)
ffffffff801063a1:	e9 96 00 00 00       	jmpq   ffffffff8010643c <redraw_shape+0xb4>
ffffffff801063a6:	c7 45 f8 00 00 00 00 	movl   $0x0,-0x8(%rbp)
ffffffff801063ad:	eb 79                	jmp    ffffffff80106428 <redraw_shape+0xa0>
ffffffff801063af:	48 8b 45 e8          	mov    -0x18(%rbp),%rax
ffffffff801063b3:	48 8b 10             	mov    (%rax),%rdx
ffffffff801063b6:	48 8b 45 e8          	mov    -0x18(%rbp),%rax
ffffffff801063ba:	8b 40 1c             	mov    0x1c(%rax),%eax
ffffffff801063bd:	0f af 45 f8          	imul   -0x8(%rbp),%eax
ffffffff801063c1:	89 c1                	mov    %eax,%ecx
ffffffff801063c3:	8b 45 fc             	mov    -0x4(%rbp),%eax
ffffffff801063c6:	01 c8                	add    %ecx,%eax
ffffffff801063c8:	89 c0                	mov    %eax,%eax
ffffffff801063ca:	48 c1 e0 02          	shl    $0x2,%rax
ffffffff801063ce:	48 01 d0             	add    %rdx,%rax
ffffffff801063d1:	8b 00                	mov    (%rax),%eax
ffffffff801063d3:	3d 69 69 69 69       	cmp    $0x69696969,%eax
ffffffff801063d8:	74 49                	je     ffffffff80106423 <redraw_shape+0x9b>
ffffffff801063da:	48 8b 45 e8          	mov    -0x18(%rbp),%rax
ffffffff801063de:	48 8b 50 08          	mov    0x8(%rax),%rdx
ffffffff801063e2:	48 8b 45 e8          	mov    -0x18(%rbp),%rax
ffffffff801063e6:	8b 40 1c             	mov    0x1c(%rax),%eax
ffffffff801063e9:	0f af 45 f8          	imul   -0x8(%rbp),%eax
ffffffff801063ed:	89 c1                	mov    %eax,%ecx
ffffffff801063ef:	8b 45 fc             	mov    -0x4(%rbp),%eax
ffffffff801063f2:	01 c8                	add    %ecx,%eax
ffffffff801063f4:	89 c0                	mov    %eax,%eax
ffffffff801063f6:	48 c1 e0 02          	shl    $0x2,%rax
ffffffff801063fa:	48 01 d0             	add    %rdx,%rax
ffffffff801063fd:	8b 00                	mov    (%rax),%eax
ffffffff801063ff:	48 8b 55 e8          	mov    -0x18(%rbp),%rdx
ffffffff80106403:	8b 4a 14             	mov    0x14(%rdx),%ecx
ffffffff80106406:	8b 55 f8             	mov    -0x8(%rbp),%edx
ffffffff80106409:	8d 34 11             	lea    (%rcx,%rdx,1),%esi
ffffffff8010640c:	48 8b 55 e8          	mov    -0x18(%rbp),%rdx
ffffffff80106410:	8b 4a 10             	mov    0x10(%rdx),%ecx
ffffffff80106413:	8b 55 fc             	mov    -0x4(%rbp),%edx
ffffffff80106416:	01 d1                	add    %edx,%ecx
ffffffff80106418:	89 c2                	mov    %eax,%edx
ffffffff8010641a:	89 cf                	mov    %ecx,%edi
ffffffff8010641c:	e8 7f fb ff ff       	callq  ffffffff80105fa0 <set_pixel>
ffffffff80106421:	eb 01                	jmp    ffffffff80106424 <redraw_shape+0x9c>
ffffffff80106423:	90                   	nop
ffffffff80106424:	83 45 f8 01          	addl   $0x1,-0x8(%rbp)
ffffffff80106428:	48 8b 45 e8          	mov    -0x18(%rbp),%rax
ffffffff8010642c:	8b 40 18             	mov    0x18(%rax),%eax
ffffffff8010642f:	39 45 f8             	cmp    %eax,-0x8(%rbp)
ffffffff80106432:	0f 82 77 ff ff ff    	jb     ffffffff801063af <redraw_shape+0x27>
ffffffff80106438:	83 45 fc 01          	addl   $0x1,-0x4(%rbp)
ffffffff8010643c:	48 8b 45 e8          	mov    -0x18(%rbp),%rax
ffffffff80106440:	8b 40 1c             	mov    0x1c(%rax),%eax
ffffffff80106443:	39 45 fc             	cmp    %eax,-0x4(%rbp)
ffffffff80106446:	0f 82 5a ff ff ff    	jb     ffffffff801063a6 <redraw_shape+0x1e>
ffffffff8010644c:	48 8b 45 e8          	mov    -0x18(%rbp),%rax
ffffffff80106450:	8b 55 e4             	mov    -0x1c(%rbp),%edx
ffffffff80106453:	89 50 10             	mov    %edx,0x10(%rax)
ffffffff80106456:	48 8b 45 e8          	mov    -0x18(%rbp),%rax
ffffffff8010645a:	8b 55 e0             	mov    -0x20(%rbp),%edx
ffffffff8010645d:	89 50 14             	mov    %edx,0x14(%rax)
ffffffff80106460:	48 8b 45 e8          	mov    -0x18(%rbp),%rax
ffffffff80106464:	48 89 c7             	mov    %rax,%rdi
ffffffff80106467:	e8 05 fe ff ff       	callq  ffffffff80106271 <draw_shape>
ffffffff8010646c:	c9                   	leaveq 
ffffffff8010646d:	c3                   	retq   

ffffffff8010646e <draw_window>:
ffffffff8010646e:	55                   	push   %rbp
ffffffff8010646f:	48 89 e5             	mov    %rsp,%rbp
ffffffff80106472:	48 83 ec 18          	sub    $0x18,%rsp
ffffffff80106476:	48 89 7d e8          	mov    %rdi,-0x18(%rbp)
ffffffff8010647a:	48 8b 45 e8          	mov    -0x18(%rbp),%rax
ffffffff8010647e:	8b 40 0c             	mov    0xc(%rax),%eax
ffffffff80106481:	89 45 fc             	mov    %eax,-0x4(%rbp)
ffffffff80106484:	eb 3f                	jmp    ffffffff801064c5 <draw_window+0x57>
ffffffff80106486:	48 8b 45 e8          	mov    -0x18(%rbp),%rax
ffffffff8010648a:	8b 40 10             	mov    0x10(%rax),%eax
ffffffff8010648d:	89 45 f8             	mov    %eax,-0x8(%rbp)
ffffffff80106490:	eb 1a                	jmp    ffffffff801064ac <draw_window+0x3e>
ffffffff80106492:	48 8b 45 e8          	mov    -0x18(%rbp),%rax
ffffffff80106496:	8b 50 1c             	mov    0x1c(%rax),%edx
ffffffff80106499:	8b 4d f8             	mov    -0x8(%rbp),%ecx
ffffffff8010649c:	8b 45 fc             	mov    -0x4(%rbp),%eax
ffffffff8010649f:	89 ce                	mov    %ecx,%esi
ffffffff801064a1:	89 c7                	mov    %eax,%edi
ffffffff801064a3:	e8 f8 fa ff ff       	callq  ffffffff80105fa0 <set_pixel>
ffffffff801064a8:	83 45 f8 01          	addl   $0x1,-0x8(%rbp)
ffffffff801064ac:	48 8b 45 e8          	mov    -0x18(%rbp),%rax
ffffffff801064b0:	8b 50 10             	mov    0x10(%rax),%edx
ffffffff801064b3:	48 8b 45 e8          	mov    -0x18(%rbp),%rax
ffffffff801064b7:	8b 40 14             	mov    0x14(%rax),%eax
ffffffff801064ba:	01 d0                	add    %edx,%eax
ffffffff801064bc:	39 45 f8             	cmp    %eax,-0x8(%rbp)
ffffffff801064bf:	72 d1                	jb     ffffffff80106492 <draw_window+0x24>
ffffffff801064c1:	83 45 fc 01          	addl   $0x1,-0x4(%rbp)
ffffffff801064c5:	48 8b 45 e8          	mov    -0x18(%rbp),%rax
ffffffff801064c9:	8b 50 0c             	mov    0xc(%rax),%edx
ffffffff801064cc:	48 8b 45 e8          	mov    -0x18(%rbp),%rax
ffffffff801064d0:	8b 40 18             	mov    0x18(%rax),%eax
ffffffff801064d3:	01 d0                	add    %edx,%eax
ffffffff801064d5:	39 45 fc             	cmp    %eax,-0x4(%rbp)
ffffffff801064d8:	72 ac                	jb     ffffffff80106486 <draw_window+0x18>
ffffffff801064da:	c7 45 f4 00 00 00 00 	movl   $0x0,-0xc(%rbp)
ffffffff801064e1:	eb 1d                	jmp    ffffffff80106500 <draw_window+0x92>
ffffffff801064e3:	48 8b 45 e8          	mov    -0x18(%rbp),%rax
ffffffff801064e7:	48 8b 10             	mov    (%rax),%rdx
ffffffff801064ea:	8b 45 f4             	mov    -0xc(%rbp),%eax
ffffffff801064ed:	48 c1 e0 05          	shl    $0x5,%rax
ffffffff801064f1:	48 01 d0             	add    %rdx,%rax
ffffffff801064f4:	48 89 c7             	mov    %rax,%rdi
ffffffff801064f7:	e8 75 fd ff ff       	callq  ffffffff80106271 <draw_shape>
ffffffff801064fc:	83 45 f4 01          	addl   $0x1,-0xc(%rbp)
ffffffff80106500:	48 8b 45 e8          	mov    -0x18(%rbp),%rax
ffffffff80106504:	8b 40 08             	mov    0x8(%rax),%eax
ffffffff80106507:	39 45 f4             	cmp    %eax,-0xc(%rbp)
ffffffff8010650a:	72 d7                	jb     ffffffff801064e3 <draw_window+0x75>
ffffffff8010650c:	b8 00 00 00 00       	mov    $0x0,%eax
ffffffff80106511:	c9                   	leaveq 
ffffffff80106512:	c3                   	retq   

ffffffff80106513 <redraw_window>:
ffffffff80106513:	55                   	push   %rbp
ffffffff80106514:	48 89 e5             	mov    %rsp,%rbp
ffffffff80106517:	48 83 ec 10          	sub    $0x10,%rsp
ffffffff8010651b:	48 89 7d f8          	mov    %rdi,-0x8(%rbp)
ffffffff8010651f:	89 75 f4             	mov    %esi,-0xc(%rbp)
ffffffff80106522:	89 55 f0             	mov    %edx,-0x10(%rbp)
ffffffff80106525:	90                   	nop
ffffffff80106526:	c9                   	leaveq 
ffffffff80106527:	c3                   	retq   

ffffffff80106528 <ksleep>:
ffffffff80106528:	55                   	push   %rbp
ffffffff80106529:	48 89 e5             	mov    %rsp,%rbp
ffffffff8010652c:	48 83 ec 18          	sub    $0x18,%rsp
ffffffff80106530:	48 89 7d e8          	mov    %rdi,-0x18(%rbp)
ffffffff80106534:	48 8b 05 8d 6e 01 00 	mov    0x16e8d(%rip),%rax        # ffffffff8011d3c8 <hpet>
ffffffff8010653b:	48 8b 88 f0 00 00 00 	mov    0xf0(%rax),%rcx
ffffffff80106542:	48 8b 45 e8          	mov    -0x18(%rbp),%rax
ffffffff80106546:	48 ba 00 10 a5 d4 e8 	movabs $0xe8d4a51000,%rdx
ffffffff8010654d:	00 00 00 
ffffffff80106550:	48 0f af c2          	imul   %rdx,%rax
ffffffff80106554:	48 8b 15 6d 6e 01 00 	mov    0x16e6d(%rip),%rdx        # ffffffff8011d3c8 <hpet>
ffffffff8010655b:	48 8b 12             	mov    (%rdx),%rdx
ffffffff8010655e:	48 c1 ea 20          	shr    $0x20,%rdx
ffffffff80106562:	89 d6                	mov    %edx,%esi
ffffffff80106564:	ba 00 00 00 00       	mov    $0x0,%edx
ffffffff80106569:	48 f7 f6             	div    %rsi
ffffffff8010656c:	48 01 c8             	add    %rcx,%rax
ffffffff8010656f:	48 89 45 f8          	mov    %rax,-0x8(%rbp)
ffffffff80106573:	90                   	nop
ffffffff80106574:	48 8b 05 4d 6e 01 00 	mov    0x16e4d(%rip),%rax        # ffffffff8011d3c8 <hpet>
ffffffff8010657b:	48 8b 80 f0 00 00 00 	mov    0xf0(%rax),%rax
ffffffff80106582:	48 39 45 f8          	cmp    %rax,-0x8(%rbp)
ffffffff80106586:	77 ec                	ja     ffffffff80106574 <ksleep+0x4c>
ffffffff80106588:	90                   	nop
ffffffff80106589:	90                   	nop
ffffffff8010658a:	c9                   	leaveq 
ffffffff8010658b:	c3                   	retq   

ffffffff8010658c <init_hpet>:
ffffffff8010658c:	55                   	push   %rbp
ffffffff8010658d:	48 89 e5             	mov    %rsp,%rbp
ffffffff80106590:	48 c7 c7 40 02 11 80 	mov    $0xffffffff80110240,%rdi
ffffffff80106597:	e8 e0 65 00 00       	callq  ffffffff8010cb7c <find_SDT>
ffffffff8010659c:	48 89 05 1d 6e 01 00 	mov    %rax,0x16e1d(%rip)        # ffffffff8011d3c0 <hpet_table>
ffffffff801065a3:	48 8b 05 16 6e 01 00 	mov    0x16e16(%rip),%rax        # ffffffff8011d3c0 <hpet_table>
ffffffff801065aa:	48 8b 40 2c          	mov    0x2c(%rax),%rax
ffffffff801065ae:	48 ba 10 00 00 00 00 	movabs $0xffff800000000010,%rdx
ffffffff801065b5:	80 ff ff 
ffffffff801065b8:	48 01 d0             	add    %rdx,%rax
ffffffff801065bb:	48 c7 00 01 00 00 00 	movq   $0x1,(%rax)
ffffffff801065c2:	48 8b 05 f7 6d 01 00 	mov    0x16df7(%rip),%rax        # ffffffff8011d3c0 <hpet_table>
ffffffff801065c9:	48 8b 40 2c          	mov    0x2c(%rax),%rax
ffffffff801065cd:	48 ba 00 00 00 00 00 	movabs $0xffff800000000000,%rdx
ffffffff801065d4:	80 ff ff 
ffffffff801065d7:	48 01 d0             	add    %rdx,%rax
ffffffff801065da:	48 89 05 e7 6d 01 00 	mov    %rax,0x16de7(%rip)        # ffffffff8011d3c8 <hpet>
ffffffff801065e1:	90                   	nop
ffffffff801065e2:	5d                   	pop    %rbp
ffffffff801065e3:	c3                   	retq   

ffffffff801065e4 <isr_handler_main>:
ffffffff801065e4:	55                   	push   %rbp
ffffffff801065e5:	48 89 e5             	mov    %rsp,%rbp
ffffffff801065e8:	48 83 ec 20          	sub    $0x20,%rsp
ffffffff801065ec:	48 89 7d e8          	mov    %rdi,-0x18(%rbp)
ffffffff801065f0:	48 8b 45 e8          	mov    -0x18(%rbp),%rax
ffffffff801065f4:	48 8b 40 78          	mov    0x78(%rax),%rax
ffffffff801065f8:	48 83 f8 1f          	cmp    $0x1f,%rax
ffffffff801065fc:	0f 87 0d 03 00 00    	ja     ffffffff8010690f <isr_handler_main+0x32b>
ffffffff80106602:	48 c7 c7 e0 e3 11 80 	mov    $0xffffffff8011e3e0,%rdi
ffffffff80106609:	e8 92 78 00 00       	callq  ffffffff8010dea0 <spin_lock>
ffffffff8010660e:	0f 20 d0             	mov    %cr2,%rax
ffffffff80106611:	48 89 45 f8          	mov    %rax,-0x8(%rbp)
ffffffff80106615:	48 8b 45 e8          	mov    -0x18(%rbp),%rax
ffffffff80106619:	48 8b 90 80 00 00 00 	mov    0x80(%rax),%rdx
ffffffff80106620:	48 8b 45 e8          	mov    -0x18(%rbp),%rax
ffffffff80106624:	48 8b 40 78          	mov    0x78(%rax),%rax
ffffffff80106628:	48 8b 04 c5 60 36 11 	mov    -0x7feec9a0(,%rax,8),%rax
ffffffff8010662f:	80 
ffffffff80106630:	48 89 c6             	mov    %rax,%rsi
ffffffff80106633:	48 c7 c7 d0 03 11 80 	mov    $0xffffffff801103d0,%rdi
ffffffff8010663a:	b8 00 00 00 00       	mov    $0x0,%eax
ffffffff8010663f:	e8 5e 4a 00 00       	callq  ffffffff8010b0a2 <kvprintf>
ffffffff80106644:	48 8b 45 e8          	mov    -0x18(%rbp),%rax
ffffffff80106648:	48 8b 70 58          	mov    0x58(%rax),%rsi
ffffffff8010664c:	48 8b 45 e8          	mov    -0x18(%rbp),%rax
ffffffff80106650:	48 8b 48 60          	mov    0x60(%rax),%rcx
ffffffff80106654:	48 8b 45 e8          	mov    -0x18(%rbp),%rax
ffffffff80106658:	48 8b 50 68          	mov    0x68(%rax),%rdx
ffffffff8010665c:	48 8b 45 e8          	mov    -0x18(%rbp),%rax
ffffffff80106660:	48 8b 40 70          	mov    0x70(%rax),%rax
ffffffff80106664:	49 89 f0             	mov    %rsi,%r8
ffffffff80106667:	48 89 c6             	mov    %rax,%rsi
ffffffff8010666a:	48 c7 c7 f8 03 11 80 	mov    $0xffffffff801103f8,%rdi
ffffffff80106671:	b8 00 00 00 00       	mov    $0x0,%eax
ffffffff80106676:	e8 27 4a 00 00       	callq  ffffffff8010b0a2 <kvprintf>
ffffffff8010667b:	48 8b 45 e8          	mov    -0x18(%rbp),%rax
ffffffff8010667f:	48 8b b0 a0 00 00 00 	mov    0xa0(%rax),%rsi
ffffffff80106686:	48 8b 45 e8          	mov    -0x18(%rbp),%rax
ffffffff8010668a:	48 8b 48 50          	mov    0x50(%rax),%rcx
ffffffff8010668e:	48 8b 45 e8          	mov    -0x18(%rbp),%rax
ffffffff80106692:	48 8b 50 48          	mov    0x48(%rax),%rdx
ffffffff80106696:	48 8b 45 e8          	mov    -0x18(%rbp),%rax
ffffffff8010669a:	48 8b 40 40          	mov    0x40(%rax),%rax
ffffffff8010669e:	49 89 f0             	mov    %rsi,%r8
ffffffff801066a1:	48 89 c6             	mov    %rax,%rsi
ffffffff801066a4:	48 c7 c7 20 04 11 80 	mov    $0xffffffff80110420,%rdi
ffffffff801066ab:	b8 00 00 00 00       	mov    $0x0,%eax
ffffffff801066b0:	e8 ed 49 00 00       	callq  ffffffff8010b0a2 <kvprintf>
ffffffff801066b5:	48 8b 45 e8          	mov    -0x18(%rbp),%rax
ffffffff801066b9:	48 8b 70 20          	mov    0x20(%rax),%rsi
ffffffff801066bd:	48 8b 45 e8          	mov    -0x18(%rbp),%rax
ffffffff801066c1:	48 8b 48 28          	mov    0x28(%rax),%rcx
ffffffff801066c5:	48 8b 45 e8          	mov    -0x18(%rbp),%rax
ffffffff801066c9:	48 8b 50 30          	mov    0x30(%rax),%rdx
ffffffff801066cd:	48 8b 45 e8          	mov    -0x18(%rbp),%rax
ffffffff801066d1:	48 8b 40 38          	mov    0x38(%rax),%rax
ffffffff801066d5:	49 89 f0             	mov    %rsi,%r8
ffffffff801066d8:	48 89 c6             	mov    %rax,%rsi
ffffffff801066db:	48 c7 c7 48 04 11 80 	mov    $0xffffffff80110448,%rdi
ffffffff801066e2:	b8 00 00 00 00       	mov    $0x0,%eax
ffffffff801066e7:	e8 b6 49 00 00       	callq  ffffffff8010b0a2 <kvprintf>
ffffffff801066ec:	48 8b 45 e8          	mov    -0x18(%rbp),%rax
ffffffff801066f0:	48 8b 30             	mov    (%rax),%rsi
ffffffff801066f3:	48 8b 45 e8          	mov    -0x18(%rbp),%rax
ffffffff801066f7:	48 8b 48 08          	mov    0x8(%rax),%rcx
ffffffff801066fb:	48 8b 45 e8          	mov    -0x18(%rbp),%rax
ffffffff801066ff:	48 8b 50 10          	mov    0x10(%rax),%rdx
ffffffff80106703:	48 8b 45 e8          	mov    -0x18(%rbp),%rax
ffffffff80106707:	48 8b 40 18          	mov    0x18(%rax),%rax
ffffffff8010670b:	49 89 f0             	mov    %rsi,%r8
ffffffff8010670e:	48 89 c6             	mov    %rax,%rsi
ffffffff80106711:	48 c7 c7 70 04 11 80 	mov    $0xffffffff80110470,%rdi
ffffffff80106718:	b8 00 00 00 00       	mov    $0x0,%eax
ffffffff8010671d:	e8 80 49 00 00       	callq  ffffffff8010b0a2 <kvprintf>
ffffffff80106722:	48 8b 45 e8          	mov    -0x18(%rbp),%rax
ffffffff80106726:	48 8b b0 88 00 00 00 	mov    0x88(%rax),%rsi
ffffffff8010672d:	48 8b 45 e8          	mov    -0x18(%rbp),%rax
ffffffff80106731:	48 8b 90 a8 00 00 00 	mov    0xa8(%rax),%rdx
ffffffff80106738:	48 8b 45 e8          	mov    -0x18(%rbp),%rax
ffffffff8010673c:	48 8b 80 90 00 00 00 	mov    0x90(%rax),%rax
ffffffff80106743:	48 8b 4d f8          	mov    -0x8(%rbp),%rcx
ffffffff80106747:	49 89 f0             	mov    %rsi,%r8
ffffffff8010674a:	48 89 c6             	mov    %rax,%rsi
ffffffff8010674d:	48 c7 c7 98 04 11 80 	mov    $0xffffffff80110498,%rdi
ffffffff80106754:	b8 00 00 00 00       	mov    $0x0,%eax
ffffffff80106759:	e8 44 49 00 00       	callq  ffffffff8010b0a2 <kvprintf>
ffffffff8010675e:	48 8b 45 e8          	mov    -0x18(%rbp),%rax
ffffffff80106762:	48 8b 90 80 00 00 00 	mov    0x80(%rax),%rdx
ffffffff80106769:	48 8b 45 e8          	mov    -0x18(%rbp),%rax
ffffffff8010676d:	48 8b 40 78          	mov    0x78(%rax),%rax
ffffffff80106771:	48 8b 04 c5 60 36 11 	mov    -0x7feec9a0(,%rax,8),%rax
ffffffff80106778:	80 
ffffffff80106779:	48 89 d1             	mov    %rdx,%rcx
ffffffff8010677c:	48 89 c2             	mov    %rax,%rdx
ffffffff8010677f:	48 c7 c6 c0 04 11 80 	mov    $0xffffffff801104c0,%rsi
ffffffff80106786:	48 c7 c7 e3 04 11 80 	mov    $0xffffffff801104e3,%rdi
ffffffff8010678d:	b8 00 00 00 00       	mov    $0x0,%eax
ffffffff80106792:	e8 16 47 00 00       	callq  ffffffff8010aead <kprintf>
ffffffff80106797:	48 8b 45 e8          	mov    -0x18(%rbp),%rax
ffffffff8010679b:	48 8b 70 58          	mov    0x58(%rax),%rsi
ffffffff8010679f:	48 8b 45 e8          	mov    -0x18(%rbp),%rax
ffffffff801067a3:	48 8b 48 60          	mov    0x60(%rax),%rcx
ffffffff801067a7:	48 8b 45 e8          	mov    -0x18(%rbp),%rax
ffffffff801067ab:	48 8b 50 68          	mov    0x68(%rax),%rdx
ffffffff801067af:	48 8b 45 e8          	mov    -0x18(%rbp),%rax
ffffffff801067b3:	48 8b 40 70          	mov    0x70(%rax),%rax
ffffffff801067b7:	49 89 f1             	mov    %rsi,%r9
ffffffff801067ba:	49 89 c8             	mov    %rcx,%r8
ffffffff801067bd:	48 89 d1             	mov    %rdx,%rcx
ffffffff801067c0:	48 89 c2             	mov    %rax,%rdx
ffffffff801067c3:	48 c7 c6 f0 04 11 80 	mov    $0xffffffff801104f0,%rsi
ffffffff801067ca:	48 c7 c7 e3 04 11 80 	mov    $0xffffffff801104e3,%rdi
ffffffff801067d1:	b8 00 00 00 00       	mov    $0x0,%eax
ffffffff801067d6:	e8 d2 46 00 00       	callq  ffffffff8010aead <kprintf>
ffffffff801067db:	48 8b 45 e8          	mov    -0x18(%rbp),%rax
ffffffff801067df:	48 8b b0 a0 00 00 00 	mov    0xa0(%rax),%rsi
ffffffff801067e6:	48 8b 45 e8          	mov    -0x18(%rbp),%rax
ffffffff801067ea:	48 8b 48 50          	mov    0x50(%rax),%rcx
ffffffff801067ee:	48 8b 45 e8          	mov    -0x18(%rbp),%rax
ffffffff801067f2:	48 8b 50 48          	mov    0x48(%rax),%rdx
ffffffff801067f6:	48 8b 45 e8          	mov    -0x18(%rbp),%rax
ffffffff801067fa:	48 8b 40 40          	mov    0x40(%rax),%rax
ffffffff801067fe:	49 89 f1             	mov    %rsi,%r9
ffffffff80106801:	49 89 c8             	mov    %rcx,%r8
ffffffff80106804:	48 89 d1             	mov    %rdx,%rcx
ffffffff80106807:	48 89 c2             	mov    %rax,%rdx
ffffffff8010680a:	48 c7 c6 18 05 11 80 	mov    $0xffffffff80110518,%rsi
ffffffff80106811:	48 c7 c7 e3 04 11 80 	mov    $0xffffffff801104e3,%rdi
ffffffff80106818:	b8 00 00 00 00       	mov    $0x0,%eax
ffffffff8010681d:	e8 8b 46 00 00       	callq  ffffffff8010aead <kprintf>
ffffffff80106822:	48 8b 45 e8          	mov    -0x18(%rbp),%rax
ffffffff80106826:	48 8b 70 20          	mov    0x20(%rax),%rsi
ffffffff8010682a:	48 8b 45 e8          	mov    -0x18(%rbp),%rax
ffffffff8010682e:	48 8b 48 28          	mov    0x28(%rax),%rcx
ffffffff80106832:	48 8b 45 e8          	mov    -0x18(%rbp),%rax
ffffffff80106836:	48 8b 50 30          	mov    0x30(%rax),%rdx
ffffffff8010683a:	48 8b 45 e8          	mov    -0x18(%rbp),%rax
ffffffff8010683e:	48 8b 40 38          	mov    0x38(%rax),%rax
ffffffff80106842:	49 89 f1             	mov    %rsi,%r9
ffffffff80106845:	49 89 c8             	mov    %rcx,%r8
ffffffff80106848:	48 89 d1             	mov    %rdx,%rcx
ffffffff8010684b:	48 89 c2             	mov    %rax,%rdx
ffffffff8010684e:	48 c7 c6 40 05 11 80 	mov    $0xffffffff80110540,%rsi
ffffffff80106855:	48 c7 c7 e3 04 11 80 	mov    $0xffffffff801104e3,%rdi
ffffffff8010685c:	b8 00 00 00 00       	mov    $0x0,%eax
ffffffff80106861:	e8 47 46 00 00       	callq  ffffffff8010aead <kprintf>
ffffffff80106866:	48 8b 45 e8          	mov    -0x18(%rbp),%rax
ffffffff8010686a:	48 8b 30             	mov    (%rax),%rsi
ffffffff8010686d:	48 8b 45 e8          	mov    -0x18(%rbp),%rax
ffffffff80106871:	48 8b 48 08          	mov    0x8(%rax),%rcx
ffffffff80106875:	48 8b 45 e8          	mov    -0x18(%rbp),%rax
ffffffff80106879:	48 8b 50 10          	mov    0x10(%rax),%rdx
ffffffff8010687d:	48 8b 45 e8          	mov    -0x18(%rbp),%rax
ffffffff80106881:	48 8b 40 18          	mov    0x18(%rax),%rax
ffffffff80106885:	49 89 f1             	mov    %rsi,%r9
ffffffff80106888:	49 89 c8             	mov    %rcx,%r8
ffffffff8010688b:	48 89 d1             	mov    %rdx,%rcx
ffffffff8010688e:	48 89 c2             	mov    %rax,%rdx
ffffffff80106891:	48 c7 c6 68 05 11 80 	mov    $0xffffffff80110568,%rsi
ffffffff80106898:	48 c7 c7 e3 04 11 80 	mov    $0xffffffff801104e3,%rdi
ffffffff8010689f:	b8 00 00 00 00       	mov    $0x0,%eax
ffffffff801068a4:	e8 04 46 00 00       	callq  ffffffff8010aead <kprintf>
ffffffff801068a9:	48 8b 45 e8          	mov    -0x18(%rbp),%rax
ffffffff801068ad:	48 8b b0 88 00 00 00 	mov    0x88(%rax),%rsi
ffffffff801068b4:	48 8b 45 e8          	mov    -0x18(%rbp),%rax
ffffffff801068b8:	48 8b 90 a8 00 00 00 	mov    0xa8(%rax),%rdx
ffffffff801068bf:	48 8b 45 e8          	mov    -0x18(%rbp),%rax
ffffffff801068c3:	48 8b 80 90 00 00 00 	mov    0x90(%rax),%rax
ffffffff801068ca:	48 8b 4d f8          	mov    -0x8(%rbp),%rcx
ffffffff801068ce:	49 89 f1             	mov    %rsi,%r9
ffffffff801068d1:	49 89 c8             	mov    %rcx,%r8
ffffffff801068d4:	48 89 d1             	mov    %rdx,%rcx
ffffffff801068d7:	48 89 c2             	mov    %rax,%rdx
ffffffff801068da:	48 c7 c6 90 05 11 80 	mov    $0xffffffff80110590,%rsi
ffffffff801068e1:	48 c7 c7 e3 04 11 80 	mov    $0xffffffff801104e3,%rdi
ffffffff801068e8:	b8 00 00 00 00       	mov    $0x0,%eax
ffffffff801068ed:	e8 bb 45 00 00       	callq  ffffffff8010aead <kprintf>
ffffffff801068f2:	48 8b 45 e8          	mov    -0x18(%rbp),%rax
ffffffff801068f6:	48 8b 40 50          	mov    0x50(%rax),%rax
ffffffff801068fa:	48 89 c7             	mov    %rax,%rdi
ffffffff801068fd:	e8 fc 4d 00 00       	callq  ffffffff8010b6fe <stacktrace>
ffffffff80106902:	48 c7 c7 e0 e3 11 80 	mov    $0xffffffff8011e3e0,%rdi
ffffffff80106909:	e8 e7 75 00 00       	callq  ffffffff8010def5 <spin_release>
ffffffff8010690e:	f4                   	hlt    
ffffffff8010690f:	48 8b 45 e8          	mov    -0x18(%rbp),%rax
ffffffff80106913:	48 8b 40 78          	mov    0x78(%rax),%rax
ffffffff80106917:	48 8b 04 c5 80 37 11 	mov    -0x7feec880(,%rax,8),%rax
ffffffff8010691e:	80 
ffffffff8010691f:	48 85 c0             	test   %rax,%rax
ffffffff80106922:	74 19                	je     ffffffff8010693d <isr_handler_main+0x359>
ffffffff80106924:	48 8b 45 e8          	mov    -0x18(%rbp),%rax
ffffffff80106928:	48 8b 40 78          	mov    0x78(%rax),%rax
ffffffff8010692c:	48 8b 14 c5 80 37 11 	mov    -0x7feec880(,%rax,8),%rdx
ffffffff80106933:	80 
ffffffff80106934:	48 8b 45 e8          	mov    -0x18(%rbp),%rax
ffffffff80106938:	48 89 c7             	mov    %rax,%rdi
ffffffff8010693b:	ff d2                	callq  *%rdx
ffffffff8010693d:	be 00 00 00 00       	mov    $0x0,%esi
ffffffff80106942:	bf b0 00 00 00       	mov    $0xb0,%edi
ffffffff80106947:	e8 bc b2 ff ff       	callq  ffffffff80101c08 <lapic_write>
ffffffff8010694c:	90                   	nop
ffffffff8010694d:	c9                   	leaveq 
ffffffff8010694e:	c3                   	retq   

ffffffff8010694f <set_idt_entry>:
ffffffff8010694f:	55                   	push   %rbp
ffffffff80106950:	48 89 e5             	mov    %rsp,%rbp
ffffffff80106953:	48 83 ec 18          	sub    $0x18,%rsp
ffffffff80106957:	89 f8                	mov    %edi,%eax
ffffffff80106959:	48 89 4d e8          	mov    %rcx,-0x18(%rbp)
ffffffff8010695d:	44 89 c1             	mov    %r8d,%ecx
ffffffff80106960:	66 89 45 fc          	mov    %ax,-0x4(%rbp)
ffffffff80106964:	89 f0                	mov    %esi,%eax
ffffffff80106966:	88 45 f8             	mov    %al,-0x8(%rbp)
ffffffff80106969:	89 d0                	mov    %edx,%eax
ffffffff8010696b:	88 45 f4             	mov    %al,-0xc(%rbp)
ffffffff8010696e:	89 c8                	mov    %ecx,%eax
ffffffff80106970:	88 45 f0             	mov    %al,-0x10(%rbp)
ffffffff80106973:	0f b6 45 f0          	movzbl -0x10(%rbp),%eax
ffffffff80106977:	48 8b 55 e8          	mov    -0x18(%rbp),%rdx
ffffffff8010697b:	89 d1                	mov    %edx,%ecx
ffffffff8010697d:	48 8b 55 e8          	mov    -0x18(%rbp),%rdx
ffffffff80106981:	48 c1 ea 10          	shr    $0x10,%rdx
ffffffff80106985:	89 d7                	mov    %edx,%edi
ffffffff80106987:	48 8b 55 e8          	mov    -0x18(%rbp),%rdx
ffffffff8010698b:	48 c1 ea 20          	shr    $0x20,%rdx
ffffffff8010698f:	89 d6                	mov    %edx,%esi
ffffffff80106991:	48 63 d0             	movslq %eax,%rdx
ffffffff80106994:	48 c1 e2 04          	shl    $0x4,%rdx
ffffffff80106998:	48 81 c2 e0 d3 11 80 	add    $0xffffffff8011d3e0,%rdx
ffffffff8010699f:	66 89 0a             	mov    %cx,(%rdx)
ffffffff801069a2:	48 63 d0             	movslq %eax,%rdx
ffffffff801069a5:	48 c1 e2 04          	shl    $0x4,%rdx
ffffffff801069a9:	48 8d 8a e2 d3 11 80 	lea    -0x7fee2c1e(%rdx),%rcx
ffffffff801069b0:	0f b7 55 fc          	movzwl -0x4(%rbp),%edx
ffffffff801069b4:	66 89 11             	mov    %dx,(%rcx)
ffffffff801069b7:	48 63 d0             	movslq %eax,%rdx
ffffffff801069ba:	48 c1 e2 04          	shl    $0x4,%rdx
ffffffff801069be:	48 8d 8a e4 d3 11 80 	lea    -0x7fee2c1c(%rdx),%rcx
ffffffff801069c5:	0f b6 55 f8          	movzbl -0x8(%rbp),%edx
ffffffff801069c9:	88 11                	mov    %dl,(%rcx)
ffffffff801069cb:	48 63 d0             	movslq %eax,%rdx
ffffffff801069ce:	48 c1 e2 04          	shl    $0x4,%rdx
ffffffff801069d2:	48 8d 8a e5 d3 11 80 	lea    -0x7fee2c1b(%rdx),%rcx
ffffffff801069d9:	0f b6 55 f4          	movzbl -0xc(%rbp),%edx
ffffffff801069dd:	88 11                	mov    %dl,(%rcx)
ffffffff801069df:	48 63 d0             	movslq %eax,%rdx
ffffffff801069e2:	48 c1 e2 04          	shl    $0x4,%rdx
ffffffff801069e6:	48 81 c2 e6 d3 11 80 	add    $0xffffffff8011d3e6,%rdx
ffffffff801069ed:	66 89 3a             	mov    %di,(%rdx)
ffffffff801069f0:	48 63 d0             	movslq %eax,%rdx
ffffffff801069f3:	48 c1 e2 04          	shl    $0x4,%rdx
ffffffff801069f7:	48 81 c2 e8 d3 11 80 	add    $0xffffffff8011d3e8,%rdx
ffffffff801069fe:	89 32                	mov    %esi,(%rdx)
ffffffff80106a00:	48 98                	cltq   
ffffffff80106a02:	48 c1 e0 04          	shl    $0x4,%rax
ffffffff80106a06:	48 05 ec d3 11 80    	add    $0xffffffff8011d3ec,%rax
ffffffff80106a0c:	c7 00 00 00 00 00    	movl   $0x0,(%rax)
ffffffff80106a12:	90                   	nop
ffffffff80106a13:	c9                   	leaveq 
ffffffff80106a14:	c3                   	retq   

ffffffff80106a15 <idt_init>:
ffffffff80106a15:	55                   	push   %rbp
ffffffff80106a16:	48 89 e5             	mov    %rsp,%rbp
ffffffff80106a19:	48 83 ec 10          	sub    $0x10,%rsp
ffffffff80106a1d:	48 c7 c0 ad 9a 10 80 	mov    $0xffffffff80109aad,%rax
ffffffff80106a24:	41 b8 00 00 00 00    	mov    $0x0,%r8d
ffffffff80106a2a:	48 89 c1             	mov    %rax,%rcx
ffffffff80106a2d:	ba 8e 00 00 00       	mov    $0x8e,%edx
ffffffff80106a32:	be 00 00 00 00       	mov    $0x0,%esi
ffffffff80106a37:	bf 08 00 00 00       	mov    $0x8,%edi
ffffffff80106a3c:	e8 0e ff ff ff       	callq  ffffffff8010694f <set_idt_entry>
ffffffff80106a41:	48 c7 c0 b3 9a 10 80 	mov    $0xffffffff80109ab3,%rax
ffffffff80106a48:	41 b8 01 00 00 00    	mov    $0x1,%r8d
ffffffff80106a4e:	48 89 c1             	mov    %rax,%rcx
ffffffff80106a51:	ba 8e 00 00 00       	mov    $0x8e,%edx
ffffffff80106a56:	be 00 00 00 00       	mov    $0x0,%esi
ffffffff80106a5b:	bf 08 00 00 00       	mov    $0x8,%edi
ffffffff80106a60:	e8 ea fe ff ff       	callq  ffffffff8010694f <set_idt_entry>
ffffffff80106a65:	48 c7 c0 b9 9a 10 80 	mov    $0xffffffff80109ab9,%rax
ffffffff80106a6c:	41 b8 02 00 00 00    	mov    $0x2,%r8d
ffffffff80106a72:	48 89 c1             	mov    %rax,%rcx
ffffffff80106a75:	ba 8e 00 00 00       	mov    $0x8e,%edx
ffffffff80106a7a:	be 00 00 00 00       	mov    $0x0,%esi
ffffffff80106a7f:	bf 08 00 00 00       	mov    $0x8,%edi
ffffffff80106a84:	e8 c6 fe ff ff       	callq  ffffffff8010694f <set_idt_entry>
ffffffff80106a89:	48 c7 c0 bf 9a 10 80 	mov    $0xffffffff80109abf,%rax
ffffffff80106a90:	41 b8 03 00 00 00    	mov    $0x3,%r8d
ffffffff80106a96:	48 89 c1             	mov    %rax,%rcx
ffffffff80106a99:	ba 8e 00 00 00       	mov    $0x8e,%edx
ffffffff80106a9e:	be 00 00 00 00       	mov    $0x0,%esi
ffffffff80106aa3:	bf 08 00 00 00       	mov    $0x8,%edi
ffffffff80106aa8:	e8 a2 fe ff ff       	callq  ffffffff8010694f <set_idt_entry>
ffffffff80106aad:	48 c7 c0 c5 9a 10 80 	mov    $0xffffffff80109ac5,%rax
ffffffff80106ab4:	41 b8 04 00 00 00    	mov    $0x4,%r8d
ffffffff80106aba:	48 89 c1             	mov    %rax,%rcx
ffffffff80106abd:	ba 8e 00 00 00       	mov    $0x8e,%edx
ffffffff80106ac2:	be 00 00 00 00       	mov    $0x0,%esi
ffffffff80106ac7:	bf 08 00 00 00       	mov    $0x8,%edi
ffffffff80106acc:	e8 7e fe ff ff       	callq  ffffffff8010694f <set_idt_entry>
ffffffff80106ad1:	48 c7 c0 cb 9a 10 80 	mov    $0xffffffff80109acb,%rax
ffffffff80106ad8:	41 b8 05 00 00 00    	mov    $0x5,%r8d
ffffffff80106ade:	48 89 c1             	mov    %rax,%rcx
ffffffff80106ae1:	ba 8e 00 00 00       	mov    $0x8e,%edx
ffffffff80106ae6:	be 00 00 00 00       	mov    $0x0,%esi
ffffffff80106aeb:	bf 08 00 00 00       	mov    $0x8,%edi
ffffffff80106af0:	e8 5a fe ff ff       	callq  ffffffff8010694f <set_idt_entry>
ffffffff80106af5:	48 c7 c0 d1 9a 10 80 	mov    $0xffffffff80109ad1,%rax
ffffffff80106afc:	41 b8 06 00 00 00    	mov    $0x6,%r8d
ffffffff80106b02:	48 89 c1             	mov    %rax,%rcx
ffffffff80106b05:	ba 8e 00 00 00       	mov    $0x8e,%edx
ffffffff80106b0a:	be 00 00 00 00       	mov    $0x0,%esi
ffffffff80106b0f:	bf 08 00 00 00       	mov    $0x8,%edi
ffffffff80106b14:	e8 36 fe ff ff       	callq  ffffffff8010694f <set_idt_entry>
ffffffff80106b19:	48 c7 c0 d7 9a 10 80 	mov    $0xffffffff80109ad7,%rax
ffffffff80106b20:	41 b8 07 00 00 00    	mov    $0x7,%r8d
ffffffff80106b26:	48 89 c1             	mov    %rax,%rcx
ffffffff80106b29:	ba 8e 00 00 00       	mov    $0x8e,%edx
ffffffff80106b2e:	be 00 00 00 00       	mov    $0x0,%esi
ffffffff80106b33:	bf 08 00 00 00       	mov    $0x8,%edi
ffffffff80106b38:	e8 12 fe ff ff       	callq  ffffffff8010694f <set_idt_entry>
ffffffff80106b3d:	48 c7 c0 dd 9a 10 80 	mov    $0xffffffff80109add,%rax
ffffffff80106b44:	41 b8 08 00 00 00    	mov    $0x8,%r8d
ffffffff80106b4a:	48 89 c1             	mov    %rax,%rcx
ffffffff80106b4d:	ba 8e 00 00 00       	mov    $0x8e,%edx
ffffffff80106b52:	be 00 00 00 00       	mov    $0x0,%esi
ffffffff80106b57:	bf 08 00 00 00       	mov    $0x8,%edi
ffffffff80106b5c:	e8 ee fd ff ff       	callq  ffffffff8010694f <set_idt_entry>
ffffffff80106b61:	48 c7 c0 e1 9a 10 80 	mov    $0xffffffff80109ae1,%rax
ffffffff80106b68:	41 b8 09 00 00 00    	mov    $0x9,%r8d
ffffffff80106b6e:	48 89 c1             	mov    %rax,%rcx
ffffffff80106b71:	ba 8e 00 00 00       	mov    $0x8e,%edx
ffffffff80106b76:	be 00 00 00 00       	mov    $0x0,%esi
ffffffff80106b7b:	bf 08 00 00 00       	mov    $0x8,%edi
ffffffff80106b80:	e8 ca fd ff ff       	callq  ffffffff8010694f <set_idt_entry>
ffffffff80106b85:	48 c7 c0 e7 9a 10 80 	mov    $0xffffffff80109ae7,%rax
ffffffff80106b8c:	41 b8 0a 00 00 00    	mov    $0xa,%r8d
ffffffff80106b92:	48 89 c1             	mov    %rax,%rcx
ffffffff80106b95:	ba 8e 00 00 00       	mov    $0x8e,%edx
ffffffff80106b9a:	be 00 00 00 00       	mov    $0x0,%esi
ffffffff80106b9f:	bf 08 00 00 00       	mov    $0x8,%edi
ffffffff80106ba4:	e8 a6 fd ff ff       	callq  ffffffff8010694f <set_idt_entry>
ffffffff80106ba9:	48 c7 c0 eb 9a 10 80 	mov    $0xffffffff80109aeb,%rax
ffffffff80106bb0:	41 b8 0b 00 00 00    	mov    $0xb,%r8d
ffffffff80106bb6:	48 89 c1             	mov    %rax,%rcx
ffffffff80106bb9:	ba 8e 00 00 00       	mov    $0x8e,%edx
ffffffff80106bbe:	be 00 00 00 00       	mov    $0x0,%esi
ffffffff80106bc3:	bf 08 00 00 00       	mov    $0x8,%edi
ffffffff80106bc8:	e8 82 fd ff ff       	callq  ffffffff8010694f <set_idt_entry>
ffffffff80106bcd:	48 c7 c0 ef 9a 10 80 	mov    $0xffffffff80109aef,%rax
ffffffff80106bd4:	41 b8 0c 00 00 00    	mov    $0xc,%r8d
ffffffff80106bda:	48 89 c1             	mov    %rax,%rcx
ffffffff80106bdd:	ba 8e 00 00 00       	mov    $0x8e,%edx
ffffffff80106be2:	be 00 00 00 00       	mov    $0x0,%esi
ffffffff80106be7:	bf 08 00 00 00       	mov    $0x8,%edi
ffffffff80106bec:	e8 5e fd ff ff       	callq  ffffffff8010694f <set_idt_entry>
ffffffff80106bf1:	48 c7 c0 f6 9a 10 80 	mov    $0xffffffff80109af6,%rax
ffffffff80106bf8:	41 b8 0d 00 00 00    	mov    $0xd,%r8d
ffffffff80106bfe:	48 89 c1             	mov    %rax,%rcx
ffffffff80106c01:	ba 8e 00 00 00       	mov    $0x8e,%edx
ffffffff80106c06:	be 00 00 00 00       	mov    $0x0,%esi
ffffffff80106c0b:	bf 08 00 00 00       	mov    $0x8,%edi
ffffffff80106c10:	e8 3a fd ff ff       	callq  ffffffff8010694f <set_idt_entry>
ffffffff80106c15:	48 c7 c0 fd 9a 10 80 	mov    $0xffffffff80109afd,%rax
ffffffff80106c1c:	41 b8 0e 00 00 00    	mov    $0xe,%r8d
ffffffff80106c22:	48 89 c1             	mov    %rax,%rcx
ffffffff80106c25:	ba 8e 00 00 00       	mov    $0x8e,%edx
ffffffff80106c2a:	be 00 00 00 00       	mov    $0x0,%esi
ffffffff80106c2f:	bf 08 00 00 00       	mov    $0x8,%edi
ffffffff80106c34:	e8 16 fd ff ff       	callq  ffffffff8010694f <set_idt_entry>
ffffffff80106c39:	48 c7 c0 04 9b 10 80 	mov    $0xffffffff80109b04,%rax
ffffffff80106c40:	41 b8 0f 00 00 00    	mov    $0xf,%r8d
ffffffff80106c46:	48 89 c1             	mov    %rax,%rcx
ffffffff80106c49:	ba 8e 00 00 00       	mov    $0x8e,%edx
ffffffff80106c4e:	be 00 00 00 00       	mov    $0x0,%esi
ffffffff80106c53:	bf 08 00 00 00       	mov    $0x8,%edi
ffffffff80106c58:	e8 f2 fc ff ff       	callq  ffffffff8010694f <set_idt_entry>
ffffffff80106c5d:	48 c7 c0 0d 9b 10 80 	mov    $0xffffffff80109b0d,%rax
ffffffff80106c64:	41 b8 10 00 00 00    	mov    $0x10,%r8d
ffffffff80106c6a:	48 89 c1             	mov    %rax,%rcx
ffffffff80106c6d:	ba 8e 00 00 00       	mov    $0x8e,%edx
ffffffff80106c72:	be 00 00 00 00       	mov    $0x0,%esi
ffffffff80106c77:	bf 08 00 00 00       	mov    $0x8,%edi
ffffffff80106c7c:	e8 ce fc ff ff       	callq  ffffffff8010694f <set_idt_entry>
ffffffff80106c81:	48 c7 c0 16 9b 10 80 	mov    $0xffffffff80109b16,%rax
ffffffff80106c88:	41 b8 11 00 00 00    	mov    $0x11,%r8d
ffffffff80106c8e:	48 89 c1             	mov    %rax,%rcx
ffffffff80106c91:	ba 8e 00 00 00       	mov    $0x8e,%edx
ffffffff80106c96:	be 00 00 00 00       	mov    $0x0,%esi
ffffffff80106c9b:	bf 08 00 00 00       	mov    $0x8,%edi
ffffffff80106ca0:	e8 aa fc ff ff       	callq  ffffffff8010694f <set_idt_entry>
ffffffff80106ca5:	48 c7 c0 1f 9b 10 80 	mov    $0xffffffff80109b1f,%rax
ffffffff80106cac:	41 b8 12 00 00 00    	mov    $0x12,%r8d
ffffffff80106cb2:	48 89 c1             	mov    %rax,%rcx
ffffffff80106cb5:	ba 8e 00 00 00       	mov    $0x8e,%edx
ffffffff80106cba:	be 00 00 00 00       	mov    $0x0,%esi
ffffffff80106cbf:	bf 08 00 00 00       	mov    $0x8,%edi
ffffffff80106cc4:	e8 86 fc ff ff       	callq  ffffffff8010694f <set_idt_entry>
ffffffff80106cc9:	48 c7 c0 28 9b 10 80 	mov    $0xffffffff80109b28,%rax
ffffffff80106cd0:	41 b8 13 00 00 00    	mov    $0x13,%r8d
ffffffff80106cd6:	48 89 c1             	mov    %rax,%rcx
ffffffff80106cd9:	ba 8e 00 00 00       	mov    $0x8e,%edx
ffffffff80106cde:	be 00 00 00 00       	mov    $0x0,%esi
ffffffff80106ce3:	bf 08 00 00 00       	mov    $0x8,%edi
ffffffff80106ce8:	e8 62 fc ff ff       	callq  ffffffff8010694f <set_idt_entry>
ffffffff80106ced:	48 c7 c0 31 9b 10 80 	mov    $0xffffffff80109b31,%rax
ffffffff80106cf4:	41 b8 14 00 00 00    	mov    $0x14,%r8d
ffffffff80106cfa:	48 89 c1             	mov    %rax,%rcx
ffffffff80106cfd:	ba 8e 00 00 00       	mov    $0x8e,%edx
ffffffff80106d02:	be 00 00 00 00       	mov    $0x0,%esi
ffffffff80106d07:	bf 08 00 00 00       	mov    $0x8,%edi
ffffffff80106d0c:	e8 3e fc ff ff       	callq  ffffffff8010694f <set_idt_entry>
ffffffff80106d11:	48 c7 c0 3a 9b 10 80 	mov    $0xffffffff80109b3a,%rax
ffffffff80106d18:	41 b8 15 00 00 00    	mov    $0x15,%r8d
ffffffff80106d1e:	48 89 c1             	mov    %rax,%rcx
ffffffff80106d21:	ba 8e 00 00 00       	mov    $0x8e,%edx
ffffffff80106d26:	be 00 00 00 00       	mov    $0x0,%esi
ffffffff80106d2b:	bf 08 00 00 00       	mov    $0x8,%edi
ffffffff80106d30:	e8 1a fc ff ff       	callq  ffffffff8010694f <set_idt_entry>
ffffffff80106d35:	48 c7 c0 43 9b 10 80 	mov    $0xffffffff80109b43,%rax
ffffffff80106d3c:	41 b8 16 00 00 00    	mov    $0x16,%r8d
ffffffff80106d42:	48 89 c1             	mov    %rax,%rcx
ffffffff80106d45:	ba 8e 00 00 00       	mov    $0x8e,%edx
ffffffff80106d4a:	be 00 00 00 00       	mov    $0x0,%esi
ffffffff80106d4f:	bf 08 00 00 00       	mov    $0x8,%edi
ffffffff80106d54:	e8 f6 fb ff ff       	callq  ffffffff8010694f <set_idt_entry>
ffffffff80106d59:	48 c7 c0 4c 9b 10 80 	mov    $0xffffffff80109b4c,%rax
ffffffff80106d60:	41 b8 17 00 00 00    	mov    $0x17,%r8d
ffffffff80106d66:	48 89 c1             	mov    %rax,%rcx
ffffffff80106d69:	ba 8e 00 00 00       	mov    $0x8e,%edx
ffffffff80106d6e:	be 00 00 00 00       	mov    $0x0,%esi
ffffffff80106d73:	bf 08 00 00 00       	mov    $0x8,%edi
ffffffff80106d78:	e8 d2 fb ff ff       	callq  ffffffff8010694f <set_idt_entry>
ffffffff80106d7d:	48 c7 c0 55 9b 10 80 	mov    $0xffffffff80109b55,%rax
ffffffff80106d84:	41 b8 18 00 00 00    	mov    $0x18,%r8d
ffffffff80106d8a:	48 89 c1             	mov    %rax,%rcx
ffffffff80106d8d:	ba 8e 00 00 00       	mov    $0x8e,%edx
ffffffff80106d92:	be 00 00 00 00       	mov    $0x0,%esi
ffffffff80106d97:	bf 08 00 00 00       	mov    $0x8,%edi
ffffffff80106d9c:	e8 ae fb ff ff       	callq  ffffffff8010694f <set_idt_entry>
ffffffff80106da1:	48 c7 c0 5e 9b 10 80 	mov    $0xffffffff80109b5e,%rax
ffffffff80106da8:	41 b8 19 00 00 00    	mov    $0x19,%r8d
ffffffff80106dae:	48 89 c1             	mov    %rax,%rcx
ffffffff80106db1:	ba 8e 00 00 00       	mov    $0x8e,%edx
ffffffff80106db6:	be 00 00 00 00       	mov    $0x0,%esi
ffffffff80106dbb:	bf 08 00 00 00       	mov    $0x8,%edi
ffffffff80106dc0:	e8 8a fb ff ff       	callq  ffffffff8010694f <set_idt_entry>
ffffffff80106dc5:	48 c7 c0 67 9b 10 80 	mov    $0xffffffff80109b67,%rax
ffffffff80106dcc:	41 b8 1a 00 00 00    	mov    $0x1a,%r8d
ffffffff80106dd2:	48 89 c1             	mov    %rax,%rcx
ffffffff80106dd5:	ba 8e 00 00 00       	mov    $0x8e,%edx
ffffffff80106dda:	be 00 00 00 00       	mov    $0x0,%esi
ffffffff80106ddf:	bf 08 00 00 00       	mov    $0x8,%edi
ffffffff80106de4:	e8 66 fb ff ff       	callq  ffffffff8010694f <set_idt_entry>
ffffffff80106de9:	48 c7 c0 70 9b 10 80 	mov    $0xffffffff80109b70,%rax
ffffffff80106df0:	41 b8 1b 00 00 00    	mov    $0x1b,%r8d
ffffffff80106df6:	48 89 c1             	mov    %rax,%rcx
ffffffff80106df9:	ba 8e 00 00 00       	mov    $0x8e,%edx
ffffffff80106dfe:	be 00 00 00 00       	mov    $0x0,%esi
ffffffff80106e03:	bf 08 00 00 00       	mov    $0x8,%edi
ffffffff80106e08:	e8 42 fb ff ff       	callq  ffffffff8010694f <set_idt_entry>
ffffffff80106e0d:	48 c7 c0 79 9b 10 80 	mov    $0xffffffff80109b79,%rax
ffffffff80106e14:	41 b8 1c 00 00 00    	mov    $0x1c,%r8d
ffffffff80106e1a:	48 89 c1             	mov    %rax,%rcx
ffffffff80106e1d:	ba 8e 00 00 00       	mov    $0x8e,%edx
ffffffff80106e22:	be 00 00 00 00       	mov    $0x0,%esi
ffffffff80106e27:	bf 08 00 00 00       	mov    $0x8,%edi
ffffffff80106e2c:	e8 1e fb ff ff       	callq  ffffffff8010694f <set_idt_entry>
ffffffff80106e31:	48 c7 c0 82 9b 10 80 	mov    $0xffffffff80109b82,%rax
ffffffff80106e38:	41 b8 1d 00 00 00    	mov    $0x1d,%r8d
ffffffff80106e3e:	48 89 c1             	mov    %rax,%rcx
ffffffff80106e41:	ba 8e 00 00 00       	mov    $0x8e,%edx
ffffffff80106e46:	be 00 00 00 00       	mov    $0x0,%esi
ffffffff80106e4b:	bf 08 00 00 00       	mov    $0x8,%edi
ffffffff80106e50:	e8 fa fa ff ff       	callq  ffffffff8010694f <set_idt_entry>
ffffffff80106e55:	48 c7 c0 8b 9b 10 80 	mov    $0xffffffff80109b8b,%rax
ffffffff80106e5c:	41 b8 1e 00 00 00    	mov    $0x1e,%r8d
ffffffff80106e62:	48 89 c1             	mov    %rax,%rcx
ffffffff80106e65:	ba 8e 00 00 00       	mov    $0x8e,%edx
ffffffff80106e6a:	be 00 00 00 00       	mov    $0x0,%esi
ffffffff80106e6f:	bf 08 00 00 00       	mov    $0x8,%edi
ffffffff80106e74:	e8 d6 fa ff ff       	callq  ffffffff8010694f <set_idt_entry>
ffffffff80106e79:	48 c7 c0 94 9b 10 80 	mov    $0xffffffff80109b94,%rax
ffffffff80106e80:	41 b8 1f 00 00 00    	mov    $0x1f,%r8d
ffffffff80106e86:	48 89 c1             	mov    %rax,%rcx
ffffffff80106e89:	ba 8e 00 00 00       	mov    $0x8e,%edx
ffffffff80106e8e:	be 00 00 00 00       	mov    $0x0,%esi
ffffffff80106e93:	bf 08 00 00 00       	mov    $0x8,%edi
ffffffff80106e98:	e8 b2 fa ff ff       	callq  ffffffff8010694f <set_idt_entry>
ffffffff80106e9d:	48 c7 c0 9d 9b 10 80 	mov    $0xffffffff80109b9d,%rax
ffffffff80106ea4:	41 b8 20 00 00 00    	mov    $0x20,%r8d
ffffffff80106eaa:	48 89 c1             	mov    %rax,%rcx
ffffffff80106ead:	ba 8e 00 00 00       	mov    $0x8e,%edx
ffffffff80106eb2:	be 00 00 00 00       	mov    $0x0,%esi
ffffffff80106eb7:	bf 08 00 00 00       	mov    $0x8,%edi
ffffffff80106ebc:	e8 8e fa ff ff       	callq  ffffffff8010694f <set_idt_entry>
ffffffff80106ec1:	48 c7 c0 a6 9b 10 80 	mov    $0xffffffff80109ba6,%rax
ffffffff80106ec8:	41 b8 21 00 00 00    	mov    $0x21,%r8d
ffffffff80106ece:	48 89 c1             	mov    %rax,%rcx
ffffffff80106ed1:	ba 8e 00 00 00       	mov    $0x8e,%edx
ffffffff80106ed6:	be 00 00 00 00       	mov    $0x0,%esi
ffffffff80106edb:	bf 08 00 00 00       	mov    $0x8,%edi
ffffffff80106ee0:	e8 6a fa ff ff       	callq  ffffffff8010694f <set_idt_entry>
ffffffff80106ee5:	48 c7 c0 af 9b 10 80 	mov    $0xffffffff80109baf,%rax
ffffffff80106eec:	41 b8 22 00 00 00    	mov    $0x22,%r8d
ffffffff80106ef2:	48 89 c1             	mov    %rax,%rcx
ffffffff80106ef5:	ba 8e 00 00 00       	mov    $0x8e,%edx
ffffffff80106efa:	be 00 00 00 00       	mov    $0x0,%esi
ffffffff80106eff:	bf 08 00 00 00       	mov    $0x8,%edi
ffffffff80106f04:	e8 46 fa ff ff       	callq  ffffffff8010694f <set_idt_entry>
ffffffff80106f09:	48 c7 c0 b8 9b 10 80 	mov    $0xffffffff80109bb8,%rax
ffffffff80106f10:	41 b8 23 00 00 00    	mov    $0x23,%r8d
ffffffff80106f16:	48 89 c1             	mov    %rax,%rcx
ffffffff80106f19:	ba 8e 00 00 00       	mov    $0x8e,%edx
ffffffff80106f1e:	be 00 00 00 00       	mov    $0x0,%esi
ffffffff80106f23:	bf 08 00 00 00       	mov    $0x8,%edi
ffffffff80106f28:	e8 22 fa ff ff       	callq  ffffffff8010694f <set_idt_entry>
ffffffff80106f2d:	48 c7 c0 c1 9b 10 80 	mov    $0xffffffff80109bc1,%rax
ffffffff80106f34:	41 b8 24 00 00 00    	mov    $0x24,%r8d
ffffffff80106f3a:	48 89 c1             	mov    %rax,%rcx
ffffffff80106f3d:	ba 8e 00 00 00       	mov    $0x8e,%edx
ffffffff80106f42:	be 00 00 00 00       	mov    $0x0,%esi
ffffffff80106f47:	bf 08 00 00 00       	mov    $0x8,%edi
ffffffff80106f4c:	e8 fe f9 ff ff       	callq  ffffffff8010694f <set_idt_entry>
ffffffff80106f51:	48 c7 c0 ca 9b 10 80 	mov    $0xffffffff80109bca,%rax
ffffffff80106f58:	41 b8 25 00 00 00    	mov    $0x25,%r8d
ffffffff80106f5e:	48 89 c1             	mov    %rax,%rcx
ffffffff80106f61:	ba 8e 00 00 00       	mov    $0x8e,%edx
ffffffff80106f66:	be 00 00 00 00       	mov    $0x0,%esi
ffffffff80106f6b:	bf 08 00 00 00       	mov    $0x8,%edi
ffffffff80106f70:	e8 da f9 ff ff       	callq  ffffffff8010694f <set_idt_entry>
ffffffff80106f75:	48 c7 c0 d3 9b 10 80 	mov    $0xffffffff80109bd3,%rax
ffffffff80106f7c:	41 b8 26 00 00 00    	mov    $0x26,%r8d
ffffffff80106f82:	48 89 c1             	mov    %rax,%rcx
ffffffff80106f85:	ba 8e 00 00 00       	mov    $0x8e,%edx
ffffffff80106f8a:	be 00 00 00 00       	mov    $0x0,%esi
ffffffff80106f8f:	bf 08 00 00 00       	mov    $0x8,%edi
ffffffff80106f94:	e8 b6 f9 ff ff       	callq  ffffffff8010694f <set_idt_entry>
ffffffff80106f99:	48 c7 c0 dc 9b 10 80 	mov    $0xffffffff80109bdc,%rax
ffffffff80106fa0:	41 b8 27 00 00 00    	mov    $0x27,%r8d
ffffffff80106fa6:	48 89 c1             	mov    %rax,%rcx
ffffffff80106fa9:	ba 8e 00 00 00       	mov    $0x8e,%edx
ffffffff80106fae:	be 00 00 00 00       	mov    $0x0,%esi
ffffffff80106fb3:	bf 08 00 00 00       	mov    $0x8,%edi
ffffffff80106fb8:	e8 92 f9 ff ff       	callq  ffffffff8010694f <set_idt_entry>
ffffffff80106fbd:	48 c7 c0 e5 9b 10 80 	mov    $0xffffffff80109be5,%rax
ffffffff80106fc4:	41 b8 28 00 00 00    	mov    $0x28,%r8d
ffffffff80106fca:	48 89 c1             	mov    %rax,%rcx
ffffffff80106fcd:	ba 8e 00 00 00       	mov    $0x8e,%edx
ffffffff80106fd2:	be 00 00 00 00       	mov    $0x0,%esi
ffffffff80106fd7:	bf 08 00 00 00       	mov    $0x8,%edi
ffffffff80106fdc:	e8 6e f9 ff ff       	callq  ffffffff8010694f <set_idt_entry>
ffffffff80106fe1:	48 c7 c0 ee 9b 10 80 	mov    $0xffffffff80109bee,%rax
ffffffff80106fe8:	41 b8 29 00 00 00    	mov    $0x29,%r8d
ffffffff80106fee:	48 89 c1             	mov    %rax,%rcx
ffffffff80106ff1:	ba 8e 00 00 00       	mov    $0x8e,%edx
ffffffff80106ff6:	be 00 00 00 00       	mov    $0x0,%esi
ffffffff80106ffb:	bf 08 00 00 00       	mov    $0x8,%edi
ffffffff80107000:	e8 4a f9 ff ff       	callq  ffffffff8010694f <set_idt_entry>
ffffffff80107005:	48 c7 c0 f7 9b 10 80 	mov    $0xffffffff80109bf7,%rax
ffffffff8010700c:	41 b8 2a 00 00 00    	mov    $0x2a,%r8d
ffffffff80107012:	48 89 c1             	mov    %rax,%rcx
ffffffff80107015:	ba 8e 00 00 00       	mov    $0x8e,%edx
ffffffff8010701a:	be 00 00 00 00       	mov    $0x0,%esi
ffffffff8010701f:	bf 08 00 00 00       	mov    $0x8,%edi
ffffffff80107024:	e8 26 f9 ff ff       	callq  ffffffff8010694f <set_idt_entry>
ffffffff80107029:	48 c7 c0 00 9c 10 80 	mov    $0xffffffff80109c00,%rax
ffffffff80107030:	41 b8 2b 00 00 00    	mov    $0x2b,%r8d
ffffffff80107036:	48 89 c1             	mov    %rax,%rcx
ffffffff80107039:	ba 8e 00 00 00       	mov    $0x8e,%edx
ffffffff8010703e:	be 00 00 00 00       	mov    $0x0,%esi
ffffffff80107043:	bf 08 00 00 00       	mov    $0x8,%edi
ffffffff80107048:	e8 02 f9 ff ff       	callq  ffffffff8010694f <set_idt_entry>
ffffffff8010704d:	48 c7 c0 09 9c 10 80 	mov    $0xffffffff80109c09,%rax
ffffffff80107054:	41 b8 2c 00 00 00    	mov    $0x2c,%r8d
ffffffff8010705a:	48 89 c1             	mov    %rax,%rcx
ffffffff8010705d:	ba 8e 00 00 00       	mov    $0x8e,%edx
ffffffff80107062:	be 00 00 00 00       	mov    $0x0,%esi
ffffffff80107067:	bf 08 00 00 00       	mov    $0x8,%edi
ffffffff8010706c:	e8 de f8 ff ff       	callq  ffffffff8010694f <set_idt_entry>
ffffffff80107071:	48 c7 c0 12 9c 10 80 	mov    $0xffffffff80109c12,%rax
ffffffff80107078:	41 b8 2d 00 00 00    	mov    $0x2d,%r8d
ffffffff8010707e:	48 89 c1             	mov    %rax,%rcx
ffffffff80107081:	ba 8e 00 00 00       	mov    $0x8e,%edx
ffffffff80107086:	be 00 00 00 00       	mov    $0x0,%esi
ffffffff8010708b:	bf 08 00 00 00       	mov    $0x8,%edi
ffffffff80107090:	e8 ba f8 ff ff       	callq  ffffffff8010694f <set_idt_entry>
ffffffff80107095:	48 c7 c0 1b 9c 10 80 	mov    $0xffffffff80109c1b,%rax
ffffffff8010709c:	41 b8 2e 00 00 00    	mov    $0x2e,%r8d
ffffffff801070a2:	48 89 c1             	mov    %rax,%rcx
ffffffff801070a5:	ba 8e 00 00 00       	mov    $0x8e,%edx
ffffffff801070aa:	be 00 00 00 00       	mov    $0x0,%esi
ffffffff801070af:	bf 08 00 00 00       	mov    $0x8,%edi
ffffffff801070b4:	e8 96 f8 ff ff       	callq  ffffffff8010694f <set_idt_entry>
ffffffff801070b9:	48 c7 c0 24 9c 10 80 	mov    $0xffffffff80109c24,%rax
ffffffff801070c0:	41 b8 2f 00 00 00    	mov    $0x2f,%r8d
ffffffff801070c6:	48 89 c1             	mov    %rax,%rcx
ffffffff801070c9:	ba 8e 00 00 00       	mov    $0x8e,%edx
ffffffff801070ce:	be 00 00 00 00       	mov    $0x0,%esi
ffffffff801070d3:	bf 08 00 00 00       	mov    $0x8,%edi
ffffffff801070d8:	e8 72 f8 ff ff       	callq  ffffffff8010694f <set_idt_entry>
ffffffff801070dd:	48 c7 c0 2d 9c 10 80 	mov    $0xffffffff80109c2d,%rax
ffffffff801070e4:	41 b8 30 00 00 00    	mov    $0x30,%r8d
ffffffff801070ea:	48 89 c1             	mov    %rax,%rcx
ffffffff801070ed:	ba 8e 00 00 00       	mov    $0x8e,%edx
ffffffff801070f2:	be 00 00 00 00       	mov    $0x0,%esi
ffffffff801070f7:	bf 08 00 00 00       	mov    $0x8,%edi
ffffffff801070fc:	e8 4e f8 ff ff       	callq  ffffffff8010694f <set_idt_entry>
ffffffff80107101:	48 c7 c0 36 9c 10 80 	mov    $0xffffffff80109c36,%rax
ffffffff80107108:	41 b8 31 00 00 00    	mov    $0x31,%r8d
ffffffff8010710e:	48 89 c1             	mov    %rax,%rcx
ffffffff80107111:	ba 8e 00 00 00       	mov    $0x8e,%edx
ffffffff80107116:	be 00 00 00 00       	mov    $0x0,%esi
ffffffff8010711b:	bf 08 00 00 00       	mov    $0x8,%edi
ffffffff80107120:	e8 2a f8 ff ff       	callq  ffffffff8010694f <set_idt_entry>
ffffffff80107125:	48 c7 c0 3f 9c 10 80 	mov    $0xffffffff80109c3f,%rax
ffffffff8010712c:	41 b8 32 00 00 00    	mov    $0x32,%r8d
ffffffff80107132:	48 89 c1             	mov    %rax,%rcx
ffffffff80107135:	ba 8e 00 00 00       	mov    $0x8e,%edx
ffffffff8010713a:	be 00 00 00 00       	mov    $0x0,%esi
ffffffff8010713f:	bf 08 00 00 00       	mov    $0x8,%edi
ffffffff80107144:	e8 06 f8 ff ff       	callq  ffffffff8010694f <set_idt_entry>
ffffffff80107149:	48 c7 c0 48 9c 10 80 	mov    $0xffffffff80109c48,%rax
ffffffff80107150:	41 b8 33 00 00 00    	mov    $0x33,%r8d
ffffffff80107156:	48 89 c1             	mov    %rax,%rcx
ffffffff80107159:	ba 8e 00 00 00       	mov    $0x8e,%edx
ffffffff8010715e:	be 00 00 00 00       	mov    $0x0,%esi
ffffffff80107163:	bf 08 00 00 00       	mov    $0x8,%edi
ffffffff80107168:	e8 e2 f7 ff ff       	callq  ffffffff8010694f <set_idt_entry>
ffffffff8010716d:	48 c7 c0 51 9c 10 80 	mov    $0xffffffff80109c51,%rax
ffffffff80107174:	41 b8 34 00 00 00    	mov    $0x34,%r8d
ffffffff8010717a:	48 89 c1             	mov    %rax,%rcx
ffffffff8010717d:	ba 8e 00 00 00       	mov    $0x8e,%edx
ffffffff80107182:	be 00 00 00 00       	mov    $0x0,%esi
ffffffff80107187:	bf 08 00 00 00       	mov    $0x8,%edi
ffffffff8010718c:	e8 be f7 ff ff       	callq  ffffffff8010694f <set_idt_entry>
ffffffff80107191:	48 c7 c0 5a 9c 10 80 	mov    $0xffffffff80109c5a,%rax
ffffffff80107198:	41 b8 35 00 00 00    	mov    $0x35,%r8d
ffffffff8010719e:	48 89 c1             	mov    %rax,%rcx
ffffffff801071a1:	ba 8e 00 00 00       	mov    $0x8e,%edx
ffffffff801071a6:	be 00 00 00 00       	mov    $0x0,%esi
ffffffff801071ab:	bf 08 00 00 00       	mov    $0x8,%edi
ffffffff801071b0:	e8 9a f7 ff ff       	callq  ffffffff8010694f <set_idt_entry>
ffffffff801071b5:	48 c7 c0 63 9c 10 80 	mov    $0xffffffff80109c63,%rax
ffffffff801071bc:	41 b8 36 00 00 00    	mov    $0x36,%r8d
ffffffff801071c2:	48 89 c1             	mov    %rax,%rcx
ffffffff801071c5:	ba 8e 00 00 00       	mov    $0x8e,%edx
ffffffff801071ca:	be 00 00 00 00       	mov    $0x0,%esi
ffffffff801071cf:	bf 08 00 00 00       	mov    $0x8,%edi
ffffffff801071d4:	e8 76 f7 ff ff       	callq  ffffffff8010694f <set_idt_entry>
ffffffff801071d9:	48 c7 c0 6c 9c 10 80 	mov    $0xffffffff80109c6c,%rax
ffffffff801071e0:	41 b8 37 00 00 00    	mov    $0x37,%r8d
ffffffff801071e6:	48 89 c1             	mov    %rax,%rcx
ffffffff801071e9:	ba 8e 00 00 00       	mov    $0x8e,%edx
ffffffff801071ee:	be 00 00 00 00       	mov    $0x0,%esi
ffffffff801071f3:	bf 08 00 00 00       	mov    $0x8,%edi
ffffffff801071f8:	e8 52 f7 ff ff       	callq  ffffffff8010694f <set_idt_entry>
ffffffff801071fd:	48 c7 c0 75 9c 10 80 	mov    $0xffffffff80109c75,%rax
ffffffff80107204:	41 b8 38 00 00 00    	mov    $0x38,%r8d
ffffffff8010720a:	48 89 c1             	mov    %rax,%rcx
ffffffff8010720d:	ba 8e 00 00 00       	mov    $0x8e,%edx
ffffffff80107212:	be 00 00 00 00       	mov    $0x0,%esi
ffffffff80107217:	bf 08 00 00 00       	mov    $0x8,%edi
ffffffff8010721c:	e8 2e f7 ff ff       	callq  ffffffff8010694f <set_idt_entry>
ffffffff80107221:	48 c7 c0 7e 9c 10 80 	mov    $0xffffffff80109c7e,%rax
ffffffff80107228:	41 b8 39 00 00 00    	mov    $0x39,%r8d
ffffffff8010722e:	48 89 c1             	mov    %rax,%rcx
ffffffff80107231:	ba 8e 00 00 00       	mov    $0x8e,%edx
ffffffff80107236:	be 00 00 00 00       	mov    $0x0,%esi
ffffffff8010723b:	bf 08 00 00 00       	mov    $0x8,%edi
ffffffff80107240:	e8 0a f7 ff ff       	callq  ffffffff8010694f <set_idt_entry>
ffffffff80107245:	48 c7 c0 87 9c 10 80 	mov    $0xffffffff80109c87,%rax
ffffffff8010724c:	41 b8 3a 00 00 00    	mov    $0x3a,%r8d
ffffffff80107252:	48 89 c1             	mov    %rax,%rcx
ffffffff80107255:	ba 8e 00 00 00       	mov    $0x8e,%edx
ffffffff8010725a:	be 00 00 00 00       	mov    $0x0,%esi
ffffffff8010725f:	bf 08 00 00 00       	mov    $0x8,%edi
ffffffff80107264:	e8 e6 f6 ff ff       	callq  ffffffff8010694f <set_idt_entry>
ffffffff80107269:	48 c7 c0 90 9c 10 80 	mov    $0xffffffff80109c90,%rax
ffffffff80107270:	41 b8 3b 00 00 00    	mov    $0x3b,%r8d
ffffffff80107276:	48 89 c1             	mov    %rax,%rcx
ffffffff80107279:	ba 8e 00 00 00       	mov    $0x8e,%edx
ffffffff8010727e:	be 00 00 00 00       	mov    $0x0,%esi
ffffffff80107283:	bf 08 00 00 00       	mov    $0x8,%edi
ffffffff80107288:	e8 c2 f6 ff ff       	callq  ffffffff8010694f <set_idt_entry>
ffffffff8010728d:	48 c7 c0 99 9c 10 80 	mov    $0xffffffff80109c99,%rax
ffffffff80107294:	41 b8 3c 00 00 00    	mov    $0x3c,%r8d
ffffffff8010729a:	48 89 c1             	mov    %rax,%rcx
ffffffff8010729d:	ba 8e 00 00 00       	mov    $0x8e,%edx
ffffffff801072a2:	be 00 00 00 00       	mov    $0x0,%esi
ffffffff801072a7:	bf 08 00 00 00       	mov    $0x8,%edi
ffffffff801072ac:	e8 9e f6 ff ff       	callq  ffffffff8010694f <set_idt_entry>
ffffffff801072b1:	48 c7 c0 a2 9c 10 80 	mov    $0xffffffff80109ca2,%rax
ffffffff801072b8:	41 b8 3d 00 00 00    	mov    $0x3d,%r8d
ffffffff801072be:	48 89 c1             	mov    %rax,%rcx
ffffffff801072c1:	ba 8e 00 00 00       	mov    $0x8e,%edx
ffffffff801072c6:	be 00 00 00 00       	mov    $0x0,%esi
ffffffff801072cb:	bf 08 00 00 00       	mov    $0x8,%edi
ffffffff801072d0:	e8 7a f6 ff ff       	callq  ffffffff8010694f <set_idt_entry>
ffffffff801072d5:	48 c7 c0 ab 9c 10 80 	mov    $0xffffffff80109cab,%rax
ffffffff801072dc:	41 b8 3e 00 00 00    	mov    $0x3e,%r8d
ffffffff801072e2:	48 89 c1             	mov    %rax,%rcx
ffffffff801072e5:	ba 8e 00 00 00       	mov    $0x8e,%edx
ffffffff801072ea:	be 00 00 00 00       	mov    $0x0,%esi
ffffffff801072ef:	bf 08 00 00 00       	mov    $0x8,%edi
ffffffff801072f4:	e8 56 f6 ff ff       	callq  ffffffff8010694f <set_idt_entry>
ffffffff801072f9:	48 c7 c0 b4 9c 10 80 	mov    $0xffffffff80109cb4,%rax
ffffffff80107300:	41 b8 3f 00 00 00    	mov    $0x3f,%r8d
ffffffff80107306:	48 89 c1             	mov    %rax,%rcx
ffffffff80107309:	ba 8e 00 00 00       	mov    $0x8e,%edx
ffffffff8010730e:	be 00 00 00 00       	mov    $0x0,%esi
ffffffff80107313:	bf 08 00 00 00       	mov    $0x8,%edi
ffffffff80107318:	e8 32 f6 ff ff       	callq  ffffffff8010694f <set_idt_entry>
ffffffff8010731d:	48 c7 c0 bd 9c 10 80 	mov    $0xffffffff80109cbd,%rax
ffffffff80107324:	41 b8 40 00 00 00    	mov    $0x40,%r8d
ffffffff8010732a:	48 89 c1             	mov    %rax,%rcx
ffffffff8010732d:	ba 8e 00 00 00       	mov    $0x8e,%edx
ffffffff80107332:	be 00 00 00 00       	mov    $0x0,%esi
ffffffff80107337:	bf 08 00 00 00       	mov    $0x8,%edi
ffffffff8010733c:	e8 0e f6 ff ff       	callq  ffffffff8010694f <set_idt_entry>
ffffffff80107341:	48 c7 c0 c6 9c 10 80 	mov    $0xffffffff80109cc6,%rax
ffffffff80107348:	41 b8 41 00 00 00    	mov    $0x41,%r8d
ffffffff8010734e:	48 89 c1             	mov    %rax,%rcx
ffffffff80107351:	ba 8e 00 00 00       	mov    $0x8e,%edx
ffffffff80107356:	be 00 00 00 00       	mov    $0x0,%esi
ffffffff8010735b:	bf 08 00 00 00       	mov    $0x8,%edi
ffffffff80107360:	e8 ea f5 ff ff       	callq  ffffffff8010694f <set_idt_entry>
ffffffff80107365:	48 c7 c0 cf 9c 10 80 	mov    $0xffffffff80109ccf,%rax
ffffffff8010736c:	41 b8 42 00 00 00    	mov    $0x42,%r8d
ffffffff80107372:	48 89 c1             	mov    %rax,%rcx
ffffffff80107375:	ba 8e 00 00 00       	mov    $0x8e,%edx
ffffffff8010737a:	be 00 00 00 00       	mov    $0x0,%esi
ffffffff8010737f:	bf 08 00 00 00       	mov    $0x8,%edi
ffffffff80107384:	e8 c6 f5 ff ff       	callq  ffffffff8010694f <set_idt_entry>
ffffffff80107389:	48 c7 c0 d8 9c 10 80 	mov    $0xffffffff80109cd8,%rax
ffffffff80107390:	41 b8 43 00 00 00    	mov    $0x43,%r8d
ffffffff80107396:	48 89 c1             	mov    %rax,%rcx
ffffffff80107399:	ba 8e 00 00 00       	mov    $0x8e,%edx
ffffffff8010739e:	be 00 00 00 00       	mov    $0x0,%esi
ffffffff801073a3:	bf 08 00 00 00       	mov    $0x8,%edi
ffffffff801073a8:	e8 a2 f5 ff ff       	callq  ffffffff8010694f <set_idt_entry>
ffffffff801073ad:	48 c7 c0 e1 9c 10 80 	mov    $0xffffffff80109ce1,%rax
ffffffff801073b4:	41 b8 44 00 00 00    	mov    $0x44,%r8d
ffffffff801073ba:	48 89 c1             	mov    %rax,%rcx
ffffffff801073bd:	ba 8e 00 00 00       	mov    $0x8e,%edx
ffffffff801073c2:	be 00 00 00 00       	mov    $0x0,%esi
ffffffff801073c7:	bf 08 00 00 00       	mov    $0x8,%edi
ffffffff801073cc:	e8 7e f5 ff ff       	callq  ffffffff8010694f <set_idt_entry>
ffffffff801073d1:	48 c7 c0 ea 9c 10 80 	mov    $0xffffffff80109cea,%rax
ffffffff801073d8:	41 b8 45 00 00 00    	mov    $0x45,%r8d
ffffffff801073de:	48 89 c1             	mov    %rax,%rcx
ffffffff801073e1:	ba 8e 00 00 00       	mov    $0x8e,%edx
ffffffff801073e6:	be 00 00 00 00       	mov    $0x0,%esi
ffffffff801073eb:	bf 08 00 00 00       	mov    $0x8,%edi
ffffffff801073f0:	e8 5a f5 ff ff       	callq  ffffffff8010694f <set_idt_entry>
ffffffff801073f5:	48 c7 c0 f3 9c 10 80 	mov    $0xffffffff80109cf3,%rax
ffffffff801073fc:	41 b8 46 00 00 00    	mov    $0x46,%r8d
ffffffff80107402:	48 89 c1             	mov    %rax,%rcx
ffffffff80107405:	ba 8e 00 00 00       	mov    $0x8e,%edx
ffffffff8010740a:	be 00 00 00 00       	mov    $0x0,%esi
ffffffff8010740f:	bf 08 00 00 00       	mov    $0x8,%edi
ffffffff80107414:	e8 36 f5 ff ff       	callq  ffffffff8010694f <set_idt_entry>
ffffffff80107419:	48 c7 c0 fc 9c 10 80 	mov    $0xffffffff80109cfc,%rax
ffffffff80107420:	41 b8 47 00 00 00    	mov    $0x47,%r8d
ffffffff80107426:	48 89 c1             	mov    %rax,%rcx
ffffffff80107429:	ba 8e 00 00 00       	mov    $0x8e,%edx
ffffffff8010742e:	be 00 00 00 00       	mov    $0x0,%esi
ffffffff80107433:	bf 08 00 00 00       	mov    $0x8,%edi
ffffffff80107438:	e8 12 f5 ff ff       	callq  ffffffff8010694f <set_idt_entry>
ffffffff8010743d:	48 c7 c0 05 9d 10 80 	mov    $0xffffffff80109d05,%rax
ffffffff80107444:	41 b8 48 00 00 00    	mov    $0x48,%r8d
ffffffff8010744a:	48 89 c1             	mov    %rax,%rcx
ffffffff8010744d:	ba 8e 00 00 00       	mov    $0x8e,%edx
ffffffff80107452:	be 00 00 00 00       	mov    $0x0,%esi
ffffffff80107457:	bf 08 00 00 00       	mov    $0x8,%edi
ffffffff8010745c:	e8 ee f4 ff ff       	callq  ffffffff8010694f <set_idt_entry>
ffffffff80107461:	48 c7 c0 0e 9d 10 80 	mov    $0xffffffff80109d0e,%rax
ffffffff80107468:	41 b8 49 00 00 00    	mov    $0x49,%r8d
ffffffff8010746e:	48 89 c1             	mov    %rax,%rcx
ffffffff80107471:	ba 8e 00 00 00       	mov    $0x8e,%edx
ffffffff80107476:	be 00 00 00 00       	mov    $0x0,%esi
ffffffff8010747b:	bf 08 00 00 00       	mov    $0x8,%edi
ffffffff80107480:	e8 ca f4 ff ff       	callq  ffffffff8010694f <set_idt_entry>
ffffffff80107485:	48 c7 c0 17 9d 10 80 	mov    $0xffffffff80109d17,%rax
ffffffff8010748c:	41 b8 4a 00 00 00    	mov    $0x4a,%r8d
ffffffff80107492:	48 89 c1             	mov    %rax,%rcx
ffffffff80107495:	ba 8e 00 00 00       	mov    $0x8e,%edx
ffffffff8010749a:	be 00 00 00 00       	mov    $0x0,%esi
ffffffff8010749f:	bf 08 00 00 00       	mov    $0x8,%edi
ffffffff801074a4:	e8 a6 f4 ff ff       	callq  ffffffff8010694f <set_idt_entry>
ffffffff801074a9:	48 c7 c0 20 9d 10 80 	mov    $0xffffffff80109d20,%rax
ffffffff801074b0:	41 b8 4b 00 00 00    	mov    $0x4b,%r8d
ffffffff801074b6:	48 89 c1             	mov    %rax,%rcx
ffffffff801074b9:	ba 8e 00 00 00       	mov    $0x8e,%edx
ffffffff801074be:	be 00 00 00 00       	mov    $0x0,%esi
ffffffff801074c3:	bf 08 00 00 00       	mov    $0x8,%edi
ffffffff801074c8:	e8 82 f4 ff ff       	callq  ffffffff8010694f <set_idt_entry>
ffffffff801074cd:	48 c7 c0 29 9d 10 80 	mov    $0xffffffff80109d29,%rax
ffffffff801074d4:	41 b8 4c 00 00 00    	mov    $0x4c,%r8d
ffffffff801074da:	48 89 c1             	mov    %rax,%rcx
ffffffff801074dd:	ba 8e 00 00 00       	mov    $0x8e,%edx
ffffffff801074e2:	be 00 00 00 00       	mov    $0x0,%esi
ffffffff801074e7:	bf 08 00 00 00       	mov    $0x8,%edi
ffffffff801074ec:	e8 5e f4 ff ff       	callq  ffffffff8010694f <set_idt_entry>
ffffffff801074f1:	48 c7 c0 32 9d 10 80 	mov    $0xffffffff80109d32,%rax
ffffffff801074f8:	41 b8 4d 00 00 00    	mov    $0x4d,%r8d
ffffffff801074fe:	48 89 c1             	mov    %rax,%rcx
ffffffff80107501:	ba 8e 00 00 00       	mov    $0x8e,%edx
ffffffff80107506:	be 00 00 00 00       	mov    $0x0,%esi
ffffffff8010750b:	bf 08 00 00 00       	mov    $0x8,%edi
ffffffff80107510:	e8 3a f4 ff ff       	callq  ffffffff8010694f <set_idt_entry>
ffffffff80107515:	48 c7 c0 3b 9d 10 80 	mov    $0xffffffff80109d3b,%rax
ffffffff8010751c:	41 b8 4e 00 00 00    	mov    $0x4e,%r8d
ffffffff80107522:	48 89 c1             	mov    %rax,%rcx
ffffffff80107525:	ba 8e 00 00 00       	mov    $0x8e,%edx
ffffffff8010752a:	be 00 00 00 00       	mov    $0x0,%esi
ffffffff8010752f:	bf 08 00 00 00       	mov    $0x8,%edi
ffffffff80107534:	e8 16 f4 ff ff       	callq  ffffffff8010694f <set_idt_entry>
ffffffff80107539:	48 c7 c0 44 9d 10 80 	mov    $0xffffffff80109d44,%rax
ffffffff80107540:	41 b8 4f 00 00 00    	mov    $0x4f,%r8d
ffffffff80107546:	48 89 c1             	mov    %rax,%rcx
ffffffff80107549:	ba 8e 00 00 00       	mov    $0x8e,%edx
ffffffff8010754e:	be 00 00 00 00       	mov    $0x0,%esi
ffffffff80107553:	bf 08 00 00 00       	mov    $0x8,%edi
ffffffff80107558:	e8 f2 f3 ff ff       	callq  ffffffff8010694f <set_idt_entry>
ffffffff8010755d:	48 c7 c0 4d 9d 10 80 	mov    $0xffffffff80109d4d,%rax
ffffffff80107564:	41 b8 50 00 00 00    	mov    $0x50,%r8d
ffffffff8010756a:	48 89 c1             	mov    %rax,%rcx
ffffffff8010756d:	ba 8e 00 00 00       	mov    $0x8e,%edx
ffffffff80107572:	be 00 00 00 00       	mov    $0x0,%esi
ffffffff80107577:	bf 08 00 00 00       	mov    $0x8,%edi
ffffffff8010757c:	e8 ce f3 ff ff       	callq  ffffffff8010694f <set_idt_entry>
ffffffff80107581:	48 c7 c0 56 9d 10 80 	mov    $0xffffffff80109d56,%rax
ffffffff80107588:	41 b8 51 00 00 00    	mov    $0x51,%r8d
ffffffff8010758e:	48 89 c1             	mov    %rax,%rcx
ffffffff80107591:	ba 8e 00 00 00       	mov    $0x8e,%edx
ffffffff80107596:	be 00 00 00 00       	mov    $0x0,%esi
ffffffff8010759b:	bf 08 00 00 00       	mov    $0x8,%edi
ffffffff801075a0:	e8 aa f3 ff ff       	callq  ffffffff8010694f <set_idt_entry>
ffffffff801075a5:	48 c7 c0 5f 9d 10 80 	mov    $0xffffffff80109d5f,%rax
ffffffff801075ac:	41 b8 52 00 00 00    	mov    $0x52,%r8d
ffffffff801075b2:	48 89 c1             	mov    %rax,%rcx
ffffffff801075b5:	ba 8e 00 00 00       	mov    $0x8e,%edx
ffffffff801075ba:	be 00 00 00 00       	mov    $0x0,%esi
ffffffff801075bf:	bf 08 00 00 00       	mov    $0x8,%edi
ffffffff801075c4:	e8 86 f3 ff ff       	callq  ffffffff8010694f <set_idt_entry>
ffffffff801075c9:	48 c7 c0 68 9d 10 80 	mov    $0xffffffff80109d68,%rax
ffffffff801075d0:	41 b8 53 00 00 00    	mov    $0x53,%r8d
ffffffff801075d6:	48 89 c1             	mov    %rax,%rcx
ffffffff801075d9:	ba 8e 00 00 00       	mov    $0x8e,%edx
ffffffff801075de:	be 00 00 00 00       	mov    $0x0,%esi
ffffffff801075e3:	bf 08 00 00 00       	mov    $0x8,%edi
ffffffff801075e8:	e8 62 f3 ff ff       	callq  ffffffff8010694f <set_idt_entry>
ffffffff801075ed:	48 c7 c0 71 9d 10 80 	mov    $0xffffffff80109d71,%rax
ffffffff801075f4:	41 b8 54 00 00 00    	mov    $0x54,%r8d
ffffffff801075fa:	48 89 c1             	mov    %rax,%rcx
ffffffff801075fd:	ba 8e 00 00 00       	mov    $0x8e,%edx
ffffffff80107602:	be 00 00 00 00       	mov    $0x0,%esi
ffffffff80107607:	bf 08 00 00 00       	mov    $0x8,%edi
ffffffff8010760c:	e8 3e f3 ff ff       	callq  ffffffff8010694f <set_idt_entry>
ffffffff80107611:	48 c7 c0 7a 9d 10 80 	mov    $0xffffffff80109d7a,%rax
ffffffff80107618:	41 b8 55 00 00 00    	mov    $0x55,%r8d
ffffffff8010761e:	48 89 c1             	mov    %rax,%rcx
ffffffff80107621:	ba 8e 00 00 00       	mov    $0x8e,%edx
ffffffff80107626:	be 00 00 00 00       	mov    $0x0,%esi
ffffffff8010762b:	bf 08 00 00 00       	mov    $0x8,%edi
ffffffff80107630:	e8 1a f3 ff ff       	callq  ffffffff8010694f <set_idt_entry>
ffffffff80107635:	48 c7 c0 83 9d 10 80 	mov    $0xffffffff80109d83,%rax
ffffffff8010763c:	41 b8 56 00 00 00    	mov    $0x56,%r8d
ffffffff80107642:	48 89 c1             	mov    %rax,%rcx
ffffffff80107645:	ba 8e 00 00 00       	mov    $0x8e,%edx
ffffffff8010764a:	be 00 00 00 00       	mov    $0x0,%esi
ffffffff8010764f:	bf 08 00 00 00       	mov    $0x8,%edi
ffffffff80107654:	e8 f6 f2 ff ff       	callq  ffffffff8010694f <set_idt_entry>
ffffffff80107659:	48 c7 c0 8c 9d 10 80 	mov    $0xffffffff80109d8c,%rax
ffffffff80107660:	41 b8 57 00 00 00    	mov    $0x57,%r8d
ffffffff80107666:	48 89 c1             	mov    %rax,%rcx
ffffffff80107669:	ba 8e 00 00 00       	mov    $0x8e,%edx
ffffffff8010766e:	be 00 00 00 00       	mov    $0x0,%esi
ffffffff80107673:	bf 08 00 00 00       	mov    $0x8,%edi
ffffffff80107678:	e8 d2 f2 ff ff       	callq  ffffffff8010694f <set_idt_entry>
ffffffff8010767d:	48 c7 c0 95 9d 10 80 	mov    $0xffffffff80109d95,%rax
ffffffff80107684:	41 b8 58 00 00 00    	mov    $0x58,%r8d
ffffffff8010768a:	48 89 c1             	mov    %rax,%rcx
ffffffff8010768d:	ba 8e 00 00 00       	mov    $0x8e,%edx
ffffffff80107692:	be 00 00 00 00       	mov    $0x0,%esi
ffffffff80107697:	bf 08 00 00 00       	mov    $0x8,%edi
ffffffff8010769c:	e8 ae f2 ff ff       	callq  ffffffff8010694f <set_idt_entry>
ffffffff801076a1:	48 c7 c0 9e 9d 10 80 	mov    $0xffffffff80109d9e,%rax
ffffffff801076a8:	41 b8 59 00 00 00    	mov    $0x59,%r8d
ffffffff801076ae:	48 89 c1             	mov    %rax,%rcx
ffffffff801076b1:	ba 8e 00 00 00       	mov    $0x8e,%edx
ffffffff801076b6:	be 00 00 00 00       	mov    $0x0,%esi
ffffffff801076bb:	bf 08 00 00 00       	mov    $0x8,%edi
ffffffff801076c0:	e8 8a f2 ff ff       	callq  ffffffff8010694f <set_idt_entry>
ffffffff801076c5:	48 c7 c0 a7 9d 10 80 	mov    $0xffffffff80109da7,%rax
ffffffff801076cc:	41 b8 5a 00 00 00    	mov    $0x5a,%r8d
ffffffff801076d2:	48 89 c1             	mov    %rax,%rcx
ffffffff801076d5:	ba 8e 00 00 00       	mov    $0x8e,%edx
ffffffff801076da:	be 00 00 00 00       	mov    $0x0,%esi
ffffffff801076df:	bf 08 00 00 00       	mov    $0x8,%edi
ffffffff801076e4:	e8 66 f2 ff ff       	callq  ffffffff8010694f <set_idt_entry>
ffffffff801076e9:	48 c7 c0 b0 9d 10 80 	mov    $0xffffffff80109db0,%rax
ffffffff801076f0:	41 b8 5b 00 00 00    	mov    $0x5b,%r8d
ffffffff801076f6:	48 89 c1             	mov    %rax,%rcx
ffffffff801076f9:	ba 8e 00 00 00       	mov    $0x8e,%edx
ffffffff801076fe:	be 00 00 00 00       	mov    $0x0,%esi
ffffffff80107703:	bf 08 00 00 00       	mov    $0x8,%edi
ffffffff80107708:	e8 42 f2 ff ff       	callq  ffffffff8010694f <set_idt_entry>
ffffffff8010770d:	48 c7 c0 b9 9d 10 80 	mov    $0xffffffff80109db9,%rax
ffffffff80107714:	41 b8 5c 00 00 00    	mov    $0x5c,%r8d
ffffffff8010771a:	48 89 c1             	mov    %rax,%rcx
ffffffff8010771d:	ba 8e 00 00 00       	mov    $0x8e,%edx
ffffffff80107722:	be 00 00 00 00       	mov    $0x0,%esi
ffffffff80107727:	bf 08 00 00 00       	mov    $0x8,%edi
ffffffff8010772c:	e8 1e f2 ff ff       	callq  ffffffff8010694f <set_idt_entry>
ffffffff80107731:	48 c7 c0 c2 9d 10 80 	mov    $0xffffffff80109dc2,%rax
ffffffff80107738:	41 b8 5d 00 00 00    	mov    $0x5d,%r8d
ffffffff8010773e:	48 89 c1             	mov    %rax,%rcx
ffffffff80107741:	ba 8e 00 00 00       	mov    $0x8e,%edx
ffffffff80107746:	be 00 00 00 00       	mov    $0x0,%esi
ffffffff8010774b:	bf 08 00 00 00       	mov    $0x8,%edi
ffffffff80107750:	e8 fa f1 ff ff       	callq  ffffffff8010694f <set_idt_entry>
ffffffff80107755:	48 c7 c0 cb 9d 10 80 	mov    $0xffffffff80109dcb,%rax
ffffffff8010775c:	41 b8 5e 00 00 00    	mov    $0x5e,%r8d
ffffffff80107762:	48 89 c1             	mov    %rax,%rcx
ffffffff80107765:	ba 8e 00 00 00       	mov    $0x8e,%edx
ffffffff8010776a:	be 00 00 00 00       	mov    $0x0,%esi
ffffffff8010776f:	bf 08 00 00 00       	mov    $0x8,%edi
ffffffff80107774:	e8 d6 f1 ff ff       	callq  ffffffff8010694f <set_idt_entry>
ffffffff80107779:	48 c7 c0 d4 9d 10 80 	mov    $0xffffffff80109dd4,%rax
ffffffff80107780:	41 b8 5f 00 00 00    	mov    $0x5f,%r8d
ffffffff80107786:	48 89 c1             	mov    %rax,%rcx
ffffffff80107789:	ba 8e 00 00 00       	mov    $0x8e,%edx
ffffffff8010778e:	be 00 00 00 00       	mov    $0x0,%esi
ffffffff80107793:	bf 08 00 00 00       	mov    $0x8,%edi
ffffffff80107798:	e8 b2 f1 ff ff       	callq  ffffffff8010694f <set_idt_entry>
ffffffff8010779d:	48 c7 c0 dd 9d 10 80 	mov    $0xffffffff80109ddd,%rax
ffffffff801077a4:	41 b8 60 00 00 00    	mov    $0x60,%r8d
ffffffff801077aa:	48 89 c1             	mov    %rax,%rcx
ffffffff801077ad:	ba 8e 00 00 00       	mov    $0x8e,%edx
ffffffff801077b2:	be 00 00 00 00       	mov    $0x0,%esi
ffffffff801077b7:	bf 08 00 00 00       	mov    $0x8,%edi
ffffffff801077bc:	e8 8e f1 ff ff       	callq  ffffffff8010694f <set_idt_entry>
ffffffff801077c1:	48 c7 c0 e6 9d 10 80 	mov    $0xffffffff80109de6,%rax
ffffffff801077c8:	41 b8 61 00 00 00    	mov    $0x61,%r8d
ffffffff801077ce:	48 89 c1             	mov    %rax,%rcx
ffffffff801077d1:	ba 8e 00 00 00       	mov    $0x8e,%edx
ffffffff801077d6:	be 00 00 00 00       	mov    $0x0,%esi
ffffffff801077db:	bf 08 00 00 00       	mov    $0x8,%edi
ffffffff801077e0:	e8 6a f1 ff ff       	callq  ffffffff8010694f <set_idt_entry>
ffffffff801077e5:	48 c7 c0 ef 9d 10 80 	mov    $0xffffffff80109def,%rax
ffffffff801077ec:	41 b8 62 00 00 00    	mov    $0x62,%r8d
ffffffff801077f2:	48 89 c1             	mov    %rax,%rcx
ffffffff801077f5:	ba 8e 00 00 00       	mov    $0x8e,%edx
ffffffff801077fa:	be 00 00 00 00       	mov    $0x0,%esi
ffffffff801077ff:	bf 08 00 00 00       	mov    $0x8,%edi
ffffffff80107804:	e8 46 f1 ff ff       	callq  ffffffff8010694f <set_idt_entry>
ffffffff80107809:	48 c7 c0 f8 9d 10 80 	mov    $0xffffffff80109df8,%rax
ffffffff80107810:	41 b8 63 00 00 00    	mov    $0x63,%r8d
ffffffff80107816:	48 89 c1             	mov    %rax,%rcx
ffffffff80107819:	ba 8e 00 00 00       	mov    $0x8e,%edx
ffffffff8010781e:	be 00 00 00 00       	mov    $0x0,%esi
ffffffff80107823:	bf 08 00 00 00       	mov    $0x8,%edi
ffffffff80107828:	e8 22 f1 ff ff       	callq  ffffffff8010694f <set_idt_entry>
ffffffff8010782d:	48 c7 c0 01 9e 10 80 	mov    $0xffffffff80109e01,%rax
ffffffff80107834:	41 b8 64 00 00 00    	mov    $0x64,%r8d
ffffffff8010783a:	48 89 c1             	mov    %rax,%rcx
ffffffff8010783d:	ba 8e 00 00 00       	mov    $0x8e,%edx
ffffffff80107842:	be 00 00 00 00       	mov    $0x0,%esi
ffffffff80107847:	bf 08 00 00 00       	mov    $0x8,%edi
ffffffff8010784c:	e8 fe f0 ff ff       	callq  ffffffff8010694f <set_idt_entry>
ffffffff80107851:	48 c7 c0 0a 9e 10 80 	mov    $0xffffffff80109e0a,%rax
ffffffff80107858:	41 b8 65 00 00 00    	mov    $0x65,%r8d
ffffffff8010785e:	48 89 c1             	mov    %rax,%rcx
ffffffff80107861:	ba 8e 00 00 00       	mov    $0x8e,%edx
ffffffff80107866:	be 00 00 00 00       	mov    $0x0,%esi
ffffffff8010786b:	bf 08 00 00 00       	mov    $0x8,%edi
ffffffff80107870:	e8 da f0 ff ff       	callq  ffffffff8010694f <set_idt_entry>
ffffffff80107875:	48 c7 c0 13 9e 10 80 	mov    $0xffffffff80109e13,%rax
ffffffff8010787c:	41 b8 66 00 00 00    	mov    $0x66,%r8d
ffffffff80107882:	48 89 c1             	mov    %rax,%rcx
ffffffff80107885:	ba 8e 00 00 00       	mov    $0x8e,%edx
ffffffff8010788a:	be 00 00 00 00       	mov    $0x0,%esi
ffffffff8010788f:	bf 08 00 00 00       	mov    $0x8,%edi
ffffffff80107894:	e8 b6 f0 ff ff       	callq  ffffffff8010694f <set_idt_entry>
ffffffff80107899:	48 c7 c0 1c 9e 10 80 	mov    $0xffffffff80109e1c,%rax
ffffffff801078a0:	41 b8 67 00 00 00    	mov    $0x67,%r8d
ffffffff801078a6:	48 89 c1             	mov    %rax,%rcx
ffffffff801078a9:	ba 8e 00 00 00       	mov    $0x8e,%edx
ffffffff801078ae:	be 00 00 00 00       	mov    $0x0,%esi
ffffffff801078b3:	bf 08 00 00 00       	mov    $0x8,%edi
ffffffff801078b8:	e8 92 f0 ff ff       	callq  ffffffff8010694f <set_idt_entry>
ffffffff801078bd:	48 c7 c0 25 9e 10 80 	mov    $0xffffffff80109e25,%rax
ffffffff801078c4:	41 b8 68 00 00 00    	mov    $0x68,%r8d
ffffffff801078ca:	48 89 c1             	mov    %rax,%rcx
ffffffff801078cd:	ba 8e 00 00 00       	mov    $0x8e,%edx
ffffffff801078d2:	be 00 00 00 00       	mov    $0x0,%esi
ffffffff801078d7:	bf 08 00 00 00       	mov    $0x8,%edi
ffffffff801078dc:	e8 6e f0 ff ff       	callq  ffffffff8010694f <set_idt_entry>
ffffffff801078e1:	48 c7 c0 2e 9e 10 80 	mov    $0xffffffff80109e2e,%rax
ffffffff801078e8:	41 b8 69 00 00 00    	mov    $0x69,%r8d
ffffffff801078ee:	48 89 c1             	mov    %rax,%rcx
ffffffff801078f1:	ba 8e 00 00 00       	mov    $0x8e,%edx
ffffffff801078f6:	be 00 00 00 00       	mov    $0x0,%esi
ffffffff801078fb:	bf 08 00 00 00       	mov    $0x8,%edi
ffffffff80107900:	e8 4a f0 ff ff       	callq  ffffffff8010694f <set_idt_entry>
ffffffff80107905:	48 c7 c0 37 9e 10 80 	mov    $0xffffffff80109e37,%rax
ffffffff8010790c:	41 b8 6a 00 00 00    	mov    $0x6a,%r8d
ffffffff80107912:	48 89 c1             	mov    %rax,%rcx
ffffffff80107915:	ba 8e 00 00 00       	mov    $0x8e,%edx
ffffffff8010791a:	be 00 00 00 00       	mov    $0x0,%esi
ffffffff8010791f:	bf 08 00 00 00       	mov    $0x8,%edi
ffffffff80107924:	e8 26 f0 ff ff       	callq  ffffffff8010694f <set_idt_entry>
ffffffff80107929:	48 c7 c0 40 9e 10 80 	mov    $0xffffffff80109e40,%rax
ffffffff80107930:	41 b8 6b 00 00 00    	mov    $0x6b,%r8d
ffffffff80107936:	48 89 c1             	mov    %rax,%rcx
ffffffff80107939:	ba 8e 00 00 00       	mov    $0x8e,%edx
ffffffff8010793e:	be 00 00 00 00       	mov    $0x0,%esi
ffffffff80107943:	bf 08 00 00 00       	mov    $0x8,%edi
ffffffff80107948:	e8 02 f0 ff ff       	callq  ffffffff8010694f <set_idt_entry>
ffffffff8010794d:	48 c7 c0 49 9e 10 80 	mov    $0xffffffff80109e49,%rax
ffffffff80107954:	41 b8 6c 00 00 00    	mov    $0x6c,%r8d
ffffffff8010795a:	48 89 c1             	mov    %rax,%rcx
ffffffff8010795d:	ba 8e 00 00 00       	mov    $0x8e,%edx
ffffffff80107962:	be 00 00 00 00       	mov    $0x0,%esi
ffffffff80107967:	bf 08 00 00 00       	mov    $0x8,%edi
ffffffff8010796c:	e8 de ef ff ff       	callq  ffffffff8010694f <set_idt_entry>
ffffffff80107971:	48 c7 c0 52 9e 10 80 	mov    $0xffffffff80109e52,%rax
ffffffff80107978:	41 b8 6d 00 00 00    	mov    $0x6d,%r8d
ffffffff8010797e:	48 89 c1             	mov    %rax,%rcx
ffffffff80107981:	ba 8e 00 00 00       	mov    $0x8e,%edx
ffffffff80107986:	be 00 00 00 00       	mov    $0x0,%esi
ffffffff8010798b:	bf 08 00 00 00       	mov    $0x8,%edi
ffffffff80107990:	e8 ba ef ff ff       	callq  ffffffff8010694f <set_idt_entry>
ffffffff80107995:	48 c7 c0 5b 9e 10 80 	mov    $0xffffffff80109e5b,%rax
ffffffff8010799c:	41 b8 6e 00 00 00    	mov    $0x6e,%r8d
ffffffff801079a2:	48 89 c1             	mov    %rax,%rcx
ffffffff801079a5:	ba 8e 00 00 00       	mov    $0x8e,%edx
ffffffff801079aa:	be 00 00 00 00       	mov    $0x0,%esi
ffffffff801079af:	bf 08 00 00 00       	mov    $0x8,%edi
ffffffff801079b4:	e8 96 ef ff ff       	callq  ffffffff8010694f <set_idt_entry>
ffffffff801079b9:	48 c7 c0 64 9e 10 80 	mov    $0xffffffff80109e64,%rax
ffffffff801079c0:	41 b8 6f 00 00 00    	mov    $0x6f,%r8d
ffffffff801079c6:	48 89 c1             	mov    %rax,%rcx
ffffffff801079c9:	ba 8e 00 00 00       	mov    $0x8e,%edx
ffffffff801079ce:	be 00 00 00 00       	mov    $0x0,%esi
ffffffff801079d3:	bf 08 00 00 00       	mov    $0x8,%edi
ffffffff801079d8:	e8 72 ef ff ff       	callq  ffffffff8010694f <set_idt_entry>
ffffffff801079dd:	48 c7 c0 6d 9e 10 80 	mov    $0xffffffff80109e6d,%rax
ffffffff801079e4:	41 b8 70 00 00 00    	mov    $0x70,%r8d
ffffffff801079ea:	48 89 c1             	mov    %rax,%rcx
ffffffff801079ed:	ba 8e 00 00 00       	mov    $0x8e,%edx
ffffffff801079f2:	be 00 00 00 00       	mov    $0x0,%esi
ffffffff801079f7:	bf 08 00 00 00       	mov    $0x8,%edi
ffffffff801079fc:	e8 4e ef ff ff       	callq  ffffffff8010694f <set_idt_entry>
ffffffff80107a01:	48 c7 c0 76 9e 10 80 	mov    $0xffffffff80109e76,%rax
ffffffff80107a08:	41 b8 71 00 00 00    	mov    $0x71,%r8d
ffffffff80107a0e:	48 89 c1             	mov    %rax,%rcx
ffffffff80107a11:	ba 8e 00 00 00       	mov    $0x8e,%edx
ffffffff80107a16:	be 00 00 00 00       	mov    $0x0,%esi
ffffffff80107a1b:	bf 08 00 00 00       	mov    $0x8,%edi
ffffffff80107a20:	e8 2a ef ff ff       	callq  ffffffff8010694f <set_idt_entry>
ffffffff80107a25:	48 c7 c0 7f 9e 10 80 	mov    $0xffffffff80109e7f,%rax
ffffffff80107a2c:	41 b8 72 00 00 00    	mov    $0x72,%r8d
ffffffff80107a32:	48 89 c1             	mov    %rax,%rcx
ffffffff80107a35:	ba 8e 00 00 00       	mov    $0x8e,%edx
ffffffff80107a3a:	be 00 00 00 00       	mov    $0x0,%esi
ffffffff80107a3f:	bf 08 00 00 00       	mov    $0x8,%edi
ffffffff80107a44:	e8 06 ef ff ff       	callq  ffffffff8010694f <set_idt_entry>
ffffffff80107a49:	48 c7 c0 88 9e 10 80 	mov    $0xffffffff80109e88,%rax
ffffffff80107a50:	41 b8 73 00 00 00    	mov    $0x73,%r8d
ffffffff80107a56:	48 89 c1             	mov    %rax,%rcx
ffffffff80107a59:	ba 8e 00 00 00       	mov    $0x8e,%edx
ffffffff80107a5e:	be 00 00 00 00       	mov    $0x0,%esi
ffffffff80107a63:	bf 08 00 00 00       	mov    $0x8,%edi
ffffffff80107a68:	e8 e2 ee ff ff       	callq  ffffffff8010694f <set_idt_entry>
ffffffff80107a6d:	48 c7 c0 91 9e 10 80 	mov    $0xffffffff80109e91,%rax
ffffffff80107a74:	41 b8 74 00 00 00    	mov    $0x74,%r8d
ffffffff80107a7a:	48 89 c1             	mov    %rax,%rcx
ffffffff80107a7d:	ba 8e 00 00 00       	mov    $0x8e,%edx
ffffffff80107a82:	be 00 00 00 00       	mov    $0x0,%esi
ffffffff80107a87:	bf 08 00 00 00       	mov    $0x8,%edi
ffffffff80107a8c:	e8 be ee ff ff       	callq  ffffffff8010694f <set_idt_entry>
ffffffff80107a91:	48 c7 c0 9a 9e 10 80 	mov    $0xffffffff80109e9a,%rax
ffffffff80107a98:	41 b8 75 00 00 00    	mov    $0x75,%r8d
ffffffff80107a9e:	48 89 c1             	mov    %rax,%rcx
ffffffff80107aa1:	ba 8e 00 00 00       	mov    $0x8e,%edx
ffffffff80107aa6:	be 00 00 00 00       	mov    $0x0,%esi
ffffffff80107aab:	bf 08 00 00 00       	mov    $0x8,%edi
ffffffff80107ab0:	e8 9a ee ff ff       	callq  ffffffff8010694f <set_idt_entry>
ffffffff80107ab5:	48 c7 c0 a3 9e 10 80 	mov    $0xffffffff80109ea3,%rax
ffffffff80107abc:	41 b8 76 00 00 00    	mov    $0x76,%r8d
ffffffff80107ac2:	48 89 c1             	mov    %rax,%rcx
ffffffff80107ac5:	ba 8e 00 00 00       	mov    $0x8e,%edx
ffffffff80107aca:	be 00 00 00 00       	mov    $0x0,%esi
ffffffff80107acf:	bf 08 00 00 00       	mov    $0x8,%edi
ffffffff80107ad4:	e8 76 ee ff ff       	callq  ffffffff8010694f <set_idt_entry>
ffffffff80107ad9:	48 c7 c0 ac 9e 10 80 	mov    $0xffffffff80109eac,%rax
ffffffff80107ae0:	41 b8 77 00 00 00    	mov    $0x77,%r8d
ffffffff80107ae6:	48 89 c1             	mov    %rax,%rcx
ffffffff80107ae9:	ba 8e 00 00 00       	mov    $0x8e,%edx
ffffffff80107aee:	be 00 00 00 00       	mov    $0x0,%esi
ffffffff80107af3:	bf 08 00 00 00       	mov    $0x8,%edi
ffffffff80107af8:	e8 52 ee ff ff       	callq  ffffffff8010694f <set_idt_entry>
ffffffff80107afd:	48 c7 c0 b5 9e 10 80 	mov    $0xffffffff80109eb5,%rax
ffffffff80107b04:	41 b8 78 00 00 00    	mov    $0x78,%r8d
ffffffff80107b0a:	48 89 c1             	mov    %rax,%rcx
ffffffff80107b0d:	ba 8e 00 00 00       	mov    $0x8e,%edx
ffffffff80107b12:	be 00 00 00 00       	mov    $0x0,%esi
ffffffff80107b17:	bf 08 00 00 00       	mov    $0x8,%edi
ffffffff80107b1c:	e8 2e ee ff ff       	callq  ffffffff8010694f <set_idt_entry>
ffffffff80107b21:	48 c7 c0 be 9e 10 80 	mov    $0xffffffff80109ebe,%rax
ffffffff80107b28:	41 b8 79 00 00 00    	mov    $0x79,%r8d
ffffffff80107b2e:	48 89 c1             	mov    %rax,%rcx
ffffffff80107b31:	ba 8e 00 00 00       	mov    $0x8e,%edx
ffffffff80107b36:	be 00 00 00 00       	mov    $0x0,%esi
ffffffff80107b3b:	bf 08 00 00 00       	mov    $0x8,%edi
ffffffff80107b40:	e8 0a ee ff ff       	callq  ffffffff8010694f <set_idt_entry>
ffffffff80107b45:	48 c7 c0 c7 9e 10 80 	mov    $0xffffffff80109ec7,%rax
ffffffff80107b4c:	41 b8 7a 00 00 00    	mov    $0x7a,%r8d
ffffffff80107b52:	48 89 c1             	mov    %rax,%rcx
ffffffff80107b55:	ba 8e 00 00 00       	mov    $0x8e,%edx
ffffffff80107b5a:	be 00 00 00 00       	mov    $0x0,%esi
ffffffff80107b5f:	bf 08 00 00 00       	mov    $0x8,%edi
ffffffff80107b64:	e8 e6 ed ff ff       	callq  ffffffff8010694f <set_idt_entry>
ffffffff80107b69:	48 c7 c0 d0 9e 10 80 	mov    $0xffffffff80109ed0,%rax
ffffffff80107b70:	41 b8 7b 00 00 00    	mov    $0x7b,%r8d
ffffffff80107b76:	48 89 c1             	mov    %rax,%rcx
ffffffff80107b79:	ba 8e 00 00 00       	mov    $0x8e,%edx
ffffffff80107b7e:	be 00 00 00 00       	mov    $0x0,%esi
ffffffff80107b83:	bf 08 00 00 00       	mov    $0x8,%edi
ffffffff80107b88:	e8 c2 ed ff ff       	callq  ffffffff8010694f <set_idt_entry>
ffffffff80107b8d:	48 c7 c0 d9 9e 10 80 	mov    $0xffffffff80109ed9,%rax
ffffffff80107b94:	41 b8 7c 00 00 00    	mov    $0x7c,%r8d
ffffffff80107b9a:	48 89 c1             	mov    %rax,%rcx
ffffffff80107b9d:	ba 8e 00 00 00       	mov    $0x8e,%edx
ffffffff80107ba2:	be 00 00 00 00       	mov    $0x0,%esi
ffffffff80107ba7:	bf 08 00 00 00       	mov    $0x8,%edi
ffffffff80107bac:	e8 9e ed ff ff       	callq  ffffffff8010694f <set_idt_entry>
ffffffff80107bb1:	48 c7 c0 e2 9e 10 80 	mov    $0xffffffff80109ee2,%rax
ffffffff80107bb8:	41 b8 7d 00 00 00    	mov    $0x7d,%r8d
ffffffff80107bbe:	48 89 c1             	mov    %rax,%rcx
ffffffff80107bc1:	ba 8e 00 00 00       	mov    $0x8e,%edx
ffffffff80107bc6:	be 00 00 00 00       	mov    $0x0,%esi
ffffffff80107bcb:	bf 08 00 00 00       	mov    $0x8,%edi
ffffffff80107bd0:	e8 7a ed ff ff       	callq  ffffffff8010694f <set_idt_entry>
ffffffff80107bd5:	48 c7 c0 eb 9e 10 80 	mov    $0xffffffff80109eeb,%rax
ffffffff80107bdc:	41 b8 7e 00 00 00    	mov    $0x7e,%r8d
ffffffff80107be2:	48 89 c1             	mov    %rax,%rcx
ffffffff80107be5:	ba 8e 00 00 00       	mov    $0x8e,%edx
ffffffff80107bea:	be 00 00 00 00       	mov    $0x0,%esi
ffffffff80107bef:	bf 08 00 00 00       	mov    $0x8,%edi
ffffffff80107bf4:	e8 56 ed ff ff       	callq  ffffffff8010694f <set_idt_entry>
ffffffff80107bf9:	48 c7 c0 f4 9e 10 80 	mov    $0xffffffff80109ef4,%rax
ffffffff80107c00:	41 b8 7f 00 00 00    	mov    $0x7f,%r8d
ffffffff80107c06:	48 89 c1             	mov    %rax,%rcx
ffffffff80107c09:	ba 8e 00 00 00       	mov    $0x8e,%edx
ffffffff80107c0e:	be 00 00 00 00       	mov    $0x0,%esi
ffffffff80107c13:	bf 08 00 00 00       	mov    $0x8,%edi
ffffffff80107c18:	e8 32 ed ff ff       	callq  ffffffff8010694f <set_idt_entry>
ffffffff80107c1d:	48 c7 c0 fd 9e 10 80 	mov    $0xffffffff80109efd,%rax
ffffffff80107c24:	41 b8 80 00 00 00    	mov    $0x80,%r8d
ffffffff80107c2a:	48 89 c1             	mov    %rax,%rcx
ffffffff80107c2d:	ba 8e 00 00 00       	mov    $0x8e,%edx
ffffffff80107c32:	be 00 00 00 00       	mov    $0x0,%esi
ffffffff80107c37:	bf 08 00 00 00       	mov    $0x8,%edi
ffffffff80107c3c:	e8 0e ed ff ff       	callq  ffffffff8010694f <set_idt_entry>
ffffffff80107c41:	48 c7 c0 09 9f 10 80 	mov    $0xffffffff80109f09,%rax
ffffffff80107c48:	41 b8 81 00 00 00    	mov    $0x81,%r8d
ffffffff80107c4e:	48 89 c1             	mov    %rax,%rcx
ffffffff80107c51:	ba 8e 00 00 00       	mov    $0x8e,%edx
ffffffff80107c56:	be 00 00 00 00       	mov    $0x0,%esi
ffffffff80107c5b:	bf 08 00 00 00       	mov    $0x8,%edi
ffffffff80107c60:	e8 ea ec ff ff       	callq  ffffffff8010694f <set_idt_entry>
ffffffff80107c65:	48 c7 c0 15 9f 10 80 	mov    $0xffffffff80109f15,%rax
ffffffff80107c6c:	41 b8 82 00 00 00    	mov    $0x82,%r8d
ffffffff80107c72:	48 89 c1             	mov    %rax,%rcx
ffffffff80107c75:	ba 8e 00 00 00       	mov    $0x8e,%edx
ffffffff80107c7a:	be 00 00 00 00       	mov    $0x0,%esi
ffffffff80107c7f:	bf 08 00 00 00       	mov    $0x8,%edi
ffffffff80107c84:	e8 c6 ec ff ff       	callq  ffffffff8010694f <set_idt_entry>
ffffffff80107c89:	48 c7 c0 21 9f 10 80 	mov    $0xffffffff80109f21,%rax
ffffffff80107c90:	41 b8 83 00 00 00    	mov    $0x83,%r8d
ffffffff80107c96:	48 89 c1             	mov    %rax,%rcx
ffffffff80107c99:	ba 8e 00 00 00       	mov    $0x8e,%edx
ffffffff80107c9e:	be 00 00 00 00       	mov    $0x0,%esi
ffffffff80107ca3:	bf 08 00 00 00       	mov    $0x8,%edi
ffffffff80107ca8:	e8 a2 ec ff ff       	callq  ffffffff8010694f <set_idt_entry>
ffffffff80107cad:	48 c7 c0 2d 9f 10 80 	mov    $0xffffffff80109f2d,%rax
ffffffff80107cb4:	41 b8 84 00 00 00    	mov    $0x84,%r8d
ffffffff80107cba:	48 89 c1             	mov    %rax,%rcx
ffffffff80107cbd:	ba 8e 00 00 00       	mov    $0x8e,%edx
ffffffff80107cc2:	be 00 00 00 00       	mov    $0x0,%esi
ffffffff80107cc7:	bf 08 00 00 00       	mov    $0x8,%edi
ffffffff80107ccc:	e8 7e ec ff ff       	callq  ffffffff8010694f <set_idt_entry>
ffffffff80107cd1:	48 c7 c0 39 9f 10 80 	mov    $0xffffffff80109f39,%rax
ffffffff80107cd8:	41 b8 85 00 00 00    	mov    $0x85,%r8d
ffffffff80107cde:	48 89 c1             	mov    %rax,%rcx
ffffffff80107ce1:	ba 8e 00 00 00       	mov    $0x8e,%edx
ffffffff80107ce6:	be 00 00 00 00       	mov    $0x0,%esi
ffffffff80107ceb:	bf 08 00 00 00       	mov    $0x8,%edi
ffffffff80107cf0:	e8 5a ec ff ff       	callq  ffffffff8010694f <set_idt_entry>
ffffffff80107cf5:	48 c7 c0 45 9f 10 80 	mov    $0xffffffff80109f45,%rax
ffffffff80107cfc:	41 b8 86 00 00 00    	mov    $0x86,%r8d
ffffffff80107d02:	48 89 c1             	mov    %rax,%rcx
ffffffff80107d05:	ba 8e 00 00 00       	mov    $0x8e,%edx
ffffffff80107d0a:	be 00 00 00 00       	mov    $0x0,%esi
ffffffff80107d0f:	bf 08 00 00 00       	mov    $0x8,%edi
ffffffff80107d14:	e8 36 ec ff ff       	callq  ffffffff8010694f <set_idt_entry>
ffffffff80107d19:	48 c7 c0 51 9f 10 80 	mov    $0xffffffff80109f51,%rax
ffffffff80107d20:	41 b8 87 00 00 00    	mov    $0x87,%r8d
ffffffff80107d26:	48 89 c1             	mov    %rax,%rcx
ffffffff80107d29:	ba 8e 00 00 00       	mov    $0x8e,%edx
ffffffff80107d2e:	be 00 00 00 00       	mov    $0x0,%esi
ffffffff80107d33:	bf 08 00 00 00       	mov    $0x8,%edi
ffffffff80107d38:	e8 12 ec ff ff       	callq  ffffffff8010694f <set_idt_entry>
ffffffff80107d3d:	48 c7 c0 5d 9f 10 80 	mov    $0xffffffff80109f5d,%rax
ffffffff80107d44:	41 b8 88 00 00 00    	mov    $0x88,%r8d
ffffffff80107d4a:	48 89 c1             	mov    %rax,%rcx
ffffffff80107d4d:	ba 8e 00 00 00       	mov    $0x8e,%edx
ffffffff80107d52:	be 00 00 00 00       	mov    $0x0,%esi
ffffffff80107d57:	bf 08 00 00 00       	mov    $0x8,%edi
ffffffff80107d5c:	e8 ee eb ff ff       	callq  ffffffff8010694f <set_idt_entry>
ffffffff80107d61:	48 c7 c0 69 9f 10 80 	mov    $0xffffffff80109f69,%rax
ffffffff80107d68:	41 b8 89 00 00 00    	mov    $0x89,%r8d
ffffffff80107d6e:	48 89 c1             	mov    %rax,%rcx
ffffffff80107d71:	ba 8e 00 00 00       	mov    $0x8e,%edx
ffffffff80107d76:	be 00 00 00 00       	mov    $0x0,%esi
ffffffff80107d7b:	bf 08 00 00 00       	mov    $0x8,%edi
ffffffff80107d80:	e8 ca eb ff ff       	callq  ffffffff8010694f <set_idt_entry>
ffffffff80107d85:	48 c7 c0 75 9f 10 80 	mov    $0xffffffff80109f75,%rax
ffffffff80107d8c:	41 b8 8a 00 00 00    	mov    $0x8a,%r8d
ffffffff80107d92:	48 89 c1             	mov    %rax,%rcx
ffffffff80107d95:	ba 8e 00 00 00       	mov    $0x8e,%edx
ffffffff80107d9a:	be 00 00 00 00       	mov    $0x0,%esi
ffffffff80107d9f:	bf 08 00 00 00       	mov    $0x8,%edi
ffffffff80107da4:	e8 a6 eb ff ff       	callq  ffffffff8010694f <set_idt_entry>
ffffffff80107da9:	48 c7 c0 81 9f 10 80 	mov    $0xffffffff80109f81,%rax
ffffffff80107db0:	41 b8 8b 00 00 00    	mov    $0x8b,%r8d
ffffffff80107db6:	48 89 c1             	mov    %rax,%rcx
ffffffff80107db9:	ba 8e 00 00 00       	mov    $0x8e,%edx
ffffffff80107dbe:	be 00 00 00 00       	mov    $0x0,%esi
ffffffff80107dc3:	bf 08 00 00 00       	mov    $0x8,%edi
ffffffff80107dc8:	e8 82 eb ff ff       	callq  ffffffff8010694f <set_idt_entry>
ffffffff80107dcd:	48 c7 c0 8d 9f 10 80 	mov    $0xffffffff80109f8d,%rax
ffffffff80107dd4:	41 b8 8c 00 00 00    	mov    $0x8c,%r8d
ffffffff80107dda:	48 89 c1             	mov    %rax,%rcx
ffffffff80107ddd:	ba 8e 00 00 00       	mov    $0x8e,%edx
ffffffff80107de2:	be 00 00 00 00       	mov    $0x0,%esi
ffffffff80107de7:	bf 08 00 00 00       	mov    $0x8,%edi
ffffffff80107dec:	e8 5e eb ff ff       	callq  ffffffff8010694f <set_idt_entry>
ffffffff80107df1:	48 c7 c0 99 9f 10 80 	mov    $0xffffffff80109f99,%rax
ffffffff80107df8:	41 b8 8d 00 00 00    	mov    $0x8d,%r8d
ffffffff80107dfe:	48 89 c1             	mov    %rax,%rcx
ffffffff80107e01:	ba 8e 00 00 00       	mov    $0x8e,%edx
ffffffff80107e06:	be 00 00 00 00       	mov    $0x0,%esi
ffffffff80107e0b:	bf 08 00 00 00       	mov    $0x8,%edi
ffffffff80107e10:	e8 3a eb ff ff       	callq  ffffffff8010694f <set_idt_entry>
ffffffff80107e15:	48 c7 c0 a5 9f 10 80 	mov    $0xffffffff80109fa5,%rax
ffffffff80107e1c:	41 b8 8e 00 00 00    	mov    $0x8e,%r8d
ffffffff80107e22:	48 89 c1             	mov    %rax,%rcx
ffffffff80107e25:	ba 8e 00 00 00       	mov    $0x8e,%edx
ffffffff80107e2a:	be 00 00 00 00       	mov    $0x0,%esi
ffffffff80107e2f:	bf 08 00 00 00       	mov    $0x8,%edi
ffffffff80107e34:	e8 16 eb ff ff       	callq  ffffffff8010694f <set_idt_entry>
ffffffff80107e39:	48 c7 c0 b1 9f 10 80 	mov    $0xffffffff80109fb1,%rax
ffffffff80107e40:	41 b8 8f 00 00 00    	mov    $0x8f,%r8d
ffffffff80107e46:	48 89 c1             	mov    %rax,%rcx
ffffffff80107e49:	ba 8e 00 00 00       	mov    $0x8e,%edx
ffffffff80107e4e:	be 00 00 00 00       	mov    $0x0,%esi
ffffffff80107e53:	bf 08 00 00 00       	mov    $0x8,%edi
ffffffff80107e58:	e8 f2 ea ff ff       	callq  ffffffff8010694f <set_idt_entry>
ffffffff80107e5d:	48 c7 c0 bd 9f 10 80 	mov    $0xffffffff80109fbd,%rax
ffffffff80107e64:	41 b8 90 00 00 00    	mov    $0x90,%r8d
ffffffff80107e6a:	48 89 c1             	mov    %rax,%rcx
ffffffff80107e6d:	ba 8e 00 00 00       	mov    $0x8e,%edx
ffffffff80107e72:	be 00 00 00 00       	mov    $0x0,%esi
ffffffff80107e77:	bf 08 00 00 00       	mov    $0x8,%edi
ffffffff80107e7c:	e8 ce ea ff ff       	callq  ffffffff8010694f <set_idt_entry>
ffffffff80107e81:	48 c7 c0 c9 9f 10 80 	mov    $0xffffffff80109fc9,%rax
ffffffff80107e88:	41 b8 91 00 00 00    	mov    $0x91,%r8d
ffffffff80107e8e:	48 89 c1             	mov    %rax,%rcx
ffffffff80107e91:	ba 8e 00 00 00       	mov    $0x8e,%edx
ffffffff80107e96:	be 00 00 00 00       	mov    $0x0,%esi
ffffffff80107e9b:	bf 08 00 00 00       	mov    $0x8,%edi
ffffffff80107ea0:	e8 aa ea ff ff       	callq  ffffffff8010694f <set_idt_entry>
ffffffff80107ea5:	48 c7 c0 d5 9f 10 80 	mov    $0xffffffff80109fd5,%rax
ffffffff80107eac:	41 b8 92 00 00 00    	mov    $0x92,%r8d
ffffffff80107eb2:	48 89 c1             	mov    %rax,%rcx
ffffffff80107eb5:	ba 8e 00 00 00       	mov    $0x8e,%edx
ffffffff80107eba:	be 00 00 00 00       	mov    $0x0,%esi
ffffffff80107ebf:	bf 08 00 00 00       	mov    $0x8,%edi
ffffffff80107ec4:	e8 86 ea ff ff       	callq  ffffffff8010694f <set_idt_entry>
ffffffff80107ec9:	48 c7 c0 e1 9f 10 80 	mov    $0xffffffff80109fe1,%rax
ffffffff80107ed0:	41 b8 93 00 00 00    	mov    $0x93,%r8d
ffffffff80107ed6:	48 89 c1             	mov    %rax,%rcx
ffffffff80107ed9:	ba 8e 00 00 00       	mov    $0x8e,%edx
ffffffff80107ede:	be 00 00 00 00       	mov    $0x0,%esi
ffffffff80107ee3:	bf 08 00 00 00       	mov    $0x8,%edi
ffffffff80107ee8:	e8 62 ea ff ff       	callq  ffffffff8010694f <set_idt_entry>
ffffffff80107eed:	48 c7 c0 ed 9f 10 80 	mov    $0xffffffff80109fed,%rax
ffffffff80107ef4:	41 b8 94 00 00 00    	mov    $0x94,%r8d
ffffffff80107efa:	48 89 c1             	mov    %rax,%rcx
ffffffff80107efd:	ba 8e 00 00 00       	mov    $0x8e,%edx
ffffffff80107f02:	be 00 00 00 00       	mov    $0x0,%esi
ffffffff80107f07:	bf 08 00 00 00       	mov    $0x8,%edi
ffffffff80107f0c:	e8 3e ea ff ff       	callq  ffffffff8010694f <set_idt_entry>
ffffffff80107f11:	48 c7 c0 f9 9f 10 80 	mov    $0xffffffff80109ff9,%rax
ffffffff80107f18:	41 b8 95 00 00 00    	mov    $0x95,%r8d
ffffffff80107f1e:	48 89 c1             	mov    %rax,%rcx
ffffffff80107f21:	ba 8e 00 00 00       	mov    $0x8e,%edx
ffffffff80107f26:	be 00 00 00 00       	mov    $0x0,%esi
ffffffff80107f2b:	bf 08 00 00 00       	mov    $0x8,%edi
ffffffff80107f30:	e8 1a ea ff ff       	callq  ffffffff8010694f <set_idt_entry>
ffffffff80107f35:	48 c7 c0 05 a0 10 80 	mov    $0xffffffff8010a005,%rax
ffffffff80107f3c:	41 b8 96 00 00 00    	mov    $0x96,%r8d
ffffffff80107f42:	48 89 c1             	mov    %rax,%rcx
ffffffff80107f45:	ba 8e 00 00 00       	mov    $0x8e,%edx
ffffffff80107f4a:	be 00 00 00 00       	mov    $0x0,%esi
ffffffff80107f4f:	bf 08 00 00 00       	mov    $0x8,%edi
ffffffff80107f54:	e8 f6 e9 ff ff       	callq  ffffffff8010694f <set_idt_entry>
ffffffff80107f59:	48 c7 c0 11 a0 10 80 	mov    $0xffffffff8010a011,%rax
ffffffff80107f60:	41 b8 97 00 00 00    	mov    $0x97,%r8d
ffffffff80107f66:	48 89 c1             	mov    %rax,%rcx
ffffffff80107f69:	ba 8e 00 00 00       	mov    $0x8e,%edx
ffffffff80107f6e:	be 00 00 00 00       	mov    $0x0,%esi
ffffffff80107f73:	bf 08 00 00 00       	mov    $0x8,%edi
ffffffff80107f78:	e8 d2 e9 ff ff       	callq  ffffffff8010694f <set_idt_entry>
ffffffff80107f7d:	48 c7 c0 1d a0 10 80 	mov    $0xffffffff8010a01d,%rax
ffffffff80107f84:	41 b8 98 00 00 00    	mov    $0x98,%r8d
ffffffff80107f8a:	48 89 c1             	mov    %rax,%rcx
ffffffff80107f8d:	ba 8e 00 00 00       	mov    $0x8e,%edx
ffffffff80107f92:	be 00 00 00 00       	mov    $0x0,%esi
ffffffff80107f97:	bf 08 00 00 00       	mov    $0x8,%edi
ffffffff80107f9c:	e8 ae e9 ff ff       	callq  ffffffff8010694f <set_idt_entry>
ffffffff80107fa1:	48 c7 c0 29 a0 10 80 	mov    $0xffffffff8010a029,%rax
ffffffff80107fa8:	41 b8 99 00 00 00    	mov    $0x99,%r8d
ffffffff80107fae:	48 89 c1             	mov    %rax,%rcx
ffffffff80107fb1:	ba 8e 00 00 00       	mov    $0x8e,%edx
ffffffff80107fb6:	be 00 00 00 00       	mov    $0x0,%esi
ffffffff80107fbb:	bf 08 00 00 00       	mov    $0x8,%edi
ffffffff80107fc0:	e8 8a e9 ff ff       	callq  ffffffff8010694f <set_idt_entry>
ffffffff80107fc5:	48 c7 c0 35 a0 10 80 	mov    $0xffffffff8010a035,%rax
ffffffff80107fcc:	41 b8 9a 00 00 00    	mov    $0x9a,%r8d
ffffffff80107fd2:	48 89 c1             	mov    %rax,%rcx
ffffffff80107fd5:	ba 8e 00 00 00       	mov    $0x8e,%edx
ffffffff80107fda:	be 00 00 00 00       	mov    $0x0,%esi
ffffffff80107fdf:	bf 08 00 00 00       	mov    $0x8,%edi
ffffffff80107fe4:	e8 66 e9 ff ff       	callq  ffffffff8010694f <set_idt_entry>
ffffffff80107fe9:	48 c7 c0 41 a0 10 80 	mov    $0xffffffff8010a041,%rax
ffffffff80107ff0:	41 b8 9b 00 00 00    	mov    $0x9b,%r8d
ffffffff80107ff6:	48 89 c1             	mov    %rax,%rcx
ffffffff80107ff9:	ba 8e 00 00 00       	mov    $0x8e,%edx
ffffffff80107ffe:	be 00 00 00 00       	mov    $0x0,%esi
ffffffff80108003:	bf 08 00 00 00       	mov    $0x8,%edi
ffffffff80108008:	e8 42 e9 ff ff       	callq  ffffffff8010694f <set_idt_entry>
ffffffff8010800d:	48 c7 c0 4d a0 10 80 	mov    $0xffffffff8010a04d,%rax
ffffffff80108014:	41 b8 9c 00 00 00    	mov    $0x9c,%r8d
ffffffff8010801a:	48 89 c1             	mov    %rax,%rcx
ffffffff8010801d:	ba 8e 00 00 00       	mov    $0x8e,%edx
ffffffff80108022:	be 00 00 00 00       	mov    $0x0,%esi
ffffffff80108027:	bf 08 00 00 00       	mov    $0x8,%edi
ffffffff8010802c:	e8 1e e9 ff ff       	callq  ffffffff8010694f <set_idt_entry>
ffffffff80108031:	48 c7 c0 59 a0 10 80 	mov    $0xffffffff8010a059,%rax
ffffffff80108038:	41 b8 9d 00 00 00    	mov    $0x9d,%r8d
ffffffff8010803e:	48 89 c1             	mov    %rax,%rcx
ffffffff80108041:	ba 8e 00 00 00       	mov    $0x8e,%edx
ffffffff80108046:	be 00 00 00 00       	mov    $0x0,%esi
ffffffff8010804b:	bf 08 00 00 00       	mov    $0x8,%edi
ffffffff80108050:	e8 fa e8 ff ff       	callq  ffffffff8010694f <set_idt_entry>
ffffffff80108055:	48 c7 c0 65 a0 10 80 	mov    $0xffffffff8010a065,%rax
ffffffff8010805c:	41 b8 9e 00 00 00    	mov    $0x9e,%r8d
ffffffff80108062:	48 89 c1             	mov    %rax,%rcx
ffffffff80108065:	ba 8e 00 00 00       	mov    $0x8e,%edx
ffffffff8010806a:	be 00 00 00 00       	mov    $0x0,%esi
ffffffff8010806f:	bf 08 00 00 00       	mov    $0x8,%edi
ffffffff80108074:	e8 d6 e8 ff ff       	callq  ffffffff8010694f <set_idt_entry>
ffffffff80108079:	48 c7 c0 71 a0 10 80 	mov    $0xffffffff8010a071,%rax
ffffffff80108080:	41 b8 9f 00 00 00    	mov    $0x9f,%r8d
ffffffff80108086:	48 89 c1             	mov    %rax,%rcx
ffffffff80108089:	ba 8e 00 00 00       	mov    $0x8e,%edx
ffffffff8010808e:	be 00 00 00 00       	mov    $0x0,%esi
ffffffff80108093:	bf 08 00 00 00       	mov    $0x8,%edi
ffffffff80108098:	e8 b2 e8 ff ff       	callq  ffffffff8010694f <set_idt_entry>
ffffffff8010809d:	48 c7 c0 7d a0 10 80 	mov    $0xffffffff8010a07d,%rax
ffffffff801080a4:	41 b8 a0 00 00 00    	mov    $0xa0,%r8d
ffffffff801080aa:	48 89 c1             	mov    %rax,%rcx
ffffffff801080ad:	ba 8e 00 00 00       	mov    $0x8e,%edx
ffffffff801080b2:	be 00 00 00 00       	mov    $0x0,%esi
ffffffff801080b7:	bf 08 00 00 00       	mov    $0x8,%edi
ffffffff801080bc:	e8 8e e8 ff ff       	callq  ffffffff8010694f <set_idt_entry>
ffffffff801080c1:	48 c7 c0 89 a0 10 80 	mov    $0xffffffff8010a089,%rax
ffffffff801080c8:	41 b8 a1 00 00 00    	mov    $0xa1,%r8d
ffffffff801080ce:	48 89 c1             	mov    %rax,%rcx
ffffffff801080d1:	ba 8e 00 00 00       	mov    $0x8e,%edx
ffffffff801080d6:	be 00 00 00 00       	mov    $0x0,%esi
ffffffff801080db:	bf 08 00 00 00       	mov    $0x8,%edi
ffffffff801080e0:	e8 6a e8 ff ff       	callq  ffffffff8010694f <set_idt_entry>
ffffffff801080e5:	48 c7 c0 95 a0 10 80 	mov    $0xffffffff8010a095,%rax
ffffffff801080ec:	41 b8 a2 00 00 00    	mov    $0xa2,%r8d
ffffffff801080f2:	48 89 c1             	mov    %rax,%rcx
ffffffff801080f5:	ba 8e 00 00 00       	mov    $0x8e,%edx
ffffffff801080fa:	be 00 00 00 00       	mov    $0x0,%esi
ffffffff801080ff:	bf 08 00 00 00       	mov    $0x8,%edi
ffffffff80108104:	e8 46 e8 ff ff       	callq  ffffffff8010694f <set_idt_entry>
ffffffff80108109:	48 c7 c0 a1 a0 10 80 	mov    $0xffffffff8010a0a1,%rax
ffffffff80108110:	41 b8 a3 00 00 00    	mov    $0xa3,%r8d
ffffffff80108116:	48 89 c1             	mov    %rax,%rcx
ffffffff80108119:	ba 8e 00 00 00       	mov    $0x8e,%edx
ffffffff8010811e:	be 00 00 00 00       	mov    $0x0,%esi
ffffffff80108123:	bf 08 00 00 00       	mov    $0x8,%edi
ffffffff80108128:	e8 22 e8 ff ff       	callq  ffffffff8010694f <set_idt_entry>
ffffffff8010812d:	48 c7 c0 ad a0 10 80 	mov    $0xffffffff8010a0ad,%rax
ffffffff80108134:	41 b8 a4 00 00 00    	mov    $0xa4,%r8d
ffffffff8010813a:	48 89 c1             	mov    %rax,%rcx
ffffffff8010813d:	ba 8e 00 00 00       	mov    $0x8e,%edx
ffffffff80108142:	be 00 00 00 00       	mov    $0x0,%esi
ffffffff80108147:	bf 08 00 00 00       	mov    $0x8,%edi
ffffffff8010814c:	e8 fe e7 ff ff       	callq  ffffffff8010694f <set_idt_entry>
ffffffff80108151:	48 c7 c0 b9 a0 10 80 	mov    $0xffffffff8010a0b9,%rax
ffffffff80108158:	41 b8 a5 00 00 00    	mov    $0xa5,%r8d
ffffffff8010815e:	48 89 c1             	mov    %rax,%rcx
ffffffff80108161:	ba 8e 00 00 00       	mov    $0x8e,%edx
ffffffff80108166:	be 00 00 00 00       	mov    $0x0,%esi
ffffffff8010816b:	bf 08 00 00 00       	mov    $0x8,%edi
ffffffff80108170:	e8 da e7 ff ff       	callq  ffffffff8010694f <set_idt_entry>
ffffffff80108175:	48 c7 c0 c5 a0 10 80 	mov    $0xffffffff8010a0c5,%rax
ffffffff8010817c:	41 b8 a6 00 00 00    	mov    $0xa6,%r8d
ffffffff80108182:	48 89 c1             	mov    %rax,%rcx
ffffffff80108185:	ba 8e 00 00 00       	mov    $0x8e,%edx
ffffffff8010818a:	be 00 00 00 00       	mov    $0x0,%esi
ffffffff8010818f:	bf 08 00 00 00       	mov    $0x8,%edi
ffffffff80108194:	e8 b6 e7 ff ff       	callq  ffffffff8010694f <set_idt_entry>
ffffffff80108199:	48 c7 c0 d1 a0 10 80 	mov    $0xffffffff8010a0d1,%rax
ffffffff801081a0:	41 b8 a7 00 00 00    	mov    $0xa7,%r8d
ffffffff801081a6:	48 89 c1             	mov    %rax,%rcx
ffffffff801081a9:	ba 8e 00 00 00       	mov    $0x8e,%edx
ffffffff801081ae:	be 00 00 00 00       	mov    $0x0,%esi
ffffffff801081b3:	bf 08 00 00 00       	mov    $0x8,%edi
ffffffff801081b8:	e8 92 e7 ff ff       	callq  ffffffff8010694f <set_idt_entry>
ffffffff801081bd:	48 c7 c0 dd a0 10 80 	mov    $0xffffffff8010a0dd,%rax
ffffffff801081c4:	41 b8 a8 00 00 00    	mov    $0xa8,%r8d
ffffffff801081ca:	48 89 c1             	mov    %rax,%rcx
ffffffff801081cd:	ba 8e 00 00 00       	mov    $0x8e,%edx
ffffffff801081d2:	be 00 00 00 00       	mov    $0x0,%esi
ffffffff801081d7:	bf 08 00 00 00       	mov    $0x8,%edi
ffffffff801081dc:	e8 6e e7 ff ff       	callq  ffffffff8010694f <set_idt_entry>
ffffffff801081e1:	48 c7 c0 e9 a0 10 80 	mov    $0xffffffff8010a0e9,%rax
ffffffff801081e8:	41 b8 a9 00 00 00    	mov    $0xa9,%r8d
ffffffff801081ee:	48 89 c1             	mov    %rax,%rcx
ffffffff801081f1:	ba 8e 00 00 00       	mov    $0x8e,%edx
ffffffff801081f6:	be 00 00 00 00       	mov    $0x0,%esi
ffffffff801081fb:	bf 08 00 00 00       	mov    $0x8,%edi
ffffffff80108200:	e8 4a e7 ff ff       	callq  ffffffff8010694f <set_idt_entry>
ffffffff80108205:	48 c7 c0 f5 a0 10 80 	mov    $0xffffffff8010a0f5,%rax
ffffffff8010820c:	41 b8 aa 00 00 00    	mov    $0xaa,%r8d
ffffffff80108212:	48 89 c1             	mov    %rax,%rcx
ffffffff80108215:	ba 8e 00 00 00       	mov    $0x8e,%edx
ffffffff8010821a:	be 00 00 00 00       	mov    $0x0,%esi
ffffffff8010821f:	bf 08 00 00 00       	mov    $0x8,%edi
ffffffff80108224:	e8 26 e7 ff ff       	callq  ffffffff8010694f <set_idt_entry>
ffffffff80108229:	48 c7 c0 01 a1 10 80 	mov    $0xffffffff8010a101,%rax
ffffffff80108230:	41 b8 ab 00 00 00    	mov    $0xab,%r8d
ffffffff80108236:	48 89 c1             	mov    %rax,%rcx
ffffffff80108239:	ba 8e 00 00 00       	mov    $0x8e,%edx
ffffffff8010823e:	be 00 00 00 00       	mov    $0x0,%esi
ffffffff80108243:	bf 08 00 00 00       	mov    $0x8,%edi
ffffffff80108248:	e8 02 e7 ff ff       	callq  ffffffff8010694f <set_idt_entry>
ffffffff8010824d:	48 c7 c0 0d a1 10 80 	mov    $0xffffffff8010a10d,%rax
ffffffff80108254:	41 b8 ac 00 00 00    	mov    $0xac,%r8d
ffffffff8010825a:	48 89 c1             	mov    %rax,%rcx
ffffffff8010825d:	ba 8e 00 00 00       	mov    $0x8e,%edx
ffffffff80108262:	be 00 00 00 00       	mov    $0x0,%esi
ffffffff80108267:	bf 08 00 00 00       	mov    $0x8,%edi
ffffffff8010826c:	e8 de e6 ff ff       	callq  ffffffff8010694f <set_idt_entry>
ffffffff80108271:	48 c7 c0 19 a1 10 80 	mov    $0xffffffff8010a119,%rax
ffffffff80108278:	41 b8 ad 00 00 00    	mov    $0xad,%r8d
ffffffff8010827e:	48 89 c1             	mov    %rax,%rcx
ffffffff80108281:	ba 8e 00 00 00       	mov    $0x8e,%edx
ffffffff80108286:	be 00 00 00 00       	mov    $0x0,%esi
ffffffff8010828b:	bf 08 00 00 00       	mov    $0x8,%edi
ffffffff80108290:	e8 ba e6 ff ff       	callq  ffffffff8010694f <set_idt_entry>
ffffffff80108295:	48 c7 c0 25 a1 10 80 	mov    $0xffffffff8010a125,%rax
ffffffff8010829c:	41 b8 ae 00 00 00    	mov    $0xae,%r8d
ffffffff801082a2:	48 89 c1             	mov    %rax,%rcx
ffffffff801082a5:	ba 8e 00 00 00       	mov    $0x8e,%edx
ffffffff801082aa:	be 00 00 00 00       	mov    $0x0,%esi
ffffffff801082af:	bf 08 00 00 00       	mov    $0x8,%edi
ffffffff801082b4:	e8 96 e6 ff ff       	callq  ffffffff8010694f <set_idt_entry>
ffffffff801082b9:	48 c7 c0 31 a1 10 80 	mov    $0xffffffff8010a131,%rax
ffffffff801082c0:	41 b8 af 00 00 00    	mov    $0xaf,%r8d
ffffffff801082c6:	48 89 c1             	mov    %rax,%rcx
ffffffff801082c9:	ba 8e 00 00 00       	mov    $0x8e,%edx
ffffffff801082ce:	be 00 00 00 00       	mov    $0x0,%esi
ffffffff801082d3:	bf 08 00 00 00       	mov    $0x8,%edi
ffffffff801082d8:	e8 72 e6 ff ff       	callq  ffffffff8010694f <set_idt_entry>
ffffffff801082dd:	48 c7 c0 3d a1 10 80 	mov    $0xffffffff8010a13d,%rax
ffffffff801082e4:	41 b8 b0 00 00 00    	mov    $0xb0,%r8d
ffffffff801082ea:	48 89 c1             	mov    %rax,%rcx
ffffffff801082ed:	ba 8e 00 00 00       	mov    $0x8e,%edx
ffffffff801082f2:	be 00 00 00 00       	mov    $0x0,%esi
ffffffff801082f7:	bf 08 00 00 00       	mov    $0x8,%edi
ffffffff801082fc:	e8 4e e6 ff ff       	callq  ffffffff8010694f <set_idt_entry>
ffffffff80108301:	48 c7 c0 49 a1 10 80 	mov    $0xffffffff8010a149,%rax
ffffffff80108308:	41 b8 b1 00 00 00    	mov    $0xb1,%r8d
ffffffff8010830e:	48 89 c1             	mov    %rax,%rcx
ffffffff80108311:	ba 8e 00 00 00       	mov    $0x8e,%edx
ffffffff80108316:	be 00 00 00 00       	mov    $0x0,%esi
ffffffff8010831b:	bf 08 00 00 00       	mov    $0x8,%edi
ffffffff80108320:	e8 2a e6 ff ff       	callq  ffffffff8010694f <set_idt_entry>
ffffffff80108325:	48 c7 c0 55 a1 10 80 	mov    $0xffffffff8010a155,%rax
ffffffff8010832c:	41 b8 b2 00 00 00    	mov    $0xb2,%r8d
ffffffff80108332:	48 89 c1             	mov    %rax,%rcx
ffffffff80108335:	ba 8e 00 00 00       	mov    $0x8e,%edx
ffffffff8010833a:	be 00 00 00 00       	mov    $0x0,%esi
ffffffff8010833f:	bf 08 00 00 00       	mov    $0x8,%edi
ffffffff80108344:	e8 06 e6 ff ff       	callq  ffffffff8010694f <set_idt_entry>
ffffffff80108349:	48 c7 c0 61 a1 10 80 	mov    $0xffffffff8010a161,%rax
ffffffff80108350:	41 b8 b3 00 00 00    	mov    $0xb3,%r8d
ffffffff80108356:	48 89 c1             	mov    %rax,%rcx
ffffffff80108359:	ba 8e 00 00 00       	mov    $0x8e,%edx
ffffffff8010835e:	be 00 00 00 00       	mov    $0x0,%esi
ffffffff80108363:	bf 08 00 00 00       	mov    $0x8,%edi
ffffffff80108368:	e8 e2 e5 ff ff       	callq  ffffffff8010694f <set_idt_entry>
ffffffff8010836d:	48 c7 c0 6d a1 10 80 	mov    $0xffffffff8010a16d,%rax
ffffffff80108374:	41 b8 b4 00 00 00    	mov    $0xb4,%r8d
ffffffff8010837a:	48 89 c1             	mov    %rax,%rcx
ffffffff8010837d:	ba 8e 00 00 00       	mov    $0x8e,%edx
ffffffff80108382:	be 00 00 00 00       	mov    $0x0,%esi
ffffffff80108387:	bf 08 00 00 00       	mov    $0x8,%edi
ffffffff8010838c:	e8 be e5 ff ff       	callq  ffffffff8010694f <set_idt_entry>
ffffffff80108391:	48 c7 c0 79 a1 10 80 	mov    $0xffffffff8010a179,%rax
ffffffff80108398:	41 b8 b5 00 00 00    	mov    $0xb5,%r8d
ffffffff8010839e:	48 89 c1             	mov    %rax,%rcx
ffffffff801083a1:	ba 8e 00 00 00       	mov    $0x8e,%edx
ffffffff801083a6:	be 00 00 00 00       	mov    $0x0,%esi
ffffffff801083ab:	bf 08 00 00 00       	mov    $0x8,%edi
ffffffff801083b0:	e8 9a e5 ff ff       	callq  ffffffff8010694f <set_idt_entry>
ffffffff801083b5:	48 c7 c0 85 a1 10 80 	mov    $0xffffffff8010a185,%rax
ffffffff801083bc:	41 b8 b6 00 00 00    	mov    $0xb6,%r8d
ffffffff801083c2:	48 89 c1             	mov    %rax,%rcx
ffffffff801083c5:	ba 8e 00 00 00       	mov    $0x8e,%edx
ffffffff801083ca:	be 00 00 00 00       	mov    $0x0,%esi
ffffffff801083cf:	bf 08 00 00 00       	mov    $0x8,%edi
ffffffff801083d4:	e8 76 e5 ff ff       	callq  ffffffff8010694f <set_idt_entry>
ffffffff801083d9:	48 c7 c0 91 a1 10 80 	mov    $0xffffffff8010a191,%rax
ffffffff801083e0:	41 b8 b7 00 00 00    	mov    $0xb7,%r8d
ffffffff801083e6:	48 89 c1             	mov    %rax,%rcx
ffffffff801083e9:	ba 8e 00 00 00       	mov    $0x8e,%edx
ffffffff801083ee:	be 00 00 00 00       	mov    $0x0,%esi
ffffffff801083f3:	bf 08 00 00 00       	mov    $0x8,%edi
ffffffff801083f8:	e8 52 e5 ff ff       	callq  ffffffff8010694f <set_idt_entry>
ffffffff801083fd:	48 c7 c0 9d a1 10 80 	mov    $0xffffffff8010a19d,%rax
ffffffff80108404:	41 b8 b8 00 00 00    	mov    $0xb8,%r8d
ffffffff8010840a:	48 89 c1             	mov    %rax,%rcx
ffffffff8010840d:	ba 8e 00 00 00       	mov    $0x8e,%edx
ffffffff80108412:	be 00 00 00 00       	mov    $0x0,%esi
ffffffff80108417:	bf 08 00 00 00       	mov    $0x8,%edi
ffffffff8010841c:	e8 2e e5 ff ff       	callq  ffffffff8010694f <set_idt_entry>
ffffffff80108421:	48 c7 c0 a9 a1 10 80 	mov    $0xffffffff8010a1a9,%rax
ffffffff80108428:	41 b8 b9 00 00 00    	mov    $0xb9,%r8d
ffffffff8010842e:	48 89 c1             	mov    %rax,%rcx
ffffffff80108431:	ba 8e 00 00 00       	mov    $0x8e,%edx
ffffffff80108436:	be 00 00 00 00       	mov    $0x0,%esi
ffffffff8010843b:	bf 08 00 00 00       	mov    $0x8,%edi
ffffffff80108440:	e8 0a e5 ff ff       	callq  ffffffff8010694f <set_idt_entry>
ffffffff80108445:	48 c7 c0 b5 a1 10 80 	mov    $0xffffffff8010a1b5,%rax
ffffffff8010844c:	41 b8 ba 00 00 00    	mov    $0xba,%r8d
ffffffff80108452:	48 89 c1             	mov    %rax,%rcx
ffffffff80108455:	ba 8e 00 00 00       	mov    $0x8e,%edx
ffffffff8010845a:	be 00 00 00 00       	mov    $0x0,%esi
ffffffff8010845f:	bf 08 00 00 00       	mov    $0x8,%edi
ffffffff80108464:	e8 e6 e4 ff ff       	callq  ffffffff8010694f <set_idt_entry>
ffffffff80108469:	48 c7 c0 c1 a1 10 80 	mov    $0xffffffff8010a1c1,%rax
ffffffff80108470:	41 b8 bb 00 00 00    	mov    $0xbb,%r8d
ffffffff80108476:	48 89 c1             	mov    %rax,%rcx
ffffffff80108479:	ba 8e 00 00 00       	mov    $0x8e,%edx
ffffffff8010847e:	be 00 00 00 00       	mov    $0x0,%esi
ffffffff80108483:	bf 08 00 00 00       	mov    $0x8,%edi
ffffffff80108488:	e8 c2 e4 ff ff       	callq  ffffffff8010694f <set_idt_entry>
ffffffff8010848d:	48 c7 c0 cd a1 10 80 	mov    $0xffffffff8010a1cd,%rax
ffffffff80108494:	41 b8 bc 00 00 00    	mov    $0xbc,%r8d
ffffffff8010849a:	48 89 c1             	mov    %rax,%rcx
ffffffff8010849d:	ba 8e 00 00 00       	mov    $0x8e,%edx
ffffffff801084a2:	be 00 00 00 00       	mov    $0x0,%esi
ffffffff801084a7:	bf 08 00 00 00       	mov    $0x8,%edi
ffffffff801084ac:	e8 9e e4 ff ff       	callq  ffffffff8010694f <set_idt_entry>
ffffffff801084b1:	48 c7 c0 d9 a1 10 80 	mov    $0xffffffff8010a1d9,%rax
ffffffff801084b8:	41 b8 bd 00 00 00    	mov    $0xbd,%r8d
ffffffff801084be:	48 89 c1             	mov    %rax,%rcx
ffffffff801084c1:	ba 8e 00 00 00       	mov    $0x8e,%edx
ffffffff801084c6:	be 00 00 00 00       	mov    $0x0,%esi
ffffffff801084cb:	bf 08 00 00 00       	mov    $0x8,%edi
ffffffff801084d0:	e8 7a e4 ff ff       	callq  ffffffff8010694f <set_idt_entry>
ffffffff801084d5:	48 c7 c0 e5 a1 10 80 	mov    $0xffffffff8010a1e5,%rax
ffffffff801084dc:	41 b8 be 00 00 00    	mov    $0xbe,%r8d
ffffffff801084e2:	48 89 c1             	mov    %rax,%rcx
ffffffff801084e5:	ba 8e 00 00 00       	mov    $0x8e,%edx
ffffffff801084ea:	be 00 00 00 00       	mov    $0x0,%esi
ffffffff801084ef:	bf 08 00 00 00       	mov    $0x8,%edi
ffffffff801084f4:	e8 56 e4 ff ff       	callq  ffffffff8010694f <set_idt_entry>
ffffffff801084f9:	48 c7 c0 f1 a1 10 80 	mov    $0xffffffff8010a1f1,%rax
ffffffff80108500:	41 b8 bf 00 00 00    	mov    $0xbf,%r8d
ffffffff80108506:	48 89 c1             	mov    %rax,%rcx
ffffffff80108509:	ba 8e 00 00 00       	mov    $0x8e,%edx
ffffffff8010850e:	be 00 00 00 00       	mov    $0x0,%esi
ffffffff80108513:	bf 08 00 00 00       	mov    $0x8,%edi
ffffffff80108518:	e8 32 e4 ff ff       	callq  ffffffff8010694f <set_idt_entry>
ffffffff8010851d:	48 c7 c0 fd a1 10 80 	mov    $0xffffffff8010a1fd,%rax
ffffffff80108524:	41 b8 c0 00 00 00    	mov    $0xc0,%r8d
ffffffff8010852a:	48 89 c1             	mov    %rax,%rcx
ffffffff8010852d:	ba 8e 00 00 00       	mov    $0x8e,%edx
ffffffff80108532:	be 00 00 00 00       	mov    $0x0,%esi
ffffffff80108537:	bf 08 00 00 00       	mov    $0x8,%edi
ffffffff8010853c:	e8 0e e4 ff ff       	callq  ffffffff8010694f <set_idt_entry>
ffffffff80108541:	48 c7 c0 09 a2 10 80 	mov    $0xffffffff8010a209,%rax
ffffffff80108548:	41 b8 c1 00 00 00    	mov    $0xc1,%r8d
ffffffff8010854e:	48 89 c1             	mov    %rax,%rcx
ffffffff80108551:	ba 8e 00 00 00       	mov    $0x8e,%edx
ffffffff80108556:	be 00 00 00 00       	mov    $0x0,%esi
ffffffff8010855b:	bf 08 00 00 00       	mov    $0x8,%edi
ffffffff80108560:	e8 ea e3 ff ff       	callq  ffffffff8010694f <set_idt_entry>
ffffffff80108565:	48 c7 c0 15 a2 10 80 	mov    $0xffffffff8010a215,%rax
ffffffff8010856c:	41 b8 c2 00 00 00    	mov    $0xc2,%r8d
ffffffff80108572:	48 89 c1             	mov    %rax,%rcx
ffffffff80108575:	ba 8e 00 00 00       	mov    $0x8e,%edx
ffffffff8010857a:	be 00 00 00 00       	mov    $0x0,%esi
ffffffff8010857f:	bf 08 00 00 00       	mov    $0x8,%edi
ffffffff80108584:	e8 c6 e3 ff ff       	callq  ffffffff8010694f <set_idt_entry>
ffffffff80108589:	48 c7 c0 21 a2 10 80 	mov    $0xffffffff8010a221,%rax
ffffffff80108590:	41 b8 c3 00 00 00    	mov    $0xc3,%r8d
ffffffff80108596:	48 89 c1             	mov    %rax,%rcx
ffffffff80108599:	ba 8e 00 00 00       	mov    $0x8e,%edx
ffffffff8010859e:	be 00 00 00 00       	mov    $0x0,%esi
ffffffff801085a3:	bf 08 00 00 00       	mov    $0x8,%edi
ffffffff801085a8:	e8 a2 e3 ff ff       	callq  ffffffff8010694f <set_idt_entry>
ffffffff801085ad:	48 c7 c0 2d a2 10 80 	mov    $0xffffffff8010a22d,%rax
ffffffff801085b4:	41 b8 c4 00 00 00    	mov    $0xc4,%r8d
ffffffff801085ba:	48 89 c1             	mov    %rax,%rcx
ffffffff801085bd:	ba 8e 00 00 00       	mov    $0x8e,%edx
ffffffff801085c2:	be 00 00 00 00       	mov    $0x0,%esi
ffffffff801085c7:	bf 08 00 00 00       	mov    $0x8,%edi
ffffffff801085cc:	e8 7e e3 ff ff       	callq  ffffffff8010694f <set_idt_entry>
ffffffff801085d1:	48 c7 c0 39 a2 10 80 	mov    $0xffffffff8010a239,%rax
ffffffff801085d8:	41 b8 c5 00 00 00    	mov    $0xc5,%r8d
ffffffff801085de:	48 89 c1             	mov    %rax,%rcx
ffffffff801085e1:	ba 8e 00 00 00       	mov    $0x8e,%edx
ffffffff801085e6:	be 00 00 00 00       	mov    $0x0,%esi
ffffffff801085eb:	bf 08 00 00 00       	mov    $0x8,%edi
ffffffff801085f0:	e8 5a e3 ff ff       	callq  ffffffff8010694f <set_idt_entry>
ffffffff801085f5:	48 c7 c0 45 a2 10 80 	mov    $0xffffffff8010a245,%rax
ffffffff801085fc:	41 b8 c6 00 00 00    	mov    $0xc6,%r8d
ffffffff80108602:	48 89 c1             	mov    %rax,%rcx
ffffffff80108605:	ba 8e 00 00 00       	mov    $0x8e,%edx
ffffffff8010860a:	be 00 00 00 00       	mov    $0x0,%esi
ffffffff8010860f:	bf 08 00 00 00       	mov    $0x8,%edi
ffffffff80108614:	e8 36 e3 ff ff       	callq  ffffffff8010694f <set_idt_entry>
ffffffff80108619:	48 c7 c0 51 a2 10 80 	mov    $0xffffffff8010a251,%rax
ffffffff80108620:	41 b8 c7 00 00 00    	mov    $0xc7,%r8d
ffffffff80108626:	48 89 c1             	mov    %rax,%rcx
ffffffff80108629:	ba 8e 00 00 00       	mov    $0x8e,%edx
ffffffff8010862e:	be 00 00 00 00       	mov    $0x0,%esi
ffffffff80108633:	bf 08 00 00 00       	mov    $0x8,%edi
ffffffff80108638:	e8 12 e3 ff ff       	callq  ffffffff8010694f <set_idt_entry>
ffffffff8010863d:	48 c7 c0 5d a2 10 80 	mov    $0xffffffff8010a25d,%rax
ffffffff80108644:	41 b8 c8 00 00 00    	mov    $0xc8,%r8d
ffffffff8010864a:	48 89 c1             	mov    %rax,%rcx
ffffffff8010864d:	ba 8e 00 00 00       	mov    $0x8e,%edx
ffffffff80108652:	be 00 00 00 00       	mov    $0x0,%esi
ffffffff80108657:	bf 08 00 00 00       	mov    $0x8,%edi
ffffffff8010865c:	e8 ee e2 ff ff       	callq  ffffffff8010694f <set_idt_entry>
ffffffff80108661:	48 c7 c0 69 a2 10 80 	mov    $0xffffffff8010a269,%rax
ffffffff80108668:	41 b8 c9 00 00 00    	mov    $0xc9,%r8d
ffffffff8010866e:	48 89 c1             	mov    %rax,%rcx
ffffffff80108671:	ba 8e 00 00 00       	mov    $0x8e,%edx
ffffffff80108676:	be 00 00 00 00       	mov    $0x0,%esi
ffffffff8010867b:	bf 08 00 00 00       	mov    $0x8,%edi
ffffffff80108680:	e8 ca e2 ff ff       	callq  ffffffff8010694f <set_idt_entry>
ffffffff80108685:	48 c7 c0 75 a2 10 80 	mov    $0xffffffff8010a275,%rax
ffffffff8010868c:	41 b8 ca 00 00 00    	mov    $0xca,%r8d
ffffffff80108692:	48 89 c1             	mov    %rax,%rcx
ffffffff80108695:	ba 8e 00 00 00       	mov    $0x8e,%edx
ffffffff8010869a:	be 00 00 00 00       	mov    $0x0,%esi
ffffffff8010869f:	bf 08 00 00 00       	mov    $0x8,%edi
ffffffff801086a4:	e8 a6 e2 ff ff       	callq  ffffffff8010694f <set_idt_entry>
ffffffff801086a9:	48 c7 c0 81 a2 10 80 	mov    $0xffffffff8010a281,%rax
ffffffff801086b0:	41 b8 cb 00 00 00    	mov    $0xcb,%r8d
ffffffff801086b6:	48 89 c1             	mov    %rax,%rcx
ffffffff801086b9:	ba 8e 00 00 00       	mov    $0x8e,%edx
ffffffff801086be:	be 00 00 00 00       	mov    $0x0,%esi
ffffffff801086c3:	bf 08 00 00 00       	mov    $0x8,%edi
ffffffff801086c8:	e8 82 e2 ff ff       	callq  ffffffff8010694f <set_idt_entry>
ffffffff801086cd:	48 c7 c0 8d a2 10 80 	mov    $0xffffffff8010a28d,%rax
ffffffff801086d4:	41 b8 cc 00 00 00    	mov    $0xcc,%r8d
ffffffff801086da:	48 89 c1             	mov    %rax,%rcx
ffffffff801086dd:	ba 8e 00 00 00       	mov    $0x8e,%edx
ffffffff801086e2:	be 00 00 00 00       	mov    $0x0,%esi
ffffffff801086e7:	bf 08 00 00 00       	mov    $0x8,%edi
ffffffff801086ec:	e8 5e e2 ff ff       	callq  ffffffff8010694f <set_idt_entry>
ffffffff801086f1:	48 c7 c0 99 a2 10 80 	mov    $0xffffffff8010a299,%rax
ffffffff801086f8:	41 b8 cd 00 00 00    	mov    $0xcd,%r8d
ffffffff801086fe:	48 89 c1             	mov    %rax,%rcx
ffffffff80108701:	ba 8e 00 00 00       	mov    $0x8e,%edx
ffffffff80108706:	be 00 00 00 00       	mov    $0x0,%esi
ffffffff8010870b:	bf 08 00 00 00       	mov    $0x8,%edi
ffffffff80108710:	e8 3a e2 ff ff       	callq  ffffffff8010694f <set_idt_entry>
ffffffff80108715:	48 c7 c0 a5 a2 10 80 	mov    $0xffffffff8010a2a5,%rax
ffffffff8010871c:	41 b8 ce 00 00 00    	mov    $0xce,%r8d
ffffffff80108722:	48 89 c1             	mov    %rax,%rcx
ffffffff80108725:	ba 8e 00 00 00       	mov    $0x8e,%edx
ffffffff8010872a:	be 00 00 00 00       	mov    $0x0,%esi
ffffffff8010872f:	bf 08 00 00 00       	mov    $0x8,%edi
ffffffff80108734:	e8 16 e2 ff ff       	callq  ffffffff8010694f <set_idt_entry>
ffffffff80108739:	48 c7 c0 b1 a2 10 80 	mov    $0xffffffff8010a2b1,%rax
ffffffff80108740:	41 b8 cf 00 00 00    	mov    $0xcf,%r8d
ffffffff80108746:	48 89 c1             	mov    %rax,%rcx
ffffffff80108749:	ba 8e 00 00 00       	mov    $0x8e,%edx
ffffffff8010874e:	be 00 00 00 00       	mov    $0x0,%esi
ffffffff80108753:	bf 08 00 00 00       	mov    $0x8,%edi
ffffffff80108758:	e8 f2 e1 ff ff       	callq  ffffffff8010694f <set_idt_entry>
ffffffff8010875d:	48 c7 c0 bd a2 10 80 	mov    $0xffffffff8010a2bd,%rax
ffffffff80108764:	41 b8 d0 00 00 00    	mov    $0xd0,%r8d
ffffffff8010876a:	48 89 c1             	mov    %rax,%rcx
ffffffff8010876d:	ba 8e 00 00 00       	mov    $0x8e,%edx
ffffffff80108772:	be 00 00 00 00       	mov    $0x0,%esi
ffffffff80108777:	bf 08 00 00 00       	mov    $0x8,%edi
ffffffff8010877c:	e8 ce e1 ff ff       	callq  ffffffff8010694f <set_idt_entry>
ffffffff80108781:	48 c7 c0 c9 a2 10 80 	mov    $0xffffffff8010a2c9,%rax
ffffffff80108788:	41 b8 d1 00 00 00    	mov    $0xd1,%r8d
ffffffff8010878e:	48 89 c1             	mov    %rax,%rcx
ffffffff80108791:	ba 8e 00 00 00       	mov    $0x8e,%edx
ffffffff80108796:	be 00 00 00 00       	mov    $0x0,%esi
ffffffff8010879b:	bf 08 00 00 00       	mov    $0x8,%edi
ffffffff801087a0:	e8 aa e1 ff ff       	callq  ffffffff8010694f <set_idt_entry>
ffffffff801087a5:	48 c7 c0 d5 a2 10 80 	mov    $0xffffffff8010a2d5,%rax
ffffffff801087ac:	41 b8 d2 00 00 00    	mov    $0xd2,%r8d
ffffffff801087b2:	48 89 c1             	mov    %rax,%rcx
ffffffff801087b5:	ba 8e 00 00 00       	mov    $0x8e,%edx
ffffffff801087ba:	be 00 00 00 00       	mov    $0x0,%esi
ffffffff801087bf:	bf 08 00 00 00       	mov    $0x8,%edi
ffffffff801087c4:	e8 86 e1 ff ff       	callq  ffffffff8010694f <set_idt_entry>
ffffffff801087c9:	48 c7 c0 e1 a2 10 80 	mov    $0xffffffff8010a2e1,%rax
ffffffff801087d0:	41 b8 d3 00 00 00    	mov    $0xd3,%r8d
ffffffff801087d6:	48 89 c1             	mov    %rax,%rcx
ffffffff801087d9:	ba 8e 00 00 00       	mov    $0x8e,%edx
ffffffff801087de:	be 00 00 00 00       	mov    $0x0,%esi
ffffffff801087e3:	bf 08 00 00 00       	mov    $0x8,%edi
ffffffff801087e8:	e8 62 e1 ff ff       	callq  ffffffff8010694f <set_idt_entry>
ffffffff801087ed:	48 c7 c0 ed a2 10 80 	mov    $0xffffffff8010a2ed,%rax
ffffffff801087f4:	41 b8 d4 00 00 00    	mov    $0xd4,%r8d
ffffffff801087fa:	48 89 c1             	mov    %rax,%rcx
ffffffff801087fd:	ba 8e 00 00 00       	mov    $0x8e,%edx
ffffffff80108802:	be 00 00 00 00       	mov    $0x0,%esi
ffffffff80108807:	bf 08 00 00 00       	mov    $0x8,%edi
ffffffff8010880c:	e8 3e e1 ff ff       	callq  ffffffff8010694f <set_idt_entry>
ffffffff80108811:	48 c7 c0 f9 a2 10 80 	mov    $0xffffffff8010a2f9,%rax
ffffffff80108818:	41 b8 d5 00 00 00    	mov    $0xd5,%r8d
ffffffff8010881e:	48 89 c1             	mov    %rax,%rcx
ffffffff80108821:	ba 8e 00 00 00       	mov    $0x8e,%edx
ffffffff80108826:	be 00 00 00 00       	mov    $0x0,%esi
ffffffff8010882b:	bf 08 00 00 00       	mov    $0x8,%edi
ffffffff80108830:	e8 1a e1 ff ff       	callq  ffffffff8010694f <set_idt_entry>
ffffffff80108835:	48 c7 c0 05 a3 10 80 	mov    $0xffffffff8010a305,%rax
ffffffff8010883c:	41 b8 d6 00 00 00    	mov    $0xd6,%r8d
ffffffff80108842:	48 89 c1             	mov    %rax,%rcx
ffffffff80108845:	ba 8e 00 00 00       	mov    $0x8e,%edx
ffffffff8010884a:	be 00 00 00 00       	mov    $0x0,%esi
ffffffff8010884f:	bf 08 00 00 00       	mov    $0x8,%edi
ffffffff80108854:	e8 f6 e0 ff ff       	callq  ffffffff8010694f <set_idt_entry>
ffffffff80108859:	48 c7 c0 11 a3 10 80 	mov    $0xffffffff8010a311,%rax
ffffffff80108860:	41 b8 d7 00 00 00    	mov    $0xd7,%r8d
ffffffff80108866:	48 89 c1             	mov    %rax,%rcx
ffffffff80108869:	ba 8e 00 00 00       	mov    $0x8e,%edx
ffffffff8010886e:	be 00 00 00 00       	mov    $0x0,%esi
ffffffff80108873:	bf 08 00 00 00       	mov    $0x8,%edi
ffffffff80108878:	e8 d2 e0 ff ff       	callq  ffffffff8010694f <set_idt_entry>
ffffffff8010887d:	48 c7 c0 1d a3 10 80 	mov    $0xffffffff8010a31d,%rax
ffffffff80108884:	41 b8 d8 00 00 00    	mov    $0xd8,%r8d
ffffffff8010888a:	48 89 c1             	mov    %rax,%rcx
ffffffff8010888d:	ba 8e 00 00 00       	mov    $0x8e,%edx
ffffffff80108892:	be 00 00 00 00       	mov    $0x0,%esi
ffffffff80108897:	bf 08 00 00 00       	mov    $0x8,%edi
ffffffff8010889c:	e8 ae e0 ff ff       	callq  ffffffff8010694f <set_idt_entry>
ffffffff801088a1:	48 c7 c0 29 a3 10 80 	mov    $0xffffffff8010a329,%rax
ffffffff801088a8:	41 b8 d9 00 00 00    	mov    $0xd9,%r8d
ffffffff801088ae:	48 89 c1             	mov    %rax,%rcx
ffffffff801088b1:	ba 8e 00 00 00       	mov    $0x8e,%edx
ffffffff801088b6:	be 00 00 00 00       	mov    $0x0,%esi
ffffffff801088bb:	bf 08 00 00 00       	mov    $0x8,%edi
ffffffff801088c0:	e8 8a e0 ff ff       	callq  ffffffff8010694f <set_idt_entry>
ffffffff801088c5:	48 c7 c0 35 a3 10 80 	mov    $0xffffffff8010a335,%rax
ffffffff801088cc:	41 b8 da 00 00 00    	mov    $0xda,%r8d
ffffffff801088d2:	48 89 c1             	mov    %rax,%rcx
ffffffff801088d5:	ba 8e 00 00 00       	mov    $0x8e,%edx
ffffffff801088da:	be 00 00 00 00       	mov    $0x0,%esi
ffffffff801088df:	bf 08 00 00 00       	mov    $0x8,%edi
ffffffff801088e4:	e8 66 e0 ff ff       	callq  ffffffff8010694f <set_idt_entry>
ffffffff801088e9:	48 c7 c0 41 a3 10 80 	mov    $0xffffffff8010a341,%rax
ffffffff801088f0:	41 b8 db 00 00 00    	mov    $0xdb,%r8d
ffffffff801088f6:	48 89 c1             	mov    %rax,%rcx
ffffffff801088f9:	ba 8e 00 00 00       	mov    $0x8e,%edx
ffffffff801088fe:	be 00 00 00 00       	mov    $0x0,%esi
ffffffff80108903:	bf 08 00 00 00       	mov    $0x8,%edi
ffffffff80108908:	e8 42 e0 ff ff       	callq  ffffffff8010694f <set_idt_entry>
ffffffff8010890d:	48 c7 c0 4d a3 10 80 	mov    $0xffffffff8010a34d,%rax
ffffffff80108914:	41 b8 dc 00 00 00    	mov    $0xdc,%r8d
ffffffff8010891a:	48 89 c1             	mov    %rax,%rcx
ffffffff8010891d:	ba 8e 00 00 00       	mov    $0x8e,%edx
ffffffff80108922:	be 00 00 00 00       	mov    $0x0,%esi
ffffffff80108927:	bf 08 00 00 00       	mov    $0x8,%edi
ffffffff8010892c:	e8 1e e0 ff ff       	callq  ffffffff8010694f <set_idt_entry>
ffffffff80108931:	48 c7 c0 59 a3 10 80 	mov    $0xffffffff8010a359,%rax
ffffffff80108938:	41 b8 dd 00 00 00    	mov    $0xdd,%r8d
ffffffff8010893e:	48 89 c1             	mov    %rax,%rcx
ffffffff80108941:	ba 8e 00 00 00       	mov    $0x8e,%edx
ffffffff80108946:	be 00 00 00 00       	mov    $0x0,%esi
ffffffff8010894b:	bf 08 00 00 00       	mov    $0x8,%edi
ffffffff80108950:	e8 fa df ff ff       	callq  ffffffff8010694f <set_idt_entry>
ffffffff80108955:	48 c7 c0 65 a3 10 80 	mov    $0xffffffff8010a365,%rax
ffffffff8010895c:	41 b8 de 00 00 00    	mov    $0xde,%r8d
ffffffff80108962:	48 89 c1             	mov    %rax,%rcx
ffffffff80108965:	ba 8e 00 00 00       	mov    $0x8e,%edx
ffffffff8010896a:	be 00 00 00 00       	mov    $0x0,%esi
ffffffff8010896f:	bf 08 00 00 00       	mov    $0x8,%edi
ffffffff80108974:	e8 d6 df ff ff       	callq  ffffffff8010694f <set_idt_entry>
ffffffff80108979:	48 c7 c0 71 a3 10 80 	mov    $0xffffffff8010a371,%rax
ffffffff80108980:	41 b8 df 00 00 00    	mov    $0xdf,%r8d
ffffffff80108986:	48 89 c1             	mov    %rax,%rcx
ffffffff80108989:	ba 8e 00 00 00       	mov    $0x8e,%edx
ffffffff8010898e:	be 00 00 00 00       	mov    $0x0,%esi
ffffffff80108993:	bf 08 00 00 00       	mov    $0x8,%edi
ffffffff80108998:	e8 b2 df ff ff       	callq  ffffffff8010694f <set_idt_entry>
ffffffff8010899d:	48 c7 c0 7d a3 10 80 	mov    $0xffffffff8010a37d,%rax
ffffffff801089a4:	41 b8 e0 00 00 00    	mov    $0xe0,%r8d
ffffffff801089aa:	48 89 c1             	mov    %rax,%rcx
ffffffff801089ad:	ba 8e 00 00 00       	mov    $0x8e,%edx
ffffffff801089b2:	be 00 00 00 00       	mov    $0x0,%esi
ffffffff801089b7:	bf 08 00 00 00       	mov    $0x8,%edi
ffffffff801089bc:	e8 8e df ff ff       	callq  ffffffff8010694f <set_idt_entry>
ffffffff801089c1:	48 c7 c0 89 a3 10 80 	mov    $0xffffffff8010a389,%rax
ffffffff801089c8:	41 b8 e1 00 00 00    	mov    $0xe1,%r8d
ffffffff801089ce:	48 89 c1             	mov    %rax,%rcx
ffffffff801089d1:	ba 8e 00 00 00       	mov    $0x8e,%edx
ffffffff801089d6:	be 00 00 00 00       	mov    $0x0,%esi
ffffffff801089db:	bf 08 00 00 00       	mov    $0x8,%edi
ffffffff801089e0:	e8 6a df ff ff       	callq  ffffffff8010694f <set_idt_entry>
ffffffff801089e5:	48 c7 c0 95 a3 10 80 	mov    $0xffffffff8010a395,%rax
ffffffff801089ec:	41 b8 e2 00 00 00    	mov    $0xe2,%r8d
ffffffff801089f2:	48 89 c1             	mov    %rax,%rcx
ffffffff801089f5:	ba 8e 00 00 00       	mov    $0x8e,%edx
ffffffff801089fa:	be 00 00 00 00       	mov    $0x0,%esi
ffffffff801089ff:	bf 08 00 00 00       	mov    $0x8,%edi
ffffffff80108a04:	e8 46 df ff ff       	callq  ffffffff8010694f <set_idt_entry>
ffffffff80108a09:	48 c7 c0 a1 a3 10 80 	mov    $0xffffffff8010a3a1,%rax
ffffffff80108a10:	41 b8 e3 00 00 00    	mov    $0xe3,%r8d
ffffffff80108a16:	48 89 c1             	mov    %rax,%rcx
ffffffff80108a19:	ba 8e 00 00 00       	mov    $0x8e,%edx
ffffffff80108a1e:	be 00 00 00 00       	mov    $0x0,%esi
ffffffff80108a23:	bf 08 00 00 00       	mov    $0x8,%edi
ffffffff80108a28:	e8 22 df ff ff       	callq  ffffffff8010694f <set_idt_entry>
ffffffff80108a2d:	48 c7 c0 ad a3 10 80 	mov    $0xffffffff8010a3ad,%rax
ffffffff80108a34:	41 b8 e4 00 00 00    	mov    $0xe4,%r8d
ffffffff80108a3a:	48 89 c1             	mov    %rax,%rcx
ffffffff80108a3d:	ba 8e 00 00 00       	mov    $0x8e,%edx
ffffffff80108a42:	be 00 00 00 00       	mov    $0x0,%esi
ffffffff80108a47:	bf 08 00 00 00       	mov    $0x8,%edi
ffffffff80108a4c:	e8 fe de ff ff       	callq  ffffffff8010694f <set_idt_entry>
ffffffff80108a51:	48 c7 c0 b9 a3 10 80 	mov    $0xffffffff8010a3b9,%rax
ffffffff80108a58:	41 b8 e5 00 00 00    	mov    $0xe5,%r8d
ffffffff80108a5e:	48 89 c1             	mov    %rax,%rcx
ffffffff80108a61:	ba 8e 00 00 00       	mov    $0x8e,%edx
ffffffff80108a66:	be 00 00 00 00       	mov    $0x0,%esi
ffffffff80108a6b:	bf 08 00 00 00       	mov    $0x8,%edi
ffffffff80108a70:	e8 da de ff ff       	callq  ffffffff8010694f <set_idt_entry>
ffffffff80108a75:	48 c7 c0 c5 a3 10 80 	mov    $0xffffffff8010a3c5,%rax
ffffffff80108a7c:	41 b8 e6 00 00 00    	mov    $0xe6,%r8d
ffffffff80108a82:	48 89 c1             	mov    %rax,%rcx
ffffffff80108a85:	ba 8e 00 00 00       	mov    $0x8e,%edx
ffffffff80108a8a:	be 00 00 00 00       	mov    $0x0,%esi
ffffffff80108a8f:	bf 08 00 00 00       	mov    $0x8,%edi
ffffffff80108a94:	e8 b6 de ff ff       	callq  ffffffff8010694f <set_idt_entry>
ffffffff80108a99:	48 c7 c0 d1 a3 10 80 	mov    $0xffffffff8010a3d1,%rax
ffffffff80108aa0:	41 b8 e7 00 00 00    	mov    $0xe7,%r8d
ffffffff80108aa6:	48 89 c1             	mov    %rax,%rcx
ffffffff80108aa9:	ba 8e 00 00 00       	mov    $0x8e,%edx
ffffffff80108aae:	be 00 00 00 00       	mov    $0x0,%esi
ffffffff80108ab3:	bf 08 00 00 00       	mov    $0x8,%edi
ffffffff80108ab8:	e8 92 de ff ff       	callq  ffffffff8010694f <set_idt_entry>
ffffffff80108abd:	48 c7 c0 dd a3 10 80 	mov    $0xffffffff8010a3dd,%rax
ffffffff80108ac4:	41 b8 e8 00 00 00    	mov    $0xe8,%r8d
ffffffff80108aca:	48 89 c1             	mov    %rax,%rcx
ffffffff80108acd:	ba 8e 00 00 00       	mov    $0x8e,%edx
ffffffff80108ad2:	be 00 00 00 00       	mov    $0x0,%esi
ffffffff80108ad7:	bf 08 00 00 00       	mov    $0x8,%edi
ffffffff80108adc:	e8 6e de ff ff       	callq  ffffffff8010694f <set_idt_entry>
ffffffff80108ae1:	48 c7 c0 e9 a3 10 80 	mov    $0xffffffff8010a3e9,%rax
ffffffff80108ae8:	41 b8 e9 00 00 00    	mov    $0xe9,%r8d
ffffffff80108aee:	48 89 c1             	mov    %rax,%rcx
ffffffff80108af1:	ba 8e 00 00 00       	mov    $0x8e,%edx
ffffffff80108af6:	be 00 00 00 00       	mov    $0x0,%esi
ffffffff80108afb:	bf 08 00 00 00       	mov    $0x8,%edi
ffffffff80108b00:	e8 4a de ff ff       	callq  ffffffff8010694f <set_idt_entry>
ffffffff80108b05:	48 c7 c0 f5 a3 10 80 	mov    $0xffffffff8010a3f5,%rax
ffffffff80108b0c:	41 b8 ea 00 00 00    	mov    $0xea,%r8d
ffffffff80108b12:	48 89 c1             	mov    %rax,%rcx
ffffffff80108b15:	ba 8e 00 00 00       	mov    $0x8e,%edx
ffffffff80108b1a:	be 00 00 00 00       	mov    $0x0,%esi
ffffffff80108b1f:	bf 08 00 00 00       	mov    $0x8,%edi
ffffffff80108b24:	e8 26 de ff ff       	callq  ffffffff8010694f <set_idt_entry>
ffffffff80108b29:	48 c7 c0 01 a4 10 80 	mov    $0xffffffff8010a401,%rax
ffffffff80108b30:	41 b8 eb 00 00 00    	mov    $0xeb,%r8d
ffffffff80108b36:	48 89 c1             	mov    %rax,%rcx
ffffffff80108b39:	ba 8e 00 00 00       	mov    $0x8e,%edx
ffffffff80108b3e:	be 00 00 00 00       	mov    $0x0,%esi
ffffffff80108b43:	bf 08 00 00 00       	mov    $0x8,%edi
ffffffff80108b48:	e8 02 de ff ff       	callq  ffffffff8010694f <set_idt_entry>
ffffffff80108b4d:	48 c7 c0 0d a4 10 80 	mov    $0xffffffff8010a40d,%rax
ffffffff80108b54:	41 b8 ec 00 00 00    	mov    $0xec,%r8d
ffffffff80108b5a:	48 89 c1             	mov    %rax,%rcx
ffffffff80108b5d:	ba 8e 00 00 00       	mov    $0x8e,%edx
ffffffff80108b62:	be 00 00 00 00       	mov    $0x0,%esi
ffffffff80108b67:	bf 08 00 00 00       	mov    $0x8,%edi
ffffffff80108b6c:	e8 de dd ff ff       	callq  ffffffff8010694f <set_idt_entry>
ffffffff80108b71:	48 c7 c0 19 a4 10 80 	mov    $0xffffffff8010a419,%rax
ffffffff80108b78:	41 b8 ed 00 00 00    	mov    $0xed,%r8d
ffffffff80108b7e:	48 89 c1             	mov    %rax,%rcx
ffffffff80108b81:	ba 8e 00 00 00       	mov    $0x8e,%edx
ffffffff80108b86:	be 00 00 00 00       	mov    $0x0,%esi
ffffffff80108b8b:	bf 08 00 00 00       	mov    $0x8,%edi
ffffffff80108b90:	e8 ba dd ff ff       	callq  ffffffff8010694f <set_idt_entry>
ffffffff80108b95:	48 c7 c0 25 a4 10 80 	mov    $0xffffffff8010a425,%rax
ffffffff80108b9c:	41 b8 ee 00 00 00    	mov    $0xee,%r8d
ffffffff80108ba2:	48 89 c1             	mov    %rax,%rcx
ffffffff80108ba5:	ba 8e 00 00 00       	mov    $0x8e,%edx
ffffffff80108baa:	be 00 00 00 00       	mov    $0x0,%esi
ffffffff80108baf:	bf 08 00 00 00       	mov    $0x8,%edi
ffffffff80108bb4:	e8 96 dd ff ff       	callq  ffffffff8010694f <set_idt_entry>
ffffffff80108bb9:	48 c7 c0 31 a4 10 80 	mov    $0xffffffff8010a431,%rax
ffffffff80108bc0:	41 b8 ef 00 00 00    	mov    $0xef,%r8d
ffffffff80108bc6:	48 89 c1             	mov    %rax,%rcx
ffffffff80108bc9:	ba 8e 00 00 00       	mov    $0x8e,%edx
ffffffff80108bce:	be 00 00 00 00       	mov    $0x0,%esi
ffffffff80108bd3:	bf 08 00 00 00       	mov    $0x8,%edi
ffffffff80108bd8:	e8 72 dd ff ff       	callq  ffffffff8010694f <set_idt_entry>
ffffffff80108bdd:	48 c7 c0 3d a4 10 80 	mov    $0xffffffff8010a43d,%rax
ffffffff80108be4:	41 b8 f0 00 00 00    	mov    $0xf0,%r8d
ffffffff80108bea:	48 89 c1             	mov    %rax,%rcx
ffffffff80108bed:	ba 8e 00 00 00       	mov    $0x8e,%edx
ffffffff80108bf2:	be 00 00 00 00       	mov    $0x0,%esi
ffffffff80108bf7:	bf 08 00 00 00       	mov    $0x8,%edi
ffffffff80108bfc:	e8 4e dd ff ff       	callq  ffffffff8010694f <set_idt_entry>
ffffffff80108c01:	48 c7 c0 49 a4 10 80 	mov    $0xffffffff8010a449,%rax
ffffffff80108c08:	41 b8 f1 00 00 00    	mov    $0xf1,%r8d
ffffffff80108c0e:	48 89 c1             	mov    %rax,%rcx
ffffffff80108c11:	ba 8e 00 00 00       	mov    $0x8e,%edx
ffffffff80108c16:	be 00 00 00 00       	mov    $0x0,%esi
ffffffff80108c1b:	bf 08 00 00 00       	mov    $0x8,%edi
ffffffff80108c20:	e8 2a dd ff ff       	callq  ffffffff8010694f <set_idt_entry>
ffffffff80108c25:	48 c7 c0 55 a4 10 80 	mov    $0xffffffff8010a455,%rax
ffffffff80108c2c:	41 b8 f2 00 00 00    	mov    $0xf2,%r8d
ffffffff80108c32:	48 89 c1             	mov    %rax,%rcx
ffffffff80108c35:	ba 8e 00 00 00       	mov    $0x8e,%edx
ffffffff80108c3a:	be 00 00 00 00       	mov    $0x0,%esi
ffffffff80108c3f:	bf 08 00 00 00       	mov    $0x8,%edi
ffffffff80108c44:	e8 06 dd ff ff       	callq  ffffffff8010694f <set_idt_entry>
ffffffff80108c49:	48 c7 c0 61 a4 10 80 	mov    $0xffffffff8010a461,%rax
ffffffff80108c50:	41 b8 f3 00 00 00    	mov    $0xf3,%r8d
ffffffff80108c56:	48 89 c1             	mov    %rax,%rcx
ffffffff80108c59:	ba 8e 00 00 00       	mov    $0x8e,%edx
ffffffff80108c5e:	be 00 00 00 00       	mov    $0x0,%esi
ffffffff80108c63:	bf 08 00 00 00       	mov    $0x8,%edi
ffffffff80108c68:	e8 e2 dc ff ff       	callq  ffffffff8010694f <set_idt_entry>
ffffffff80108c6d:	48 c7 c0 6d a4 10 80 	mov    $0xffffffff8010a46d,%rax
ffffffff80108c74:	41 b8 f4 00 00 00    	mov    $0xf4,%r8d
ffffffff80108c7a:	48 89 c1             	mov    %rax,%rcx
ffffffff80108c7d:	ba 8e 00 00 00       	mov    $0x8e,%edx
ffffffff80108c82:	be 00 00 00 00       	mov    $0x0,%esi
ffffffff80108c87:	bf 08 00 00 00       	mov    $0x8,%edi
ffffffff80108c8c:	e8 be dc ff ff       	callq  ffffffff8010694f <set_idt_entry>
ffffffff80108c91:	48 c7 c0 79 a4 10 80 	mov    $0xffffffff8010a479,%rax
ffffffff80108c98:	41 b8 f5 00 00 00    	mov    $0xf5,%r8d
ffffffff80108c9e:	48 89 c1             	mov    %rax,%rcx
ffffffff80108ca1:	ba 8e 00 00 00       	mov    $0x8e,%edx
ffffffff80108ca6:	be 00 00 00 00       	mov    $0x0,%esi
ffffffff80108cab:	bf 08 00 00 00       	mov    $0x8,%edi
ffffffff80108cb0:	e8 9a dc ff ff       	callq  ffffffff8010694f <set_idt_entry>
ffffffff80108cb5:	48 c7 c0 85 a4 10 80 	mov    $0xffffffff8010a485,%rax
ffffffff80108cbc:	41 b8 f6 00 00 00    	mov    $0xf6,%r8d
ffffffff80108cc2:	48 89 c1             	mov    %rax,%rcx
ffffffff80108cc5:	ba 8e 00 00 00       	mov    $0x8e,%edx
ffffffff80108cca:	be 00 00 00 00       	mov    $0x0,%esi
ffffffff80108ccf:	bf 08 00 00 00       	mov    $0x8,%edi
ffffffff80108cd4:	e8 76 dc ff ff       	callq  ffffffff8010694f <set_idt_entry>
ffffffff80108cd9:	48 c7 c0 91 a4 10 80 	mov    $0xffffffff8010a491,%rax
ffffffff80108ce0:	41 b8 f7 00 00 00    	mov    $0xf7,%r8d
ffffffff80108ce6:	48 89 c1             	mov    %rax,%rcx
ffffffff80108ce9:	ba 8e 00 00 00       	mov    $0x8e,%edx
ffffffff80108cee:	be 00 00 00 00       	mov    $0x0,%esi
ffffffff80108cf3:	bf 08 00 00 00       	mov    $0x8,%edi
ffffffff80108cf8:	e8 52 dc ff ff       	callq  ffffffff8010694f <set_idt_entry>
ffffffff80108cfd:	48 c7 c0 9d a4 10 80 	mov    $0xffffffff8010a49d,%rax
ffffffff80108d04:	41 b8 f8 00 00 00    	mov    $0xf8,%r8d
ffffffff80108d0a:	48 89 c1             	mov    %rax,%rcx
ffffffff80108d0d:	ba 8e 00 00 00       	mov    $0x8e,%edx
ffffffff80108d12:	be 00 00 00 00       	mov    $0x0,%esi
ffffffff80108d17:	bf 08 00 00 00       	mov    $0x8,%edi
ffffffff80108d1c:	e8 2e dc ff ff       	callq  ffffffff8010694f <set_idt_entry>
ffffffff80108d21:	48 c7 c0 a9 a4 10 80 	mov    $0xffffffff8010a4a9,%rax
ffffffff80108d28:	41 b8 f9 00 00 00    	mov    $0xf9,%r8d
ffffffff80108d2e:	48 89 c1             	mov    %rax,%rcx
ffffffff80108d31:	ba 8e 00 00 00       	mov    $0x8e,%edx
ffffffff80108d36:	be 00 00 00 00       	mov    $0x0,%esi
ffffffff80108d3b:	bf 08 00 00 00       	mov    $0x8,%edi
ffffffff80108d40:	e8 0a dc ff ff       	callq  ffffffff8010694f <set_idt_entry>
ffffffff80108d45:	48 c7 c0 b5 a4 10 80 	mov    $0xffffffff8010a4b5,%rax
ffffffff80108d4c:	41 b8 fa 00 00 00    	mov    $0xfa,%r8d
ffffffff80108d52:	48 89 c1             	mov    %rax,%rcx
ffffffff80108d55:	ba 8e 00 00 00       	mov    $0x8e,%edx
ffffffff80108d5a:	be 00 00 00 00       	mov    $0x0,%esi
ffffffff80108d5f:	bf 08 00 00 00       	mov    $0x8,%edi
ffffffff80108d64:	e8 e6 db ff ff       	callq  ffffffff8010694f <set_idt_entry>
ffffffff80108d69:	48 c7 c0 c1 a4 10 80 	mov    $0xffffffff8010a4c1,%rax
ffffffff80108d70:	41 b8 fb 00 00 00    	mov    $0xfb,%r8d
ffffffff80108d76:	48 89 c1             	mov    %rax,%rcx
ffffffff80108d79:	ba 8e 00 00 00       	mov    $0x8e,%edx
ffffffff80108d7e:	be 00 00 00 00       	mov    $0x0,%esi
ffffffff80108d83:	bf 08 00 00 00       	mov    $0x8,%edi
ffffffff80108d88:	e8 c2 db ff ff       	callq  ffffffff8010694f <set_idt_entry>
ffffffff80108d8d:	48 c7 c0 cd a4 10 80 	mov    $0xffffffff8010a4cd,%rax
ffffffff80108d94:	41 b8 fc 00 00 00    	mov    $0xfc,%r8d
ffffffff80108d9a:	48 89 c1             	mov    %rax,%rcx
ffffffff80108d9d:	ba 8e 00 00 00       	mov    $0x8e,%edx
ffffffff80108da2:	be 00 00 00 00       	mov    $0x0,%esi
ffffffff80108da7:	bf 08 00 00 00       	mov    $0x8,%edi
ffffffff80108dac:	e8 9e db ff ff       	callq  ffffffff8010694f <set_idt_entry>
ffffffff80108db1:	48 c7 c0 d9 a4 10 80 	mov    $0xffffffff8010a4d9,%rax
ffffffff80108db8:	41 b8 fd 00 00 00    	mov    $0xfd,%r8d
ffffffff80108dbe:	48 89 c1             	mov    %rax,%rcx
ffffffff80108dc1:	ba 8e 00 00 00       	mov    $0x8e,%edx
ffffffff80108dc6:	be 00 00 00 00       	mov    $0x0,%esi
ffffffff80108dcb:	bf 08 00 00 00       	mov    $0x8,%edi
ffffffff80108dd0:	e8 7a db ff ff       	callq  ffffffff8010694f <set_idt_entry>
ffffffff80108dd5:	48 c7 c0 e5 a4 10 80 	mov    $0xffffffff8010a4e5,%rax
ffffffff80108ddc:	41 b8 fe 00 00 00    	mov    $0xfe,%r8d
ffffffff80108de2:	48 89 c1             	mov    %rax,%rcx
ffffffff80108de5:	ba 8e 00 00 00       	mov    $0x8e,%edx
ffffffff80108dea:	be 00 00 00 00       	mov    $0x0,%esi
ffffffff80108def:	bf 08 00 00 00       	mov    $0x8,%edi
ffffffff80108df4:	e8 56 db ff ff       	callq  ffffffff8010694f <set_idt_entry>
ffffffff80108df9:	48 c7 c0 f1 a4 10 80 	mov    $0xffffffff8010a4f1,%rax
ffffffff80108e00:	41 b8 ff 00 00 00    	mov    $0xff,%r8d
ffffffff80108e06:	48 89 c1             	mov    %rax,%rcx
ffffffff80108e09:	ba 8e 00 00 00       	mov    $0x8e,%edx
ffffffff80108e0e:	be 00 00 00 00       	mov    $0x0,%esi
ffffffff80108e13:	bf 08 00 00 00       	mov    $0x8,%edi
ffffffff80108e18:	e8 32 db ff ff       	callq  ffffffff8010694f <set_idt_entry>
ffffffff80108e1d:	66 c7 45 f6 ff 0f    	movw   $0xfff,-0xa(%rbp)
ffffffff80108e23:	48 c7 c2 e0 d3 11 80 	mov    $0xffffffff8011d3e0,%rdx
ffffffff80108e2a:	b8 00 00 00 80       	mov    $0x80000000,%eax
ffffffff80108e2f:	48 01 d0             	add    %rdx,%rax
ffffffff80108e32:	48 89 45 f8          	mov    %rax,-0x8(%rbp)
ffffffff80108e36:	0f 01 5d f6          	lidt   -0xa(%rbp)
ffffffff80108e3a:	90                   	nop
ffffffff80108e3b:	c9                   	leaveq 
ffffffff80108e3c:	c3                   	retq   

ffffffff80108e3d <ext2_alloc_inode>:
ffffffff80108e3d:	55                   	push   %rbp
ffffffff80108e3e:	48 89 e5             	mov    %rsp,%rbp
ffffffff80108e41:	48 83 ec 50          	sub    $0x50,%rsp
ffffffff80108e45:	48 89 7d b8          	mov    %rdi,-0x48(%rbp)
ffffffff80108e49:	48 8b 45 b8          	mov    -0x48(%rbp),%rax
ffffffff80108e4d:	48 8b 40 18          	mov    0x18(%rax),%rax
ffffffff80108e51:	48 8b 00             	mov    (%rax),%rax
ffffffff80108e54:	48 8b 40 08          	mov    0x8(%rax),%rax
ffffffff80108e58:	48 89 45 f0          	mov    %rax,-0x10(%rbp)
ffffffff80108e5c:	48 8b 45 f0          	mov    -0x10(%rbp),%rax
ffffffff80108e60:	48 8b 80 40 01 00 00 	mov    0x140(%rax),%rax
ffffffff80108e67:	48 89 c7             	mov    %rax,%rdi
ffffffff80108e6a:	e8 50 98 ff ff       	callq  ffffffff801026bf <kcalloc>
ffffffff80108e6f:	48 89 45 e8          	mov    %rax,-0x18(%rbp)
ffffffff80108e73:	c7 45 fc 03 00 00 00 	movl   $0x3,-0x4(%rbp)
ffffffff80108e7a:	e9 38 01 00 00       	jmpq   ffffffff80108fb7 <ext2_alloc_inode+0x17a>
ffffffff80108e7f:	48 8d 45 c8          	lea    -0x38(%rbp),%rax
ffffffff80108e83:	8b 55 fc             	mov    -0x4(%rbp),%edx
ffffffff80108e86:	48 8b 4d b8          	mov    -0x48(%rbp),%rcx
ffffffff80108e8a:	48 89 ce             	mov    %rcx,%rsi
ffffffff80108e8d:	48 89 c7             	mov    %rax,%rdi
ffffffff80108e90:	e8 61 9c ff ff       	callq  ffffffff80102af6 <ext2_read_bgd>
ffffffff80108e95:	0f b7 45 d6          	movzwl -0x2a(%rbp),%eax
ffffffff80108e99:	66 85 c0             	test   %ax,%ax
ffffffff80108e9c:	0f 84 10 01 00 00    	je     ffffffff80108fb2 <ext2_alloc_inode+0x175>
ffffffff80108ea2:	48 8b 45 f0          	mov    -0x10(%rbp),%rax
ffffffff80108ea6:	48 8b 90 40 01 00 00 	mov    0x140(%rax),%rdx
ffffffff80108ead:	8b 45 cc             	mov    -0x34(%rbp),%eax
ffffffff80108eb0:	89 c6                	mov    %eax,%esi
ffffffff80108eb2:	48 8b 4d e8          	mov    -0x18(%rbp),%rcx
ffffffff80108eb6:	48 8b 45 b8          	mov    -0x48(%rbp),%rax
ffffffff80108eba:	48 89 c7             	mov    %rax,%rdi
ffffffff80108ebd:	e8 b3 a2 ff ff       	callq  ffffffff80103175 <msd_raw_read>
ffffffff80108ec2:	c7 45 f8 00 00 00 00 	movl   $0x0,-0x8(%rbp)
ffffffff80108ec9:	e9 cb 00 00 00       	jmpq   ffffffff80108f99 <ext2_alloc_inode+0x15c>
ffffffff80108ece:	8b 45 f8             	mov    -0x8(%rbp),%eax
ffffffff80108ed1:	c1 e8 03             	shr    $0x3,%eax
ffffffff80108ed4:	89 c2                	mov    %eax,%edx
ffffffff80108ed6:	48 8b 45 e8          	mov    -0x18(%rbp),%rax
ffffffff80108eda:	48 01 d0             	add    %rdx,%rax
ffffffff80108edd:	0f b6 00             	movzbl (%rax),%eax
ffffffff80108ee0:	0f b6 d0             	movzbl %al,%edx
ffffffff80108ee3:	8b 45 f8             	mov    -0x8(%rbp),%eax
ffffffff80108ee6:	83 e0 07             	and    $0x7,%eax
ffffffff80108ee9:	89 c1                	mov    %eax,%ecx
ffffffff80108eeb:	d3 fa                	sar    %cl,%edx
ffffffff80108eed:	89 d0                	mov    %edx,%eax
ffffffff80108eef:	83 e0 01             	and    $0x1,%eax
ffffffff80108ef2:	85 c0                	test   %eax,%eax
ffffffff80108ef4:	0f 85 9b 00 00 00    	jne    ffffffff80108f95 <ext2_alloc_inode+0x158>
ffffffff80108efa:	8b 45 f8             	mov    -0x8(%rbp),%eax
ffffffff80108efd:	c1 e8 03             	shr    $0x3,%eax
ffffffff80108f00:	89 c2                	mov    %eax,%edx
ffffffff80108f02:	48 8b 45 e8          	mov    -0x18(%rbp),%rax
ffffffff80108f06:	48 01 d0             	add    %rdx,%rax
ffffffff80108f09:	0f b6 00             	movzbl (%rax),%eax
ffffffff80108f0c:	89 c6                	mov    %eax,%esi
ffffffff80108f0e:	8b 45 f8             	mov    -0x8(%rbp),%eax
ffffffff80108f11:	83 e0 07             	and    $0x7,%eax
ffffffff80108f14:	ba 01 00 00 00       	mov    $0x1,%edx
ffffffff80108f19:	89 c1                	mov    %eax,%ecx
ffffffff80108f1b:	d3 e2                	shl    %cl,%edx
ffffffff80108f1d:	89 d0                	mov    %edx,%eax
ffffffff80108f1f:	09 c6                	or     %eax,%esi
ffffffff80108f21:	89 f2                	mov    %esi,%edx
ffffffff80108f23:	8b 45 f8             	mov    -0x8(%rbp),%eax
ffffffff80108f26:	c1 e8 03             	shr    $0x3,%eax
ffffffff80108f29:	89 c1                	mov    %eax,%ecx
ffffffff80108f2b:	48 8b 45 e8          	mov    -0x18(%rbp),%rax
ffffffff80108f2f:	48 01 c8             	add    %rcx,%rax
ffffffff80108f32:	88 10                	mov    %dl,(%rax)
ffffffff80108f34:	48 8b 45 f0          	mov    -0x10(%rbp),%rax
ffffffff80108f38:	48 8b 90 40 01 00 00 	mov    0x140(%rax),%rdx
ffffffff80108f3f:	8b 45 cc             	mov    -0x34(%rbp),%eax
ffffffff80108f42:	89 c6                	mov    %eax,%esi
ffffffff80108f44:	48 8b 4d e8          	mov    -0x18(%rbp),%rcx
ffffffff80108f48:	48 8b 45 b8          	mov    -0x48(%rbp),%rax
ffffffff80108f4c:	48 89 c7             	mov    %rax,%rdi
ffffffff80108f4f:	e8 77 a2 ff ff       	callq  ffffffff801031cb <msd_raw_write>
ffffffff80108f54:	0f b7 45 d6          	movzwl -0x2a(%rbp),%eax
ffffffff80108f58:	83 e8 01             	sub    $0x1,%eax
ffffffff80108f5b:	66 89 45 d6          	mov    %ax,-0x2a(%rbp)
ffffffff80108f5f:	8b 55 fc             	mov    -0x4(%rbp),%edx
ffffffff80108f62:	48 8d 4d c8          	lea    -0x38(%rbp),%rcx
ffffffff80108f66:	48 8b 45 b8          	mov    -0x48(%rbp),%rax
ffffffff80108f6a:	48 89 ce             	mov    %rcx,%rsi
ffffffff80108f6d:	48 89 c7             	mov    %rax,%rdi
ffffffff80108f70:	e8 49 9c ff ff       	callq  ffffffff80102bbe <ext2_write_bgd>
ffffffff80108f75:	48 8b 45 e8          	mov    -0x18(%rbp),%rax
ffffffff80108f79:	48 89 c7             	mov    %rax,%rdi
ffffffff80108f7c:	e8 72 95 ff ff       	callq  ffffffff801024f3 <kfree>
ffffffff80108f81:	48 8b 45 f0          	mov    -0x10(%rbp),%rax
ffffffff80108f85:	8b 40 28             	mov    0x28(%rax),%eax
ffffffff80108f88:	0f af 45 fc          	imul   -0x4(%rbp),%eax
ffffffff80108f8c:	89 c2                	mov    %eax,%edx
ffffffff80108f8e:	8b 45 f8             	mov    -0x8(%rbp),%eax
ffffffff80108f91:	01 d0                	add    %edx,%eax
ffffffff80108f93:	eb 46                	jmp    ffffffff80108fdb <ext2_alloc_inode+0x19e>
ffffffff80108f95:	83 45 f8 01          	addl   $0x1,-0x8(%rbp)
ffffffff80108f99:	8b 55 f8             	mov    -0x8(%rbp),%edx
ffffffff80108f9c:	48 8b 45 f0          	mov    -0x10(%rbp),%rax
ffffffff80108fa0:	48 8b 80 40 01 00 00 	mov    0x140(%rax),%rax
ffffffff80108fa7:	48 39 c2             	cmp    %rax,%rdx
ffffffff80108faa:	0f 82 1e ff ff ff    	jb     ffffffff80108ece <ext2_alloc_inode+0x91>
ffffffff80108fb0:	eb 01                	jmp    ffffffff80108fb3 <ext2_alloc_inode+0x176>
ffffffff80108fb2:	90                   	nop
ffffffff80108fb3:	83 45 fc 01          	addl   $0x1,-0x4(%rbp)
ffffffff80108fb7:	48 8b 45 f0          	mov    -0x10(%rbp),%rax
ffffffff80108fbb:	8b 80 50 01 00 00    	mov    0x150(%rax),%eax
ffffffff80108fc1:	39 45 fc             	cmp    %eax,-0x4(%rbp)
ffffffff80108fc4:	0f 82 b5 fe ff ff    	jb     ffffffff80108e7f <ext2_alloc_inode+0x42>
ffffffff80108fca:	48 8b 45 f0          	mov    -0x10(%rbp),%rax
ffffffff80108fce:	48 89 c7             	mov    %rax,%rdi
ffffffff80108fd1:	e8 1d 95 ff ff       	callq  ffffffff801024f3 <kfree>
ffffffff80108fd6:	b8 ff ff ff ff       	mov    $0xffffffff,%eax
ffffffff80108fdb:	c9                   	leaveq 
ffffffff80108fdc:	c3                   	retq   

ffffffff80108fdd <ext2_free_inode>:
ffffffff80108fdd:	55                   	push   %rbp
ffffffff80108fde:	48 89 e5             	mov    %rsp,%rbp
ffffffff80108fe1:	48 83 ec 50          	sub    $0x50,%rsp
ffffffff80108fe5:	48 89 7d b8          	mov    %rdi,-0x48(%rbp)
ffffffff80108fe9:	89 75 b4             	mov    %esi,-0x4c(%rbp)
ffffffff80108fec:	48 8b 45 b8          	mov    -0x48(%rbp),%rax
ffffffff80108ff0:	48 8b 40 18          	mov    0x18(%rax),%rax
ffffffff80108ff4:	48 8b 00             	mov    (%rax),%rax
ffffffff80108ff7:	48 8b 40 08          	mov    0x8(%rax),%rax
ffffffff80108ffb:	48 89 45 f8          	mov    %rax,-0x8(%rbp)
ffffffff80108fff:	48 8b 45 f8          	mov    -0x8(%rbp),%rax
ffffffff80109003:	48 8b 80 40 01 00 00 	mov    0x140(%rax),%rax
ffffffff8010900a:	48 89 c7             	mov    %rax,%rdi
ffffffff8010900d:	e8 ad 96 ff ff       	callq  ffffffff801026bf <kcalloc>
ffffffff80109012:	48 89 45 f0          	mov    %rax,-0x10(%rbp)
ffffffff80109016:	48 8b 45 f8          	mov    -0x8(%rbp),%rax
ffffffff8010901a:	8b 78 28             	mov    0x28(%rax),%edi
ffffffff8010901d:	8b 45 b4             	mov    -0x4c(%rbp),%eax
ffffffff80109020:	ba 00 00 00 00       	mov    $0x0,%edx
ffffffff80109025:	f7 f7                	div    %edi
ffffffff80109027:	89 45 ec             	mov    %eax,-0x14(%rbp)
ffffffff8010902a:	48 8b 45 f8          	mov    -0x8(%rbp),%rax
ffffffff8010902e:	8b 78 28             	mov    0x28(%rax),%edi
ffffffff80109031:	8b 45 b4             	mov    -0x4c(%rbp),%eax
ffffffff80109034:	ba 00 00 00 00       	mov    $0x0,%edx
ffffffff80109039:	f7 f7                	div    %edi
ffffffff8010903b:	89 c2                	mov    %eax,%edx
ffffffff8010903d:	8b 45 b4             	mov    -0x4c(%rbp),%eax
ffffffff80109040:	29 d0                	sub    %edx,%eax
ffffffff80109042:	89 45 e8             	mov    %eax,-0x18(%rbp)
ffffffff80109045:	48 8d 45 c8          	lea    -0x38(%rbp),%rax
ffffffff80109049:	8b 55 ec             	mov    -0x14(%rbp),%edx
ffffffff8010904c:	48 8b 4d b8          	mov    -0x48(%rbp),%rcx
ffffffff80109050:	48 89 ce             	mov    %rcx,%rsi
ffffffff80109053:	48 89 c7             	mov    %rax,%rdi
ffffffff80109056:	e8 9b 9a ff ff       	callq  ffffffff80102af6 <ext2_read_bgd>
ffffffff8010905b:	48 8b 45 f8          	mov    -0x8(%rbp),%rax
ffffffff8010905f:	48 8b 90 40 01 00 00 	mov    0x140(%rax),%rdx
ffffffff80109066:	8b 45 cc             	mov    -0x34(%rbp),%eax
ffffffff80109069:	89 c6                	mov    %eax,%esi
ffffffff8010906b:	48 8b 4d f0          	mov    -0x10(%rbp),%rcx
ffffffff8010906f:	48 8b 45 b8          	mov    -0x48(%rbp),%rax
ffffffff80109073:	48 89 c7             	mov    %rax,%rdi
ffffffff80109076:	e8 fa a0 ff ff       	callq  ffffffff80103175 <msd_raw_read>
ffffffff8010907b:	8b 45 e8             	mov    -0x18(%rbp),%eax
ffffffff8010907e:	c1 e8 03             	shr    $0x3,%eax
ffffffff80109081:	89 c2                	mov    %eax,%edx
ffffffff80109083:	48 8b 45 f0          	mov    -0x10(%rbp),%rax
ffffffff80109087:	48 01 d0             	add    %rdx,%rax
ffffffff8010908a:	0f b6 00             	movzbl (%rax),%eax
ffffffff8010908d:	0f b6 d0             	movzbl %al,%edx
ffffffff80109090:	8b 45 e8             	mov    -0x18(%rbp),%eax
ffffffff80109093:	83 e0 07             	and    $0x7,%eax
ffffffff80109096:	89 c1                	mov    %eax,%ecx
ffffffff80109098:	d3 fa                	sar    %cl,%edx
ffffffff8010909a:	89 d0                	mov    %edx,%eax
ffffffff8010909c:	83 e0 01             	and    $0x1,%eax
ffffffff8010909f:	85 c0                	test   %eax,%eax
ffffffff801090a1:	75 11                	jne    ffffffff801090b4 <ext2_free_inode+0xd7>
ffffffff801090a3:	48 8b 45 f0          	mov    -0x10(%rbp),%rax
ffffffff801090a7:	48 89 c7             	mov    %rax,%rdi
ffffffff801090aa:	e8 44 94 ff ff       	callq  ffffffff801024f3 <kfree>
ffffffff801090af:	e9 89 00 00 00       	jmpq   ffffffff8010913d <ext2_free_inode+0x160>
ffffffff801090b4:	8b 45 e8             	mov    -0x18(%rbp),%eax
ffffffff801090b7:	c1 e8 03             	shr    $0x3,%eax
ffffffff801090ba:	89 c2                	mov    %eax,%edx
ffffffff801090bc:	48 8b 45 f0          	mov    -0x10(%rbp),%rax
ffffffff801090c0:	48 01 d0             	add    %rdx,%rax
ffffffff801090c3:	0f b6 00             	movzbl (%rax),%eax
ffffffff801090c6:	89 c6                	mov    %eax,%esi
ffffffff801090c8:	8b 45 e8             	mov    -0x18(%rbp),%eax
ffffffff801090cb:	83 e0 07             	and    $0x7,%eax
ffffffff801090ce:	ba 01 00 00 00       	mov    $0x1,%edx
ffffffff801090d3:	89 c1                	mov    %eax,%ecx
ffffffff801090d5:	d3 e2                	shl    %cl,%edx
ffffffff801090d7:	89 d0                	mov    %edx,%eax
ffffffff801090d9:	f7 d0                	not    %eax
ffffffff801090db:	21 c6                	and    %eax,%esi
ffffffff801090dd:	89 f2                	mov    %esi,%edx
ffffffff801090df:	8b 45 e8             	mov    -0x18(%rbp),%eax
ffffffff801090e2:	c1 e8 03             	shr    $0x3,%eax
ffffffff801090e5:	89 c1                	mov    %eax,%ecx
ffffffff801090e7:	48 8b 45 f0          	mov    -0x10(%rbp),%rax
ffffffff801090eb:	48 01 c8             	add    %rcx,%rax
ffffffff801090ee:	88 10                	mov    %dl,(%rax)
ffffffff801090f0:	48 8b 45 f8          	mov    -0x8(%rbp),%rax
ffffffff801090f4:	48 8b 90 40 01 00 00 	mov    0x140(%rax),%rdx
ffffffff801090fb:	8b 45 cc             	mov    -0x34(%rbp),%eax
ffffffff801090fe:	89 c6                	mov    %eax,%esi
ffffffff80109100:	48 8b 4d f0          	mov    -0x10(%rbp),%rcx
ffffffff80109104:	48 8b 45 b8          	mov    -0x48(%rbp),%rax
ffffffff80109108:	48 89 c7             	mov    %rax,%rdi
ffffffff8010910b:	e8 bb a0 ff ff       	callq  ffffffff801031cb <msd_raw_write>
ffffffff80109110:	0f b7 45 d6          	movzwl -0x2a(%rbp),%eax
ffffffff80109114:	83 c0 01             	add    $0x1,%eax
ffffffff80109117:	66 89 45 d6          	mov    %ax,-0x2a(%rbp)
ffffffff8010911b:	8b 55 ec             	mov    -0x14(%rbp),%edx
ffffffff8010911e:	48 8d 4d c8          	lea    -0x38(%rbp),%rcx
ffffffff80109122:	48 8b 45 b8          	mov    -0x48(%rbp),%rax
ffffffff80109126:	48 89 ce             	mov    %rcx,%rsi
ffffffff80109129:	48 89 c7             	mov    %rax,%rdi
ffffffff8010912c:	e8 8d 9a ff ff       	callq  ffffffff80102bbe <ext2_write_bgd>
ffffffff80109131:	48 8b 45 f0          	mov    -0x10(%rbp),%rax
ffffffff80109135:	48 89 c7             	mov    %rax,%rdi
ffffffff80109138:	e8 b6 93 ff ff       	callq  ffffffff801024f3 <kfree>
ffffffff8010913d:	c9                   	leaveq 
ffffffff8010913e:	c3                   	retq   

ffffffff8010913f <inode_get_block>:
ffffffff8010913f:	55                   	push   %rbp
ffffffff80109140:	48 89 e5             	mov    %rsp,%rbp
ffffffff80109143:	48 83 ec 40          	sub    $0x40,%rsp
ffffffff80109147:	48 89 7d d8          	mov    %rdi,-0x28(%rbp)
ffffffff8010914b:	48 89 75 d0          	mov    %rsi,-0x30(%rbp)
ffffffff8010914f:	89 55 cc             	mov    %edx,-0x34(%rbp)
ffffffff80109152:	48 8b 45 d8          	mov    -0x28(%rbp),%rax
ffffffff80109156:	48 8b 40 18          	mov    0x18(%rax),%rax
ffffffff8010915a:	48 8b 00             	mov    (%rax),%rax
ffffffff8010915d:	48 8b 40 08          	mov    0x8(%rax),%rax
ffffffff80109161:	48 8b 80 40 01 00 00 	mov    0x140(%rax),%rax
ffffffff80109168:	89 45 fc             	mov    %eax,-0x4(%rbp)
ffffffff8010916b:	83 7d cc 0b          	cmpl   $0xb,-0x34(%rbp)
ffffffff8010916f:	77 17                	ja     ffffffff80109188 <inode_get_block+0x49>
ffffffff80109171:	48 8b 45 d0          	mov    -0x30(%rbp),%rax
ffffffff80109175:	8b 55 cc             	mov    -0x34(%rbp),%edx
ffffffff80109178:	48 83 c2 08          	add    $0x8,%rdx
ffffffff8010917c:	8b 44 90 08          	mov    0x8(%rax,%rdx,4),%eax
ffffffff80109180:	89 45 f0             	mov    %eax,-0x10(%rbp)
ffffffff80109183:	e9 dc 00 00 00       	jmpq   ffffffff80109264 <inode_get_block+0x125>
ffffffff80109188:	83 6d cc 0c          	subl   $0xc,-0x34(%rbp)
ffffffff8010918c:	8b 45 cc             	mov    -0x34(%rbp),%eax
ffffffff8010918f:	48 8d 14 85 00 00 00 	lea    0x0(,%rax,4),%rdx
ffffffff80109196:	00 
ffffffff80109197:	8b 45 fc             	mov    -0x4(%rbp),%eax
ffffffff8010919a:	48 39 c2             	cmp    %rax,%rdx
ffffffff8010919d:	0f 82 91 00 00 00    	jb     ffffffff80109234 <inode_get_block+0xf5>
ffffffff801091a3:	8b 45 fc             	mov    -0x4(%rbp),%eax
ffffffff801091a6:	c1 e8 02             	shr    $0x2,%eax
ffffffff801091a9:	29 45 cc             	sub    %eax,-0x34(%rbp)
ffffffff801091ac:	8b 45 fc             	mov    -0x4(%rbp),%eax
ffffffff801091af:	c1 e8 02             	shr    $0x2,%eax
ffffffff801091b2:	89 c7                	mov    %eax,%edi
ffffffff801091b4:	8b 45 cc             	mov    -0x34(%rbp),%eax
ffffffff801091b7:	ba 00 00 00 00       	mov    $0x0,%edx
ffffffff801091bc:	f7 f7                	div    %edi
ffffffff801091be:	89 45 f8             	mov    %eax,-0x8(%rbp)
ffffffff801091c1:	8b 45 fc             	mov    -0x4(%rbp),%eax
ffffffff801091c4:	c1 e8 02             	shr    $0x2,%eax
ffffffff801091c7:	89 c1                	mov    %eax,%ecx
ffffffff801091c9:	8b 45 cc             	mov    -0x34(%rbp),%eax
ffffffff801091cc:	ba 00 00 00 00       	mov    $0x0,%edx
ffffffff801091d1:	f7 f1                	div    %ecx
ffffffff801091d3:	89 55 f4             	mov    %edx,-0xc(%rbp)
ffffffff801091d6:	48 8b 45 d0          	mov    -0x30(%rbp),%rax
ffffffff801091da:	8b 40 5c             	mov    0x5c(%rax),%eax
ffffffff801091dd:	0f af 45 fc          	imul   -0x4(%rbp),%eax
ffffffff801091e1:	89 c2                	mov    %eax,%edx
ffffffff801091e3:	8b 45 f8             	mov    -0x8(%rbp),%eax
ffffffff801091e6:	48 c1 e0 02          	shl    $0x2,%rax
ffffffff801091ea:	48 8d 34 02          	lea    (%rdx,%rax,1),%rsi
ffffffff801091ee:	48 8d 55 ec          	lea    -0x14(%rbp),%rdx
ffffffff801091f2:	48 8b 45 d8          	mov    -0x28(%rbp),%rax
ffffffff801091f6:	48 89 d1             	mov    %rdx,%rcx
ffffffff801091f9:	ba 04 00 00 00       	mov    $0x4,%edx
ffffffff801091fe:	48 89 c7             	mov    %rax,%rdi
ffffffff80109201:	e8 6f 9f ff ff       	callq  ffffffff80103175 <msd_raw_read>
ffffffff80109206:	8b 45 ec             	mov    -0x14(%rbp),%eax
ffffffff80109209:	0f af 45 fc          	imul   -0x4(%rbp),%eax
ffffffff8010920d:	89 c2                	mov    %eax,%edx
ffffffff8010920f:	8b 45 f4             	mov    -0xc(%rbp),%eax
ffffffff80109212:	48 c1 e0 02          	shl    $0x2,%rax
ffffffff80109216:	48 8d 34 02          	lea    (%rdx,%rax,1),%rsi
ffffffff8010921a:	48 8d 55 f0          	lea    -0x10(%rbp),%rdx
ffffffff8010921e:	48 8b 45 d8          	mov    -0x28(%rbp),%rax
ffffffff80109222:	48 89 d1             	mov    %rdx,%rcx
ffffffff80109225:	ba 04 00 00 00       	mov    $0x4,%edx
ffffffff8010922a:	48 89 c7             	mov    %rax,%rdi
ffffffff8010922d:	e8 43 9f ff ff       	callq  ffffffff80103175 <msd_raw_read>
ffffffff80109232:	eb 30                	jmp    ffffffff80109264 <inode_get_block+0x125>
ffffffff80109234:	48 8b 45 d0          	mov    -0x30(%rbp),%rax
ffffffff80109238:	8b 40 58             	mov    0x58(%rax),%eax
ffffffff8010923b:	0f af 45 fc          	imul   -0x4(%rbp),%eax
ffffffff8010923f:	89 c2                	mov    %eax,%edx
ffffffff80109241:	8b 45 cc             	mov    -0x34(%rbp),%eax
ffffffff80109244:	48 c1 e0 02          	shl    $0x2,%rax
ffffffff80109248:	48 8d 34 02          	lea    (%rdx,%rax,1),%rsi
ffffffff8010924c:	48 8d 55 f0          	lea    -0x10(%rbp),%rdx
ffffffff80109250:	48 8b 45 d8          	mov    -0x28(%rbp),%rax
ffffffff80109254:	48 89 d1             	mov    %rdx,%rcx
ffffffff80109257:	ba 04 00 00 00       	mov    $0x4,%edx
ffffffff8010925c:	48 89 c7             	mov    %rax,%rdi
ffffffff8010925f:	e8 11 9f ff ff       	callq  ffffffff80103175 <msd_raw_read>
ffffffff80109264:	8b 45 f0             	mov    -0x10(%rbp),%eax
ffffffff80109267:	c9                   	leaveq 
ffffffff80109268:	c3                   	retq   

ffffffff80109269 <inode_set_block>:
ffffffff80109269:	55                   	push   %rbp
ffffffff8010926a:	48 89 e5             	mov    %rsp,%rbp
ffffffff8010926d:	48 83 ec 40          	sub    $0x40,%rsp
ffffffff80109271:	48 89 7d d8          	mov    %rdi,-0x28(%rbp)
ffffffff80109275:	48 89 75 d0          	mov    %rsi,-0x30(%rbp)
ffffffff80109279:	89 55 cc             	mov    %edx,-0x34(%rbp)
ffffffff8010927c:	89 4d c8             	mov    %ecx,-0x38(%rbp)
ffffffff8010927f:	44 89 45 c4          	mov    %r8d,-0x3c(%rbp)
ffffffff80109283:	48 8b 45 d8          	mov    -0x28(%rbp),%rax
ffffffff80109287:	48 8b 40 18          	mov    0x18(%rax),%rax
ffffffff8010928b:	48 8b 00             	mov    (%rax),%rax
ffffffff8010928e:	48 8b 40 08          	mov    0x8(%rax),%rax
ffffffff80109292:	48 8b 80 40 01 00 00 	mov    0x140(%rax),%rax
ffffffff80109299:	89 45 fc             	mov    %eax,-0x4(%rbp)
ffffffff8010929c:	83 7d c8 0b          	cmpl   $0xb,-0x38(%rbp)
ffffffff801092a0:	77 17                	ja     ffffffff801092b9 <inode_set_block+0x50>
ffffffff801092a2:	8b 55 c4             	mov    -0x3c(%rbp),%edx
ffffffff801092a5:	48 8b 45 d0          	mov    -0x30(%rbp),%rax
ffffffff801092a9:	8b 4d c8             	mov    -0x38(%rbp),%ecx
ffffffff801092ac:	48 83 c1 08          	add    $0x8,%rcx
ffffffff801092b0:	89 54 88 08          	mov    %edx,0x8(%rax,%rcx,4)
ffffffff801092b4:	e9 c9 01 00 00       	jmpq   ffffffff80109482 <inode_set_block+0x219>
ffffffff801092b9:	83 6d c8 0c          	subl   $0xc,-0x38(%rbp)
ffffffff801092bd:	8b 45 c8             	mov    -0x38(%rbp),%eax
ffffffff801092c0:	48 8d 14 85 00 00 00 	lea    0x0(,%rax,4),%rdx
ffffffff801092c7:	00 
ffffffff801092c8:	8b 45 fc             	mov    -0x4(%rbp),%eax
ffffffff801092cb:	48 39 c2             	cmp    %rax,%rdx
ffffffff801092ce:	0f 82 37 01 00 00    	jb     ffffffff8010940b <inode_set_block+0x1a2>
ffffffff801092d4:	8b 45 fc             	mov    -0x4(%rbp),%eax
ffffffff801092d7:	c1 e8 02             	shr    $0x2,%eax
ffffffff801092da:	29 45 c8             	sub    %eax,-0x38(%rbp)
ffffffff801092dd:	8b 45 fc             	mov    -0x4(%rbp),%eax
ffffffff801092e0:	c1 e8 02             	shr    $0x2,%eax
ffffffff801092e3:	89 c7                	mov    %eax,%edi
ffffffff801092e5:	8b 45 c8             	mov    -0x38(%rbp),%eax
ffffffff801092e8:	ba 00 00 00 00       	mov    $0x0,%edx
ffffffff801092ed:	f7 f7                	div    %edi
ffffffff801092ef:	89 45 f4             	mov    %eax,-0xc(%rbp)
ffffffff801092f2:	8b 45 fc             	mov    -0x4(%rbp),%eax
ffffffff801092f5:	c1 e8 02             	shr    $0x2,%eax
ffffffff801092f8:	89 c1                	mov    %eax,%ecx
ffffffff801092fa:	8b 45 c8             	mov    -0x38(%rbp),%eax
ffffffff801092fd:	ba 00 00 00 00       	mov    $0x0,%edx
ffffffff80109302:	f7 f1                	div    %ecx
ffffffff80109304:	89 55 f0             	mov    %edx,-0x10(%rbp)
ffffffff80109307:	48 8b 45 d0          	mov    -0x30(%rbp),%rax
ffffffff8010930b:	8b 40 5c             	mov    0x5c(%rax),%eax
ffffffff8010930e:	85 c0                	test   %eax,%eax
ffffffff80109310:	75 3f                	jne    ffffffff80109351 <inode_set_block+0xe8>
ffffffff80109312:	48 8b 45 d8          	mov    -0x28(%rbp),%rax
ffffffff80109316:	48 89 c7             	mov    %rax,%rdi
ffffffff80109319:	e8 e3 95 ff ff       	callq  ffffffff80102901 <ext2_alloc_block>
ffffffff8010931e:	89 45 ec             	mov    %eax,-0x14(%rbp)
ffffffff80109321:	83 7d ec ff          	cmpl   $0xffffffff,-0x14(%rbp)
ffffffff80109325:	75 0a                	jne    ffffffff80109331 <inode_set_block+0xc8>
ffffffff80109327:	b8 ff ff ff ff       	mov    $0xffffffff,%eax
ffffffff8010932c:	e9 56 01 00 00       	jmpq   ffffffff80109487 <inode_set_block+0x21e>
ffffffff80109331:	48 8b 45 d0          	mov    -0x30(%rbp),%rax
ffffffff80109335:	8b 55 ec             	mov    -0x14(%rbp),%edx
ffffffff80109338:	89 50 5c             	mov    %edx,0x5c(%rax)
ffffffff8010933b:	8b 55 cc             	mov    -0x34(%rbp),%edx
ffffffff8010933e:	48 8b 4d d0          	mov    -0x30(%rbp),%rcx
ffffffff80109342:	48 8b 45 d8          	mov    -0x28(%rbp),%rax
ffffffff80109346:	48 89 ce             	mov    %rcx,%rsi
ffffffff80109349:	48 89 c7             	mov    %rax,%rdi
ffffffff8010934c:	e8 78 06 00 00       	callq  ffffffff801099c9 <ext2_inode_write_entry>
ffffffff80109351:	48 8b 45 d0          	mov    -0x30(%rbp),%rax
ffffffff80109355:	8b 40 5c             	mov    0x5c(%rax),%eax
ffffffff80109358:	0f af 45 fc          	imul   -0x4(%rbp),%eax
ffffffff8010935c:	89 c2                	mov    %eax,%edx
ffffffff8010935e:	8b 45 f4             	mov    -0xc(%rbp),%eax
ffffffff80109361:	48 c1 e0 02          	shl    $0x2,%rax
ffffffff80109365:	48 8d 34 02          	lea    (%rdx,%rax,1),%rsi
ffffffff80109369:	48 8d 55 e4          	lea    -0x1c(%rbp),%rdx
ffffffff8010936d:	48 8b 45 d8          	mov    -0x28(%rbp),%rax
ffffffff80109371:	48 89 d1             	mov    %rdx,%rcx
ffffffff80109374:	ba 04 00 00 00       	mov    $0x4,%edx
ffffffff80109379:	48 89 c7             	mov    %rax,%rdi
ffffffff8010937c:	e8 f4 9d ff ff       	callq  ffffffff80103175 <msd_raw_read>
ffffffff80109381:	8b 45 e4             	mov    -0x1c(%rbp),%eax
ffffffff80109384:	85 c0                	test   %eax,%eax
ffffffff80109386:	75 55                	jne    ffffffff801093dd <inode_set_block+0x174>
ffffffff80109388:	48 8b 45 d8          	mov    -0x28(%rbp),%rax
ffffffff8010938c:	48 89 c7             	mov    %rax,%rdi
ffffffff8010938f:	e8 6d 95 ff ff       	callq  ffffffff80102901 <ext2_alloc_block>
ffffffff80109394:	89 45 e8             	mov    %eax,-0x18(%rbp)
ffffffff80109397:	83 7d e8 ff          	cmpl   $0xffffffff,-0x18(%rbp)
ffffffff8010939b:	75 0a                	jne    ffffffff801093a7 <inode_set_block+0x13e>
ffffffff8010939d:	b8 ff ff ff ff       	mov    $0xffffffff,%eax
ffffffff801093a2:	e9 e0 00 00 00       	jmpq   ffffffff80109487 <inode_set_block+0x21e>
ffffffff801093a7:	8b 45 e8             	mov    -0x18(%rbp),%eax
ffffffff801093aa:	89 45 e4             	mov    %eax,-0x1c(%rbp)
ffffffff801093ad:	48 8b 45 d0          	mov    -0x30(%rbp),%rax
ffffffff801093b1:	8b 40 5c             	mov    0x5c(%rax),%eax
ffffffff801093b4:	0f af 45 fc          	imul   -0x4(%rbp),%eax
ffffffff801093b8:	89 c2                	mov    %eax,%edx
ffffffff801093ba:	8b 45 f4             	mov    -0xc(%rbp),%eax
ffffffff801093bd:	48 c1 e0 02          	shl    $0x2,%rax
ffffffff801093c1:	48 8d 34 02          	lea    (%rdx,%rax,1),%rsi
ffffffff801093c5:	48 8d 55 e4          	lea    -0x1c(%rbp),%rdx
ffffffff801093c9:	48 8b 45 d8          	mov    -0x28(%rbp),%rax
ffffffff801093cd:	48 89 d1             	mov    %rdx,%rcx
ffffffff801093d0:	ba 04 00 00 00       	mov    $0x4,%edx
ffffffff801093d5:	48 89 c7             	mov    %rax,%rdi
ffffffff801093d8:	e8 ee 9d ff ff       	callq  ffffffff801031cb <msd_raw_write>
ffffffff801093dd:	8b 45 e4             	mov    -0x1c(%rbp),%eax
ffffffff801093e0:	0f af 45 fc          	imul   -0x4(%rbp),%eax
ffffffff801093e4:	89 c2                	mov    %eax,%edx
ffffffff801093e6:	8b 45 f0             	mov    -0x10(%rbp),%eax
ffffffff801093e9:	48 c1 e0 02          	shl    $0x2,%rax
ffffffff801093ed:	48 8d 34 02          	lea    (%rdx,%rax,1),%rsi
ffffffff801093f1:	48 8d 55 c4          	lea    -0x3c(%rbp),%rdx
ffffffff801093f5:	48 8b 45 d8          	mov    -0x28(%rbp),%rax
ffffffff801093f9:	48 89 d1             	mov    %rdx,%rcx
ffffffff801093fc:	ba 04 00 00 00       	mov    $0x4,%edx
ffffffff80109401:	48 89 c7             	mov    %rax,%rdi
ffffffff80109404:	e8 c2 9d ff ff       	callq  ffffffff801031cb <msd_raw_write>
ffffffff80109409:	eb 77                	jmp    ffffffff80109482 <inode_set_block+0x219>
ffffffff8010940b:	48 8b 45 d0          	mov    -0x30(%rbp),%rax
ffffffff8010940f:	8b 40 58             	mov    0x58(%rax),%eax
ffffffff80109412:	85 c0                	test   %eax,%eax
ffffffff80109414:	75 3c                	jne    ffffffff80109452 <inode_set_block+0x1e9>
ffffffff80109416:	48 8b 45 d8          	mov    -0x28(%rbp),%rax
ffffffff8010941a:	48 89 c7             	mov    %rax,%rdi
ffffffff8010941d:	e8 df 94 ff ff       	callq  ffffffff80102901 <ext2_alloc_block>
ffffffff80109422:	89 45 f8             	mov    %eax,-0x8(%rbp)
ffffffff80109425:	83 7d f8 ff          	cmpl   $0xffffffff,-0x8(%rbp)
ffffffff80109429:	75 07                	jne    ffffffff80109432 <inode_set_block+0x1c9>
ffffffff8010942b:	b8 ff ff ff ff       	mov    $0xffffffff,%eax
ffffffff80109430:	eb 55                	jmp    ffffffff80109487 <inode_set_block+0x21e>
ffffffff80109432:	48 8b 45 d0          	mov    -0x30(%rbp),%rax
ffffffff80109436:	8b 55 f8             	mov    -0x8(%rbp),%edx
ffffffff80109439:	89 50 58             	mov    %edx,0x58(%rax)
ffffffff8010943c:	8b 55 cc             	mov    -0x34(%rbp),%edx
ffffffff8010943f:	48 8b 4d d0          	mov    -0x30(%rbp),%rcx
ffffffff80109443:	48 8b 45 d8          	mov    -0x28(%rbp),%rax
ffffffff80109447:	48 89 ce             	mov    %rcx,%rsi
ffffffff8010944a:	48 89 c7             	mov    %rax,%rdi
ffffffff8010944d:	e8 77 05 00 00       	callq  ffffffff801099c9 <ext2_inode_write_entry>
ffffffff80109452:	48 8b 45 d0          	mov    -0x30(%rbp),%rax
ffffffff80109456:	8b 40 58             	mov    0x58(%rax),%eax
ffffffff80109459:	0f af 45 fc          	imul   -0x4(%rbp),%eax
ffffffff8010945d:	89 c2                	mov    %eax,%edx
ffffffff8010945f:	8b 45 c8             	mov    -0x38(%rbp),%eax
ffffffff80109462:	48 c1 e0 02          	shl    $0x2,%rax
ffffffff80109466:	48 8d 34 02          	lea    (%rdx,%rax,1),%rsi
ffffffff8010946a:	48 8d 55 c4          	lea    -0x3c(%rbp),%rdx
ffffffff8010946e:	48 8b 45 d8          	mov    -0x28(%rbp),%rax
ffffffff80109472:	48 89 d1             	mov    %rdx,%rcx
ffffffff80109475:	ba 04 00 00 00       	mov    $0x4,%edx
ffffffff8010947a:	48 89 c7             	mov    %rax,%rdi
ffffffff8010947d:	e8 49 9d ff ff       	callq  ffffffff801031cb <msd_raw_write>
ffffffff80109482:	b8 00 00 00 00       	mov    $0x0,%eax
ffffffff80109487:	c9                   	leaveq 
ffffffff80109488:	c3                   	retq   

ffffffff80109489 <inode_resize>:
ffffffff80109489:	55                   	push   %rbp
ffffffff8010948a:	48 89 e5             	mov    %rsp,%rbp
ffffffff8010948d:	48 83 ec 50          	sub    $0x50,%rsp
ffffffff80109491:	48 89 7d d8          	mov    %rdi,-0x28(%rbp)
ffffffff80109495:	48 89 75 d0          	mov    %rsi,-0x30(%rbp)
ffffffff80109499:	89 55 cc             	mov    %edx,-0x34(%rbp)
ffffffff8010949c:	48 89 4d c0          	mov    %rcx,-0x40(%rbp)
ffffffff801094a0:	4c 89 45 b8          	mov    %r8,-0x48(%rbp)
ffffffff801094a4:	48 8b 55 c0          	mov    -0x40(%rbp),%rdx
ffffffff801094a8:	48 8b 45 b8          	mov    -0x48(%rbp),%rax
ffffffff801094ac:	48 01 c2             	add    %rax,%rdx
ffffffff801094af:	48 8b 45 d0          	mov    -0x30(%rbp),%rax
ffffffff801094b3:	8b 40 1c             	mov    0x1c(%rax),%eax
ffffffff801094b6:	c1 e0 09             	shl    $0x9,%eax
ffffffff801094b9:	89 c0                	mov    %eax,%eax
ffffffff801094bb:	48 39 c2             	cmp    %rax,%rdx
ffffffff801094be:	7d 0a                	jge    ffffffff801094ca <inode_resize+0x41>
ffffffff801094c0:	b8 00 00 00 00       	mov    $0x0,%eax
ffffffff801094c5:	e9 f4 00 00 00       	jmpq   ffffffff801095be <inode_resize+0x135>
ffffffff801094ca:	48 8b 45 d8          	mov    -0x28(%rbp),%rax
ffffffff801094ce:	48 8b 40 18          	mov    0x18(%rax),%rax
ffffffff801094d2:	48 8b 00             	mov    (%rax),%rax
ffffffff801094d5:	48 8b 40 08          	mov    0x8(%rax),%rax
ffffffff801094d9:	48 8b 80 40 01 00 00 	mov    0x140(%rax),%rax
ffffffff801094e0:	89 45 f4             	mov    %eax,-0xc(%rbp)
ffffffff801094e3:	48 8b 45 d0          	mov    -0x30(%rbp),%rax
ffffffff801094e7:	8b 40 1c             	mov    0x1c(%rax),%eax
ffffffff801094ea:	c1 e0 09             	shl    $0x9,%eax
ffffffff801094ed:	89 c2                	mov    %eax,%edx
ffffffff801094ef:	8b 45 f4             	mov    -0xc(%rbp),%eax
ffffffff801094f2:	01 d0                	add    %edx,%eax
ffffffff801094f4:	83 e8 01             	sub    $0x1,%eax
ffffffff801094f7:	ba 00 00 00 00       	mov    $0x0,%edx
ffffffff801094fc:	f7 75 f4             	divl   -0xc(%rbp)
ffffffff801094ff:	89 45 f0             	mov    %eax,-0x10(%rbp)
ffffffff80109502:	48 8b 55 c0          	mov    -0x40(%rbp),%rdx
ffffffff80109506:	48 8b 45 b8          	mov    -0x48(%rbp),%rax
ffffffff8010950a:	48 01 c2             	add    %rax,%rdx
ffffffff8010950d:	8b 45 f4             	mov    -0xc(%rbp),%eax
ffffffff80109510:	83 e8 01             	sub    $0x1,%eax
ffffffff80109513:	89 c0                	mov    %eax,%eax
ffffffff80109515:	48 01 d0             	add    %rdx,%rax
ffffffff80109518:	8b 75 f4             	mov    -0xc(%rbp),%esi
ffffffff8010951b:	48 99                	cqto   
ffffffff8010951d:	48 f7 fe             	idiv   %rsi
ffffffff80109520:	89 45 ec             	mov    %eax,-0x14(%rbp)
ffffffff80109523:	48 8b 45 d0          	mov    -0x30(%rbp),%rax
ffffffff80109527:	8b 40 04             	mov    0x4(%rax),%eax
ffffffff8010952a:	89 c1                	mov    %eax,%ecx
ffffffff8010952c:	48 8b 55 c0          	mov    -0x40(%rbp),%rdx
ffffffff80109530:	48 8b 45 b8          	mov    -0x48(%rbp),%rax
ffffffff80109534:	48 01 d0             	add    %rdx,%rax
ffffffff80109537:	48 39 c1             	cmp    %rax,%rcx
ffffffff8010953a:	7d 13                	jge    ffffffff8010954f <inode_resize+0xc6>
ffffffff8010953c:	48 8b 45 c0          	mov    -0x40(%rbp),%rax
ffffffff80109540:	89 c2                	mov    %eax,%edx
ffffffff80109542:	48 8b 45 b8          	mov    -0x48(%rbp),%rax
ffffffff80109546:	01 c2                	add    %eax,%edx
ffffffff80109548:	48 8b 45 d0          	mov    -0x30(%rbp),%rax
ffffffff8010954c:	89 50 04             	mov    %edx,0x4(%rax)
ffffffff8010954f:	8b 45 f0             	mov    -0x10(%rbp),%eax
ffffffff80109552:	48 89 45 f8          	mov    %rax,-0x8(%rbp)
ffffffff80109556:	eb 58                	jmp    ffffffff801095b0 <inode_resize+0x127>
ffffffff80109558:	48 8b 45 d8          	mov    -0x28(%rbp),%rax
ffffffff8010955c:	48 89 c7             	mov    %rax,%rdi
ffffffff8010955f:	e8 9d 93 ff ff       	callq  ffffffff80102901 <ext2_alloc_block>
ffffffff80109564:	89 45 e8             	mov    %eax,-0x18(%rbp)
ffffffff80109567:	83 7d e8 ff          	cmpl   $0xffffffff,-0x18(%rbp)
ffffffff8010956b:	75 07                	jne    ffffffff80109574 <inode_resize+0xeb>
ffffffff8010956d:	b8 ff ff ff ff       	mov    $0xffffffff,%eax
ffffffff80109572:	eb 4a                	jmp    ffffffff801095be <inode_resize+0x135>
ffffffff80109574:	48 8b 45 d0          	mov    -0x30(%rbp),%rax
ffffffff80109578:	8b 50 1c             	mov    0x1c(%rax),%edx
ffffffff8010957b:	8b 45 f4             	mov    -0xc(%rbp),%eax
ffffffff8010957e:	c1 e8 09             	shr    $0x9,%eax
ffffffff80109581:	01 c2                	add    %eax,%edx
ffffffff80109583:	48 8b 45 d0          	mov    -0x30(%rbp),%rax
ffffffff80109587:	89 50 1c             	mov    %edx,0x1c(%rax)
ffffffff8010958a:	48 8b 45 f8          	mov    -0x8(%rbp),%rax
ffffffff8010958e:	89 c7                	mov    %eax,%edi
ffffffff80109590:	8b 4d e8             	mov    -0x18(%rbp),%ecx
ffffffff80109593:	8b 55 cc             	mov    -0x34(%rbp),%edx
ffffffff80109596:	48 8b 75 d0          	mov    -0x30(%rbp),%rsi
ffffffff8010959a:	48 8b 45 d8          	mov    -0x28(%rbp),%rax
ffffffff8010959e:	41 89 c8             	mov    %ecx,%r8d
ffffffff801095a1:	89 f9                	mov    %edi,%ecx
ffffffff801095a3:	48 89 c7             	mov    %rax,%rdi
ffffffff801095a6:	e8 be fc ff ff       	callq  ffffffff80109269 <inode_set_block>
ffffffff801095ab:	48 83 45 f8 01       	addq   $0x1,-0x8(%rbp)
ffffffff801095b0:	8b 45 ec             	mov    -0x14(%rbp),%eax
ffffffff801095b3:	48 39 45 f8          	cmp    %rax,-0x8(%rbp)
ffffffff801095b7:	72 9f                	jb     ffffffff80109558 <inode_resize+0xcf>
ffffffff801095b9:	b8 00 00 00 00       	mov    $0x0,%eax
ffffffff801095be:	c9                   	leaveq 
ffffffff801095bf:	c3                   	retq   

ffffffff801095c0 <ext2_inode_read>:
ffffffff801095c0:	55                   	push   %rbp
ffffffff801095c1:	48 89 e5             	mov    %rsp,%rbp
ffffffff801095c4:	48 83 ec 60          	sub    $0x60,%rsp
ffffffff801095c8:	48 89 7d c8          	mov    %rdi,-0x38(%rbp)
ffffffff801095cc:	48 89 75 c0          	mov    %rsi,-0x40(%rbp)
ffffffff801095d0:	48 89 55 b8          	mov    %rdx,-0x48(%rbp)
ffffffff801095d4:	48 89 4d b0          	mov    %rcx,-0x50(%rbp)
ffffffff801095d8:	4c 89 45 a8          	mov    %r8,-0x58(%rbp)
ffffffff801095dc:	48 c7 45 f8 00 00 00 	movq   $0x0,-0x8(%rbp)
ffffffff801095e3:	00 
ffffffff801095e4:	48 8b 45 c8          	mov    -0x38(%rbp),%rax
ffffffff801095e8:	48 8b 40 18          	mov    0x18(%rax),%rax
ffffffff801095ec:	48 8b 00             	mov    (%rax),%rax
ffffffff801095ef:	48 8b 40 08          	mov    0x8(%rax),%rax
ffffffff801095f3:	48 8b 80 40 01 00 00 	mov    0x140(%rax),%rax
ffffffff801095fa:	48 89 45 e8          	mov    %rax,-0x18(%rbp)
ffffffff801095fe:	e9 ab 00 00 00       	jmpq   ffffffff801096ae <ext2_inode_read+0xee>
ffffffff80109603:	48 8b 55 b8          	mov    -0x48(%rbp),%rdx
ffffffff80109607:	48 8b 45 f8          	mov    -0x8(%rbp),%rax
ffffffff8010960b:	48 01 d0             	add    %rdx,%rax
ffffffff8010960e:	48 99                	cqto   
ffffffff80109610:	48 f7 7d e8          	idivq  -0x18(%rbp)
ffffffff80109614:	89 45 e4             	mov    %eax,-0x1c(%rbp)
ffffffff80109617:	48 8b 45 b0          	mov    -0x50(%rbp),%rax
ffffffff8010961b:	48 2b 45 f8          	sub    -0x8(%rbp),%rax
ffffffff8010961f:	48 89 45 f0          	mov    %rax,-0x10(%rbp)
ffffffff80109623:	48 8b 55 b8          	mov    -0x48(%rbp),%rdx
ffffffff80109627:	48 8b 45 f8          	mov    -0x8(%rbp),%rax
ffffffff8010962b:	48 01 d0             	add    %rdx,%rax
ffffffff8010962e:	48 99                	cqto   
ffffffff80109630:	48 f7 7d e8          	idivq  -0x18(%rbp)
ffffffff80109634:	48 89 d0             	mov    %rdx,%rax
ffffffff80109637:	48 89 45 d8          	mov    %rax,-0x28(%rbp)
ffffffff8010963b:	48 8b 45 e8          	mov    -0x18(%rbp),%rax
ffffffff8010963f:	48 2b 45 d8          	sub    -0x28(%rbp),%rax
ffffffff80109643:	48 39 45 f0          	cmp    %rax,-0x10(%rbp)
ffffffff80109647:	76 0c                	jbe    ffffffff80109655 <ext2_inode_read+0x95>
ffffffff80109649:	48 8b 45 e8          	mov    -0x18(%rbp),%rax
ffffffff8010964d:	48 2b 45 d8          	sub    -0x28(%rbp),%rax
ffffffff80109651:	48 89 45 f0          	mov    %rax,-0x10(%rbp)
ffffffff80109655:	8b 55 e4             	mov    -0x1c(%rbp),%edx
ffffffff80109658:	48 8b 4d c0          	mov    -0x40(%rbp),%rcx
ffffffff8010965c:	48 8b 45 c8          	mov    -0x38(%rbp),%rax
ffffffff80109660:	48 89 ce             	mov    %rcx,%rsi
ffffffff80109663:	48 89 c7             	mov    %rax,%rdi
ffffffff80109666:	e8 d4 fa ff ff       	callq  ffffffff8010913f <inode_get_block>
ffffffff8010966b:	89 45 d4             	mov    %eax,-0x2c(%rbp)
ffffffff8010966e:	48 8b 55 a8          	mov    -0x58(%rbp),%rdx
ffffffff80109672:	48 8b 45 f8          	mov    -0x8(%rbp),%rax
ffffffff80109676:	48 01 d0             	add    %rdx,%rax
ffffffff80109679:	48 89 c1             	mov    %rax,%rcx
ffffffff8010967c:	8b 45 d4             	mov    -0x2c(%rbp),%eax
ffffffff8010967f:	48 0f af 45 e8       	imul   -0x18(%rbp),%rax
ffffffff80109684:	48 89 c2             	mov    %rax,%rdx
ffffffff80109687:	48 8b 45 d8          	mov    -0x28(%rbp),%rax
ffffffff8010968b:	48 8d 34 02          	lea    (%rdx,%rax,1),%rsi
ffffffff8010968f:	48 8b 55 f0          	mov    -0x10(%rbp),%rdx
ffffffff80109693:	48 8b 45 c8          	mov    -0x38(%rbp),%rax
ffffffff80109697:	48 89 c7             	mov    %rax,%rdi
ffffffff8010969a:	e8 d6 9a ff ff       	callq  ffffffff80103175 <msd_raw_read>
ffffffff8010969f:	48 8b 55 f8          	mov    -0x8(%rbp),%rdx
ffffffff801096a3:	48 8b 45 f0          	mov    -0x10(%rbp),%rax
ffffffff801096a7:	48 01 d0             	add    %rdx,%rax
ffffffff801096aa:	48 89 45 f8          	mov    %rax,-0x8(%rbp)
ffffffff801096ae:	48 8b 45 f8          	mov    -0x8(%rbp),%rax
ffffffff801096b2:	48 3b 45 b0          	cmp    -0x50(%rbp),%rax
ffffffff801096b6:	0f 8c 47 ff ff ff    	jl     ffffffff80109603 <ext2_inode_read+0x43>
ffffffff801096bc:	90                   	nop
ffffffff801096bd:	90                   	nop
ffffffff801096be:	c9                   	leaveq 
ffffffff801096bf:	c3                   	retq   

ffffffff801096c0 <ext2_inode_write>:
ffffffff801096c0:	55                   	push   %rbp
ffffffff801096c1:	48 89 e5             	mov    %rsp,%rbp
ffffffff801096c4:	48 83 ec 60          	sub    $0x60,%rsp
ffffffff801096c8:	48 89 7d c8          	mov    %rdi,-0x38(%rbp)
ffffffff801096cc:	48 89 75 c0          	mov    %rsi,-0x40(%rbp)
ffffffff801096d0:	89 55 bc             	mov    %edx,-0x44(%rbp)
ffffffff801096d3:	48 89 4d b0          	mov    %rcx,-0x50(%rbp)
ffffffff801096d7:	4c 89 45 a8          	mov    %r8,-0x58(%rbp)
ffffffff801096db:	4c 89 4d a0          	mov    %r9,-0x60(%rbp)
ffffffff801096df:	48 c7 45 f8 00 00 00 	movq   $0x0,-0x8(%rbp)
ffffffff801096e6:	00 
ffffffff801096e7:	48 8b 45 c8          	mov    -0x38(%rbp),%rax
ffffffff801096eb:	48 8b 40 18          	mov    0x18(%rax),%rax
ffffffff801096ef:	48 8b 00             	mov    (%rax),%rax
ffffffff801096f2:	48 8b 40 08          	mov    0x8(%rax),%rax
ffffffff801096f6:	48 8b 80 40 01 00 00 	mov    0x140(%rax),%rax
ffffffff801096fd:	48 89 45 e8          	mov    %rax,-0x18(%rbp)
ffffffff80109701:	48 8b 7d a8          	mov    -0x58(%rbp),%rdi
ffffffff80109705:	48 8b 4d b0          	mov    -0x50(%rbp),%rcx
ffffffff80109709:	8b 55 bc             	mov    -0x44(%rbp),%edx
ffffffff8010970c:	48 8b 75 c0          	mov    -0x40(%rbp),%rsi
ffffffff80109710:	48 8b 45 c8          	mov    -0x38(%rbp),%rax
ffffffff80109714:	49 89 f8             	mov    %rdi,%r8
ffffffff80109717:	48 89 c7             	mov    %rax,%rdi
ffffffff8010971a:	e8 6a fd ff ff       	callq  ffffffff80109489 <inode_resize>
ffffffff8010971f:	e9 ab 00 00 00       	jmpq   ffffffff801097cf <ext2_inode_write+0x10f>
ffffffff80109724:	48 8b 55 b0          	mov    -0x50(%rbp),%rdx
ffffffff80109728:	48 8b 45 f8          	mov    -0x8(%rbp),%rax
ffffffff8010972c:	48 01 d0             	add    %rdx,%rax
ffffffff8010972f:	48 99                	cqto   
ffffffff80109731:	48 f7 7d e8          	idivq  -0x18(%rbp)
ffffffff80109735:	89 45 e4             	mov    %eax,-0x1c(%rbp)
ffffffff80109738:	48 8b 45 a8          	mov    -0x58(%rbp),%rax
ffffffff8010973c:	48 2b 45 f8          	sub    -0x8(%rbp),%rax
ffffffff80109740:	48 89 45 f0          	mov    %rax,-0x10(%rbp)
ffffffff80109744:	48 8b 55 b0          	mov    -0x50(%rbp),%rdx
ffffffff80109748:	48 8b 45 f8          	mov    -0x8(%rbp),%rax
ffffffff8010974c:	48 01 d0             	add    %rdx,%rax
ffffffff8010974f:	48 99                	cqto   
ffffffff80109751:	48 f7 7d e8          	idivq  -0x18(%rbp)
ffffffff80109755:	48 89 d0             	mov    %rdx,%rax
ffffffff80109758:	48 89 45 d8          	mov    %rax,-0x28(%rbp)
ffffffff8010975c:	48 8b 45 e8          	mov    -0x18(%rbp),%rax
ffffffff80109760:	48 2b 45 d8          	sub    -0x28(%rbp),%rax
ffffffff80109764:	48 39 45 f0          	cmp    %rax,-0x10(%rbp)
ffffffff80109768:	76 0c                	jbe    ffffffff80109776 <ext2_inode_write+0xb6>
ffffffff8010976a:	48 8b 45 e8          	mov    -0x18(%rbp),%rax
ffffffff8010976e:	48 2b 45 d8          	sub    -0x28(%rbp),%rax
ffffffff80109772:	48 89 45 f0          	mov    %rax,-0x10(%rbp)
ffffffff80109776:	8b 55 e4             	mov    -0x1c(%rbp),%edx
ffffffff80109779:	48 8b 4d c0          	mov    -0x40(%rbp),%rcx
ffffffff8010977d:	48 8b 45 c8          	mov    -0x38(%rbp),%rax
ffffffff80109781:	48 89 ce             	mov    %rcx,%rsi
ffffffff80109784:	48 89 c7             	mov    %rax,%rdi
ffffffff80109787:	e8 b3 f9 ff ff       	callq  ffffffff8010913f <inode_get_block>
ffffffff8010978c:	89 45 d4             	mov    %eax,-0x2c(%rbp)
ffffffff8010978f:	48 8b 55 a0          	mov    -0x60(%rbp),%rdx
ffffffff80109793:	48 8b 45 f8          	mov    -0x8(%rbp),%rax
ffffffff80109797:	48 01 d0             	add    %rdx,%rax
ffffffff8010979a:	48 89 c1             	mov    %rax,%rcx
ffffffff8010979d:	8b 45 d4             	mov    -0x2c(%rbp),%eax
ffffffff801097a0:	48 0f af 45 e8       	imul   -0x18(%rbp),%rax
ffffffff801097a5:	48 89 c2             	mov    %rax,%rdx
ffffffff801097a8:	48 8b 45 d8          	mov    -0x28(%rbp),%rax
ffffffff801097ac:	48 8d 34 02          	lea    (%rdx,%rax,1),%rsi
ffffffff801097b0:	48 8b 55 f0          	mov    -0x10(%rbp),%rdx
ffffffff801097b4:	48 8b 45 c8          	mov    -0x38(%rbp),%rax
ffffffff801097b8:	48 89 c7             	mov    %rax,%rdi
ffffffff801097bb:	e8 0b 9a ff ff       	callq  ffffffff801031cb <msd_raw_write>
ffffffff801097c0:	48 8b 55 f8          	mov    -0x8(%rbp),%rdx
ffffffff801097c4:	48 8b 45 f0          	mov    -0x10(%rbp),%rax
ffffffff801097c8:	48 01 d0             	add    %rdx,%rax
ffffffff801097cb:	48 89 45 f8          	mov    %rax,-0x8(%rbp)
ffffffff801097cf:	48 8b 45 f8          	mov    -0x8(%rbp),%rax
ffffffff801097d3:	48 3b 45 a8          	cmp    -0x58(%rbp),%rax
ffffffff801097d7:	0f 8c 47 ff ff ff    	jl     ffffffff80109724 <ext2_inode_write+0x64>
ffffffff801097dd:	90                   	nop
ffffffff801097de:	90                   	nop
ffffffff801097df:	c9                   	leaveq 
ffffffff801097e0:	c3                   	retq   

ffffffff801097e1 <ext2_inode_delete>:
ffffffff801097e1:	55                   	push   %rbp
ffffffff801097e2:	48 89 e5             	mov    %rsp,%rbp
ffffffff801097e5:	48 83 ec 30          	sub    $0x30,%rsp
ffffffff801097e9:	48 89 7d e8          	mov    %rdi,-0x18(%rbp)
ffffffff801097ed:	48 89 75 e0          	mov    %rsi,-0x20(%rbp)
ffffffff801097f1:	89 55 dc             	mov    %edx,-0x24(%rbp)
ffffffff801097f4:	48 8b 45 e8          	mov    -0x18(%rbp),%rax
ffffffff801097f8:	48 8b 40 18          	mov    0x18(%rax),%rax
ffffffff801097fc:	48 8b 00             	mov    (%rax),%rax
ffffffff801097ff:	48 8b 40 08          	mov    0x8(%rax),%rax
ffffffff80109803:	48 8b 80 40 01 00 00 	mov    0x140(%rax),%rax
ffffffff8010980a:	89 45 f4             	mov    %eax,-0xc(%rbp)
ffffffff8010980d:	48 c7 45 f8 00 00 00 	movq   $0x0,-0x8(%rbp)
ffffffff80109814:	00 
ffffffff80109815:	eb 2e                	jmp    ffffffff80109845 <ext2_inode_delete+0x64>
ffffffff80109817:	48 8b 45 f8          	mov    -0x8(%rbp),%rax
ffffffff8010981b:	89 c2                	mov    %eax,%edx
ffffffff8010981d:	48 8b 4d e0          	mov    -0x20(%rbp),%rcx
ffffffff80109821:	48 8b 45 e8          	mov    -0x18(%rbp),%rax
ffffffff80109825:	48 89 ce             	mov    %rcx,%rsi
ffffffff80109828:	48 89 c7             	mov    %rax,%rdi
ffffffff8010982b:	e8 0f f9 ff ff       	callq  ffffffff8010913f <inode_get_block>
ffffffff80109830:	89 c2                	mov    %eax,%edx
ffffffff80109832:	48 8b 45 e8          	mov    -0x18(%rbp),%rax
ffffffff80109836:	89 d6                	mov    %edx,%esi
ffffffff80109838:	48 89 c7             	mov    %rax,%rdi
ffffffff8010983b:	e8 54 91 ff ff       	callq  ffffffff80102994 <ext2_free_block>
ffffffff80109840:	48 83 45 f8 01       	addq   $0x1,-0x8(%rbp)
ffffffff80109845:	48 8b 45 e0          	mov    -0x20(%rbp),%rax
ffffffff80109849:	8b 40 1c             	mov    0x1c(%rax),%eax
ffffffff8010984c:	c1 e0 09             	shl    $0x9,%eax
ffffffff8010984f:	89 c2                	mov    %eax,%edx
ffffffff80109851:	8b 45 f4             	mov    -0xc(%rbp),%eax
ffffffff80109854:	01 d0                	add    %edx,%eax
ffffffff80109856:	83 e8 01             	sub    $0x1,%eax
ffffffff80109859:	ba 00 00 00 00       	mov    $0x0,%edx
ffffffff8010985e:	f7 75 f4             	divl   -0xc(%rbp)
ffffffff80109861:	89 c0                	mov    %eax,%eax
ffffffff80109863:	48 39 45 f8          	cmp    %rax,-0x8(%rbp)
ffffffff80109867:	72 ae                	jb     ffffffff80109817 <ext2_inode_delete+0x36>
ffffffff80109869:	8b 55 dc             	mov    -0x24(%rbp),%edx
ffffffff8010986c:	48 8b 45 e8          	mov    -0x18(%rbp),%rax
ffffffff80109870:	89 d6                	mov    %edx,%esi
ffffffff80109872:	48 89 c7             	mov    %rax,%rdi
ffffffff80109875:	e8 63 f7 ff ff       	callq  ffffffff80108fdd <ext2_free_inode>
ffffffff8010987a:	90                   	nop
ffffffff8010987b:	c9                   	leaveq 
ffffffff8010987c:	c3                   	retq   

ffffffff8010987d <ext2_inode_read_entry>:
ffffffff8010987d:	55                   	push   %rbp
ffffffff8010987e:	48 89 e5             	mov    %rsp,%rbp
ffffffff80109881:	48 81 ec d0 00 00 00 	sub    $0xd0,%rsp
ffffffff80109888:	48 89 bd 48 ff ff ff 	mov    %rdi,-0xb8(%rbp)
ffffffff8010988f:	48 89 b5 40 ff ff ff 	mov    %rsi,-0xc0(%rbp)
ffffffff80109896:	89 95 3c ff ff ff    	mov    %edx,-0xc4(%rbp)
ffffffff8010989c:	48 8b 85 40 ff ff ff 	mov    -0xc0(%rbp),%rax
ffffffff801098a3:	48 8b 40 18          	mov    0x18(%rax),%rax
ffffffff801098a7:	48 8b 00             	mov    (%rax),%rax
ffffffff801098aa:	48 8b 40 08          	mov    0x8(%rax),%rax
ffffffff801098ae:	48 89 45 f8          	mov    %rax,-0x8(%rbp)
ffffffff801098b2:	48 8d 45 d0          	lea    -0x30(%rbp),%rax
ffffffff801098b6:	8b 95 3c ff ff ff    	mov    -0xc4(%rbp),%edx
ffffffff801098bc:	48 8b 8d 40 ff ff ff 	mov    -0xc0(%rbp),%rcx
ffffffff801098c3:	48 89 ce             	mov    %rcx,%rsi
ffffffff801098c6:	48 89 c7             	mov    %rax,%rdi
ffffffff801098c9:	e8 28 92 ff ff       	callq  ffffffff80102af6 <ext2_read_bgd>
ffffffff801098ce:	8b 85 3c ff ff ff    	mov    -0xc4(%rbp),%eax
ffffffff801098d4:	8d 50 ff             	lea    -0x1(%rax),%edx
ffffffff801098d7:	48 8b 45 f8          	mov    -0x8(%rbp),%rax
ffffffff801098db:	8b 48 28             	mov    0x28(%rax),%ecx
ffffffff801098de:	89 d0                	mov    %edx,%eax
ffffffff801098e0:	ba 00 00 00 00       	mov    $0x0,%edx
ffffffff801098e5:	f7 f1                	div    %ecx
ffffffff801098e7:	89 d0                	mov    %edx,%eax
ffffffff801098e9:	89 c0                	mov    %eax,%eax
ffffffff801098eb:	48 89 45 f0          	mov    %rax,-0x10(%rbp)
ffffffff801098ef:	8b 45 d8             	mov    -0x28(%rbp),%eax
ffffffff801098f2:	89 c2                	mov    %eax,%edx
ffffffff801098f4:	48 8b 45 f8          	mov    -0x8(%rbp),%rax
ffffffff801098f8:	48 8b 80 40 01 00 00 	mov    0x140(%rax),%rax
ffffffff801098ff:	48 0f af d0          	imul   %rax,%rdx
ffffffff80109903:	48 8b 45 f8          	mov    -0x8(%rbp),%rax
ffffffff80109907:	0f b7 40 58          	movzwl 0x58(%rax),%eax
ffffffff8010990b:	0f b7 c0             	movzwl %ax,%eax
ffffffff8010990e:	48 0f af 45 f0       	imul   -0x10(%rbp),%rax
ffffffff80109913:	48 8d 34 02          	lea    (%rdx,%rax,1),%rsi
ffffffff80109917:	48 8d 95 5c ff ff ff 	lea    -0xa4(%rbp),%rdx
ffffffff8010991e:	48 8b 85 40 ff ff ff 	mov    -0xc0(%rbp),%rax
ffffffff80109925:	48 89 d1             	mov    %rdx,%rcx
ffffffff80109928:	ba 74 00 00 00       	mov    $0x74,%edx
ffffffff8010992d:	48 89 c7             	mov    %rax,%rdi
ffffffff80109930:	e8 40 98 ff ff       	callq  ffffffff80103175 <msd_raw_read>
ffffffff80109935:	48 8b 85 48 ff ff ff 	mov    -0xb8(%rbp),%rax
ffffffff8010993c:	48 8b 95 5c ff ff ff 	mov    -0xa4(%rbp),%rdx
ffffffff80109943:	48 89 10             	mov    %rdx,(%rax)
ffffffff80109946:	48 8b 95 64 ff ff ff 	mov    -0x9c(%rbp),%rdx
ffffffff8010994d:	48 89 50 08          	mov    %rdx,0x8(%rax)
ffffffff80109951:	48 8b 95 6c ff ff ff 	mov    -0x94(%rbp),%rdx
ffffffff80109958:	48 89 50 10          	mov    %rdx,0x10(%rax)
ffffffff8010995c:	48 8b 95 74 ff ff ff 	mov    -0x8c(%rbp),%rdx
ffffffff80109963:	48 89 50 18          	mov    %rdx,0x18(%rax)
ffffffff80109967:	48 8b 95 7c ff ff ff 	mov    -0x84(%rbp),%rdx
ffffffff8010996e:	48 89 50 20          	mov    %rdx,0x20(%rax)
ffffffff80109972:	48 8b 55 84          	mov    -0x7c(%rbp),%rdx
ffffffff80109976:	48 89 50 28          	mov    %rdx,0x28(%rax)
ffffffff8010997a:	48 8b 55 8c          	mov    -0x74(%rbp),%rdx
ffffffff8010997e:	48 89 50 30          	mov    %rdx,0x30(%rax)
ffffffff80109982:	48 8b 55 94          	mov    -0x6c(%rbp),%rdx
ffffffff80109986:	48 89 50 38          	mov    %rdx,0x38(%rax)
ffffffff8010998a:	48 8b 55 9c          	mov    -0x64(%rbp),%rdx
ffffffff8010998e:	48 89 50 40          	mov    %rdx,0x40(%rax)
ffffffff80109992:	48 8b 55 a4          	mov    -0x5c(%rbp),%rdx
ffffffff80109996:	48 89 50 48          	mov    %rdx,0x48(%rax)
ffffffff8010999a:	48 8b 55 ac          	mov    -0x54(%rbp),%rdx
ffffffff8010999e:	48 89 50 50          	mov    %rdx,0x50(%rax)
ffffffff801099a2:	48 8b 55 b4          	mov    -0x4c(%rbp),%rdx
ffffffff801099a6:	48 89 50 58          	mov    %rdx,0x58(%rax)
ffffffff801099aa:	48 8b 55 bc          	mov    -0x44(%rbp),%rdx
ffffffff801099ae:	48 89 50 60          	mov    %rdx,0x60(%rax)
ffffffff801099b2:	48 8b 55 c4          	mov    -0x3c(%rbp),%rdx
ffffffff801099b6:	48 89 50 68          	mov    %rdx,0x68(%rax)
ffffffff801099ba:	8b 55 cc             	mov    -0x34(%rbp),%edx
ffffffff801099bd:	89 50 70             	mov    %edx,0x70(%rax)
ffffffff801099c0:	48 8b 85 48 ff ff ff 	mov    -0xb8(%rbp),%rax
ffffffff801099c7:	c9                   	leaveq 
ffffffff801099c8:	c3                   	retq   

ffffffff801099c9 <ext2_inode_write_entry>:
ffffffff801099c9:	55                   	push   %rbp
ffffffff801099ca:	48 89 e5             	mov    %rsp,%rbp
ffffffff801099cd:	48 83 ec 50          	sub    $0x50,%rsp
ffffffff801099d1:	48 89 7d c8          	mov    %rdi,-0x38(%rbp)
ffffffff801099d5:	48 89 75 c0          	mov    %rsi,-0x40(%rbp)
ffffffff801099d9:	89 55 bc             	mov    %edx,-0x44(%rbp)
ffffffff801099dc:	48 8b 45 c8          	mov    -0x38(%rbp),%rax
ffffffff801099e0:	48 8b 40 18          	mov    0x18(%rax),%rax
ffffffff801099e4:	48 8b 00             	mov    (%rax),%rax
ffffffff801099e7:	48 8b 40 08          	mov    0x8(%rax),%rax
ffffffff801099eb:	48 89 45 f8          	mov    %rax,-0x8(%rbp)
ffffffff801099ef:	48 8d 45 d0          	lea    -0x30(%rbp),%rax
ffffffff801099f3:	8b 55 bc             	mov    -0x44(%rbp),%edx
ffffffff801099f6:	48 8b 4d c8          	mov    -0x38(%rbp),%rcx
ffffffff801099fa:	48 89 ce             	mov    %rcx,%rsi
ffffffff801099fd:	48 89 c7             	mov    %rax,%rdi
ffffffff80109a00:	e8 f1 90 ff ff       	callq  ffffffff80102af6 <ext2_read_bgd>
ffffffff80109a05:	8b 45 bc             	mov    -0x44(%rbp),%eax
ffffffff80109a08:	8d 50 ff             	lea    -0x1(%rax),%edx
ffffffff80109a0b:	48 8b 45 f8          	mov    -0x8(%rbp),%rax
ffffffff80109a0f:	8b 48 28             	mov    0x28(%rax),%ecx
ffffffff80109a12:	89 d0                	mov    %edx,%eax
ffffffff80109a14:	ba 00 00 00 00       	mov    $0x0,%edx
ffffffff80109a19:	f7 f1                	div    %ecx
ffffffff80109a1b:	89 d0                	mov    %edx,%eax
ffffffff80109a1d:	89 c0                	mov    %eax,%eax
ffffffff80109a1f:	48 89 45 f0          	mov    %rax,-0x10(%rbp)
ffffffff80109a23:	8b 45 d8             	mov    -0x28(%rbp),%eax
ffffffff80109a26:	89 c2                	mov    %eax,%edx
ffffffff80109a28:	48 8b 45 f8          	mov    -0x8(%rbp),%rax
ffffffff80109a2c:	48 8b 80 40 01 00 00 	mov    0x140(%rax),%rax
ffffffff80109a33:	48 0f af d0          	imul   %rax,%rdx
ffffffff80109a37:	48 8b 45 f8          	mov    -0x8(%rbp),%rax
ffffffff80109a3b:	0f b7 40 58          	movzwl 0x58(%rax),%eax
ffffffff80109a3f:	0f b7 c0             	movzwl %ax,%eax
ffffffff80109a42:	48 0f af 45 f0       	imul   -0x10(%rbp),%rax
ffffffff80109a47:	48 8d 34 02          	lea    (%rdx,%rax,1),%rsi
ffffffff80109a4b:	48 8d 55 c0          	lea    -0x40(%rbp),%rdx
ffffffff80109a4f:	48 8b 45 c8          	mov    -0x38(%rbp),%rax
ffffffff80109a53:	48 89 d1             	mov    %rdx,%rcx
ffffffff80109a56:	ba 74 00 00 00       	mov    $0x74,%edx
ffffffff80109a5b:	48 89 c7             	mov    %rax,%rdi
ffffffff80109a5e:	e8 68 97 ff ff       	callq  ffffffff801031cb <msd_raw_write>
ffffffff80109a63:	90                   	nop
ffffffff80109a64:	c9                   	leaveq 
ffffffff80109a65:	c3                   	retq   
ffffffff80109a66:	66 2e 0f 1f 84 00 00 	nopw   %cs:0x0(%rax,%rax,1)
ffffffff80109a6d:	00 00 00 

ffffffff80109a70 <isr_handler>:
ffffffff80109a70:	fc                   	cld    
ffffffff80109a71:	50                   	push   %rax
ffffffff80109a72:	53                   	push   %rbx
ffffffff80109a73:	51                   	push   %rcx
ffffffff80109a74:	52                   	push   %rdx
ffffffff80109a75:	55                   	push   %rbp
ffffffff80109a76:	57                   	push   %rdi
ffffffff80109a77:	56                   	push   %rsi
ffffffff80109a78:	41 50                	push   %r8
ffffffff80109a7a:	41 51                	push   %r9
ffffffff80109a7c:	41 52                	push   %r10
ffffffff80109a7e:	41 53                	push   %r11
ffffffff80109a80:	41 54                	push   %r12
ffffffff80109a82:	41 55                	push   %r13
ffffffff80109a84:	41 56                	push   %r14
ffffffff80109a86:	41 57                	push   %r15
ffffffff80109a88:	48 89 e7             	mov    %rsp,%rdi
ffffffff80109a8b:	e8 54 cb ff ff       	callq  ffffffff801065e4 <isr_handler_main>
ffffffff80109a90:	41 5f                	pop    %r15
ffffffff80109a92:	41 5e                	pop    %r14
ffffffff80109a94:	41 5d                	pop    %r13
ffffffff80109a96:	41 5c                	pop    %r12
ffffffff80109a98:	41 5b                	pop    %r11
ffffffff80109a9a:	41 5a                	pop    %r10
ffffffff80109a9c:	41 59                	pop    %r9
ffffffff80109a9e:	41 58                	pop    %r8
ffffffff80109aa0:	5e                   	pop    %rsi
ffffffff80109aa1:	5f                   	pop    %rdi
ffffffff80109aa2:	5d                   	pop    %rbp
ffffffff80109aa3:	5a                   	pop    %rdx
ffffffff80109aa4:	59                   	pop    %rcx
ffffffff80109aa5:	5b                   	pop    %rbx
ffffffff80109aa6:	58                   	pop    %rax
ffffffff80109aa7:	48 83 c4 10          	add    $0x10,%rsp
ffffffff80109aab:	48 cf                	iretq  

ffffffff80109aad <isr0>:
ffffffff80109aad:	6a 00                	pushq  $0x0
ffffffff80109aaf:	6a 00                	pushq  $0x0
ffffffff80109ab1:	eb bd                	jmp    ffffffff80109a70 <isr_handler>

ffffffff80109ab3 <isr1>:
ffffffff80109ab3:	6a 00                	pushq  $0x0
ffffffff80109ab5:	6a 01                	pushq  $0x1
ffffffff80109ab7:	eb b7                	jmp    ffffffff80109a70 <isr_handler>

ffffffff80109ab9 <isr2>:
ffffffff80109ab9:	6a 00                	pushq  $0x0
ffffffff80109abb:	6a 02                	pushq  $0x2
ffffffff80109abd:	eb b1                	jmp    ffffffff80109a70 <isr_handler>

ffffffff80109abf <isr3>:
ffffffff80109abf:	6a 00                	pushq  $0x0
ffffffff80109ac1:	6a 03                	pushq  $0x3
ffffffff80109ac3:	eb ab                	jmp    ffffffff80109a70 <isr_handler>

ffffffff80109ac5 <isr4>:
ffffffff80109ac5:	6a 00                	pushq  $0x0
ffffffff80109ac7:	6a 04                	pushq  $0x4
ffffffff80109ac9:	eb a5                	jmp    ffffffff80109a70 <isr_handler>

ffffffff80109acb <isr5>:
ffffffff80109acb:	6a 00                	pushq  $0x0
ffffffff80109acd:	6a 05                	pushq  $0x5
ffffffff80109acf:	eb 9f                	jmp    ffffffff80109a70 <isr_handler>

ffffffff80109ad1 <isr6>:
ffffffff80109ad1:	6a 00                	pushq  $0x0
ffffffff80109ad3:	6a 06                	pushq  $0x6
ffffffff80109ad5:	eb 99                	jmp    ffffffff80109a70 <isr_handler>

ffffffff80109ad7 <isr7>:
ffffffff80109ad7:	6a 00                	pushq  $0x0
ffffffff80109ad9:	6a 07                	pushq  $0x7
ffffffff80109adb:	eb 93                	jmp    ffffffff80109a70 <isr_handler>

ffffffff80109add <error_isr8>:
ffffffff80109add:	6a 08                	pushq  $0x8
ffffffff80109adf:	eb 8f                	jmp    ffffffff80109a70 <isr_handler>

ffffffff80109ae1 <isr9>:
ffffffff80109ae1:	6a 00                	pushq  $0x0
ffffffff80109ae3:	6a 09                	pushq  $0x9
ffffffff80109ae5:	eb 89                	jmp    ffffffff80109a70 <isr_handler>

ffffffff80109ae7 <error_isr10>:
ffffffff80109ae7:	6a 0a                	pushq  $0xa
ffffffff80109ae9:	eb 85                	jmp    ffffffff80109a70 <isr_handler>

ffffffff80109aeb <error_isr11>:
ffffffff80109aeb:	6a 0b                	pushq  $0xb
ffffffff80109aed:	eb 81                	jmp    ffffffff80109a70 <isr_handler>

ffffffff80109aef <error_isr12>:
ffffffff80109aef:	6a 0c                	pushq  $0xc
ffffffff80109af1:	e9 7a ff ff ff       	jmpq   ffffffff80109a70 <isr_handler>

ffffffff80109af6 <error_isr13>:
ffffffff80109af6:	6a 0d                	pushq  $0xd
ffffffff80109af8:	e9 73 ff ff ff       	jmpq   ffffffff80109a70 <isr_handler>

ffffffff80109afd <error_isr14>:
ffffffff80109afd:	6a 0e                	pushq  $0xe
ffffffff80109aff:	e9 6c ff ff ff       	jmpq   ffffffff80109a70 <isr_handler>

ffffffff80109b04 <isr15>:
ffffffff80109b04:	6a 00                	pushq  $0x0
ffffffff80109b06:	6a 0f                	pushq  $0xf
ffffffff80109b08:	e9 63 ff ff ff       	jmpq   ffffffff80109a70 <isr_handler>

ffffffff80109b0d <isr16>:
ffffffff80109b0d:	6a 00                	pushq  $0x0
ffffffff80109b0f:	6a 10                	pushq  $0x10
ffffffff80109b11:	e9 5a ff ff ff       	jmpq   ffffffff80109a70 <isr_handler>

ffffffff80109b16 <isr17>:
ffffffff80109b16:	6a 00                	pushq  $0x0
ffffffff80109b18:	6a 11                	pushq  $0x11
ffffffff80109b1a:	e9 51 ff ff ff       	jmpq   ffffffff80109a70 <isr_handler>

ffffffff80109b1f <isr18>:
ffffffff80109b1f:	6a 00                	pushq  $0x0
ffffffff80109b21:	6a 12                	pushq  $0x12
ffffffff80109b23:	e9 48 ff ff ff       	jmpq   ffffffff80109a70 <isr_handler>

ffffffff80109b28 <isr19>:
ffffffff80109b28:	6a 00                	pushq  $0x0
ffffffff80109b2a:	6a 13                	pushq  $0x13
ffffffff80109b2c:	e9 3f ff ff ff       	jmpq   ffffffff80109a70 <isr_handler>

ffffffff80109b31 <isr20>:
ffffffff80109b31:	6a 00                	pushq  $0x0
ffffffff80109b33:	6a 14                	pushq  $0x14
ffffffff80109b35:	e9 36 ff ff ff       	jmpq   ffffffff80109a70 <isr_handler>

ffffffff80109b3a <isr21>:
ffffffff80109b3a:	6a 00                	pushq  $0x0
ffffffff80109b3c:	6a 15                	pushq  $0x15
ffffffff80109b3e:	e9 2d ff ff ff       	jmpq   ffffffff80109a70 <isr_handler>

ffffffff80109b43 <isr22>:
ffffffff80109b43:	6a 00                	pushq  $0x0
ffffffff80109b45:	6a 16                	pushq  $0x16
ffffffff80109b47:	e9 24 ff ff ff       	jmpq   ffffffff80109a70 <isr_handler>

ffffffff80109b4c <isr23>:
ffffffff80109b4c:	6a 00                	pushq  $0x0
ffffffff80109b4e:	6a 17                	pushq  $0x17
ffffffff80109b50:	e9 1b ff ff ff       	jmpq   ffffffff80109a70 <isr_handler>

ffffffff80109b55 <isr24>:
ffffffff80109b55:	6a 00                	pushq  $0x0
ffffffff80109b57:	6a 18                	pushq  $0x18
ffffffff80109b59:	e9 12 ff ff ff       	jmpq   ffffffff80109a70 <isr_handler>

ffffffff80109b5e <isr25>:
ffffffff80109b5e:	6a 00                	pushq  $0x0
ffffffff80109b60:	6a 19                	pushq  $0x19
ffffffff80109b62:	e9 09 ff ff ff       	jmpq   ffffffff80109a70 <isr_handler>

ffffffff80109b67 <isr26>:
ffffffff80109b67:	6a 00                	pushq  $0x0
ffffffff80109b69:	6a 1a                	pushq  $0x1a
ffffffff80109b6b:	e9 00 ff ff ff       	jmpq   ffffffff80109a70 <isr_handler>

ffffffff80109b70 <isr27>:
ffffffff80109b70:	6a 00                	pushq  $0x0
ffffffff80109b72:	6a 1b                	pushq  $0x1b
ffffffff80109b74:	e9 f7 fe ff ff       	jmpq   ffffffff80109a70 <isr_handler>

ffffffff80109b79 <isr28>:
ffffffff80109b79:	6a 00                	pushq  $0x0
ffffffff80109b7b:	6a 1c                	pushq  $0x1c
ffffffff80109b7d:	e9 ee fe ff ff       	jmpq   ffffffff80109a70 <isr_handler>

ffffffff80109b82 <isr29>:
ffffffff80109b82:	6a 00                	pushq  $0x0
ffffffff80109b84:	6a 1d                	pushq  $0x1d
ffffffff80109b86:	e9 e5 fe ff ff       	jmpq   ffffffff80109a70 <isr_handler>

ffffffff80109b8b <isr30>:
ffffffff80109b8b:	6a 00                	pushq  $0x0
ffffffff80109b8d:	6a 1e                	pushq  $0x1e
ffffffff80109b8f:	e9 dc fe ff ff       	jmpq   ffffffff80109a70 <isr_handler>

ffffffff80109b94 <isr31>:
ffffffff80109b94:	6a 00                	pushq  $0x0
ffffffff80109b96:	6a 1f                	pushq  $0x1f
ffffffff80109b98:	e9 d3 fe ff ff       	jmpq   ffffffff80109a70 <isr_handler>

ffffffff80109b9d <isr32>:
ffffffff80109b9d:	6a 00                	pushq  $0x0
ffffffff80109b9f:	6a 20                	pushq  $0x20
ffffffff80109ba1:	e9 ca fe ff ff       	jmpq   ffffffff80109a70 <isr_handler>

ffffffff80109ba6 <isr33>:
ffffffff80109ba6:	6a 00                	pushq  $0x0
ffffffff80109ba8:	6a 21                	pushq  $0x21
ffffffff80109baa:	e9 c1 fe ff ff       	jmpq   ffffffff80109a70 <isr_handler>

ffffffff80109baf <isr34>:
ffffffff80109baf:	6a 00                	pushq  $0x0
ffffffff80109bb1:	6a 22                	pushq  $0x22
ffffffff80109bb3:	e9 b8 fe ff ff       	jmpq   ffffffff80109a70 <isr_handler>

ffffffff80109bb8 <isr35>:
ffffffff80109bb8:	6a 00                	pushq  $0x0
ffffffff80109bba:	6a 23                	pushq  $0x23
ffffffff80109bbc:	e9 af fe ff ff       	jmpq   ffffffff80109a70 <isr_handler>

ffffffff80109bc1 <isr36>:
ffffffff80109bc1:	6a 00                	pushq  $0x0
ffffffff80109bc3:	6a 24                	pushq  $0x24
ffffffff80109bc5:	e9 a6 fe ff ff       	jmpq   ffffffff80109a70 <isr_handler>

ffffffff80109bca <isr37>:
ffffffff80109bca:	6a 00                	pushq  $0x0
ffffffff80109bcc:	6a 25                	pushq  $0x25
ffffffff80109bce:	e9 9d fe ff ff       	jmpq   ffffffff80109a70 <isr_handler>

ffffffff80109bd3 <isr38>:
ffffffff80109bd3:	6a 00                	pushq  $0x0
ffffffff80109bd5:	6a 26                	pushq  $0x26
ffffffff80109bd7:	e9 94 fe ff ff       	jmpq   ffffffff80109a70 <isr_handler>

ffffffff80109bdc <isr39>:
ffffffff80109bdc:	6a 00                	pushq  $0x0
ffffffff80109bde:	6a 27                	pushq  $0x27
ffffffff80109be0:	e9 8b fe ff ff       	jmpq   ffffffff80109a70 <isr_handler>

ffffffff80109be5 <isr40>:
ffffffff80109be5:	6a 00                	pushq  $0x0
ffffffff80109be7:	6a 28                	pushq  $0x28
ffffffff80109be9:	e9 82 fe ff ff       	jmpq   ffffffff80109a70 <isr_handler>

ffffffff80109bee <isr41>:
ffffffff80109bee:	6a 00                	pushq  $0x0
ffffffff80109bf0:	6a 29                	pushq  $0x29
ffffffff80109bf2:	e9 79 fe ff ff       	jmpq   ffffffff80109a70 <isr_handler>

ffffffff80109bf7 <isr42>:
ffffffff80109bf7:	6a 00                	pushq  $0x0
ffffffff80109bf9:	6a 2a                	pushq  $0x2a
ffffffff80109bfb:	e9 70 fe ff ff       	jmpq   ffffffff80109a70 <isr_handler>

ffffffff80109c00 <isr43>:
ffffffff80109c00:	6a 00                	pushq  $0x0
ffffffff80109c02:	6a 2b                	pushq  $0x2b
ffffffff80109c04:	e9 67 fe ff ff       	jmpq   ffffffff80109a70 <isr_handler>

ffffffff80109c09 <isr44>:
ffffffff80109c09:	6a 00                	pushq  $0x0
ffffffff80109c0b:	6a 2c                	pushq  $0x2c
ffffffff80109c0d:	e9 5e fe ff ff       	jmpq   ffffffff80109a70 <isr_handler>

ffffffff80109c12 <isr45>:
ffffffff80109c12:	6a 00                	pushq  $0x0
ffffffff80109c14:	6a 2d                	pushq  $0x2d
ffffffff80109c16:	e9 55 fe ff ff       	jmpq   ffffffff80109a70 <isr_handler>

ffffffff80109c1b <isr46>:
ffffffff80109c1b:	6a 00                	pushq  $0x0
ffffffff80109c1d:	6a 2e                	pushq  $0x2e
ffffffff80109c1f:	e9 4c fe ff ff       	jmpq   ffffffff80109a70 <isr_handler>

ffffffff80109c24 <isr47>:
ffffffff80109c24:	6a 00                	pushq  $0x0
ffffffff80109c26:	6a 2f                	pushq  $0x2f
ffffffff80109c28:	e9 43 fe ff ff       	jmpq   ffffffff80109a70 <isr_handler>

ffffffff80109c2d <isr48>:
ffffffff80109c2d:	6a 00                	pushq  $0x0
ffffffff80109c2f:	6a 30                	pushq  $0x30
ffffffff80109c31:	e9 3a fe ff ff       	jmpq   ffffffff80109a70 <isr_handler>

ffffffff80109c36 <isr49>:
ffffffff80109c36:	6a 00                	pushq  $0x0
ffffffff80109c38:	6a 31                	pushq  $0x31
ffffffff80109c3a:	e9 31 fe ff ff       	jmpq   ffffffff80109a70 <isr_handler>

ffffffff80109c3f <isr50>:
ffffffff80109c3f:	6a 00                	pushq  $0x0
ffffffff80109c41:	6a 32                	pushq  $0x32
ffffffff80109c43:	e9 28 fe ff ff       	jmpq   ffffffff80109a70 <isr_handler>

ffffffff80109c48 <isr51>:
ffffffff80109c48:	6a 00                	pushq  $0x0
ffffffff80109c4a:	6a 33                	pushq  $0x33
ffffffff80109c4c:	e9 1f fe ff ff       	jmpq   ffffffff80109a70 <isr_handler>

ffffffff80109c51 <isr52>:
ffffffff80109c51:	6a 00                	pushq  $0x0
ffffffff80109c53:	6a 34                	pushq  $0x34
ffffffff80109c55:	e9 16 fe ff ff       	jmpq   ffffffff80109a70 <isr_handler>

ffffffff80109c5a <isr53>:
ffffffff80109c5a:	6a 00                	pushq  $0x0
ffffffff80109c5c:	6a 35                	pushq  $0x35
ffffffff80109c5e:	e9 0d fe ff ff       	jmpq   ffffffff80109a70 <isr_handler>

ffffffff80109c63 <isr54>:
ffffffff80109c63:	6a 00                	pushq  $0x0
ffffffff80109c65:	6a 36                	pushq  $0x36
ffffffff80109c67:	e9 04 fe ff ff       	jmpq   ffffffff80109a70 <isr_handler>

ffffffff80109c6c <isr55>:
ffffffff80109c6c:	6a 00                	pushq  $0x0
ffffffff80109c6e:	6a 37                	pushq  $0x37
ffffffff80109c70:	e9 fb fd ff ff       	jmpq   ffffffff80109a70 <isr_handler>

ffffffff80109c75 <isr56>:
ffffffff80109c75:	6a 00                	pushq  $0x0
ffffffff80109c77:	6a 38                	pushq  $0x38
ffffffff80109c79:	e9 f2 fd ff ff       	jmpq   ffffffff80109a70 <isr_handler>

ffffffff80109c7e <isr57>:
ffffffff80109c7e:	6a 00                	pushq  $0x0
ffffffff80109c80:	6a 39                	pushq  $0x39
ffffffff80109c82:	e9 e9 fd ff ff       	jmpq   ffffffff80109a70 <isr_handler>

ffffffff80109c87 <isr58>:
ffffffff80109c87:	6a 00                	pushq  $0x0
ffffffff80109c89:	6a 3a                	pushq  $0x3a
ffffffff80109c8b:	e9 e0 fd ff ff       	jmpq   ffffffff80109a70 <isr_handler>

ffffffff80109c90 <isr59>:
ffffffff80109c90:	6a 00                	pushq  $0x0
ffffffff80109c92:	6a 3b                	pushq  $0x3b
ffffffff80109c94:	e9 d7 fd ff ff       	jmpq   ffffffff80109a70 <isr_handler>

ffffffff80109c99 <isr60>:
ffffffff80109c99:	6a 00                	pushq  $0x0
ffffffff80109c9b:	6a 3c                	pushq  $0x3c
ffffffff80109c9d:	e9 ce fd ff ff       	jmpq   ffffffff80109a70 <isr_handler>

ffffffff80109ca2 <isr61>:
ffffffff80109ca2:	6a 00                	pushq  $0x0
ffffffff80109ca4:	6a 3d                	pushq  $0x3d
ffffffff80109ca6:	e9 c5 fd ff ff       	jmpq   ffffffff80109a70 <isr_handler>

ffffffff80109cab <isr62>:
ffffffff80109cab:	6a 00                	pushq  $0x0
ffffffff80109cad:	6a 3e                	pushq  $0x3e
ffffffff80109caf:	e9 bc fd ff ff       	jmpq   ffffffff80109a70 <isr_handler>

ffffffff80109cb4 <isr63>:
ffffffff80109cb4:	6a 00                	pushq  $0x0
ffffffff80109cb6:	6a 3f                	pushq  $0x3f
ffffffff80109cb8:	e9 b3 fd ff ff       	jmpq   ffffffff80109a70 <isr_handler>

ffffffff80109cbd <isr64>:
ffffffff80109cbd:	6a 00                	pushq  $0x0
ffffffff80109cbf:	6a 40                	pushq  $0x40
ffffffff80109cc1:	e9 aa fd ff ff       	jmpq   ffffffff80109a70 <isr_handler>

ffffffff80109cc6 <isr65>:
ffffffff80109cc6:	6a 00                	pushq  $0x0
ffffffff80109cc8:	6a 41                	pushq  $0x41
ffffffff80109cca:	e9 a1 fd ff ff       	jmpq   ffffffff80109a70 <isr_handler>

ffffffff80109ccf <isr66>:
ffffffff80109ccf:	6a 00                	pushq  $0x0
ffffffff80109cd1:	6a 42                	pushq  $0x42
ffffffff80109cd3:	e9 98 fd ff ff       	jmpq   ffffffff80109a70 <isr_handler>

ffffffff80109cd8 <isr67>:
ffffffff80109cd8:	6a 00                	pushq  $0x0
ffffffff80109cda:	6a 43                	pushq  $0x43
ffffffff80109cdc:	e9 8f fd ff ff       	jmpq   ffffffff80109a70 <isr_handler>

ffffffff80109ce1 <isr68>:
ffffffff80109ce1:	6a 00                	pushq  $0x0
ffffffff80109ce3:	6a 44                	pushq  $0x44
ffffffff80109ce5:	e9 86 fd ff ff       	jmpq   ffffffff80109a70 <isr_handler>

ffffffff80109cea <isr69>:
ffffffff80109cea:	6a 00                	pushq  $0x0
ffffffff80109cec:	6a 45                	pushq  $0x45
ffffffff80109cee:	e9 7d fd ff ff       	jmpq   ffffffff80109a70 <isr_handler>

ffffffff80109cf3 <isr70>:
ffffffff80109cf3:	6a 00                	pushq  $0x0
ffffffff80109cf5:	6a 46                	pushq  $0x46
ffffffff80109cf7:	e9 74 fd ff ff       	jmpq   ffffffff80109a70 <isr_handler>

ffffffff80109cfc <isr71>:
ffffffff80109cfc:	6a 00                	pushq  $0x0
ffffffff80109cfe:	6a 47                	pushq  $0x47
ffffffff80109d00:	e9 6b fd ff ff       	jmpq   ffffffff80109a70 <isr_handler>

ffffffff80109d05 <isr72>:
ffffffff80109d05:	6a 00                	pushq  $0x0
ffffffff80109d07:	6a 48                	pushq  $0x48
ffffffff80109d09:	e9 62 fd ff ff       	jmpq   ffffffff80109a70 <isr_handler>

ffffffff80109d0e <isr73>:
ffffffff80109d0e:	6a 00                	pushq  $0x0
ffffffff80109d10:	6a 49                	pushq  $0x49
ffffffff80109d12:	e9 59 fd ff ff       	jmpq   ffffffff80109a70 <isr_handler>

ffffffff80109d17 <isr74>:
ffffffff80109d17:	6a 00                	pushq  $0x0
ffffffff80109d19:	6a 4a                	pushq  $0x4a
ffffffff80109d1b:	e9 50 fd ff ff       	jmpq   ffffffff80109a70 <isr_handler>

ffffffff80109d20 <isr75>:
ffffffff80109d20:	6a 00                	pushq  $0x0
ffffffff80109d22:	6a 4b                	pushq  $0x4b
ffffffff80109d24:	e9 47 fd ff ff       	jmpq   ffffffff80109a70 <isr_handler>

ffffffff80109d29 <isr76>:
ffffffff80109d29:	6a 00                	pushq  $0x0
ffffffff80109d2b:	6a 4c                	pushq  $0x4c
ffffffff80109d2d:	e9 3e fd ff ff       	jmpq   ffffffff80109a70 <isr_handler>

ffffffff80109d32 <isr77>:
ffffffff80109d32:	6a 00                	pushq  $0x0
ffffffff80109d34:	6a 4d                	pushq  $0x4d
ffffffff80109d36:	e9 35 fd ff ff       	jmpq   ffffffff80109a70 <isr_handler>

ffffffff80109d3b <isr78>:
ffffffff80109d3b:	6a 00                	pushq  $0x0
ffffffff80109d3d:	6a 4e                	pushq  $0x4e
ffffffff80109d3f:	e9 2c fd ff ff       	jmpq   ffffffff80109a70 <isr_handler>

ffffffff80109d44 <isr79>:
ffffffff80109d44:	6a 00                	pushq  $0x0
ffffffff80109d46:	6a 4f                	pushq  $0x4f
ffffffff80109d48:	e9 23 fd ff ff       	jmpq   ffffffff80109a70 <isr_handler>

ffffffff80109d4d <isr80>:
ffffffff80109d4d:	6a 00                	pushq  $0x0
ffffffff80109d4f:	6a 50                	pushq  $0x50
ffffffff80109d51:	e9 1a fd ff ff       	jmpq   ffffffff80109a70 <isr_handler>

ffffffff80109d56 <isr81>:
ffffffff80109d56:	6a 00                	pushq  $0x0
ffffffff80109d58:	6a 51                	pushq  $0x51
ffffffff80109d5a:	e9 11 fd ff ff       	jmpq   ffffffff80109a70 <isr_handler>

ffffffff80109d5f <isr82>:
ffffffff80109d5f:	6a 00                	pushq  $0x0
ffffffff80109d61:	6a 52                	pushq  $0x52
ffffffff80109d63:	e9 08 fd ff ff       	jmpq   ffffffff80109a70 <isr_handler>

ffffffff80109d68 <isr83>:
ffffffff80109d68:	6a 00                	pushq  $0x0
ffffffff80109d6a:	6a 53                	pushq  $0x53
ffffffff80109d6c:	e9 ff fc ff ff       	jmpq   ffffffff80109a70 <isr_handler>

ffffffff80109d71 <isr84>:
ffffffff80109d71:	6a 00                	pushq  $0x0
ffffffff80109d73:	6a 54                	pushq  $0x54
ffffffff80109d75:	e9 f6 fc ff ff       	jmpq   ffffffff80109a70 <isr_handler>

ffffffff80109d7a <isr85>:
ffffffff80109d7a:	6a 00                	pushq  $0x0
ffffffff80109d7c:	6a 55                	pushq  $0x55
ffffffff80109d7e:	e9 ed fc ff ff       	jmpq   ffffffff80109a70 <isr_handler>

ffffffff80109d83 <isr86>:
ffffffff80109d83:	6a 00                	pushq  $0x0
ffffffff80109d85:	6a 56                	pushq  $0x56
ffffffff80109d87:	e9 e4 fc ff ff       	jmpq   ffffffff80109a70 <isr_handler>

ffffffff80109d8c <isr87>:
ffffffff80109d8c:	6a 00                	pushq  $0x0
ffffffff80109d8e:	6a 57                	pushq  $0x57
ffffffff80109d90:	e9 db fc ff ff       	jmpq   ffffffff80109a70 <isr_handler>

ffffffff80109d95 <isr88>:
ffffffff80109d95:	6a 00                	pushq  $0x0
ffffffff80109d97:	6a 58                	pushq  $0x58
ffffffff80109d99:	e9 d2 fc ff ff       	jmpq   ffffffff80109a70 <isr_handler>

ffffffff80109d9e <isr89>:
ffffffff80109d9e:	6a 00                	pushq  $0x0
ffffffff80109da0:	6a 59                	pushq  $0x59
ffffffff80109da2:	e9 c9 fc ff ff       	jmpq   ffffffff80109a70 <isr_handler>

ffffffff80109da7 <isr90>:
ffffffff80109da7:	6a 00                	pushq  $0x0
ffffffff80109da9:	6a 5a                	pushq  $0x5a
ffffffff80109dab:	e9 c0 fc ff ff       	jmpq   ffffffff80109a70 <isr_handler>

ffffffff80109db0 <isr91>:
ffffffff80109db0:	6a 00                	pushq  $0x0
ffffffff80109db2:	6a 5b                	pushq  $0x5b
ffffffff80109db4:	e9 b7 fc ff ff       	jmpq   ffffffff80109a70 <isr_handler>

ffffffff80109db9 <isr92>:
ffffffff80109db9:	6a 00                	pushq  $0x0
ffffffff80109dbb:	6a 5c                	pushq  $0x5c
ffffffff80109dbd:	e9 ae fc ff ff       	jmpq   ffffffff80109a70 <isr_handler>

ffffffff80109dc2 <isr93>:
ffffffff80109dc2:	6a 00                	pushq  $0x0
ffffffff80109dc4:	6a 5d                	pushq  $0x5d
ffffffff80109dc6:	e9 a5 fc ff ff       	jmpq   ffffffff80109a70 <isr_handler>

ffffffff80109dcb <isr94>:
ffffffff80109dcb:	6a 00                	pushq  $0x0
ffffffff80109dcd:	6a 5e                	pushq  $0x5e
ffffffff80109dcf:	e9 9c fc ff ff       	jmpq   ffffffff80109a70 <isr_handler>

ffffffff80109dd4 <isr95>:
ffffffff80109dd4:	6a 00                	pushq  $0x0
ffffffff80109dd6:	6a 5f                	pushq  $0x5f
ffffffff80109dd8:	e9 93 fc ff ff       	jmpq   ffffffff80109a70 <isr_handler>

ffffffff80109ddd <isr96>:
ffffffff80109ddd:	6a 00                	pushq  $0x0
ffffffff80109ddf:	6a 60                	pushq  $0x60
ffffffff80109de1:	e9 8a fc ff ff       	jmpq   ffffffff80109a70 <isr_handler>

ffffffff80109de6 <isr97>:
ffffffff80109de6:	6a 00                	pushq  $0x0
ffffffff80109de8:	6a 61                	pushq  $0x61
ffffffff80109dea:	e9 81 fc ff ff       	jmpq   ffffffff80109a70 <isr_handler>

ffffffff80109def <isr98>:
ffffffff80109def:	6a 00                	pushq  $0x0
ffffffff80109df1:	6a 62                	pushq  $0x62
ffffffff80109df3:	e9 78 fc ff ff       	jmpq   ffffffff80109a70 <isr_handler>

ffffffff80109df8 <isr99>:
ffffffff80109df8:	6a 00                	pushq  $0x0
ffffffff80109dfa:	6a 63                	pushq  $0x63
ffffffff80109dfc:	e9 6f fc ff ff       	jmpq   ffffffff80109a70 <isr_handler>

ffffffff80109e01 <isr100>:
ffffffff80109e01:	6a 00                	pushq  $0x0
ffffffff80109e03:	6a 64                	pushq  $0x64
ffffffff80109e05:	e9 66 fc ff ff       	jmpq   ffffffff80109a70 <isr_handler>

ffffffff80109e0a <isr101>:
ffffffff80109e0a:	6a 00                	pushq  $0x0
ffffffff80109e0c:	6a 65                	pushq  $0x65
ffffffff80109e0e:	e9 5d fc ff ff       	jmpq   ffffffff80109a70 <isr_handler>

ffffffff80109e13 <isr102>:
ffffffff80109e13:	6a 00                	pushq  $0x0
ffffffff80109e15:	6a 66                	pushq  $0x66
ffffffff80109e17:	e9 54 fc ff ff       	jmpq   ffffffff80109a70 <isr_handler>

ffffffff80109e1c <isr103>:
ffffffff80109e1c:	6a 00                	pushq  $0x0
ffffffff80109e1e:	6a 67                	pushq  $0x67
ffffffff80109e20:	e9 4b fc ff ff       	jmpq   ffffffff80109a70 <isr_handler>

ffffffff80109e25 <isr104>:
ffffffff80109e25:	6a 00                	pushq  $0x0
ffffffff80109e27:	6a 68                	pushq  $0x68
ffffffff80109e29:	e9 42 fc ff ff       	jmpq   ffffffff80109a70 <isr_handler>

ffffffff80109e2e <isr105>:
ffffffff80109e2e:	6a 00                	pushq  $0x0
ffffffff80109e30:	6a 69                	pushq  $0x69
ffffffff80109e32:	e9 39 fc ff ff       	jmpq   ffffffff80109a70 <isr_handler>

ffffffff80109e37 <isr106>:
ffffffff80109e37:	6a 00                	pushq  $0x0
ffffffff80109e39:	6a 6a                	pushq  $0x6a
ffffffff80109e3b:	e9 30 fc ff ff       	jmpq   ffffffff80109a70 <isr_handler>

ffffffff80109e40 <isr107>:
ffffffff80109e40:	6a 00                	pushq  $0x0
ffffffff80109e42:	6a 6b                	pushq  $0x6b
ffffffff80109e44:	e9 27 fc ff ff       	jmpq   ffffffff80109a70 <isr_handler>

ffffffff80109e49 <isr108>:
ffffffff80109e49:	6a 00                	pushq  $0x0
ffffffff80109e4b:	6a 6c                	pushq  $0x6c
ffffffff80109e4d:	e9 1e fc ff ff       	jmpq   ffffffff80109a70 <isr_handler>

ffffffff80109e52 <isr109>:
ffffffff80109e52:	6a 00                	pushq  $0x0
ffffffff80109e54:	6a 6d                	pushq  $0x6d
ffffffff80109e56:	e9 15 fc ff ff       	jmpq   ffffffff80109a70 <isr_handler>

ffffffff80109e5b <isr110>:
ffffffff80109e5b:	6a 00                	pushq  $0x0
ffffffff80109e5d:	6a 6e                	pushq  $0x6e
ffffffff80109e5f:	e9 0c fc ff ff       	jmpq   ffffffff80109a70 <isr_handler>

ffffffff80109e64 <isr111>:
ffffffff80109e64:	6a 00                	pushq  $0x0
ffffffff80109e66:	6a 6f                	pushq  $0x6f
ffffffff80109e68:	e9 03 fc ff ff       	jmpq   ffffffff80109a70 <isr_handler>

ffffffff80109e6d <isr112>:
ffffffff80109e6d:	6a 00                	pushq  $0x0
ffffffff80109e6f:	6a 70                	pushq  $0x70
ffffffff80109e71:	e9 fa fb ff ff       	jmpq   ffffffff80109a70 <isr_handler>

ffffffff80109e76 <isr113>:
ffffffff80109e76:	6a 00                	pushq  $0x0
ffffffff80109e78:	6a 71                	pushq  $0x71
ffffffff80109e7a:	e9 f1 fb ff ff       	jmpq   ffffffff80109a70 <isr_handler>

ffffffff80109e7f <isr114>:
ffffffff80109e7f:	6a 00                	pushq  $0x0
ffffffff80109e81:	6a 72                	pushq  $0x72
ffffffff80109e83:	e9 e8 fb ff ff       	jmpq   ffffffff80109a70 <isr_handler>

ffffffff80109e88 <isr115>:
ffffffff80109e88:	6a 00                	pushq  $0x0
ffffffff80109e8a:	6a 73                	pushq  $0x73
ffffffff80109e8c:	e9 df fb ff ff       	jmpq   ffffffff80109a70 <isr_handler>

ffffffff80109e91 <isr116>:
ffffffff80109e91:	6a 00                	pushq  $0x0
ffffffff80109e93:	6a 74                	pushq  $0x74
ffffffff80109e95:	e9 d6 fb ff ff       	jmpq   ffffffff80109a70 <isr_handler>

ffffffff80109e9a <isr117>:
ffffffff80109e9a:	6a 00                	pushq  $0x0
ffffffff80109e9c:	6a 75                	pushq  $0x75
ffffffff80109e9e:	e9 cd fb ff ff       	jmpq   ffffffff80109a70 <isr_handler>

ffffffff80109ea3 <isr118>:
ffffffff80109ea3:	6a 00                	pushq  $0x0
ffffffff80109ea5:	6a 76                	pushq  $0x76
ffffffff80109ea7:	e9 c4 fb ff ff       	jmpq   ffffffff80109a70 <isr_handler>

ffffffff80109eac <isr119>:
ffffffff80109eac:	6a 00                	pushq  $0x0
ffffffff80109eae:	6a 77                	pushq  $0x77
ffffffff80109eb0:	e9 bb fb ff ff       	jmpq   ffffffff80109a70 <isr_handler>

ffffffff80109eb5 <isr120>:
ffffffff80109eb5:	6a 00                	pushq  $0x0
ffffffff80109eb7:	6a 78                	pushq  $0x78
ffffffff80109eb9:	e9 b2 fb ff ff       	jmpq   ffffffff80109a70 <isr_handler>

ffffffff80109ebe <isr121>:
ffffffff80109ebe:	6a 00                	pushq  $0x0
ffffffff80109ec0:	6a 79                	pushq  $0x79
ffffffff80109ec2:	e9 a9 fb ff ff       	jmpq   ffffffff80109a70 <isr_handler>

ffffffff80109ec7 <isr122>:
ffffffff80109ec7:	6a 00                	pushq  $0x0
ffffffff80109ec9:	6a 7a                	pushq  $0x7a
ffffffff80109ecb:	e9 a0 fb ff ff       	jmpq   ffffffff80109a70 <isr_handler>

ffffffff80109ed0 <isr123>:
ffffffff80109ed0:	6a 00                	pushq  $0x0
ffffffff80109ed2:	6a 7b                	pushq  $0x7b
ffffffff80109ed4:	e9 97 fb ff ff       	jmpq   ffffffff80109a70 <isr_handler>

ffffffff80109ed9 <isr124>:
ffffffff80109ed9:	6a 00                	pushq  $0x0
ffffffff80109edb:	6a 7c                	pushq  $0x7c
ffffffff80109edd:	e9 8e fb ff ff       	jmpq   ffffffff80109a70 <isr_handler>

ffffffff80109ee2 <isr125>:
ffffffff80109ee2:	6a 00                	pushq  $0x0
ffffffff80109ee4:	6a 7d                	pushq  $0x7d
ffffffff80109ee6:	e9 85 fb ff ff       	jmpq   ffffffff80109a70 <isr_handler>

ffffffff80109eeb <isr126>:
ffffffff80109eeb:	6a 00                	pushq  $0x0
ffffffff80109eed:	6a 7e                	pushq  $0x7e
ffffffff80109eef:	e9 7c fb ff ff       	jmpq   ffffffff80109a70 <isr_handler>

ffffffff80109ef4 <isr127>:
ffffffff80109ef4:	6a 00                	pushq  $0x0
ffffffff80109ef6:	6a 7f                	pushq  $0x7f
ffffffff80109ef8:	e9 73 fb ff ff       	jmpq   ffffffff80109a70 <isr_handler>

ffffffff80109efd <isr128>:
ffffffff80109efd:	6a 00                	pushq  $0x0
ffffffff80109eff:	68 80 00 00 00       	pushq  $0x80
ffffffff80109f04:	e9 67 fb ff ff       	jmpq   ffffffff80109a70 <isr_handler>

ffffffff80109f09 <isr129>:
ffffffff80109f09:	6a 00                	pushq  $0x0
ffffffff80109f0b:	68 81 00 00 00       	pushq  $0x81
ffffffff80109f10:	e9 5b fb ff ff       	jmpq   ffffffff80109a70 <isr_handler>

ffffffff80109f15 <isr130>:
ffffffff80109f15:	6a 00                	pushq  $0x0
ffffffff80109f17:	68 82 00 00 00       	pushq  $0x82
ffffffff80109f1c:	e9 4f fb ff ff       	jmpq   ffffffff80109a70 <isr_handler>

ffffffff80109f21 <isr131>:
ffffffff80109f21:	6a 00                	pushq  $0x0
ffffffff80109f23:	68 83 00 00 00       	pushq  $0x83
ffffffff80109f28:	e9 43 fb ff ff       	jmpq   ffffffff80109a70 <isr_handler>

ffffffff80109f2d <isr132>:
ffffffff80109f2d:	6a 00                	pushq  $0x0
ffffffff80109f2f:	68 84 00 00 00       	pushq  $0x84
ffffffff80109f34:	e9 37 fb ff ff       	jmpq   ffffffff80109a70 <isr_handler>

ffffffff80109f39 <isr133>:
ffffffff80109f39:	6a 00                	pushq  $0x0
ffffffff80109f3b:	68 85 00 00 00       	pushq  $0x85
ffffffff80109f40:	e9 2b fb ff ff       	jmpq   ffffffff80109a70 <isr_handler>

ffffffff80109f45 <isr134>:
ffffffff80109f45:	6a 00                	pushq  $0x0
ffffffff80109f47:	68 86 00 00 00       	pushq  $0x86
ffffffff80109f4c:	e9 1f fb ff ff       	jmpq   ffffffff80109a70 <isr_handler>

ffffffff80109f51 <isr135>:
ffffffff80109f51:	6a 00                	pushq  $0x0
ffffffff80109f53:	68 87 00 00 00       	pushq  $0x87
ffffffff80109f58:	e9 13 fb ff ff       	jmpq   ffffffff80109a70 <isr_handler>

ffffffff80109f5d <isr136>:
ffffffff80109f5d:	6a 00                	pushq  $0x0
ffffffff80109f5f:	68 88 00 00 00       	pushq  $0x88
ffffffff80109f64:	e9 07 fb ff ff       	jmpq   ffffffff80109a70 <isr_handler>

ffffffff80109f69 <isr137>:
ffffffff80109f69:	6a 00                	pushq  $0x0
ffffffff80109f6b:	68 89 00 00 00       	pushq  $0x89
ffffffff80109f70:	e9 fb fa ff ff       	jmpq   ffffffff80109a70 <isr_handler>

ffffffff80109f75 <isr138>:
ffffffff80109f75:	6a 00                	pushq  $0x0
ffffffff80109f77:	68 8a 00 00 00       	pushq  $0x8a
ffffffff80109f7c:	e9 ef fa ff ff       	jmpq   ffffffff80109a70 <isr_handler>

ffffffff80109f81 <isr139>:
ffffffff80109f81:	6a 00                	pushq  $0x0
ffffffff80109f83:	68 8b 00 00 00       	pushq  $0x8b
ffffffff80109f88:	e9 e3 fa ff ff       	jmpq   ffffffff80109a70 <isr_handler>

ffffffff80109f8d <isr140>:
ffffffff80109f8d:	6a 00                	pushq  $0x0
ffffffff80109f8f:	68 8c 00 00 00       	pushq  $0x8c
ffffffff80109f94:	e9 d7 fa ff ff       	jmpq   ffffffff80109a70 <isr_handler>

ffffffff80109f99 <isr141>:
ffffffff80109f99:	6a 00                	pushq  $0x0
ffffffff80109f9b:	68 8d 00 00 00       	pushq  $0x8d
ffffffff80109fa0:	e9 cb fa ff ff       	jmpq   ffffffff80109a70 <isr_handler>

ffffffff80109fa5 <isr142>:
ffffffff80109fa5:	6a 00                	pushq  $0x0
ffffffff80109fa7:	68 8e 00 00 00       	pushq  $0x8e
ffffffff80109fac:	e9 bf fa ff ff       	jmpq   ffffffff80109a70 <isr_handler>

ffffffff80109fb1 <isr143>:
ffffffff80109fb1:	6a 00                	pushq  $0x0
ffffffff80109fb3:	68 8f 00 00 00       	pushq  $0x8f
ffffffff80109fb8:	e9 b3 fa ff ff       	jmpq   ffffffff80109a70 <isr_handler>

ffffffff80109fbd <isr144>:
ffffffff80109fbd:	6a 00                	pushq  $0x0
ffffffff80109fbf:	68 90 00 00 00       	pushq  $0x90
ffffffff80109fc4:	e9 a7 fa ff ff       	jmpq   ffffffff80109a70 <isr_handler>

ffffffff80109fc9 <isr145>:
ffffffff80109fc9:	6a 00                	pushq  $0x0
ffffffff80109fcb:	68 91 00 00 00       	pushq  $0x91
ffffffff80109fd0:	e9 9b fa ff ff       	jmpq   ffffffff80109a70 <isr_handler>

ffffffff80109fd5 <isr146>:
ffffffff80109fd5:	6a 00                	pushq  $0x0
ffffffff80109fd7:	68 92 00 00 00       	pushq  $0x92
ffffffff80109fdc:	e9 8f fa ff ff       	jmpq   ffffffff80109a70 <isr_handler>

ffffffff80109fe1 <isr147>:
ffffffff80109fe1:	6a 00                	pushq  $0x0
ffffffff80109fe3:	68 93 00 00 00       	pushq  $0x93
ffffffff80109fe8:	e9 83 fa ff ff       	jmpq   ffffffff80109a70 <isr_handler>

ffffffff80109fed <isr148>:
ffffffff80109fed:	6a 00                	pushq  $0x0
ffffffff80109fef:	68 94 00 00 00       	pushq  $0x94
ffffffff80109ff4:	e9 77 fa ff ff       	jmpq   ffffffff80109a70 <isr_handler>

ffffffff80109ff9 <isr149>:
ffffffff80109ff9:	6a 00                	pushq  $0x0
ffffffff80109ffb:	68 95 00 00 00       	pushq  $0x95
ffffffff8010a000:	e9 6b fa ff ff       	jmpq   ffffffff80109a70 <isr_handler>

ffffffff8010a005 <isr150>:
ffffffff8010a005:	6a 00                	pushq  $0x0
ffffffff8010a007:	68 96 00 00 00       	pushq  $0x96
ffffffff8010a00c:	e9 5f fa ff ff       	jmpq   ffffffff80109a70 <isr_handler>

ffffffff8010a011 <isr151>:
ffffffff8010a011:	6a 00                	pushq  $0x0
ffffffff8010a013:	68 97 00 00 00       	pushq  $0x97
ffffffff8010a018:	e9 53 fa ff ff       	jmpq   ffffffff80109a70 <isr_handler>

ffffffff8010a01d <isr152>:
ffffffff8010a01d:	6a 00                	pushq  $0x0
ffffffff8010a01f:	68 98 00 00 00       	pushq  $0x98
ffffffff8010a024:	e9 47 fa ff ff       	jmpq   ffffffff80109a70 <isr_handler>

ffffffff8010a029 <isr153>:
ffffffff8010a029:	6a 00                	pushq  $0x0
ffffffff8010a02b:	68 99 00 00 00       	pushq  $0x99
ffffffff8010a030:	e9 3b fa ff ff       	jmpq   ffffffff80109a70 <isr_handler>

ffffffff8010a035 <isr154>:
ffffffff8010a035:	6a 00                	pushq  $0x0
ffffffff8010a037:	68 9a 00 00 00       	pushq  $0x9a
ffffffff8010a03c:	e9 2f fa ff ff       	jmpq   ffffffff80109a70 <isr_handler>

ffffffff8010a041 <isr155>:
ffffffff8010a041:	6a 00                	pushq  $0x0
ffffffff8010a043:	68 9b 00 00 00       	pushq  $0x9b
ffffffff8010a048:	e9 23 fa ff ff       	jmpq   ffffffff80109a70 <isr_handler>

ffffffff8010a04d <isr156>:
ffffffff8010a04d:	6a 00                	pushq  $0x0
ffffffff8010a04f:	68 9c 00 00 00       	pushq  $0x9c
ffffffff8010a054:	e9 17 fa ff ff       	jmpq   ffffffff80109a70 <isr_handler>

ffffffff8010a059 <isr157>:
ffffffff8010a059:	6a 00                	pushq  $0x0
ffffffff8010a05b:	68 9d 00 00 00       	pushq  $0x9d
ffffffff8010a060:	e9 0b fa ff ff       	jmpq   ffffffff80109a70 <isr_handler>

ffffffff8010a065 <isr158>:
ffffffff8010a065:	6a 00                	pushq  $0x0
ffffffff8010a067:	68 9e 00 00 00       	pushq  $0x9e
ffffffff8010a06c:	e9 ff f9 ff ff       	jmpq   ffffffff80109a70 <isr_handler>

ffffffff8010a071 <isr159>:
ffffffff8010a071:	6a 00                	pushq  $0x0
ffffffff8010a073:	68 9f 00 00 00       	pushq  $0x9f
ffffffff8010a078:	e9 f3 f9 ff ff       	jmpq   ffffffff80109a70 <isr_handler>

ffffffff8010a07d <isr160>:
ffffffff8010a07d:	6a 00                	pushq  $0x0
ffffffff8010a07f:	68 a0 00 00 00       	pushq  $0xa0
ffffffff8010a084:	e9 e7 f9 ff ff       	jmpq   ffffffff80109a70 <isr_handler>

ffffffff8010a089 <isr161>:
ffffffff8010a089:	6a 00                	pushq  $0x0
ffffffff8010a08b:	68 a1 00 00 00       	pushq  $0xa1
ffffffff8010a090:	e9 db f9 ff ff       	jmpq   ffffffff80109a70 <isr_handler>

ffffffff8010a095 <isr162>:
ffffffff8010a095:	6a 00                	pushq  $0x0
ffffffff8010a097:	68 a2 00 00 00       	pushq  $0xa2
ffffffff8010a09c:	e9 cf f9 ff ff       	jmpq   ffffffff80109a70 <isr_handler>

ffffffff8010a0a1 <isr163>:
ffffffff8010a0a1:	6a 00                	pushq  $0x0
ffffffff8010a0a3:	68 a3 00 00 00       	pushq  $0xa3
ffffffff8010a0a8:	e9 c3 f9 ff ff       	jmpq   ffffffff80109a70 <isr_handler>

ffffffff8010a0ad <isr164>:
ffffffff8010a0ad:	6a 00                	pushq  $0x0
ffffffff8010a0af:	68 a4 00 00 00       	pushq  $0xa4
ffffffff8010a0b4:	e9 b7 f9 ff ff       	jmpq   ffffffff80109a70 <isr_handler>

ffffffff8010a0b9 <isr165>:
ffffffff8010a0b9:	6a 00                	pushq  $0x0
ffffffff8010a0bb:	68 a5 00 00 00       	pushq  $0xa5
ffffffff8010a0c0:	e9 ab f9 ff ff       	jmpq   ffffffff80109a70 <isr_handler>

ffffffff8010a0c5 <isr166>:
ffffffff8010a0c5:	6a 00                	pushq  $0x0
ffffffff8010a0c7:	68 a6 00 00 00       	pushq  $0xa6
ffffffff8010a0cc:	e9 9f f9 ff ff       	jmpq   ffffffff80109a70 <isr_handler>

ffffffff8010a0d1 <isr167>:
ffffffff8010a0d1:	6a 00                	pushq  $0x0
ffffffff8010a0d3:	68 a7 00 00 00       	pushq  $0xa7
ffffffff8010a0d8:	e9 93 f9 ff ff       	jmpq   ffffffff80109a70 <isr_handler>

ffffffff8010a0dd <isr168>:
ffffffff8010a0dd:	6a 00                	pushq  $0x0
ffffffff8010a0df:	68 a8 00 00 00       	pushq  $0xa8
ffffffff8010a0e4:	e9 87 f9 ff ff       	jmpq   ffffffff80109a70 <isr_handler>

ffffffff8010a0e9 <isr169>:
ffffffff8010a0e9:	6a 00                	pushq  $0x0
ffffffff8010a0eb:	68 a9 00 00 00       	pushq  $0xa9
ffffffff8010a0f0:	e9 7b f9 ff ff       	jmpq   ffffffff80109a70 <isr_handler>

ffffffff8010a0f5 <isr170>:
ffffffff8010a0f5:	6a 00                	pushq  $0x0
ffffffff8010a0f7:	68 aa 00 00 00       	pushq  $0xaa
ffffffff8010a0fc:	e9 6f f9 ff ff       	jmpq   ffffffff80109a70 <isr_handler>

ffffffff8010a101 <isr171>:
ffffffff8010a101:	6a 00                	pushq  $0x0
ffffffff8010a103:	68 ab 00 00 00       	pushq  $0xab
ffffffff8010a108:	e9 63 f9 ff ff       	jmpq   ffffffff80109a70 <isr_handler>

ffffffff8010a10d <isr172>:
ffffffff8010a10d:	6a 00                	pushq  $0x0
ffffffff8010a10f:	68 ac 00 00 00       	pushq  $0xac
ffffffff8010a114:	e9 57 f9 ff ff       	jmpq   ffffffff80109a70 <isr_handler>

ffffffff8010a119 <isr173>:
ffffffff8010a119:	6a 00                	pushq  $0x0
ffffffff8010a11b:	68 ad 00 00 00       	pushq  $0xad
ffffffff8010a120:	e9 4b f9 ff ff       	jmpq   ffffffff80109a70 <isr_handler>

ffffffff8010a125 <isr174>:
ffffffff8010a125:	6a 00                	pushq  $0x0
ffffffff8010a127:	68 ae 00 00 00       	pushq  $0xae
ffffffff8010a12c:	e9 3f f9 ff ff       	jmpq   ffffffff80109a70 <isr_handler>

ffffffff8010a131 <isr175>:
ffffffff8010a131:	6a 00                	pushq  $0x0
ffffffff8010a133:	68 af 00 00 00       	pushq  $0xaf
ffffffff8010a138:	e9 33 f9 ff ff       	jmpq   ffffffff80109a70 <isr_handler>

ffffffff8010a13d <isr176>:
ffffffff8010a13d:	6a 00                	pushq  $0x0
ffffffff8010a13f:	68 b0 00 00 00       	pushq  $0xb0
ffffffff8010a144:	e9 27 f9 ff ff       	jmpq   ffffffff80109a70 <isr_handler>

ffffffff8010a149 <isr177>:
ffffffff8010a149:	6a 00                	pushq  $0x0
ffffffff8010a14b:	68 b1 00 00 00       	pushq  $0xb1
ffffffff8010a150:	e9 1b f9 ff ff       	jmpq   ffffffff80109a70 <isr_handler>

ffffffff8010a155 <isr178>:
ffffffff8010a155:	6a 00                	pushq  $0x0
ffffffff8010a157:	68 b2 00 00 00       	pushq  $0xb2
ffffffff8010a15c:	e9 0f f9 ff ff       	jmpq   ffffffff80109a70 <isr_handler>

ffffffff8010a161 <isr179>:
ffffffff8010a161:	6a 00                	pushq  $0x0
ffffffff8010a163:	68 b3 00 00 00       	pushq  $0xb3
ffffffff8010a168:	e9 03 f9 ff ff       	jmpq   ffffffff80109a70 <isr_handler>

ffffffff8010a16d <isr180>:
ffffffff8010a16d:	6a 00                	pushq  $0x0
ffffffff8010a16f:	68 b4 00 00 00       	pushq  $0xb4
ffffffff8010a174:	e9 f7 f8 ff ff       	jmpq   ffffffff80109a70 <isr_handler>

ffffffff8010a179 <isr181>:
ffffffff8010a179:	6a 00                	pushq  $0x0
ffffffff8010a17b:	68 b5 00 00 00       	pushq  $0xb5
ffffffff8010a180:	e9 eb f8 ff ff       	jmpq   ffffffff80109a70 <isr_handler>

ffffffff8010a185 <isr182>:
ffffffff8010a185:	6a 00                	pushq  $0x0
ffffffff8010a187:	68 b6 00 00 00       	pushq  $0xb6
ffffffff8010a18c:	e9 df f8 ff ff       	jmpq   ffffffff80109a70 <isr_handler>

ffffffff8010a191 <isr183>:
ffffffff8010a191:	6a 00                	pushq  $0x0
ffffffff8010a193:	68 b7 00 00 00       	pushq  $0xb7
ffffffff8010a198:	e9 d3 f8 ff ff       	jmpq   ffffffff80109a70 <isr_handler>

ffffffff8010a19d <isr184>:
ffffffff8010a19d:	6a 00                	pushq  $0x0
ffffffff8010a19f:	68 b8 00 00 00       	pushq  $0xb8
ffffffff8010a1a4:	e9 c7 f8 ff ff       	jmpq   ffffffff80109a70 <isr_handler>

ffffffff8010a1a9 <isr185>:
ffffffff8010a1a9:	6a 00                	pushq  $0x0
ffffffff8010a1ab:	68 b9 00 00 00       	pushq  $0xb9
ffffffff8010a1b0:	e9 bb f8 ff ff       	jmpq   ffffffff80109a70 <isr_handler>

ffffffff8010a1b5 <isr186>:
ffffffff8010a1b5:	6a 00                	pushq  $0x0
ffffffff8010a1b7:	68 ba 00 00 00       	pushq  $0xba
ffffffff8010a1bc:	e9 af f8 ff ff       	jmpq   ffffffff80109a70 <isr_handler>

ffffffff8010a1c1 <isr187>:
ffffffff8010a1c1:	6a 00                	pushq  $0x0
ffffffff8010a1c3:	68 bb 00 00 00       	pushq  $0xbb
ffffffff8010a1c8:	e9 a3 f8 ff ff       	jmpq   ffffffff80109a70 <isr_handler>

ffffffff8010a1cd <isr188>:
ffffffff8010a1cd:	6a 00                	pushq  $0x0
ffffffff8010a1cf:	68 bc 00 00 00       	pushq  $0xbc
ffffffff8010a1d4:	e9 97 f8 ff ff       	jmpq   ffffffff80109a70 <isr_handler>

ffffffff8010a1d9 <isr189>:
ffffffff8010a1d9:	6a 00                	pushq  $0x0
ffffffff8010a1db:	68 bd 00 00 00       	pushq  $0xbd
ffffffff8010a1e0:	e9 8b f8 ff ff       	jmpq   ffffffff80109a70 <isr_handler>

ffffffff8010a1e5 <isr190>:
ffffffff8010a1e5:	6a 00                	pushq  $0x0
ffffffff8010a1e7:	68 be 00 00 00       	pushq  $0xbe
ffffffff8010a1ec:	e9 7f f8 ff ff       	jmpq   ffffffff80109a70 <isr_handler>

ffffffff8010a1f1 <isr191>:
ffffffff8010a1f1:	6a 00                	pushq  $0x0
ffffffff8010a1f3:	68 bf 00 00 00       	pushq  $0xbf
ffffffff8010a1f8:	e9 73 f8 ff ff       	jmpq   ffffffff80109a70 <isr_handler>

ffffffff8010a1fd <isr192>:
ffffffff8010a1fd:	6a 00                	pushq  $0x0
ffffffff8010a1ff:	68 c0 00 00 00       	pushq  $0xc0
ffffffff8010a204:	e9 67 f8 ff ff       	jmpq   ffffffff80109a70 <isr_handler>

ffffffff8010a209 <isr193>:
ffffffff8010a209:	6a 00                	pushq  $0x0
ffffffff8010a20b:	68 c1 00 00 00       	pushq  $0xc1
ffffffff8010a210:	e9 5b f8 ff ff       	jmpq   ffffffff80109a70 <isr_handler>

ffffffff8010a215 <isr194>:
ffffffff8010a215:	6a 00                	pushq  $0x0
ffffffff8010a217:	68 c2 00 00 00       	pushq  $0xc2
ffffffff8010a21c:	e9 4f f8 ff ff       	jmpq   ffffffff80109a70 <isr_handler>

ffffffff8010a221 <isr195>:
ffffffff8010a221:	6a 00                	pushq  $0x0
ffffffff8010a223:	68 c3 00 00 00       	pushq  $0xc3
ffffffff8010a228:	e9 43 f8 ff ff       	jmpq   ffffffff80109a70 <isr_handler>

ffffffff8010a22d <isr196>:
ffffffff8010a22d:	6a 00                	pushq  $0x0
ffffffff8010a22f:	68 c4 00 00 00       	pushq  $0xc4
ffffffff8010a234:	e9 37 f8 ff ff       	jmpq   ffffffff80109a70 <isr_handler>

ffffffff8010a239 <isr197>:
ffffffff8010a239:	6a 00                	pushq  $0x0
ffffffff8010a23b:	68 c5 00 00 00       	pushq  $0xc5
ffffffff8010a240:	e9 2b f8 ff ff       	jmpq   ffffffff80109a70 <isr_handler>

ffffffff8010a245 <isr198>:
ffffffff8010a245:	6a 00                	pushq  $0x0
ffffffff8010a247:	68 c6 00 00 00       	pushq  $0xc6
ffffffff8010a24c:	e9 1f f8 ff ff       	jmpq   ffffffff80109a70 <isr_handler>

ffffffff8010a251 <isr199>:
ffffffff8010a251:	6a 00                	pushq  $0x0
ffffffff8010a253:	68 c7 00 00 00       	pushq  $0xc7
ffffffff8010a258:	e9 13 f8 ff ff       	jmpq   ffffffff80109a70 <isr_handler>

ffffffff8010a25d <isr200>:
ffffffff8010a25d:	6a 00                	pushq  $0x0
ffffffff8010a25f:	68 c8 00 00 00       	pushq  $0xc8
ffffffff8010a264:	e9 07 f8 ff ff       	jmpq   ffffffff80109a70 <isr_handler>

ffffffff8010a269 <isr201>:
ffffffff8010a269:	6a 00                	pushq  $0x0
ffffffff8010a26b:	68 c9 00 00 00       	pushq  $0xc9
ffffffff8010a270:	e9 fb f7 ff ff       	jmpq   ffffffff80109a70 <isr_handler>

ffffffff8010a275 <isr202>:
ffffffff8010a275:	6a 00                	pushq  $0x0
ffffffff8010a277:	68 ca 00 00 00       	pushq  $0xca
ffffffff8010a27c:	e9 ef f7 ff ff       	jmpq   ffffffff80109a70 <isr_handler>

ffffffff8010a281 <isr203>:
ffffffff8010a281:	6a 00                	pushq  $0x0
ffffffff8010a283:	68 cb 00 00 00       	pushq  $0xcb
ffffffff8010a288:	e9 e3 f7 ff ff       	jmpq   ffffffff80109a70 <isr_handler>

ffffffff8010a28d <isr204>:
ffffffff8010a28d:	6a 00                	pushq  $0x0
ffffffff8010a28f:	68 cc 00 00 00       	pushq  $0xcc
ffffffff8010a294:	e9 d7 f7 ff ff       	jmpq   ffffffff80109a70 <isr_handler>

ffffffff8010a299 <isr205>:
ffffffff8010a299:	6a 00                	pushq  $0x0
ffffffff8010a29b:	68 cd 00 00 00       	pushq  $0xcd
ffffffff8010a2a0:	e9 cb f7 ff ff       	jmpq   ffffffff80109a70 <isr_handler>

ffffffff8010a2a5 <isr206>:
ffffffff8010a2a5:	6a 00                	pushq  $0x0
ffffffff8010a2a7:	68 ce 00 00 00       	pushq  $0xce
ffffffff8010a2ac:	e9 bf f7 ff ff       	jmpq   ffffffff80109a70 <isr_handler>

ffffffff8010a2b1 <isr207>:
ffffffff8010a2b1:	6a 00                	pushq  $0x0
ffffffff8010a2b3:	68 cf 00 00 00       	pushq  $0xcf
ffffffff8010a2b8:	e9 b3 f7 ff ff       	jmpq   ffffffff80109a70 <isr_handler>

ffffffff8010a2bd <isr208>:
ffffffff8010a2bd:	6a 00                	pushq  $0x0
ffffffff8010a2bf:	68 d0 00 00 00       	pushq  $0xd0
ffffffff8010a2c4:	e9 a7 f7 ff ff       	jmpq   ffffffff80109a70 <isr_handler>

ffffffff8010a2c9 <isr209>:
ffffffff8010a2c9:	6a 00                	pushq  $0x0
ffffffff8010a2cb:	68 d1 00 00 00       	pushq  $0xd1
ffffffff8010a2d0:	e9 9b f7 ff ff       	jmpq   ffffffff80109a70 <isr_handler>

ffffffff8010a2d5 <isr210>:
ffffffff8010a2d5:	6a 00                	pushq  $0x0
ffffffff8010a2d7:	68 d2 00 00 00       	pushq  $0xd2
ffffffff8010a2dc:	e9 8f f7 ff ff       	jmpq   ffffffff80109a70 <isr_handler>

ffffffff8010a2e1 <isr211>:
ffffffff8010a2e1:	6a 00                	pushq  $0x0
ffffffff8010a2e3:	68 d3 00 00 00       	pushq  $0xd3
ffffffff8010a2e8:	e9 83 f7 ff ff       	jmpq   ffffffff80109a70 <isr_handler>

ffffffff8010a2ed <isr212>:
ffffffff8010a2ed:	6a 00                	pushq  $0x0
ffffffff8010a2ef:	68 d4 00 00 00       	pushq  $0xd4
ffffffff8010a2f4:	e9 77 f7 ff ff       	jmpq   ffffffff80109a70 <isr_handler>

ffffffff8010a2f9 <isr213>:
ffffffff8010a2f9:	6a 00                	pushq  $0x0
ffffffff8010a2fb:	68 d5 00 00 00       	pushq  $0xd5
ffffffff8010a300:	e9 6b f7 ff ff       	jmpq   ffffffff80109a70 <isr_handler>

ffffffff8010a305 <isr214>:
ffffffff8010a305:	6a 00                	pushq  $0x0
ffffffff8010a307:	68 d6 00 00 00       	pushq  $0xd6
ffffffff8010a30c:	e9 5f f7 ff ff       	jmpq   ffffffff80109a70 <isr_handler>

ffffffff8010a311 <isr215>:
ffffffff8010a311:	6a 00                	pushq  $0x0
ffffffff8010a313:	68 d7 00 00 00       	pushq  $0xd7
ffffffff8010a318:	e9 53 f7 ff ff       	jmpq   ffffffff80109a70 <isr_handler>

ffffffff8010a31d <isr216>:
ffffffff8010a31d:	6a 00                	pushq  $0x0
ffffffff8010a31f:	68 d8 00 00 00       	pushq  $0xd8
ffffffff8010a324:	e9 47 f7 ff ff       	jmpq   ffffffff80109a70 <isr_handler>

ffffffff8010a329 <isr217>:
ffffffff8010a329:	6a 00                	pushq  $0x0
ffffffff8010a32b:	68 d9 00 00 00       	pushq  $0xd9
ffffffff8010a330:	e9 3b f7 ff ff       	jmpq   ffffffff80109a70 <isr_handler>

ffffffff8010a335 <isr218>:
ffffffff8010a335:	6a 00                	pushq  $0x0
ffffffff8010a337:	68 da 00 00 00       	pushq  $0xda
ffffffff8010a33c:	e9 2f f7 ff ff       	jmpq   ffffffff80109a70 <isr_handler>

ffffffff8010a341 <isr219>:
ffffffff8010a341:	6a 00                	pushq  $0x0
ffffffff8010a343:	68 db 00 00 00       	pushq  $0xdb
ffffffff8010a348:	e9 23 f7 ff ff       	jmpq   ffffffff80109a70 <isr_handler>

ffffffff8010a34d <isr220>:
ffffffff8010a34d:	6a 00                	pushq  $0x0
ffffffff8010a34f:	68 dc 00 00 00       	pushq  $0xdc
ffffffff8010a354:	e9 17 f7 ff ff       	jmpq   ffffffff80109a70 <isr_handler>

ffffffff8010a359 <isr221>:
ffffffff8010a359:	6a 00                	pushq  $0x0
ffffffff8010a35b:	68 dd 00 00 00       	pushq  $0xdd
ffffffff8010a360:	e9 0b f7 ff ff       	jmpq   ffffffff80109a70 <isr_handler>

ffffffff8010a365 <isr222>:
ffffffff8010a365:	6a 00                	pushq  $0x0
ffffffff8010a367:	68 de 00 00 00       	pushq  $0xde
ffffffff8010a36c:	e9 ff f6 ff ff       	jmpq   ffffffff80109a70 <isr_handler>

ffffffff8010a371 <isr223>:
ffffffff8010a371:	6a 00                	pushq  $0x0
ffffffff8010a373:	68 df 00 00 00       	pushq  $0xdf
ffffffff8010a378:	e9 f3 f6 ff ff       	jmpq   ffffffff80109a70 <isr_handler>

ffffffff8010a37d <isr224>:
ffffffff8010a37d:	6a 00                	pushq  $0x0
ffffffff8010a37f:	68 e0 00 00 00       	pushq  $0xe0
ffffffff8010a384:	e9 e7 f6 ff ff       	jmpq   ffffffff80109a70 <isr_handler>

ffffffff8010a389 <isr225>:
ffffffff8010a389:	6a 00                	pushq  $0x0
ffffffff8010a38b:	68 e1 00 00 00       	pushq  $0xe1
ffffffff8010a390:	e9 db f6 ff ff       	jmpq   ffffffff80109a70 <isr_handler>

ffffffff8010a395 <isr226>:
ffffffff8010a395:	6a 00                	pushq  $0x0
ffffffff8010a397:	68 e2 00 00 00       	pushq  $0xe2
ffffffff8010a39c:	e9 cf f6 ff ff       	jmpq   ffffffff80109a70 <isr_handler>

ffffffff8010a3a1 <isr227>:
ffffffff8010a3a1:	6a 00                	pushq  $0x0
ffffffff8010a3a3:	68 e3 00 00 00       	pushq  $0xe3
ffffffff8010a3a8:	e9 c3 f6 ff ff       	jmpq   ffffffff80109a70 <isr_handler>

ffffffff8010a3ad <isr228>:
ffffffff8010a3ad:	6a 00                	pushq  $0x0
ffffffff8010a3af:	68 e4 00 00 00       	pushq  $0xe4
ffffffff8010a3b4:	e9 b7 f6 ff ff       	jmpq   ffffffff80109a70 <isr_handler>

ffffffff8010a3b9 <isr229>:
ffffffff8010a3b9:	6a 00                	pushq  $0x0
ffffffff8010a3bb:	68 e5 00 00 00       	pushq  $0xe5
ffffffff8010a3c0:	e9 ab f6 ff ff       	jmpq   ffffffff80109a70 <isr_handler>

ffffffff8010a3c5 <isr230>:
ffffffff8010a3c5:	6a 00                	pushq  $0x0
ffffffff8010a3c7:	68 e6 00 00 00       	pushq  $0xe6
ffffffff8010a3cc:	e9 9f f6 ff ff       	jmpq   ffffffff80109a70 <isr_handler>

ffffffff8010a3d1 <isr231>:
ffffffff8010a3d1:	6a 00                	pushq  $0x0
ffffffff8010a3d3:	68 e7 00 00 00       	pushq  $0xe7
ffffffff8010a3d8:	e9 93 f6 ff ff       	jmpq   ffffffff80109a70 <isr_handler>

ffffffff8010a3dd <isr232>:
ffffffff8010a3dd:	6a 00                	pushq  $0x0
ffffffff8010a3df:	68 e8 00 00 00       	pushq  $0xe8
ffffffff8010a3e4:	e9 87 f6 ff ff       	jmpq   ffffffff80109a70 <isr_handler>

ffffffff8010a3e9 <isr233>:
ffffffff8010a3e9:	6a 00                	pushq  $0x0
ffffffff8010a3eb:	68 e9 00 00 00       	pushq  $0xe9
ffffffff8010a3f0:	e9 7b f6 ff ff       	jmpq   ffffffff80109a70 <isr_handler>

ffffffff8010a3f5 <isr234>:
ffffffff8010a3f5:	6a 00                	pushq  $0x0
ffffffff8010a3f7:	68 ea 00 00 00       	pushq  $0xea
ffffffff8010a3fc:	e9 6f f6 ff ff       	jmpq   ffffffff80109a70 <isr_handler>

ffffffff8010a401 <isr235>:
ffffffff8010a401:	6a 00                	pushq  $0x0
ffffffff8010a403:	68 eb 00 00 00       	pushq  $0xeb
ffffffff8010a408:	e9 63 f6 ff ff       	jmpq   ffffffff80109a70 <isr_handler>

ffffffff8010a40d <isr236>:
ffffffff8010a40d:	6a 00                	pushq  $0x0
ffffffff8010a40f:	68 ec 00 00 00       	pushq  $0xec
ffffffff8010a414:	e9 57 f6 ff ff       	jmpq   ffffffff80109a70 <isr_handler>

ffffffff8010a419 <isr237>:
ffffffff8010a419:	6a 00                	pushq  $0x0
ffffffff8010a41b:	68 ed 00 00 00       	pushq  $0xed
ffffffff8010a420:	e9 4b f6 ff ff       	jmpq   ffffffff80109a70 <isr_handler>

ffffffff8010a425 <isr238>:
ffffffff8010a425:	6a 00                	pushq  $0x0
ffffffff8010a427:	68 ee 00 00 00       	pushq  $0xee
ffffffff8010a42c:	e9 3f f6 ff ff       	jmpq   ffffffff80109a70 <isr_handler>

ffffffff8010a431 <isr239>:
ffffffff8010a431:	6a 00                	pushq  $0x0
ffffffff8010a433:	68 ef 00 00 00       	pushq  $0xef
ffffffff8010a438:	e9 33 f6 ff ff       	jmpq   ffffffff80109a70 <isr_handler>

ffffffff8010a43d <isr240>:
ffffffff8010a43d:	6a 00                	pushq  $0x0
ffffffff8010a43f:	68 f0 00 00 00       	pushq  $0xf0
ffffffff8010a444:	e9 27 f6 ff ff       	jmpq   ffffffff80109a70 <isr_handler>

ffffffff8010a449 <isr241>:
ffffffff8010a449:	6a 00                	pushq  $0x0
ffffffff8010a44b:	68 f1 00 00 00       	pushq  $0xf1
ffffffff8010a450:	e9 1b f6 ff ff       	jmpq   ffffffff80109a70 <isr_handler>

ffffffff8010a455 <isr242>:
ffffffff8010a455:	6a 00                	pushq  $0x0
ffffffff8010a457:	68 f2 00 00 00       	pushq  $0xf2
ffffffff8010a45c:	e9 0f f6 ff ff       	jmpq   ffffffff80109a70 <isr_handler>

ffffffff8010a461 <isr243>:
ffffffff8010a461:	6a 00                	pushq  $0x0
ffffffff8010a463:	68 f3 00 00 00       	pushq  $0xf3
ffffffff8010a468:	e9 03 f6 ff ff       	jmpq   ffffffff80109a70 <isr_handler>

ffffffff8010a46d <isr244>:
ffffffff8010a46d:	6a 00                	pushq  $0x0
ffffffff8010a46f:	68 f4 00 00 00       	pushq  $0xf4
ffffffff8010a474:	e9 f7 f5 ff ff       	jmpq   ffffffff80109a70 <isr_handler>

ffffffff8010a479 <isr245>:
ffffffff8010a479:	6a 00                	pushq  $0x0
ffffffff8010a47b:	68 f5 00 00 00       	pushq  $0xf5
ffffffff8010a480:	e9 eb f5 ff ff       	jmpq   ffffffff80109a70 <isr_handler>

ffffffff8010a485 <isr246>:
ffffffff8010a485:	6a 00                	pushq  $0x0
ffffffff8010a487:	68 f6 00 00 00       	pushq  $0xf6
ffffffff8010a48c:	e9 df f5 ff ff       	jmpq   ffffffff80109a70 <isr_handler>

ffffffff8010a491 <isr247>:
ffffffff8010a491:	6a 00                	pushq  $0x0
ffffffff8010a493:	68 f7 00 00 00       	pushq  $0xf7
ffffffff8010a498:	e9 d3 f5 ff ff       	jmpq   ffffffff80109a70 <isr_handler>

ffffffff8010a49d <isr248>:
ffffffff8010a49d:	6a 00                	pushq  $0x0
ffffffff8010a49f:	68 f8 00 00 00       	pushq  $0xf8
ffffffff8010a4a4:	e9 c7 f5 ff ff       	jmpq   ffffffff80109a70 <isr_handler>

ffffffff8010a4a9 <isr249>:
ffffffff8010a4a9:	6a 00                	pushq  $0x0
ffffffff8010a4ab:	68 f9 00 00 00       	pushq  $0xf9
ffffffff8010a4b0:	e9 bb f5 ff ff       	jmpq   ffffffff80109a70 <isr_handler>

ffffffff8010a4b5 <isr250>:
ffffffff8010a4b5:	6a 00                	pushq  $0x0
ffffffff8010a4b7:	68 fa 00 00 00       	pushq  $0xfa
ffffffff8010a4bc:	e9 af f5 ff ff       	jmpq   ffffffff80109a70 <isr_handler>

ffffffff8010a4c1 <isr251>:
ffffffff8010a4c1:	6a 00                	pushq  $0x0
ffffffff8010a4c3:	68 fb 00 00 00       	pushq  $0xfb
ffffffff8010a4c8:	e9 a3 f5 ff ff       	jmpq   ffffffff80109a70 <isr_handler>

ffffffff8010a4cd <isr252>:
ffffffff8010a4cd:	6a 00                	pushq  $0x0
ffffffff8010a4cf:	68 fc 00 00 00       	pushq  $0xfc
ffffffff8010a4d4:	e9 97 f5 ff ff       	jmpq   ffffffff80109a70 <isr_handler>

ffffffff8010a4d9 <isr253>:
ffffffff8010a4d9:	6a 00                	pushq  $0x0
ffffffff8010a4db:	68 fd 00 00 00       	pushq  $0xfd
ffffffff8010a4e0:	e9 8b f5 ff ff       	jmpq   ffffffff80109a70 <isr_handler>

ffffffff8010a4e5 <isr254>:
ffffffff8010a4e5:	6a 00                	pushq  $0x0
ffffffff8010a4e7:	68 fe 00 00 00       	pushq  $0xfe
ffffffff8010a4ec:	e9 7f f5 ff ff       	jmpq   ffffffff80109a70 <isr_handler>

ffffffff8010a4f1 <isr255>:
ffffffff8010a4f1:	6a 00                	pushq  $0x0
ffffffff8010a4f3:	68 ff 00 00 00       	pushq  $0xff
ffffffff8010a4f8:	e9 73 f5 ff ff       	jmpq   ffffffff80109a70 <isr_handler>

ffffffff8010a4fd <kmain>:
ffffffff8010a4fd:	55                   	push   %rbp
ffffffff8010a4fe:	48 89 e5             	mov    %rsp,%rbp
ffffffff8010a501:	48 83 ec 20          	sub    $0x20,%rsp
ffffffff8010a505:	48 89 7d e8          	mov    %rdi,-0x18(%rbp)
ffffffff8010a509:	48 ba 00 00 00 00 00 	movabs $0xffff800000000000,%rdx
ffffffff8010a510:	80 ff ff 
ffffffff8010a513:	48 8b 45 e8          	mov    -0x18(%rbp),%rax
ffffffff8010a517:	48 01 d0             	add    %rdx,%rax
ffffffff8010a51a:	48 89 45 f8          	mov    %rax,-0x8(%rbp)
ffffffff8010a51e:	48 8b 45 f8          	mov    -0x8(%rbp),%rax
ffffffff8010a522:	48 89 c7             	mov    %rax,%rdi
ffffffff8010a525:	e8 6e 18 00 00       	callq  ffffffff8010bd98 <pmm_init>
ffffffff8010a52a:	b8 00 00 00 00       	mov    $0x0,%eax
ffffffff8010a52f:	e8 73 7d ff ff       	callq  ffffffff801022a7 <bitmap_init>
ffffffff8010a534:	b8 00 00 00 00       	mov    $0x0,%eax
ffffffff8010a539:	e8 e3 8c ff ff       	callq  ffffffff80103221 <init_devfs>
ffffffff8010a53e:	48 8b 45 f8          	mov    -0x8(%rbp),%rax
ffffffff8010a542:	48 89 c7             	mov    %rax,%rdi
ffffffff8010a545:	e8 87 b9 ff ff       	callq  ffffffff80105ed1 <init_graphics>
ffffffff8010a54a:	48 8b 45 f8          	mov    -0x8(%rbp),%rax
ffffffff8010a54e:	48 8b 40 28          	mov    0x28(%rax),%rax
ffffffff8010a552:	48 ba 00 00 00 00 00 	movabs $0xffff800000000000,%rdx
ffffffff8010a559:	80 ff ff 
ffffffff8010a55c:	48 01 d0             	add    %rdx,%rax
ffffffff8010a55f:	48 89 c7             	mov    %rax,%rdi
ffffffff8010a562:	b8 00 00 00 00       	mov    $0x0,%eax
ffffffff8010a567:	e8 1d 25 00 00       	callq  ffffffff8010ca89 <rsdp_init>
ffffffff8010a56c:	b8 00 00 00 00       	mov    $0x0,%eax
ffffffff8010a571:	e8 7c 00 00 00       	callq  ffffffff8010a5f2 <madt_init>
ffffffff8010a576:	b8 00 00 00 00       	mov    $0x0,%eax
ffffffff8010a57b:	e8 b3 b6 ff ff       	callq  ffffffff80105c33 <gdt_init>
ffffffff8010a580:	b8 00 00 00 00       	mov    $0x0,%eax
ffffffff8010a585:	e8 8b c4 ff ff       	callq  ffffffff80106a15 <idt_init>
ffffffff8010a58a:	b8 00 00 00 00       	mov    $0x0,%eax
ffffffff8010a58f:	e8 a7 b8 ff ff       	callq  ffffffff80105e3b <create_generic_tss>
ffffffff8010a594:	b8 00 00 00 00       	mov    $0x0,%eax
ffffffff8010a599:	e8 d9 79 ff ff       	callq  ffffffff80101f77 <apic_init>
ffffffff8010a59e:	b8 00 00 00 00       	mov    $0x0,%eax
ffffffff8010a5a3:	e8 4d 16 00 00       	callq  ffffffff8010bbf5 <pci_init>
ffffffff8010a5a8:	b8 00 00 00 00       	mov    $0x0,%eax
ffffffff8010a5ad:	e8 4e 6a ff ff       	callq  ffffffff80101000 <ahci_init>
ffffffff8010a5b2:	48 c7 c6 b6 05 11 80 	mov    $0xffffffff801105b6,%rsi
ffffffff8010a5b9:	48 c7 c7 b8 05 11 80 	mov    $0xffffffff801105b8,%rdi
ffffffff8010a5c0:	e8 c6 46 00 00       	callq  ffffffff8010ec8b <vfs_mount_dev>
ffffffff8010a5c5:	b8 00 00 00 00       	mov    $0x0,%eax
ffffffff8010a5ca:	e8 bd bf ff ff       	callq  ffffffff8010658c <init_hpet>
ffffffff8010a5cf:	b8 00 00 00 00       	mov    $0x0,%eax
ffffffff8010a5d4:	e8 71 36 00 00       	callq  ffffffff8010dc4a <init_smp>
ffffffff8010a5d9:	bf 32 00 00 00       	mov    $0x32,%edi
ffffffff8010a5de:	e8 1f 79 ff ff       	callq  ffffffff80101f02 <lapic_timer_init>
ffffffff8010a5e3:	b8 00 00 00 00       	mov    $0x0,%eax
ffffffff8010a5e8:	e8 9a 51 00 00       	callq  ffffffff8010f787 <vmm_init>
ffffffff8010a5ed:	fb                   	sti    
ffffffff8010a5ee:	f3 90                	pause  
ffffffff8010a5f0:	eb fc                	jmp    ffffffff8010a5ee <kmain+0xf1>

ffffffff8010a5f2 <madt_init>:
ffffffff8010a5f2:	55                   	push   %rbp
ffffffff8010a5f3:	48 89 e5             	mov    %rsp,%rbp
ffffffff8010a5f6:	48 83 ec 20          	sub    $0x20,%rsp
ffffffff8010a5fa:	48 c7 c7 c8 05 11 80 	mov    $0xffffffff801105c8,%rdi
ffffffff8010a601:	e8 76 25 00 00       	callq  ffffffff8010cb7c <find_SDT>
ffffffff8010a606:	48 89 05 1b 3f 01 00 	mov    %rax,0x13f1b(%rip)        # ffffffff8011e528 <madt>
ffffffff8010a60d:	48 c7 45 f8 00 00 00 	movq   $0x0,-0x8(%rbp)
ffffffff8010a614:	00 
ffffffff8010a615:	e9 dd 04 00 00       	jmpq   ffffffff8010aaf7 <madt_init+0x505>
ffffffff8010a61a:	48 8b 15 07 3f 01 00 	mov    0x13f07(%rip),%rdx        # ffffffff8011e528 <madt>
ffffffff8010a621:	48 8b 45 f8          	mov    -0x8(%rbp),%rax
ffffffff8010a625:	48 8d 48 01          	lea    0x1(%rax),%rcx
ffffffff8010a629:	48 89 4d f8          	mov    %rcx,-0x8(%rbp)
ffffffff8010a62d:	0f b6 44 02 2c       	movzbl 0x2c(%rdx,%rax,1),%eax
ffffffff8010a632:	88 45 f7             	mov    %al,-0x9(%rbp)
ffffffff8010a635:	48 8b 15 ec 3e 01 00 	mov    0x13eec(%rip),%rdx        # ffffffff8011e528 <madt>
ffffffff8010a63c:	48 8b 45 f8          	mov    -0x8(%rbp),%rax
ffffffff8010a640:	48 8d 48 01          	lea    0x1(%rax),%rcx
ffffffff8010a644:	48 89 4d f8          	mov    %rcx,-0x8(%rbp)
ffffffff8010a648:	0f b6 44 02 2c       	movzbl 0x2c(%rdx,%rax,1),%eax
ffffffff8010a64d:	88 45 f6             	mov    %al,-0xa(%rbp)
ffffffff8010a650:	0f b6 45 f7          	movzbl -0x9(%rbp),%eax
ffffffff8010a654:	83 f8 05             	cmp    $0x5,%eax
ffffffff8010a657:	0f 87 88 04 00 00    	ja     ffffffff8010aae5 <madt_init+0x4f3>
ffffffff8010a65d:	89 c0                	mov    %eax,%eax
ffffffff8010a65f:	48 8b 04 c5 f0 05 11 	mov    -0x7feefa10(,%rax,8),%rax
ffffffff8010a666:	80 
ffffffff8010a667:	ff e0                	jmpq   *%rax
ffffffff8010a669:	48 c7 c7 08 e4 11 80 	mov    $0xffffffff8011e408,%rdi
ffffffff8010a670:	e8 2b 38 00 00       	callq  ffffffff8010dea0 <spin_lock>
ffffffff8010a675:	c7 45 e0 00 00 00 00 	movl   $0x0,-0x20(%rbp)
ffffffff8010a67c:	48 8b 05 7d 3d 01 00 	mov    0x13d7d(%rip),%rax        # ffffffff8011e400 <madt0>
ffffffff8010a683:	48 85 c0             	test   %rax,%rax
ffffffff8010a686:	75 1c                	jne    ffffffff8010a6a4 <madt_init+0xb2>
ffffffff8010a688:	bf c0 00 00 00       	mov    $0xc0,%edi
ffffffff8010a68d:	e8 b5 7c ff ff       	callq  ffffffff80102347 <kmalloc>
ffffffff8010a692:	48 89 05 67 3d 01 00 	mov    %rax,0x13d67(%rip)        # ffffffff8011e400 <madt0>
ffffffff8010a699:	48 c7 05 6c 3d 01 00 	movq   $0x20,0x13d6c(%rip)        # ffffffff8011e410 <madt0+0x10>
ffffffff8010a6a0:	20 00 00 00 
ffffffff8010a6a4:	48 8b 15 75 3d 01 00 	mov    0x13d75(%rip),%rdx        # ffffffff8011e420 <madt0+0x20>
ffffffff8010a6ab:	48 8b 05 5e 3d 01 00 	mov    0x13d5e(%rip),%rax        # ffffffff8011e410 <madt0+0x10>
ffffffff8010a6b2:	48 39 c2             	cmp    %rax,%rdx
ffffffff8010a6b5:	76 32                	jbe    ffffffff8010a6e9 <madt_init+0xf7>
ffffffff8010a6b7:	48 8b 05 52 3d 01 00 	mov    0x13d52(%rip),%rax        # ffffffff8011e410 <madt0+0x10>
ffffffff8010a6be:	48 83 c0 20          	add    $0x20,%rax
ffffffff8010a6c2:	48 89 05 47 3d 01 00 	mov    %rax,0x13d47(%rip)        # ffffffff8011e410 <madt0+0x10>
ffffffff8010a6c9:	48 8b 15 40 3d 01 00 	mov    0x13d40(%rip),%rdx        # ffffffff8011e410 <madt0+0x10>
ffffffff8010a6d0:	48 8b 05 29 3d 01 00 	mov    0x13d29(%rip),%rax        # ffffffff8011e400 <madt0>
ffffffff8010a6d7:	48 89 d6             	mov    %rdx,%rsi
ffffffff8010a6da:	48 89 c7             	mov    %rax,%rdi
ffffffff8010a6dd:	e8 2d 7f ff ff       	callq  ffffffff8010260f <krealloc>
ffffffff8010a6e2:	48 89 05 17 3d 01 00 	mov    %rax,0x13d17(%rip)        # ffffffff8011e400 <madt0>
ffffffff8010a6e9:	48 8b 05 30 3d 01 00 	mov    0x13d30(%rip),%rax        # ffffffff8011e420 <madt0+0x20>
ffffffff8010a6f0:	89 45 e0             	mov    %eax,-0x20(%rbp)
ffffffff8010a6f3:	48 8b 05 2e 3e 01 00 	mov    0x13e2e(%rip),%rax        # ffffffff8011e528 <madt>
ffffffff8010a6fa:	48 8d 48 2c          	lea    0x2c(%rax),%rcx
ffffffff8010a6fe:	48 8b 35 fb 3c 01 00 	mov    0x13cfb(%rip),%rsi        # ffffffff8011e400 <madt0>
ffffffff8010a705:	48 8b 15 14 3d 01 00 	mov    0x13d14(%rip),%rdx        # ffffffff8011e420 <madt0+0x20>
ffffffff8010a70c:	48 8d 42 01          	lea    0x1(%rdx),%rax
ffffffff8010a710:	48 89 05 09 3d 01 00 	mov    %rax,0x13d09(%rip)        # ffffffff8011e420 <madt0+0x20>
ffffffff8010a717:	48 89 d0             	mov    %rdx,%rax
ffffffff8010a71a:	48 01 c0             	add    %rax,%rax
ffffffff8010a71d:	48 01 d0             	add    %rdx,%rax
ffffffff8010a720:	48 01 c0             	add    %rax,%rax
ffffffff8010a723:	48 01 f0             	add    %rsi,%rax
ffffffff8010a726:	8b 11                	mov    (%rcx),%edx
ffffffff8010a728:	89 10                	mov    %edx,(%rax)
ffffffff8010a72a:	0f b7 51 04          	movzwl 0x4(%rcx),%edx
ffffffff8010a72e:	66 89 50 04          	mov    %dx,0x4(%rax)
ffffffff8010a732:	48 8b 05 df 3c 01 00 	mov    0x13cdf(%rip),%rax        # ffffffff8011e418 <madt0+0x18>
ffffffff8010a739:	48 83 c0 01          	add    $0x1,%rax
ffffffff8010a73d:	48 89 05 d4 3c 01 00 	mov    %rax,0x13cd4(%rip)        # ffffffff8011e418 <madt0+0x18>
ffffffff8010a744:	48 c7 c7 08 e4 11 80 	mov    $0xffffffff8011e408,%rdi
ffffffff8010a74b:	e8 a5 37 00 00       	callq  ffffffff8010def5 <spin_release>
ffffffff8010a750:	e9 90 03 00 00       	jmpq   ffffffff8010aae5 <madt_init+0x4f3>
ffffffff8010a755:	48 c7 c7 48 e4 11 80 	mov    $0xffffffff8011e448,%rdi
ffffffff8010a75c:	e8 3f 37 00 00       	callq  ffffffff8010dea0 <spin_lock>
ffffffff8010a761:	c7 45 e4 00 00 00 00 	movl   $0x0,-0x1c(%rbp)
ffffffff8010a768:	48 8b 05 d1 3c 01 00 	mov    0x13cd1(%rip),%rax        # ffffffff8011e440 <madt1>
ffffffff8010a76f:	48 85 c0             	test   %rax,%rax
ffffffff8010a772:	75 1c                	jne    ffffffff8010a790 <madt_init+0x19e>
ffffffff8010a774:	bf 40 01 00 00       	mov    $0x140,%edi
ffffffff8010a779:	e8 c9 7b ff ff       	callq  ffffffff80102347 <kmalloc>
ffffffff8010a77e:	48 89 05 bb 3c 01 00 	mov    %rax,0x13cbb(%rip)        # ffffffff8011e440 <madt1>
ffffffff8010a785:	48 c7 05 c0 3c 01 00 	movq   $0x20,0x13cc0(%rip)        # ffffffff8011e450 <madt1+0x10>
ffffffff8010a78c:	20 00 00 00 
ffffffff8010a790:	48 8b 15 c9 3c 01 00 	mov    0x13cc9(%rip),%rdx        # ffffffff8011e460 <madt1+0x20>
ffffffff8010a797:	48 8b 05 b2 3c 01 00 	mov    0x13cb2(%rip),%rax        # ffffffff8011e450 <madt1+0x10>
ffffffff8010a79e:	48 39 c2             	cmp    %rax,%rdx
ffffffff8010a7a1:	76 32                	jbe    ffffffff8010a7d5 <madt_init+0x1e3>
ffffffff8010a7a3:	48 8b 05 a6 3c 01 00 	mov    0x13ca6(%rip),%rax        # ffffffff8011e450 <madt1+0x10>
ffffffff8010a7aa:	48 83 c0 20          	add    $0x20,%rax
ffffffff8010a7ae:	48 89 05 9b 3c 01 00 	mov    %rax,0x13c9b(%rip)        # ffffffff8011e450 <madt1+0x10>
ffffffff8010a7b5:	48 8b 15 94 3c 01 00 	mov    0x13c94(%rip),%rdx        # ffffffff8011e450 <madt1+0x10>
ffffffff8010a7bc:	48 8b 05 7d 3c 01 00 	mov    0x13c7d(%rip),%rax        # ffffffff8011e440 <madt1>
ffffffff8010a7c3:	48 89 d6             	mov    %rdx,%rsi
ffffffff8010a7c6:	48 89 c7             	mov    %rax,%rdi
ffffffff8010a7c9:	e8 41 7e ff ff       	callq  ffffffff8010260f <krealloc>
ffffffff8010a7ce:	48 89 05 6b 3c 01 00 	mov    %rax,0x13c6b(%rip)        # ffffffff8011e440 <madt1>
ffffffff8010a7d5:	48 8b 05 84 3c 01 00 	mov    0x13c84(%rip),%rax        # ffffffff8011e460 <madt1+0x20>
ffffffff8010a7dc:	89 45 e4             	mov    %eax,-0x1c(%rbp)
ffffffff8010a7df:	48 8b 05 42 3d 01 00 	mov    0x13d42(%rip),%rax        # ffffffff8011e528 <madt>
ffffffff8010a7e6:	48 8d 48 2c          	lea    0x2c(%rax),%rcx
ffffffff8010a7ea:	48 8b 35 4f 3c 01 00 	mov    0x13c4f(%rip),%rsi        # ffffffff8011e440 <madt1>
ffffffff8010a7f1:	48 8b 15 68 3c 01 00 	mov    0x13c68(%rip),%rdx        # ffffffff8011e460 <madt1+0x20>
ffffffff8010a7f8:	48 8d 42 01          	lea    0x1(%rdx),%rax
ffffffff8010a7fc:	48 89 05 5d 3c 01 00 	mov    %rax,0x13c5d(%rip)        # ffffffff8011e460 <madt1+0x20>
ffffffff8010a803:	48 89 d0             	mov    %rdx,%rax
ffffffff8010a806:	48 c1 e0 02          	shl    $0x2,%rax
ffffffff8010a80a:	48 01 d0             	add    %rdx,%rax
ffffffff8010a80d:	48 01 c0             	add    %rax,%rax
ffffffff8010a810:	48 01 f0             	add    %rsi,%rax
ffffffff8010a813:	48 8b 11             	mov    (%rcx),%rdx
ffffffff8010a816:	48 89 10             	mov    %rdx,(%rax)
ffffffff8010a819:	0f b7 51 08          	movzwl 0x8(%rcx),%edx
ffffffff8010a81d:	66 89 50 08          	mov    %dx,0x8(%rax)
ffffffff8010a821:	48 8b 05 30 3c 01 00 	mov    0x13c30(%rip),%rax        # ffffffff8011e458 <madt1+0x18>
ffffffff8010a828:	48 83 c0 01          	add    $0x1,%rax
ffffffff8010a82c:	48 89 05 25 3c 01 00 	mov    %rax,0x13c25(%rip)        # ffffffff8011e458 <madt1+0x18>
ffffffff8010a833:	48 c7 c7 48 e4 11 80 	mov    $0xffffffff8011e448,%rdi
ffffffff8010a83a:	e8 b6 36 00 00       	callq  ffffffff8010def5 <spin_release>
ffffffff8010a83f:	e9 a1 02 00 00       	jmpq   ffffffff8010aae5 <madt_init+0x4f3>
ffffffff8010a844:	48 c7 c7 88 e4 11 80 	mov    $0xffffffff8011e488,%rdi
ffffffff8010a84b:	e8 50 36 00 00       	callq  ffffffff8010dea0 <spin_lock>
ffffffff8010a850:	c7 45 e8 00 00 00 00 	movl   $0x0,-0x18(%rbp)
ffffffff8010a857:	48 8b 05 22 3c 01 00 	mov    0x13c22(%rip),%rax        # ffffffff8011e480 <madt2>
ffffffff8010a85e:	48 85 c0             	test   %rax,%rax
ffffffff8010a861:	75 1c                	jne    ffffffff8010a87f <madt_init+0x28d>
ffffffff8010a863:	bf 00 01 00 00       	mov    $0x100,%edi
ffffffff8010a868:	e8 da 7a ff ff       	callq  ffffffff80102347 <kmalloc>
ffffffff8010a86d:	48 89 05 0c 3c 01 00 	mov    %rax,0x13c0c(%rip)        # ffffffff8011e480 <madt2>
ffffffff8010a874:	48 c7 05 11 3c 01 00 	movq   $0x20,0x13c11(%rip)        # ffffffff8011e490 <madt2+0x10>
ffffffff8010a87b:	20 00 00 00 
ffffffff8010a87f:	48 8b 15 1a 3c 01 00 	mov    0x13c1a(%rip),%rdx        # ffffffff8011e4a0 <madt2+0x20>
ffffffff8010a886:	48 8b 05 03 3c 01 00 	mov    0x13c03(%rip),%rax        # ffffffff8011e490 <madt2+0x10>
ffffffff8010a88d:	48 39 c2             	cmp    %rax,%rdx
ffffffff8010a890:	76 32                	jbe    ffffffff8010a8c4 <madt_init+0x2d2>
ffffffff8010a892:	48 8b 05 f7 3b 01 00 	mov    0x13bf7(%rip),%rax        # ffffffff8011e490 <madt2+0x10>
ffffffff8010a899:	48 83 c0 20          	add    $0x20,%rax
ffffffff8010a89d:	48 89 05 ec 3b 01 00 	mov    %rax,0x13bec(%rip)        # ffffffff8011e490 <madt2+0x10>
ffffffff8010a8a4:	48 8b 15 e5 3b 01 00 	mov    0x13be5(%rip),%rdx        # ffffffff8011e490 <madt2+0x10>
ffffffff8010a8ab:	48 8b 05 ce 3b 01 00 	mov    0x13bce(%rip),%rax        # ffffffff8011e480 <madt2>
ffffffff8010a8b2:	48 89 d6             	mov    %rdx,%rsi
ffffffff8010a8b5:	48 89 c7             	mov    %rax,%rdi
ffffffff8010a8b8:	e8 52 7d ff ff       	callq  ffffffff8010260f <krealloc>
ffffffff8010a8bd:	48 89 05 bc 3b 01 00 	mov    %rax,0x13bbc(%rip)        # ffffffff8011e480 <madt2>
ffffffff8010a8c4:	48 8b 05 d5 3b 01 00 	mov    0x13bd5(%rip),%rax        # ffffffff8011e4a0 <madt2+0x20>
ffffffff8010a8cb:	89 45 e8             	mov    %eax,-0x18(%rbp)
ffffffff8010a8ce:	48 8b 05 53 3c 01 00 	mov    0x13c53(%rip),%rax        # ffffffff8011e528 <madt>
ffffffff8010a8d5:	48 8d 48 2c          	lea    0x2c(%rax),%rcx
ffffffff8010a8d9:	48 8b 35 a0 3b 01 00 	mov    0x13ba0(%rip),%rsi        # ffffffff8011e480 <madt2>
ffffffff8010a8e0:	48 8b 05 b9 3b 01 00 	mov    0x13bb9(%rip),%rax        # ffffffff8011e4a0 <madt2+0x20>
ffffffff8010a8e7:	48 8d 50 01          	lea    0x1(%rax),%rdx
ffffffff8010a8eb:	48 89 15 ae 3b 01 00 	mov    %rdx,0x13bae(%rip)        # ffffffff8011e4a0 <madt2+0x20>
ffffffff8010a8f2:	48 c1 e0 03          	shl    $0x3,%rax
ffffffff8010a8f6:	48 8d 14 06          	lea    (%rsi,%rax,1),%rdx
ffffffff8010a8fa:	48 8b 01             	mov    (%rcx),%rax
ffffffff8010a8fd:	48 89 02             	mov    %rax,(%rdx)
ffffffff8010a900:	48 8b 05 91 3b 01 00 	mov    0x13b91(%rip),%rax        # ffffffff8011e498 <madt2+0x18>
ffffffff8010a907:	48 83 c0 01          	add    $0x1,%rax
ffffffff8010a90b:	48 89 05 86 3b 01 00 	mov    %rax,0x13b86(%rip)        # ffffffff8011e498 <madt2+0x18>
ffffffff8010a912:	48 c7 c7 88 e4 11 80 	mov    $0xffffffff8011e488,%rdi
ffffffff8010a919:	e8 d7 35 00 00       	callq  ffffffff8010def5 <spin_release>
ffffffff8010a91e:	e9 c2 01 00 00       	jmpq   ffffffff8010aae5 <madt_init+0x4f3>
ffffffff8010a923:	48 c7 c7 c8 e4 11 80 	mov    $0xffffffff8011e4c8,%rdi
ffffffff8010a92a:	e8 71 35 00 00       	callq  ffffffff8010dea0 <spin_lock>
ffffffff8010a92f:	c7 45 ec 00 00 00 00 	movl   $0x0,-0x14(%rbp)
ffffffff8010a936:	48 8b 05 83 3b 01 00 	mov    0x13b83(%rip),%rax        # ffffffff8011e4c0 <madt4>
ffffffff8010a93d:	48 85 c0             	test   %rax,%rax
ffffffff8010a940:	75 1c                	jne    ffffffff8010a95e <madt_init+0x36c>
ffffffff8010a942:	bf 80 00 00 00       	mov    $0x80,%edi
ffffffff8010a947:	e8 fb 79 ff ff       	callq  ffffffff80102347 <kmalloc>
ffffffff8010a94c:	48 89 05 6d 3b 01 00 	mov    %rax,0x13b6d(%rip)        # ffffffff8011e4c0 <madt4>
ffffffff8010a953:	48 c7 05 72 3b 01 00 	movq   $0x20,0x13b72(%rip)        # ffffffff8011e4d0 <madt4+0x10>
ffffffff8010a95a:	20 00 00 00 
ffffffff8010a95e:	48 8b 15 7b 3b 01 00 	mov    0x13b7b(%rip),%rdx        # ffffffff8011e4e0 <madt4+0x20>
ffffffff8010a965:	48 8b 05 64 3b 01 00 	mov    0x13b64(%rip),%rax        # ffffffff8011e4d0 <madt4+0x10>
ffffffff8010a96c:	48 39 c2             	cmp    %rax,%rdx
ffffffff8010a96f:	76 32                	jbe    ffffffff8010a9a3 <madt_init+0x3b1>
ffffffff8010a971:	48 8b 05 58 3b 01 00 	mov    0x13b58(%rip),%rax        # ffffffff8011e4d0 <madt4+0x10>
ffffffff8010a978:	48 83 c0 20          	add    $0x20,%rax
ffffffff8010a97c:	48 89 05 4d 3b 01 00 	mov    %rax,0x13b4d(%rip)        # ffffffff8011e4d0 <madt4+0x10>
ffffffff8010a983:	48 8b 15 46 3b 01 00 	mov    0x13b46(%rip),%rdx        # ffffffff8011e4d0 <madt4+0x10>
ffffffff8010a98a:	48 8b 05 2f 3b 01 00 	mov    0x13b2f(%rip),%rax        # ffffffff8011e4c0 <madt4>
ffffffff8010a991:	48 89 d6             	mov    %rdx,%rsi
ffffffff8010a994:	48 89 c7             	mov    %rax,%rdi
ffffffff8010a997:	e8 73 7c ff ff       	callq  ffffffff8010260f <krealloc>
ffffffff8010a99c:	48 89 05 1d 3b 01 00 	mov    %rax,0x13b1d(%rip)        # ffffffff8011e4c0 <madt4>
ffffffff8010a9a3:	48 8b 05 36 3b 01 00 	mov    0x13b36(%rip),%rax        # ffffffff8011e4e0 <madt4+0x20>
ffffffff8010a9aa:	89 45 ec             	mov    %eax,-0x14(%rbp)
ffffffff8010a9ad:	48 8b 05 74 3b 01 00 	mov    0x13b74(%rip),%rax        # ffffffff8011e528 <madt>
ffffffff8010a9b4:	48 8d 48 2c          	lea    0x2c(%rax),%rcx
ffffffff8010a9b8:	48 8b 35 01 3b 01 00 	mov    0x13b01(%rip),%rsi        # ffffffff8011e4c0 <madt4>
ffffffff8010a9bf:	48 8b 05 1a 3b 01 00 	mov    0x13b1a(%rip),%rax        # ffffffff8011e4e0 <madt4+0x20>
ffffffff8010a9c6:	48 8d 50 01          	lea    0x1(%rax),%rdx
ffffffff8010a9ca:	48 89 15 0f 3b 01 00 	mov    %rdx,0x13b0f(%rip)        # ffffffff8011e4e0 <madt4+0x20>
ffffffff8010a9d1:	48 c1 e0 02          	shl    $0x2,%rax
ffffffff8010a9d5:	48 8d 14 06          	lea    (%rsi,%rax,1),%rdx
ffffffff8010a9d9:	8b 01                	mov    (%rcx),%eax
ffffffff8010a9db:	89 02                	mov    %eax,(%rdx)
ffffffff8010a9dd:	48 8b 05 f4 3a 01 00 	mov    0x13af4(%rip),%rax        # ffffffff8011e4d8 <madt4+0x18>
ffffffff8010a9e4:	48 83 c0 01          	add    $0x1,%rax
ffffffff8010a9e8:	48 89 05 e9 3a 01 00 	mov    %rax,0x13ae9(%rip)        # ffffffff8011e4d8 <madt4+0x18>
ffffffff8010a9ef:	48 c7 c7 c8 e4 11 80 	mov    $0xffffffff8011e4c8,%rdi
ffffffff8010a9f6:	e8 fa 34 00 00       	callq  ffffffff8010def5 <spin_release>
ffffffff8010a9fb:	e9 e5 00 00 00       	jmpq   ffffffff8010aae5 <madt_init+0x4f3>
ffffffff8010aa00:	48 c7 c7 08 e5 11 80 	mov    $0xffffffff8011e508,%rdi
ffffffff8010aa07:	e8 94 34 00 00       	callq  ffffffff8010dea0 <spin_lock>
ffffffff8010aa0c:	c7 45 f0 00 00 00 00 	movl   $0x0,-0x10(%rbp)
ffffffff8010aa13:	48 8b 05 e6 3a 01 00 	mov    0x13ae6(%rip),%rax        # ffffffff8011e500 <madt5>
ffffffff8010aa1a:	48 85 c0             	test   %rax,%rax
ffffffff8010aa1d:	75 1c                	jne    ffffffff8010aa3b <madt_init+0x449>
ffffffff8010aa1f:	bf 60 00 00 00       	mov    $0x60,%edi
ffffffff8010aa24:	e8 1e 79 ff ff       	callq  ffffffff80102347 <kmalloc>
ffffffff8010aa29:	48 89 05 d0 3a 01 00 	mov    %rax,0x13ad0(%rip)        # ffffffff8011e500 <madt5>
ffffffff8010aa30:	48 c7 05 d5 3a 01 00 	movq   $0x20,0x13ad5(%rip)        # ffffffff8011e510 <madt5+0x10>
ffffffff8010aa37:	20 00 00 00 
ffffffff8010aa3b:	48 8b 15 de 3a 01 00 	mov    0x13ade(%rip),%rdx        # ffffffff8011e520 <madt5+0x20>
ffffffff8010aa42:	48 8b 05 c7 3a 01 00 	mov    0x13ac7(%rip),%rax        # ffffffff8011e510 <madt5+0x10>
ffffffff8010aa49:	48 39 c2             	cmp    %rax,%rdx
ffffffff8010aa4c:	76 32                	jbe    ffffffff8010aa80 <madt_init+0x48e>
ffffffff8010aa4e:	48 8b 05 bb 3a 01 00 	mov    0x13abb(%rip),%rax        # ffffffff8011e510 <madt5+0x10>
ffffffff8010aa55:	48 83 c0 20          	add    $0x20,%rax
ffffffff8010aa59:	48 89 05 b0 3a 01 00 	mov    %rax,0x13ab0(%rip)        # ffffffff8011e510 <madt5+0x10>
ffffffff8010aa60:	48 8b 15 a9 3a 01 00 	mov    0x13aa9(%rip),%rdx        # ffffffff8011e510 <madt5+0x10>
ffffffff8010aa67:	48 8b 05 92 3a 01 00 	mov    0x13a92(%rip),%rax        # ffffffff8011e500 <madt5>
ffffffff8010aa6e:	48 89 d6             	mov    %rdx,%rsi
ffffffff8010aa71:	48 89 c7             	mov    %rax,%rdi
ffffffff8010aa74:	e8 96 7b ff ff       	callq  ffffffff8010260f <krealloc>
ffffffff8010aa79:	48 89 05 80 3a 01 00 	mov    %rax,0x13a80(%rip)        # ffffffff8011e500 <madt5>
ffffffff8010aa80:	48 8b 05 99 3a 01 00 	mov    0x13a99(%rip),%rax        # ffffffff8011e520 <madt5+0x20>
ffffffff8010aa87:	89 45 f0             	mov    %eax,-0x10(%rbp)
ffffffff8010aa8a:	48 8b 05 97 3a 01 00 	mov    0x13a97(%rip),%rax        # ffffffff8011e528 <madt>
ffffffff8010aa91:	48 8d 48 2c          	lea    0x2c(%rax),%rcx
ffffffff8010aa95:	48 8b 35 64 3a 01 00 	mov    0x13a64(%rip),%rsi        # ffffffff8011e500 <madt5>
ffffffff8010aa9c:	48 8b 05 7d 3a 01 00 	mov    0x13a7d(%rip),%rax        # ffffffff8011e520 <madt5+0x20>
ffffffff8010aaa3:	48 8d 50 01          	lea    0x1(%rax),%rdx
ffffffff8010aaa7:	48 89 15 72 3a 01 00 	mov    %rdx,0x13a72(%rip)        # ffffffff8011e520 <madt5+0x20>
ffffffff8010aaae:	48 89 c2             	mov    %rax,%rdx
ffffffff8010aab1:	48 01 d2             	add    %rdx,%rdx
ffffffff8010aab4:	48 01 d0             	add    %rdx,%rax
ffffffff8010aab7:	48 01 f0             	add    %rsi,%rax
ffffffff8010aaba:	0f b7 11             	movzwl (%rcx),%edx
ffffffff8010aabd:	66 89 10             	mov    %dx,(%rax)
ffffffff8010aac0:	0f b6 51 02          	movzbl 0x2(%rcx),%edx
ffffffff8010aac4:	88 50 02             	mov    %dl,0x2(%rax)
ffffffff8010aac7:	48 8b 05 4a 3a 01 00 	mov    0x13a4a(%rip),%rax        # ffffffff8011e518 <madt5+0x18>
ffffffff8010aace:	48 83 c0 01          	add    $0x1,%rax
ffffffff8010aad2:	48 89 05 3f 3a 01 00 	mov    %rax,0x13a3f(%rip)        # ffffffff8011e518 <madt5+0x18>
ffffffff8010aad9:	48 c7 c7 08 e5 11 80 	mov    $0xffffffff8011e508,%rdi
ffffffff8010aae0:	e8 10 34 00 00       	callq  ffffffff8010def5 <spin_release>
ffffffff8010aae5:	0f b6 45 f6          	movzbl -0xa(%rbp),%eax
ffffffff8010aae9:	83 e8 03             	sub    $0x3,%eax
ffffffff8010aaec:	48 98                	cltq   
ffffffff8010aaee:	48 01 45 f8          	add    %rax,-0x8(%rbp)
ffffffff8010aaf2:	48 83 45 f8 01       	addq   $0x1,-0x8(%rbp)
ffffffff8010aaf7:	48 8b 05 2a 3a 01 00 	mov    0x13a2a(%rip),%rax        # ffffffff8011e528 <madt>
ffffffff8010aafe:	8b 40 04             	mov    0x4(%rax),%eax
ffffffff8010ab01:	89 c0                	mov    %eax,%eax
ffffffff8010ab03:	48 83 e8 2c          	sub    $0x2c,%rax
ffffffff8010ab07:	48 39 45 f8          	cmp    %rax,-0x8(%rbp)
ffffffff8010ab0b:	0f 82 09 fb ff ff    	jb     ffffffff8010a61a <madt_init+0x28>
ffffffff8010ab11:	48 8b 05 00 39 01 00 	mov    0x13900(%rip),%rax        # ffffffff8011e418 <madt0+0x18>
ffffffff8010ab18:	48 89 c6             	mov    %rax,%rsi
ffffffff8010ab1b:	48 c7 c7 d0 05 11 80 	mov    $0xffffffff801105d0,%rdi
ffffffff8010ab22:	b8 00 00 00 00       	mov    $0x0,%eax
ffffffff8010ab27:	e8 76 05 00 00       	callq  ffffffff8010b0a2 <kvprintf>
ffffffff8010ab2c:	90                   	nop
ffffffff8010ab2d:	c9                   	leaveq 
ffffffff8010ab2e:	c3                   	retq   

ffffffff8010ab2f <memset8>:
ffffffff8010ab2f:	55                   	push   %rbp
ffffffff8010ab30:	48 89 e5             	mov    %rsp,%rbp
ffffffff8010ab33:	48 83 ec 28          	sub    $0x28,%rsp
ffffffff8010ab37:	48 89 7d e8          	mov    %rdi,-0x18(%rbp)
ffffffff8010ab3b:	89 f0                	mov    %esi,%eax
ffffffff8010ab3d:	48 89 55 d8          	mov    %rdx,-0x28(%rbp)
ffffffff8010ab41:	88 45 e4             	mov    %al,-0x1c(%rbp)
ffffffff8010ab44:	48 c7 45 f8 00 00 00 	movq   $0x0,-0x8(%rbp)
ffffffff8010ab4b:	00 
ffffffff8010ab4c:	eb 17                	jmp    ffffffff8010ab65 <memset8+0x36>
ffffffff8010ab4e:	48 8b 45 e8          	mov    -0x18(%rbp),%rax
ffffffff8010ab52:	48 8d 50 01          	lea    0x1(%rax),%rdx
ffffffff8010ab56:	48 89 55 e8          	mov    %rdx,-0x18(%rbp)
ffffffff8010ab5a:	0f b6 55 e4          	movzbl -0x1c(%rbp),%edx
ffffffff8010ab5e:	88 10                	mov    %dl,(%rax)
ffffffff8010ab60:	48 83 45 f8 01       	addq   $0x1,-0x8(%rbp)
ffffffff8010ab65:	48 8b 45 f8          	mov    -0x8(%rbp),%rax
ffffffff8010ab69:	48 3b 45 d8          	cmp    -0x28(%rbp),%rax
ffffffff8010ab6d:	72 df                	jb     ffffffff8010ab4e <memset8+0x1f>
ffffffff8010ab6f:	90                   	nop
ffffffff8010ab70:	90                   	nop
ffffffff8010ab71:	c9                   	leaveq 
ffffffff8010ab72:	c3                   	retq   

ffffffff8010ab73 <memset16>:
ffffffff8010ab73:	55                   	push   %rbp
ffffffff8010ab74:	48 89 e5             	mov    %rsp,%rbp
ffffffff8010ab77:	48 83 ec 28          	sub    $0x28,%rsp
ffffffff8010ab7b:	48 89 7d e8          	mov    %rdi,-0x18(%rbp)
ffffffff8010ab7f:	89 f0                	mov    %esi,%eax
ffffffff8010ab81:	48 89 55 d8          	mov    %rdx,-0x28(%rbp)
ffffffff8010ab85:	66 89 45 e4          	mov    %ax,-0x1c(%rbp)
ffffffff8010ab89:	48 c7 45 f8 00 00 00 	movq   $0x0,-0x8(%rbp)
ffffffff8010ab90:	00 
ffffffff8010ab91:	eb 18                	jmp    ffffffff8010abab <memset16+0x38>
ffffffff8010ab93:	48 8b 45 e8          	mov    -0x18(%rbp),%rax
ffffffff8010ab97:	48 8d 50 02          	lea    0x2(%rax),%rdx
ffffffff8010ab9b:	48 89 55 e8          	mov    %rdx,-0x18(%rbp)
ffffffff8010ab9f:	0f b7 55 e4          	movzwl -0x1c(%rbp),%edx
ffffffff8010aba3:	66 89 10             	mov    %dx,(%rax)
ffffffff8010aba6:	48 83 45 f8 01       	addq   $0x1,-0x8(%rbp)
ffffffff8010abab:	48 8b 45 f8          	mov    -0x8(%rbp),%rax
ffffffff8010abaf:	48 3b 45 d8          	cmp    -0x28(%rbp),%rax
ffffffff8010abb3:	72 de                	jb     ffffffff8010ab93 <memset16+0x20>
ffffffff8010abb5:	90                   	nop
ffffffff8010abb6:	90                   	nop
ffffffff8010abb7:	c9                   	leaveq 
ffffffff8010abb8:	c3                   	retq   

ffffffff8010abb9 <memset32>:
ffffffff8010abb9:	55                   	push   %rbp
ffffffff8010abba:	48 89 e5             	mov    %rsp,%rbp
ffffffff8010abbd:	48 83 ec 28          	sub    $0x28,%rsp
ffffffff8010abc1:	48 89 7d e8          	mov    %rdi,-0x18(%rbp)
ffffffff8010abc5:	89 75 e4             	mov    %esi,-0x1c(%rbp)
ffffffff8010abc8:	48 89 55 d8          	mov    %rdx,-0x28(%rbp)
ffffffff8010abcc:	48 c7 45 f8 00 00 00 	movq   $0x0,-0x8(%rbp)
ffffffff8010abd3:	00 
ffffffff8010abd4:	eb 16                	jmp    ffffffff8010abec <memset32+0x33>
ffffffff8010abd6:	48 8b 45 e8          	mov    -0x18(%rbp),%rax
ffffffff8010abda:	48 8d 50 04          	lea    0x4(%rax),%rdx
ffffffff8010abde:	48 89 55 e8          	mov    %rdx,-0x18(%rbp)
ffffffff8010abe2:	8b 55 e4             	mov    -0x1c(%rbp),%edx
ffffffff8010abe5:	89 10                	mov    %edx,(%rax)
ffffffff8010abe7:	48 83 45 f8 01       	addq   $0x1,-0x8(%rbp)
ffffffff8010abec:	48 8b 45 f8          	mov    -0x8(%rbp),%rax
ffffffff8010abf0:	48 3b 45 d8          	cmp    -0x28(%rbp),%rax
ffffffff8010abf4:	72 e0                	jb     ffffffff8010abd6 <memset32+0x1d>
ffffffff8010abf6:	90                   	nop
ffffffff8010abf7:	90                   	nop
ffffffff8010abf8:	c9                   	leaveq 
ffffffff8010abf9:	c3                   	retq   

ffffffff8010abfa <memset64>:
ffffffff8010abfa:	55                   	push   %rbp
ffffffff8010abfb:	48 89 e5             	mov    %rsp,%rbp
ffffffff8010abfe:	48 83 ec 28          	sub    $0x28,%rsp
ffffffff8010ac02:	48 89 7d e8          	mov    %rdi,-0x18(%rbp)
ffffffff8010ac06:	48 89 75 e0          	mov    %rsi,-0x20(%rbp)
ffffffff8010ac0a:	48 89 55 d8          	mov    %rdx,-0x28(%rbp)
ffffffff8010ac0e:	48 c7 45 f8 00 00 00 	movq   $0x0,-0x8(%rbp)
ffffffff8010ac15:	00 
ffffffff8010ac16:	eb 18                	jmp    ffffffff8010ac30 <memset64+0x36>
ffffffff8010ac18:	48 8b 45 e8          	mov    -0x18(%rbp),%rax
ffffffff8010ac1c:	48 8d 50 08          	lea    0x8(%rax),%rdx
ffffffff8010ac20:	48 89 55 e8          	mov    %rdx,-0x18(%rbp)
ffffffff8010ac24:	48 8b 55 e0          	mov    -0x20(%rbp),%rdx
ffffffff8010ac28:	48 89 10             	mov    %rdx,(%rax)
ffffffff8010ac2b:	48 83 45 f8 01       	addq   $0x1,-0x8(%rbp)
ffffffff8010ac30:	48 8b 45 f8          	mov    -0x8(%rbp),%rax
ffffffff8010ac34:	48 3b 45 d8          	cmp    -0x28(%rbp),%rax
ffffffff8010ac38:	72 de                	jb     ffffffff8010ac18 <memset64+0x1e>
ffffffff8010ac3a:	90                   	nop
ffffffff8010ac3b:	90                   	nop
ffffffff8010ac3c:	c9                   	leaveq 
ffffffff8010ac3d:	c3                   	retq   

ffffffff8010ac3e <memcpy8>:
ffffffff8010ac3e:	55                   	push   %rbp
ffffffff8010ac3f:	48 89 e5             	mov    %rsp,%rbp
ffffffff8010ac42:	48 83 ec 28          	sub    $0x28,%rsp
ffffffff8010ac46:	48 89 7d e8          	mov    %rdi,-0x18(%rbp)
ffffffff8010ac4a:	48 89 75 e0          	mov    %rsi,-0x20(%rbp)
ffffffff8010ac4e:	48 89 55 d8          	mov    %rdx,-0x28(%rbp)
ffffffff8010ac52:	48 c7 45 f8 00 00 00 	movq   $0x0,-0x8(%rbp)
ffffffff8010ac59:	00 
ffffffff8010ac5a:	eb 20                	jmp    ffffffff8010ac7c <memcpy8+0x3e>
ffffffff8010ac5c:	48 8b 55 e0          	mov    -0x20(%rbp),%rdx
ffffffff8010ac60:	48 8b 45 f8          	mov    -0x8(%rbp),%rax
ffffffff8010ac64:	48 01 d0             	add    %rdx,%rax
ffffffff8010ac67:	48 8b 4d e8          	mov    -0x18(%rbp),%rcx
ffffffff8010ac6b:	48 8b 55 f8          	mov    -0x8(%rbp),%rdx
ffffffff8010ac6f:	48 01 ca             	add    %rcx,%rdx
ffffffff8010ac72:	0f b6 00             	movzbl (%rax),%eax
ffffffff8010ac75:	88 02                	mov    %al,(%rdx)
ffffffff8010ac77:	48 83 45 f8 01       	addq   $0x1,-0x8(%rbp)
ffffffff8010ac7c:	48 8b 45 f8          	mov    -0x8(%rbp),%rax
ffffffff8010ac80:	48 3b 45 d8          	cmp    -0x28(%rbp),%rax
ffffffff8010ac84:	72 d6                	jb     ffffffff8010ac5c <memcpy8+0x1e>
ffffffff8010ac86:	90                   	nop
ffffffff8010ac87:	90                   	nop
ffffffff8010ac88:	c9                   	leaveq 
ffffffff8010ac89:	c3                   	retq   

ffffffff8010ac8a <memcpy16>:
ffffffff8010ac8a:	55                   	push   %rbp
ffffffff8010ac8b:	48 89 e5             	mov    %rsp,%rbp
ffffffff8010ac8e:	48 83 ec 28          	sub    $0x28,%rsp
ffffffff8010ac92:	48 89 7d e8          	mov    %rdi,-0x18(%rbp)
ffffffff8010ac96:	48 89 75 e0          	mov    %rsi,-0x20(%rbp)
ffffffff8010ac9a:	48 89 55 d8          	mov    %rdx,-0x28(%rbp)
ffffffff8010ac9e:	48 c7 45 f8 00 00 00 	movq   $0x0,-0x8(%rbp)
ffffffff8010aca5:	00 
ffffffff8010aca6:	eb 29                	jmp    ffffffff8010acd1 <memcpy16+0x47>
ffffffff8010aca8:	48 8b 45 f8          	mov    -0x8(%rbp),%rax
ffffffff8010acac:	48 8d 14 00          	lea    (%rax,%rax,1),%rdx
ffffffff8010acb0:	48 8b 45 e0          	mov    -0x20(%rbp),%rax
ffffffff8010acb4:	48 01 d0             	add    %rdx,%rax
ffffffff8010acb7:	48 8b 55 f8          	mov    -0x8(%rbp),%rdx
ffffffff8010acbb:	48 8d 0c 12          	lea    (%rdx,%rdx,1),%rcx
ffffffff8010acbf:	48 8b 55 e8          	mov    -0x18(%rbp),%rdx
ffffffff8010acc3:	48 01 ca             	add    %rcx,%rdx
ffffffff8010acc6:	0f b7 00             	movzwl (%rax),%eax
ffffffff8010acc9:	66 89 02             	mov    %ax,(%rdx)
ffffffff8010accc:	48 83 45 f8 01       	addq   $0x1,-0x8(%rbp)
ffffffff8010acd1:	48 8b 45 f8          	mov    -0x8(%rbp),%rax
ffffffff8010acd5:	48 3b 45 d8          	cmp    -0x28(%rbp),%rax
ffffffff8010acd9:	72 cd                	jb     ffffffff8010aca8 <memcpy16+0x1e>
ffffffff8010acdb:	90                   	nop
ffffffff8010acdc:	90                   	nop
ffffffff8010acdd:	c9                   	leaveq 
ffffffff8010acde:	c3                   	retq   

ffffffff8010acdf <memcpy32>:
ffffffff8010acdf:	55                   	push   %rbp
ffffffff8010ace0:	48 89 e5             	mov    %rsp,%rbp
ffffffff8010ace3:	48 83 ec 28          	sub    $0x28,%rsp
ffffffff8010ace7:	48 89 7d e8          	mov    %rdi,-0x18(%rbp)
ffffffff8010aceb:	48 89 75 e0          	mov    %rsi,-0x20(%rbp)
ffffffff8010acef:	48 89 55 d8          	mov    %rdx,-0x28(%rbp)
ffffffff8010acf3:	48 c7 45 f8 00 00 00 	movq   $0x0,-0x8(%rbp)
ffffffff8010acfa:	00 
ffffffff8010acfb:	eb 2f                	jmp    ffffffff8010ad2c <memcpy32+0x4d>
ffffffff8010acfd:	48 8b 45 f8          	mov    -0x8(%rbp),%rax
ffffffff8010ad01:	48 8d 14 85 00 00 00 	lea    0x0(,%rax,4),%rdx
ffffffff8010ad08:	00 
ffffffff8010ad09:	48 8b 45 e0          	mov    -0x20(%rbp),%rax
ffffffff8010ad0d:	48 01 d0             	add    %rdx,%rax
ffffffff8010ad10:	48 8b 55 f8          	mov    -0x8(%rbp),%rdx
ffffffff8010ad14:	48 8d 0c 95 00 00 00 	lea    0x0(,%rdx,4),%rcx
ffffffff8010ad1b:	00 
ffffffff8010ad1c:	48 8b 55 e8          	mov    -0x18(%rbp),%rdx
ffffffff8010ad20:	48 01 ca             	add    %rcx,%rdx
ffffffff8010ad23:	8b 00                	mov    (%rax),%eax
ffffffff8010ad25:	89 02                	mov    %eax,(%rdx)
ffffffff8010ad27:	48 83 45 f8 01       	addq   $0x1,-0x8(%rbp)
ffffffff8010ad2c:	48 8b 45 f8          	mov    -0x8(%rbp),%rax
ffffffff8010ad30:	48 3b 45 d8          	cmp    -0x28(%rbp),%rax
ffffffff8010ad34:	72 c7                	jb     ffffffff8010acfd <memcpy32+0x1e>
ffffffff8010ad36:	90                   	nop
ffffffff8010ad37:	90                   	nop
ffffffff8010ad38:	c9                   	leaveq 
ffffffff8010ad39:	c3                   	retq   

ffffffff8010ad3a <memcpy64>:
ffffffff8010ad3a:	55                   	push   %rbp
ffffffff8010ad3b:	48 89 e5             	mov    %rsp,%rbp
ffffffff8010ad3e:	48 83 ec 28          	sub    $0x28,%rsp
ffffffff8010ad42:	48 89 7d e8          	mov    %rdi,-0x18(%rbp)
ffffffff8010ad46:	48 89 75 e0          	mov    %rsi,-0x20(%rbp)
ffffffff8010ad4a:	48 89 55 d8          	mov    %rdx,-0x28(%rbp)
ffffffff8010ad4e:	48 c7 45 f8 00 00 00 	movq   $0x0,-0x8(%rbp)
ffffffff8010ad55:	00 
ffffffff8010ad56:	eb 31                	jmp    ffffffff8010ad89 <memcpy64+0x4f>
ffffffff8010ad58:	48 8b 45 f8          	mov    -0x8(%rbp),%rax
ffffffff8010ad5c:	48 8d 14 c5 00 00 00 	lea    0x0(,%rax,8),%rdx
ffffffff8010ad63:	00 
ffffffff8010ad64:	48 8b 45 e0          	mov    -0x20(%rbp),%rax
ffffffff8010ad68:	48 01 d0             	add    %rdx,%rax
ffffffff8010ad6b:	48 8b 55 f8          	mov    -0x8(%rbp),%rdx
ffffffff8010ad6f:	48 8d 0c d5 00 00 00 	lea    0x0(,%rdx,8),%rcx
ffffffff8010ad76:	00 
ffffffff8010ad77:	48 8b 55 e8          	mov    -0x18(%rbp),%rdx
ffffffff8010ad7b:	48 01 ca             	add    %rcx,%rdx
ffffffff8010ad7e:	48 8b 00             	mov    (%rax),%rax
ffffffff8010ad81:	48 89 02             	mov    %rax,(%rdx)
ffffffff8010ad84:	48 83 45 f8 01       	addq   $0x1,-0x8(%rbp)
ffffffff8010ad89:	48 8b 45 f8          	mov    -0x8(%rbp),%rax
ffffffff8010ad8d:	48 3b 45 d8          	cmp    -0x28(%rbp),%rax
ffffffff8010ad91:	72 c5                	jb     ffffffff8010ad58 <memcpy64+0x1e>
ffffffff8010ad93:	90                   	nop
ffffffff8010ad94:	90                   	nop
ffffffff8010ad95:	c9                   	leaveq 
ffffffff8010ad96:	c3                   	retq   

ffffffff8010ad97 <init_nvme>:
ffffffff8010ad97:	55                   	push   %rbp
ffffffff8010ad98:	48 89 e5             	mov    %rsp,%rbp
ffffffff8010ad9b:	48 83 ec 10          	sub    $0x10,%rsp
ffffffff8010ad9f:	48 c7 45 f8 00 00 00 	movq   $0x0,-0x8(%rbp)
ffffffff8010ada6:	00 
ffffffff8010ada7:	e9 dd 00 00 00       	jmpq   ffffffff8010ae89 <init_nvme+0xf2>
ffffffff8010adac:	48 8b 0d 9d 37 01 00 	mov    0x1379d(%rip),%rcx        # ffffffff8011e550 <pci_devices>
ffffffff8010adb3:	48 8b 55 f8          	mov    -0x8(%rbp),%rdx
ffffffff8010adb7:	48 89 d0             	mov    %rdx,%rax
ffffffff8010adba:	48 01 c0             	add    %rax,%rax
ffffffff8010adbd:	48 01 d0             	add    %rdx,%rax
ffffffff8010adc0:	48 c1 e0 02          	shl    $0x2,%rax
ffffffff8010adc4:	48 01 c8             	add    %rcx,%rax
ffffffff8010adc7:	0f b6 00             	movzbl (%rax),%eax
ffffffff8010adca:	3c 01                	cmp    $0x1,%al
ffffffff8010adcc:	0f 85 b1 00 00 00    	jne    ffffffff8010ae83 <init_nvme+0xec>
ffffffff8010add2:	48 8b 0d 77 37 01 00 	mov    0x13777(%rip),%rcx        # ffffffff8011e550 <pci_devices>
ffffffff8010add9:	48 8b 55 f8          	mov    -0x8(%rbp),%rdx
ffffffff8010addd:	48 89 d0             	mov    %rdx,%rax
ffffffff8010ade0:	48 01 c0             	add    %rax,%rax
ffffffff8010ade3:	48 01 d0             	add    %rdx,%rax
ffffffff8010ade6:	48 c1 e0 02          	shl    $0x2,%rax
ffffffff8010adea:	48 01 c8             	add    %rcx,%rax
ffffffff8010aded:	0f b6 40 01          	movzbl 0x1(%rax),%eax
ffffffff8010adf1:	3c 08                	cmp    $0x8,%al
ffffffff8010adf3:	0f 85 8a 00 00 00    	jne    ffffffff8010ae83 <init_nvme+0xec>
ffffffff8010adf9:	48 8b 0d 50 37 01 00 	mov    0x13750(%rip),%rcx        # ffffffff8011e550 <pci_devices>
ffffffff8010ae00:	48 8b 55 f8          	mov    -0x8(%rbp),%rdx
ffffffff8010ae04:	48 89 d0             	mov    %rdx,%rax
ffffffff8010ae07:	48 01 c0             	add    %rax,%rax
ffffffff8010ae0a:	48 01 d0             	add    %rdx,%rax
ffffffff8010ae0d:	48 c1 e0 02          	shl    $0x2,%rax
ffffffff8010ae11:	48 01 c8             	add    %rcx,%rax
ffffffff8010ae14:	0f b6 40 02          	movzbl 0x2(%rax),%eax
ffffffff8010ae18:	0f b6 c0             	movzbl %al,%eax
ffffffff8010ae1b:	83 f8 01             	cmp    $0x1,%eax
ffffffff8010ae1e:	74 07                	je     ffffffff8010ae27 <init_nvme+0x90>
ffffffff8010ae20:	83 f8 02             	cmp    $0x2,%eax
ffffffff8010ae23:	74 15                	je     ffffffff8010ae3a <init_nvme+0xa3>
ffffffff8010ae25:	eb 49                	jmp    ffffffff8010ae70 <init_nvme+0xd9>
ffffffff8010ae27:	48 c7 c7 20 06 11 80 	mov    $0xffffffff80110620,%rdi
ffffffff8010ae2e:	b8 00 00 00 00       	mov    $0x0,%eax
ffffffff8010ae33:	e8 6a 02 00 00       	callq  ffffffff8010b0a2 <kvprintf>
ffffffff8010ae38:	eb 4a                	jmp    ffffffff8010ae84 <init_nvme+0xed>
ffffffff8010ae3a:	48 c7 c7 40 06 11 80 	mov    $0xffffffff80110640,%rdi
ffffffff8010ae41:	b8 00 00 00 00       	mov    $0x0,%eax
ffffffff8010ae46:	e8 57 02 00 00       	callq  ffffffff8010b0a2 <kvprintf>
ffffffff8010ae4b:	48 8b 0d fe 36 01 00 	mov    0x136fe(%rip),%rcx        # ffffffff8011e550 <pci_devices>
ffffffff8010ae52:	48 8b 55 f8          	mov    -0x8(%rbp),%rdx
ffffffff8010ae56:	48 89 d0             	mov    %rdx,%rax
ffffffff8010ae59:	48 01 c0             	add    %rax,%rax
ffffffff8010ae5c:	48 01 d0             	add    %rdx,%rax
ffffffff8010ae5f:	48 c1 e0 02          	shl    $0x2,%rax
ffffffff8010ae63:	48 01 c8             	add    %rcx,%rax
ffffffff8010ae66:	48 89 c7             	mov    %rax,%rdi
ffffffff8010ae69:	e8 30 00 00 00       	callq  ffffffff8010ae9e <init_controller>
ffffffff8010ae6e:	eb 14                	jmp    ffffffff8010ae84 <init_nvme+0xed>
ffffffff8010ae70:	48 c7 c7 68 06 11 80 	mov    $0xffffffff80110668,%rdi
ffffffff8010ae77:	b8 00 00 00 00       	mov    $0x0,%eax
ffffffff8010ae7c:	e8 21 02 00 00       	callq  ffffffff8010b0a2 <kvprintf>
ffffffff8010ae81:	eb 01                	jmp    ffffffff8010ae84 <init_nvme+0xed>
ffffffff8010ae83:	90                   	nop
ffffffff8010ae84:	48 83 45 f8 01       	addq   $0x1,-0x8(%rbp)
ffffffff8010ae89:	48 8b 05 c8 36 01 00 	mov    0x136c8(%rip),%rax        # ffffffff8011e558 <pci_device_cnt>
ffffffff8010ae90:	48 39 45 f8          	cmp    %rax,-0x8(%rbp)
ffffffff8010ae94:	0f 82 12 ff ff ff    	jb     ffffffff8010adac <init_nvme+0x15>
ffffffff8010ae9a:	90                   	nop
ffffffff8010ae9b:	90                   	nop
ffffffff8010ae9c:	c9                   	leaveq 
ffffffff8010ae9d:	c3                   	retq   

ffffffff8010ae9e <init_controller>:
ffffffff8010ae9e:	55                   	push   %rbp
ffffffff8010ae9f:	48 89 e5             	mov    %rsp,%rbp
ffffffff8010aea2:	48 83 ec 08          	sub    $0x8,%rsp
ffffffff8010aea6:	48 89 7d f8          	mov    %rdi,-0x8(%rbp)
ffffffff8010aeaa:	90                   	nop
ffffffff8010aeab:	c9                   	leaveq 
ffffffff8010aeac:	c3                   	retq   

ffffffff8010aead <kprintf>:
ffffffff8010aead:	55                   	push   %rbp
ffffffff8010aeae:	48 89 e5             	mov    %rsp,%rbp
ffffffff8010aeb1:	48 83 ec 60          	sub    $0x60,%rsp
ffffffff8010aeb5:	48 89 7d a8          	mov    %rdi,-0x58(%rbp)
ffffffff8010aeb9:	48 89 75 a0          	mov    %rsi,-0x60(%rbp)
ffffffff8010aebd:	48 89 55 e0          	mov    %rdx,-0x20(%rbp)
ffffffff8010aec1:	48 89 4d e8          	mov    %rcx,-0x18(%rbp)
ffffffff8010aec5:	4c 89 45 f0          	mov    %r8,-0x10(%rbp)
ffffffff8010aec9:	4c 89 4d f8          	mov    %r9,-0x8(%rbp)
ffffffff8010aecd:	48 c7 c7 48 e5 11 80 	mov    $0xffffffff8011e548,%rdi
ffffffff8010aed4:	e8 c7 2f 00 00       	callq  ffffffff8010dea0 <spin_lock>
ffffffff8010aed9:	c7 45 b0 10 00 00 00 	movl   $0x10,-0x50(%rbp)
ffffffff8010aee0:	48 8d 45 10          	lea    0x10(%rbp),%rax
ffffffff8010aee4:	48 89 45 b8          	mov    %rax,-0x48(%rbp)
ffffffff8010aee8:	48 8d 45 d0          	lea    -0x30(%rbp),%rax
ffffffff8010aeec:	48 89 45 c0          	mov    %rax,-0x40(%rbp)
ffffffff8010aef0:	48 c7 45 c8 00 00 00 	movq   $0x0,-0x38(%rbp)
ffffffff8010aef7:	00 
ffffffff8010aef8:	e9 a3 00 00 00       	jmpq   ffffffff8010afa0 <kprintf+0xf3>
ffffffff8010aefd:	48 8b 45 c8          	mov    -0x38(%rbp),%rax
ffffffff8010af01:	48 c1 e0 04          	shl    $0x4,%rax
ffffffff8010af05:	48 05 80 3f 11 80    	add    $0xffffffff80113f80,%rax
ffffffff8010af0b:	48 8b 00             	mov    (%rax),%rax
ffffffff8010af0e:	48 8b 55 a8          	mov    -0x58(%rbp),%rdx
ffffffff8010af12:	48 89 d6             	mov    %rdx,%rsi
ffffffff8010af15:	48 89 c7             	mov    %rax,%rdi
ffffffff8010af18:	e8 25 30 00 00       	callq  ffffffff8010df42 <strcmp>
ffffffff8010af1d:	85 c0                	test   %eax,%eax
ffffffff8010af1f:	75 64                	jne    ffffffff8010af85 <kprintf+0xd8>
ffffffff8010af21:	48 8b 45 c8          	mov    -0x38(%rbp),%rax
ffffffff8010af25:	48 c1 e0 04          	shl    $0x4,%rax
ffffffff8010af29:	48 05 88 3f 11 80    	add    $0xffffffff80113f88,%rax
ffffffff8010af2f:	0f b6 00             	movzbl (%rax),%eax
ffffffff8010af32:	0f b6 c0             	movzbl %al,%eax
ffffffff8010af35:	48 98                	cltq   
ffffffff8010af37:	48 8b 04 c5 20 40 11 	mov    -0x7feebfe0(,%rax,8),%rax
ffffffff8010af3e:	80 
ffffffff8010af3f:	48 89 c7             	mov    %rax,%rdi
ffffffff8010af42:	e8 84 07 00 00       	callq  ffffffff8010b6cb <serial_write_str>
ffffffff8010af47:	48 8b 45 a8          	mov    -0x58(%rbp),%rax
ffffffff8010af4b:	48 89 c7             	mov    %rax,%rdi
ffffffff8010af4e:	e8 78 07 00 00       	callq  ffffffff8010b6cb <serial_write_str>
ffffffff8010af53:	48 8b 45 c8          	mov    -0x38(%rbp),%rax
ffffffff8010af57:	48 c1 e0 04          	shl    $0x4,%rax
ffffffff8010af5b:	48 05 89 3f 11 80    	add    $0xffffffff80113f89,%rax
ffffffff8010af61:	0f b6 00             	movzbl (%rax),%eax
ffffffff8010af64:	0f b6 c0             	movzbl %al,%eax
ffffffff8010af67:	48 98                	cltq   
ffffffff8010af69:	48 8b 04 c5 20 40 11 	mov    -0x7feebfe0(,%rax,8),%rax
ffffffff8010af70:	80 
ffffffff8010af71:	48 89 c7             	mov    %rax,%rdi
ffffffff8010af74:	e8 52 07 00 00       	callq  ffffffff8010b6cb <serial_write_str>
ffffffff8010af79:	bf 20 00 00 00       	mov    $0x20,%edi
ffffffff8010af7e:	e8 13 07 00 00       	callq  ffffffff8010b696 <serial_write>
ffffffff8010af83:	eb 26                	jmp    ffffffff8010afab <kprintf+0xfe>
ffffffff8010af85:	48 83 7d c8 08       	cmpq   $0x8,-0x38(%rbp)
ffffffff8010af8a:	75 0f                	jne    ffffffff8010af9b <kprintf+0xee>
ffffffff8010af8c:	48 8b 05 8d 90 00 00 	mov    0x908d(%rip),%rax        # ffffffff80114020 <bash_colours>
ffffffff8010af93:	48 89 c7             	mov    %rax,%rdi
ffffffff8010af96:	e8 30 07 00 00       	callq  ffffffff8010b6cb <serial_write_str>
ffffffff8010af9b:	48 83 45 c8 01       	addq   $0x1,-0x38(%rbp)
ffffffff8010afa0:	48 83 7d c8 08       	cmpq   $0x8,-0x38(%rbp)
ffffffff8010afa5:	0f 86 52 ff ff ff    	jbe    ffffffff8010aefd <kprintf+0x50>
ffffffff8010afab:	48 8d 4d b0          	lea    -0x50(%rbp),%rcx
ffffffff8010afaf:	48 8b 45 a0          	mov    -0x60(%rbp),%rax
ffffffff8010afb3:	48 c7 c2 96 b6 10 80 	mov    $0xffffffff8010b696,%rdx
ffffffff8010afba:	48 89 ce             	mov    %rcx,%rsi
ffffffff8010afbd:	48 89 c7             	mov    %rax,%rdi
ffffffff8010afc0:	e8 a8 01 00 00       	callq  ffffffff8010b16d <print_args>
ffffffff8010afc5:	bf 0a 00 00 00       	mov    $0xa,%edi
ffffffff8010afca:	e8 c7 06 00 00       	callq  ffffffff8010b696 <serial_write>
ffffffff8010afcf:	48 c7 c7 48 e5 11 80 	mov    $0xffffffff8011e548,%rdi
ffffffff8010afd6:	e8 1a 2f 00 00       	callq  ffffffff8010def5 <spin_release>
ffffffff8010afdb:	90                   	nop
ffffffff8010afdc:	c9                   	leaveq 
ffffffff8010afdd:	c3                   	retq   

ffffffff8010afde <sprintf_handler>:
ffffffff8010afde:	55                   	push   %rbp
ffffffff8010afdf:	48 89 e5             	mov    %rsp,%rbp
ffffffff8010afe2:	48 83 ec 08          	sub    $0x8,%rsp
ffffffff8010afe6:	89 f8                	mov    %edi,%eax
ffffffff8010afe8:	88 45 fc             	mov    %al,-0x4(%rbp)
ffffffff8010afeb:	48 8b 0d 46 35 01 00 	mov    0x13546(%rip),%rcx        # ffffffff8011e538 <sprintf_buf>
ffffffff8010aff2:	48 8b 05 47 35 01 00 	mov    0x13547(%rip),%rax        # ffffffff8011e540 <sprintf_loc>
ffffffff8010aff9:	48 8d 50 01          	lea    0x1(%rax),%rdx
ffffffff8010affd:	48 89 15 3c 35 01 00 	mov    %rdx,0x1353c(%rip)        # ffffffff8011e540 <sprintf_loc>
ffffffff8010b004:	48 8d 14 01          	lea    (%rcx,%rax,1),%rdx
ffffffff8010b008:	0f b6 45 fc          	movzbl -0x4(%rbp),%eax
ffffffff8010b00c:	88 02                	mov    %al,(%rdx)
ffffffff8010b00e:	90                   	nop
ffffffff8010b00f:	c9                   	leaveq 
ffffffff8010b010:	c3                   	retq   

ffffffff8010b011 <sprintf>:
ffffffff8010b011:	55                   	push   %rbp
ffffffff8010b012:	48 89 e5             	mov    %rsp,%rbp
ffffffff8010b015:	48 83 ec 70          	sub    $0x70,%rsp
ffffffff8010b019:	48 89 7d a8          	mov    %rdi,-0x58(%rbp)
ffffffff8010b01d:	48 89 75 a0          	mov    %rsi,-0x60(%rbp)
ffffffff8010b021:	89 55 9c             	mov    %edx,-0x64(%rbp)
ffffffff8010b024:	48 89 4d e8          	mov    %rcx,-0x18(%rbp)
ffffffff8010b028:	4c 89 45 f0          	mov    %r8,-0x10(%rbp)
ffffffff8010b02c:	4c 89 4d f8          	mov    %r9,-0x8(%rbp)
ffffffff8010b030:	48 c7 c7 49 e5 11 80 	mov    $0xffffffff8011e549,%rdi
ffffffff8010b037:	e8 64 2e 00 00       	callq  ffffffff8010dea0 <spin_lock>
ffffffff8010b03c:	c7 45 b8 18 00 00 00 	movl   $0x18,-0x48(%rbp)
ffffffff8010b043:	48 8d 45 10          	lea    0x10(%rbp),%rax
ffffffff8010b047:	48 89 45 c0          	mov    %rax,-0x40(%rbp)
ffffffff8010b04b:	48 8d 45 d0          	lea    -0x30(%rbp),%rax
ffffffff8010b04f:	48 89 45 c8          	mov    %rax,-0x38(%rbp)
ffffffff8010b053:	48 8b 45 a8          	mov    -0x58(%rbp),%rax
ffffffff8010b057:	48 89 05 da 34 01 00 	mov    %rax,0x134da(%rip)        # ffffffff8011e538 <sprintf_buf>
ffffffff8010b05e:	48 c7 05 d7 34 01 00 	movq   $0x0,0x134d7(%rip)        # ffffffff8011e540 <sprintf_loc>
ffffffff8010b065:	00 00 00 00 
ffffffff8010b069:	48 8d 4d b8          	lea    -0x48(%rbp),%rcx
ffffffff8010b06d:	48 8b 45 a0          	mov    -0x60(%rbp),%rax
ffffffff8010b071:	48 c7 c2 de af 10 80 	mov    $0xffffffff8010afde,%rdx
ffffffff8010b078:	48 89 ce             	mov    %rcx,%rsi
ffffffff8010b07b:	48 89 c7             	mov    %rax,%rdi
ffffffff8010b07e:	e8 ea 00 00 00       	callq  ffffffff8010b16d <print_args>
ffffffff8010b083:	83 7d 9c 00          	cmpl   $0x0,-0x64(%rbp)
ffffffff8010b087:	74 0a                	je     ffffffff8010b093 <sprintf+0x82>
ffffffff8010b089:	bf 00 00 00 00       	mov    $0x0,%edi
ffffffff8010b08e:	e8 4b ff ff ff       	callq  ffffffff8010afde <sprintf_handler>
ffffffff8010b093:	48 c7 c7 49 e5 11 80 	mov    $0xffffffff8011e549,%rdi
ffffffff8010b09a:	e8 56 2e 00 00       	callq  ffffffff8010def5 <spin_release>
ffffffff8010b09f:	90                   	nop
ffffffff8010b0a0:	c9                   	leaveq 
ffffffff8010b0a1:	c3                   	retq   

ffffffff8010b0a2 <kvprintf>:
ffffffff8010b0a2:	55                   	push   %rbp
ffffffff8010b0a3:	48 89 e5             	mov    %rsp,%rbp
ffffffff8010b0a6:	48 83 ec 60          	sub    $0x60,%rsp
ffffffff8010b0aa:	48 89 7d a8          	mov    %rdi,-0x58(%rbp)
ffffffff8010b0ae:	48 89 75 d8          	mov    %rsi,-0x28(%rbp)
ffffffff8010b0b2:	48 89 55 e0          	mov    %rdx,-0x20(%rbp)
ffffffff8010b0b6:	48 89 4d e8          	mov    %rcx,-0x18(%rbp)
ffffffff8010b0ba:	4c 89 45 f0          	mov    %r8,-0x10(%rbp)
ffffffff8010b0be:	4c 89 4d f8          	mov    %r9,-0x8(%rbp)
ffffffff8010b0c2:	48 c7 c7 4a e5 11 80 	mov    $0xffffffff8011e54a,%rdi
ffffffff8010b0c9:	e8 d2 2d 00 00       	callq  ffffffff8010dea0 <spin_lock>
ffffffff8010b0ce:	c7 45 b8 08 00 00 00 	movl   $0x8,-0x48(%rbp)
ffffffff8010b0d5:	48 8d 45 10          	lea    0x10(%rbp),%rax
ffffffff8010b0d9:	48 89 45 c0          	mov    %rax,-0x40(%rbp)
ffffffff8010b0dd:	48 8d 45 d0          	lea    -0x30(%rbp),%rax
ffffffff8010b0e1:	48 89 45 c8          	mov    %rax,-0x38(%rbp)
ffffffff8010b0e5:	48 8d 4d b8          	lea    -0x48(%rbp),%rcx
ffffffff8010b0e9:	48 8b 45 a8          	mov    -0x58(%rbp),%rax
ffffffff8010b0ed:	48 c7 c2 a4 b5 10 80 	mov    $0xffffffff8010b5a4,%rdx
ffffffff8010b0f4:	48 89 ce             	mov    %rcx,%rsi
ffffffff8010b0f7:	48 89 c7             	mov    %rax,%rdi
ffffffff8010b0fa:	e8 6e 00 00 00       	callq  ffffffff8010b16d <print_args>
ffffffff8010b0ff:	48 c7 c7 4a e5 11 80 	mov    $0xffffffff8011e54a,%rdi
ffffffff8010b106:	e8 ea 2d 00 00       	callq  ffffffff8010def5 <spin_release>
ffffffff8010b10b:	90                   	nop
ffffffff8010b10c:	c9                   	leaveq 
ffffffff8010b10d:	c3                   	retq   

ffffffff8010b10e <kpanic>:
ffffffff8010b10e:	55                   	push   %rbp
ffffffff8010b10f:	48 89 e5             	mov    %rsp,%rbp
ffffffff8010b112:	48 83 ec 60          	sub    $0x60,%rsp
ffffffff8010b116:	48 89 7d a8          	mov    %rdi,-0x58(%rbp)
ffffffff8010b11a:	48 89 75 d8          	mov    %rsi,-0x28(%rbp)
ffffffff8010b11e:	48 89 55 e0          	mov    %rdx,-0x20(%rbp)
ffffffff8010b122:	48 89 4d e8          	mov    %rcx,-0x18(%rbp)
ffffffff8010b126:	4c 89 45 f0          	mov    %r8,-0x10(%rbp)
ffffffff8010b12a:	4c 89 4d f8          	mov    %r9,-0x8(%rbp)
ffffffff8010b12e:	48 c7 c7 31 07 11 80 	mov    $0xffffffff80110731,%rdi
ffffffff8010b135:	e8 91 05 00 00       	callq  ffffffff8010b6cb <serial_write_str>
ffffffff8010b13a:	c7 45 b8 08 00 00 00 	movl   $0x8,-0x48(%rbp)
ffffffff8010b141:	48 8d 45 10          	lea    0x10(%rbp),%rax
ffffffff8010b145:	48 89 45 c0          	mov    %rax,-0x40(%rbp)
ffffffff8010b149:	48 8d 45 d0          	lea    -0x30(%rbp),%rax
ffffffff8010b14d:	48 89 45 c8          	mov    %rax,-0x38(%rbp)
ffffffff8010b151:	48 8d 4d b8          	lea    -0x48(%rbp),%rcx
ffffffff8010b155:	48 8b 45 a8          	mov    -0x58(%rbp),%rax
ffffffff8010b159:	48 c7 c2 96 b6 10 80 	mov    $0xffffffff8010b696,%rdx
ffffffff8010b160:	48 89 ce             	mov    %rcx,%rsi
ffffffff8010b163:	48 89 c7             	mov    %rax,%rdi
ffffffff8010b166:	e8 02 00 00 00       	callq  ffffffff8010b16d <print_args>
ffffffff8010b16b:	eb fe                	jmp    ffffffff8010b16b <kpanic+0x5d>

ffffffff8010b16d <print_args>:
ffffffff8010b16d:	55                   	push   %rbp
ffffffff8010b16e:	48 89 e5             	mov    %rsp,%rbp
ffffffff8010b171:	48 83 ec 70          	sub    $0x70,%rsp
ffffffff8010b175:	48 89 7d a8          	mov    %rdi,-0x58(%rbp)
ffffffff8010b179:	48 89 75 a0          	mov    %rsi,-0x60(%rbp)
ffffffff8010b17d:	48 89 55 98          	mov    %rdx,-0x68(%rbp)
ffffffff8010b181:	48 c7 45 c0 00 00 00 	movq   $0x0,-0x40(%rbp)
ffffffff8010b188:	00 
ffffffff8010b189:	48 c7 45 f8 00 00 00 	movq   $0x0,-0x8(%rbp)
ffffffff8010b190:	00 
ffffffff8010b191:	e9 f4 03 00 00       	jmpq   ffffffff8010b58a <print_args+0x41d>
ffffffff8010b196:	48 8b 55 a8          	mov    -0x58(%rbp),%rdx
ffffffff8010b19a:	48 8b 45 f8          	mov    -0x8(%rbp),%rax
ffffffff8010b19e:	48 01 d0             	add    %rdx,%rax
ffffffff8010b1a1:	0f b6 00             	movzbl (%rax),%eax
ffffffff8010b1a4:	3c 25                	cmp    $0x25,%al
ffffffff8010b1a6:	74 1e                	je     ffffffff8010b1c6 <print_args+0x59>
ffffffff8010b1a8:	48 8b 55 a8          	mov    -0x58(%rbp),%rdx
ffffffff8010b1ac:	48 8b 45 f8          	mov    -0x8(%rbp),%rax
ffffffff8010b1b0:	48 01 d0             	add    %rdx,%rax
ffffffff8010b1b3:	0f b6 00             	movzbl (%rax),%eax
ffffffff8010b1b6:	0f b6 c0             	movzbl %al,%eax
ffffffff8010b1b9:	48 8b 55 98          	mov    -0x68(%rbp),%rdx
ffffffff8010b1bd:	89 c7                	mov    %eax,%edi
ffffffff8010b1bf:	ff d2                	callq  *%rdx
ffffffff8010b1c1:	e9 bf 03 00 00       	jmpq   ffffffff8010b585 <print_args+0x418>
ffffffff8010b1c6:	48 83 45 f8 01       	addq   $0x1,-0x8(%rbp)
ffffffff8010b1cb:	48 8b 55 a8          	mov    -0x58(%rbp),%rdx
ffffffff8010b1cf:	48 8b 45 f8          	mov    -0x8(%rbp),%rax
ffffffff8010b1d3:	48 01 d0             	add    %rdx,%rax
ffffffff8010b1d6:	0f b6 00             	movzbl (%rax),%eax
ffffffff8010b1d9:	0f be c0             	movsbl %al,%eax
ffffffff8010b1dc:	83 e8 61             	sub    $0x61,%eax
ffffffff8010b1df:	83 f8 17             	cmp    $0x17,%eax
ffffffff8010b1e2:	0f 87 9d 03 00 00    	ja     ffffffff8010b585 <print_args+0x418>
ffffffff8010b1e8:	89 c0                	mov    %eax,%eax
ffffffff8010b1ea:	48 8b 04 c5 50 07 11 	mov    -0x7feef8b0(,%rax,8),%rax
ffffffff8010b1f1:	80 
ffffffff8010b1f2:	ff e0                	jmpq   *%rax
ffffffff8010b1f4:	48 8b 45 a0          	mov    -0x60(%rbp),%rax
ffffffff8010b1f8:	8b 00                	mov    (%rax),%eax
ffffffff8010b1fa:	83 f8 2f             	cmp    $0x2f,%eax
ffffffff8010b1fd:	77 24                	ja     ffffffff8010b223 <print_args+0xb6>
ffffffff8010b1ff:	48 8b 45 a0          	mov    -0x60(%rbp),%rax
ffffffff8010b203:	48 8b 50 10          	mov    0x10(%rax),%rdx
ffffffff8010b207:	48 8b 45 a0          	mov    -0x60(%rbp),%rax
ffffffff8010b20b:	8b 00                	mov    (%rax),%eax
ffffffff8010b20d:	89 c0                	mov    %eax,%eax
ffffffff8010b20f:	48 01 d0             	add    %rdx,%rax
ffffffff8010b212:	48 8b 55 a0          	mov    -0x60(%rbp),%rdx
ffffffff8010b216:	8b 12                	mov    (%rdx),%edx
ffffffff8010b218:	8d 4a 08             	lea    0x8(%rdx),%ecx
ffffffff8010b21b:	48 8b 55 a0          	mov    -0x60(%rbp),%rdx
ffffffff8010b21f:	89 0a                	mov    %ecx,(%rdx)
ffffffff8010b221:	eb 14                	jmp    ffffffff8010b237 <print_args+0xca>
ffffffff8010b223:	48 8b 45 a0          	mov    -0x60(%rbp),%rax
ffffffff8010b227:	48 8b 40 08          	mov    0x8(%rax),%rax
ffffffff8010b22b:	48 8d 48 08          	lea    0x8(%rax),%rcx
ffffffff8010b22f:	48 8b 55 a0          	mov    -0x60(%rbp),%rdx
ffffffff8010b233:	48 89 4a 08          	mov    %rcx,0x8(%rdx)
ffffffff8010b237:	48 8b 00             	mov    (%rax),%rax
ffffffff8010b23a:	48 89 45 c0          	mov    %rax,-0x40(%rbp)
ffffffff8010b23e:	48 8b 45 c0          	mov    -0x40(%rbp),%rax
ffffffff8010b242:	be 0a 00 00 00       	mov    $0xa,%esi
ffffffff8010b247:	48 89 c7             	mov    %rax,%rdi
ffffffff8010b24a:	e8 80 2e 00 00       	callq  ffffffff8010e0cf <itob>
ffffffff8010b24f:	48 89 45 b8          	mov    %rax,-0x48(%rbp)
ffffffff8010b253:	48 c7 45 f0 00 00 00 	movq   $0x0,-0x10(%rbp)
ffffffff8010b25a:	00 
ffffffff8010b25b:	eb 1e                	jmp    ffffffff8010b27b <print_args+0x10e>
ffffffff8010b25d:	48 8b 55 b8          	mov    -0x48(%rbp),%rdx
ffffffff8010b261:	48 8b 45 f0          	mov    -0x10(%rbp),%rax
ffffffff8010b265:	48 01 d0             	add    %rdx,%rax
ffffffff8010b268:	0f b6 00             	movzbl (%rax),%eax
ffffffff8010b26b:	0f b6 c0             	movzbl %al,%eax
ffffffff8010b26e:	48 8b 55 98          	mov    -0x68(%rbp),%rdx
ffffffff8010b272:	89 c7                	mov    %eax,%edi
ffffffff8010b274:	ff d2                	callq  *%rdx
ffffffff8010b276:	48 83 45 f0 01       	addq   $0x1,-0x10(%rbp)
ffffffff8010b27b:	48 8b 45 b8          	mov    -0x48(%rbp),%rax
ffffffff8010b27f:	48 89 c7             	mov    %rax,%rdi
ffffffff8010b282:	e8 88 2c 00 00       	callq  ffffffff8010df0f <strlen>
ffffffff8010b287:	48 39 45 f0          	cmp    %rax,-0x10(%rbp)
ffffffff8010b28b:	72 d0                	jb     ffffffff8010b25d <print_args+0xf0>
ffffffff8010b28d:	e9 f3 02 00 00       	jmpq   ffffffff8010b585 <print_args+0x418>
ffffffff8010b292:	48 8b 45 a0          	mov    -0x60(%rbp),%rax
ffffffff8010b296:	8b 00                	mov    (%rax),%eax
ffffffff8010b298:	83 f8 2f             	cmp    $0x2f,%eax
ffffffff8010b29b:	77 24                	ja     ffffffff8010b2c1 <print_args+0x154>
ffffffff8010b29d:	48 8b 45 a0          	mov    -0x60(%rbp),%rax
ffffffff8010b2a1:	48 8b 50 10          	mov    0x10(%rax),%rdx
ffffffff8010b2a5:	48 8b 45 a0          	mov    -0x60(%rbp),%rax
ffffffff8010b2a9:	8b 00                	mov    (%rax),%eax
ffffffff8010b2ab:	89 c0                	mov    %eax,%eax
ffffffff8010b2ad:	48 01 d0             	add    %rdx,%rax
ffffffff8010b2b0:	48 8b 55 a0          	mov    -0x60(%rbp),%rdx
ffffffff8010b2b4:	8b 12                	mov    (%rdx),%edx
ffffffff8010b2b6:	8d 4a 08             	lea    0x8(%rdx),%ecx
ffffffff8010b2b9:	48 8b 55 a0          	mov    -0x60(%rbp),%rdx
ffffffff8010b2bd:	89 0a                	mov    %ecx,(%rdx)
ffffffff8010b2bf:	eb 14                	jmp    ffffffff8010b2d5 <print_args+0x168>
ffffffff8010b2c1:	48 8b 45 a0          	mov    -0x60(%rbp),%rax
ffffffff8010b2c5:	48 8b 40 08          	mov    0x8(%rax),%rax
ffffffff8010b2c9:	48 8d 48 08          	lea    0x8(%rax),%rcx
ffffffff8010b2cd:	48 8b 55 a0          	mov    -0x60(%rbp),%rdx
ffffffff8010b2d1:	48 89 4a 08          	mov    %rcx,0x8(%rdx)
ffffffff8010b2d5:	48 8b 00             	mov    (%rax),%rax
ffffffff8010b2d8:	48 89 45 b8          	mov    %rax,-0x48(%rbp)
ffffffff8010b2dc:	48 c7 45 e8 00 00 00 	movq   $0x0,-0x18(%rbp)
ffffffff8010b2e3:	00 
ffffffff8010b2e4:	eb 1e                	jmp    ffffffff8010b304 <print_args+0x197>
ffffffff8010b2e6:	48 8b 55 b8          	mov    -0x48(%rbp),%rdx
ffffffff8010b2ea:	48 8b 45 e8          	mov    -0x18(%rbp),%rax
ffffffff8010b2ee:	48 01 d0             	add    %rdx,%rax
ffffffff8010b2f1:	0f b6 00             	movzbl (%rax),%eax
ffffffff8010b2f4:	0f b6 c0             	movzbl %al,%eax
ffffffff8010b2f7:	48 8b 55 98          	mov    -0x68(%rbp),%rdx
ffffffff8010b2fb:	89 c7                	mov    %eax,%edi
ffffffff8010b2fd:	ff d2                	callq  *%rdx
ffffffff8010b2ff:	48 83 45 e8 01       	addq   $0x1,-0x18(%rbp)
ffffffff8010b304:	48 8b 45 b8          	mov    -0x48(%rbp),%rax
ffffffff8010b308:	48 89 c7             	mov    %rax,%rdi
ffffffff8010b30b:	e8 ff 2b 00 00       	callq  ffffffff8010df0f <strlen>
ffffffff8010b310:	48 39 45 e8          	cmp    %rax,-0x18(%rbp)
ffffffff8010b314:	72 d0                	jb     ffffffff8010b2e6 <print_args+0x179>
ffffffff8010b316:	e9 6a 02 00 00       	jmpq   ffffffff8010b585 <print_args+0x418>
ffffffff8010b31b:	48 8b 45 a0          	mov    -0x60(%rbp),%rax
ffffffff8010b31f:	8b 00                	mov    (%rax),%eax
ffffffff8010b321:	83 f8 2f             	cmp    $0x2f,%eax
ffffffff8010b324:	77 24                	ja     ffffffff8010b34a <print_args+0x1dd>
ffffffff8010b326:	48 8b 45 a0          	mov    -0x60(%rbp),%rax
ffffffff8010b32a:	48 8b 50 10          	mov    0x10(%rax),%rdx
ffffffff8010b32e:	48 8b 45 a0          	mov    -0x60(%rbp),%rax
ffffffff8010b332:	8b 00                	mov    (%rax),%eax
ffffffff8010b334:	89 c0                	mov    %eax,%eax
ffffffff8010b336:	48 01 d0             	add    %rdx,%rax
ffffffff8010b339:	48 8b 55 a0          	mov    -0x60(%rbp),%rdx
ffffffff8010b33d:	8b 12                	mov    (%rdx),%edx
ffffffff8010b33f:	8d 4a 08             	lea    0x8(%rdx),%ecx
ffffffff8010b342:	48 8b 55 a0          	mov    -0x60(%rbp),%rdx
ffffffff8010b346:	89 0a                	mov    %ecx,(%rdx)
ffffffff8010b348:	eb 14                	jmp    ffffffff8010b35e <print_args+0x1f1>
ffffffff8010b34a:	48 8b 45 a0          	mov    -0x60(%rbp),%rax
ffffffff8010b34e:	48 8b 40 08          	mov    0x8(%rax),%rax
ffffffff8010b352:	48 8d 48 08          	lea    0x8(%rax),%rcx
ffffffff8010b356:	48 8b 55 a0          	mov    -0x60(%rbp),%rdx
ffffffff8010b35a:	48 89 4a 08          	mov    %rcx,0x8(%rdx)
ffffffff8010b35e:	8b 00                	mov    (%rax),%eax
ffffffff8010b360:	88 45 b7             	mov    %al,-0x49(%rbp)
ffffffff8010b363:	0f b6 45 b7          	movzbl -0x49(%rbp),%eax
ffffffff8010b367:	0f b6 c0             	movzbl %al,%eax
ffffffff8010b36a:	48 8b 55 98          	mov    -0x68(%rbp),%rdx
ffffffff8010b36e:	89 c7                	mov    %eax,%edi
ffffffff8010b370:	ff d2                	callq  *%rdx
ffffffff8010b372:	e9 0e 02 00 00       	jmpq   ffffffff8010b585 <print_args+0x418>
ffffffff8010b377:	48 8b 45 a0          	mov    -0x60(%rbp),%rax
ffffffff8010b37b:	8b 00                	mov    (%rax),%eax
ffffffff8010b37d:	83 f8 2f             	cmp    $0x2f,%eax
ffffffff8010b380:	77 24                	ja     ffffffff8010b3a6 <print_args+0x239>
ffffffff8010b382:	48 8b 45 a0          	mov    -0x60(%rbp),%rax
ffffffff8010b386:	48 8b 50 10          	mov    0x10(%rax),%rdx
ffffffff8010b38a:	48 8b 45 a0          	mov    -0x60(%rbp),%rax
ffffffff8010b38e:	8b 00                	mov    (%rax),%eax
ffffffff8010b390:	89 c0                	mov    %eax,%eax
ffffffff8010b392:	48 01 d0             	add    %rdx,%rax
ffffffff8010b395:	48 8b 55 a0          	mov    -0x60(%rbp),%rdx
ffffffff8010b399:	8b 12                	mov    (%rdx),%edx
ffffffff8010b39b:	8d 4a 08             	lea    0x8(%rdx),%ecx
ffffffff8010b39e:	48 8b 55 a0          	mov    -0x60(%rbp),%rdx
ffffffff8010b3a2:	89 0a                	mov    %ecx,(%rdx)
ffffffff8010b3a4:	eb 14                	jmp    ffffffff8010b3ba <print_args+0x24d>
ffffffff8010b3a6:	48 8b 45 a0          	mov    -0x60(%rbp),%rax
ffffffff8010b3aa:	48 8b 40 08          	mov    0x8(%rax),%rax
ffffffff8010b3ae:	48 8d 48 08          	lea    0x8(%rax),%rcx
ffffffff8010b3b2:	48 8b 55 a0          	mov    -0x60(%rbp),%rdx
ffffffff8010b3b6:	48 89 4a 08          	mov    %rcx,0x8(%rdx)
ffffffff8010b3ba:	48 8b 00             	mov    (%rax),%rax
ffffffff8010b3bd:	48 89 45 c0          	mov    %rax,-0x40(%rbp)
ffffffff8010b3c1:	48 8b 45 c0          	mov    -0x40(%rbp),%rax
ffffffff8010b3c5:	be 10 00 00 00       	mov    $0x10,%esi
ffffffff8010b3ca:	48 89 c7             	mov    %rax,%rdi
ffffffff8010b3cd:	e8 fd 2c 00 00       	callq  ffffffff8010e0cf <itob>
ffffffff8010b3d2:	48 89 45 b8          	mov    %rax,-0x48(%rbp)
ffffffff8010b3d6:	48 c7 45 e0 00 00 00 	movq   $0x0,-0x20(%rbp)
ffffffff8010b3dd:	00 
ffffffff8010b3de:	eb 1e                	jmp    ffffffff8010b3fe <print_args+0x291>
ffffffff8010b3e0:	48 8b 55 b8          	mov    -0x48(%rbp),%rdx
ffffffff8010b3e4:	48 8b 45 e0          	mov    -0x20(%rbp),%rax
ffffffff8010b3e8:	48 01 d0             	add    %rdx,%rax
ffffffff8010b3eb:	0f b6 00             	movzbl (%rax),%eax
ffffffff8010b3ee:	0f b6 c0             	movzbl %al,%eax
ffffffff8010b3f1:	48 8b 55 98          	mov    -0x68(%rbp),%rdx
ffffffff8010b3f5:	89 c7                	mov    %eax,%edi
ffffffff8010b3f7:	ff d2                	callq  *%rdx
ffffffff8010b3f9:	48 83 45 e0 01       	addq   $0x1,-0x20(%rbp)
ffffffff8010b3fe:	48 8b 45 b8          	mov    -0x48(%rbp),%rax
ffffffff8010b402:	48 89 c7             	mov    %rax,%rdi
ffffffff8010b405:	e8 05 2b 00 00       	callq  ffffffff8010df0f <strlen>
ffffffff8010b40a:	48 39 45 e0          	cmp    %rax,-0x20(%rbp)
ffffffff8010b40e:	72 d0                	jb     ffffffff8010b3e0 <print_args+0x273>
ffffffff8010b410:	e9 70 01 00 00       	jmpq   ffffffff8010b585 <print_args+0x418>
ffffffff8010b415:	48 8b 45 a0          	mov    -0x60(%rbp),%rax
ffffffff8010b419:	8b 00                	mov    (%rax),%eax
ffffffff8010b41b:	83 f8 2f             	cmp    $0x2f,%eax
ffffffff8010b41e:	77 24                	ja     ffffffff8010b444 <print_args+0x2d7>
ffffffff8010b420:	48 8b 45 a0          	mov    -0x60(%rbp),%rax
ffffffff8010b424:	48 8b 50 10          	mov    0x10(%rax),%rdx
ffffffff8010b428:	48 8b 45 a0          	mov    -0x60(%rbp),%rax
ffffffff8010b42c:	8b 00                	mov    (%rax),%eax
ffffffff8010b42e:	89 c0                	mov    %eax,%eax
ffffffff8010b430:	48 01 d0             	add    %rdx,%rax
ffffffff8010b433:	48 8b 55 a0          	mov    -0x60(%rbp),%rdx
ffffffff8010b437:	8b 12                	mov    (%rdx),%edx
ffffffff8010b439:	8d 4a 08             	lea    0x8(%rdx),%ecx
ffffffff8010b43c:	48 8b 55 a0          	mov    -0x60(%rbp),%rdx
ffffffff8010b440:	89 0a                	mov    %ecx,(%rdx)
ffffffff8010b442:	eb 14                	jmp    ffffffff8010b458 <print_args+0x2eb>
ffffffff8010b444:	48 8b 45 a0          	mov    -0x60(%rbp),%rax
ffffffff8010b448:	48 8b 40 08          	mov    0x8(%rax),%rax
ffffffff8010b44c:	48 8d 48 08          	lea    0x8(%rax),%rcx
ffffffff8010b450:	48 8b 55 a0          	mov    -0x60(%rbp),%rdx
ffffffff8010b454:	48 89 4a 08          	mov    %rcx,0x8(%rdx)
ffffffff8010b458:	48 8b 00             	mov    (%rax),%rax
ffffffff8010b45b:	48 89 45 c0          	mov    %rax,-0x40(%rbp)
ffffffff8010b45f:	48 8b 45 c0          	mov    -0x40(%rbp),%rax
ffffffff8010b463:	be 02 00 00 00       	mov    $0x2,%esi
ffffffff8010b468:	48 89 c7             	mov    %rax,%rdi
ffffffff8010b46b:	e8 5f 2c 00 00       	callq  ffffffff8010e0cf <itob>
ffffffff8010b470:	48 89 45 b8          	mov    %rax,-0x48(%rbp)
ffffffff8010b474:	48 c7 45 d8 00 00 00 	movq   $0x0,-0x28(%rbp)
ffffffff8010b47b:	00 
ffffffff8010b47c:	eb 1e                	jmp    ffffffff8010b49c <print_args+0x32f>
ffffffff8010b47e:	48 8b 55 b8          	mov    -0x48(%rbp),%rdx
ffffffff8010b482:	48 8b 45 d8          	mov    -0x28(%rbp),%rax
ffffffff8010b486:	48 01 d0             	add    %rdx,%rax
ffffffff8010b489:	0f b6 00             	movzbl (%rax),%eax
ffffffff8010b48c:	0f b6 c0             	movzbl %al,%eax
ffffffff8010b48f:	48 8b 55 98          	mov    -0x68(%rbp),%rdx
ffffffff8010b493:	89 c7                	mov    %eax,%edi
ffffffff8010b495:	ff d2                	callq  *%rdx
ffffffff8010b497:	48 83 45 d8 01       	addq   $0x1,-0x28(%rbp)
ffffffff8010b49c:	48 8b 45 b8          	mov    -0x48(%rbp),%rax
ffffffff8010b4a0:	48 89 c7             	mov    %rax,%rdi
ffffffff8010b4a3:	e8 67 2a 00 00       	callq  ffffffff8010df0f <strlen>
ffffffff8010b4a8:	48 39 45 d8          	cmp    %rax,-0x28(%rbp)
ffffffff8010b4ac:	72 d0                	jb     ffffffff8010b47e <print_args+0x311>
ffffffff8010b4ae:	e9 d2 00 00 00       	jmpq   ffffffff8010b585 <print_args+0x418>
ffffffff8010b4b3:	48 8b 45 a0          	mov    -0x60(%rbp),%rax
ffffffff8010b4b7:	8b 00                	mov    (%rax),%eax
ffffffff8010b4b9:	83 f8 2f             	cmp    $0x2f,%eax
ffffffff8010b4bc:	77 24                	ja     ffffffff8010b4e2 <print_args+0x375>
ffffffff8010b4be:	48 8b 45 a0          	mov    -0x60(%rbp),%rax
ffffffff8010b4c2:	48 8b 50 10          	mov    0x10(%rax),%rdx
ffffffff8010b4c6:	48 8b 45 a0          	mov    -0x60(%rbp),%rax
ffffffff8010b4ca:	8b 00                	mov    (%rax),%eax
ffffffff8010b4cc:	89 c0                	mov    %eax,%eax
ffffffff8010b4ce:	48 01 d0             	add    %rdx,%rax
ffffffff8010b4d1:	48 8b 55 a0          	mov    -0x60(%rbp),%rdx
ffffffff8010b4d5:	8b 12                	mov    (%rdx),%edx
ffffffff8010b4d7:	8d 4a 08             	lea    0x8(%rdx),%ecx
ffffffff8010b4da:	48 8b 55 a0          	mov    -0x60(%rbp),%rdx
ffffffff8010b4de:	89 0a                	mov    %ecx,(%rdx)
ffffffff8010b4e0:	eb 14                	jmp    ffffffff8010b4f6 <print_args+0x389>
ffffffff8010b4e2:	48 8b 45 a0          	mov    -0x60(%rbp),%rax
ffffffff8010b4e6:	48 8b 40 08          	mov    0x8(%rax),%rax
ffffffff8010b4ea:	48 8d 48 08          	lea    0x8(%rax),%rcx
ffffffff8010b4ee:	48 8b 55 a0          	mov    -0x60(%rbp),%rdx
ffffffff8010b4f2:	48 89 4a 08          	mov    %rcx,0x8(%rdx)
ffffffff8010b4f6:	48 8b 00             	mov    (%rax),%rax
ffffffff8010b4f9:	48 89 45 c0          	mov    %rax,-0x40(%rbp)
ffffffff8010b4fd:	48 8b 45 c0          	mov    -0x40(%rbp),%rax
ffffffff8010b501:	be 10 00 00 00       	mov    $0x10,%esi
ffffffff8010b506:	48 89 c7             	mov    %rax,%rdi
ffffffff8010b509:	e8 c1 2b 00 00       	callq  ffffffff8010e0cf <itob>
ffffffff8010b50e:	48 89 45 b8          	mov    %rax,-0x48(%rbp)
ffffffff8010b512:	48 8b 45 b8          	mov    -0x48(%rbp),%rax
ffffffff8010b516:	48 89 c7             	mov    %rax,%rdi
ffffffff8010b519:	e8 f1 29 00 00       	callq  ffffffff8010df0f <strlen>
ffffffff8010b51e:	89 c2                	mov    %eax,%edx
ffffffff8010b520:	b8 10 00 00 00       	mov    $0x10,%eax
ffffffff8010b525:	29 d0                	sub    %edx,%eax
ffffffff8010b527:	89 45 b0             	mov    %eax,-0x50(%rbp)
ffffffff8010b52a:	c7 45 d4 00 00 00 00 	movl   $0x0,-0x2c(%rbp)
ffffffff8010b531:	eb 0f                	jmp    ffffffff8010b542 <print_args+0x3d5>
ffffffff8010b533:	48 8b 45 98          	mov    -0x68(%rbp),%rax
ffffffff8010b537:	bf 30 00 00 00       	mov    $0x30,%edi
ffffffff8010b53c:	ff d0                	callq  *%rax
ffffffff8010b53e:	83 45 d4 01          	addl   $0x1,-0x2c(%rbp)
ffffffff8010b542:	8b 45 d4             	mov    -0x2c(%rbp),%eax
ffffffff8010b545:	3b 45 b0             	cmp    -0x50(%rbp),%eax
ffffffff8010b548:	7c e9                	jl     ffffffff8010b533 <print_args+0x3c6>
ffffffff8010b54a:	48 c7 45 c8 00 00 00 	movq   $0x0,-0x38(%rbp)
ffffffff8010b551:	00 
ffffffff8010b552:	eb 1e                	jmp    ffffffff8010b572 <print_args+0x405>
ffffffff8010b554:	48 8b 55 b8          	mov    -0x48(%rbp),%rdx
ffffffff8010b558:	48 8b 45 c8          	mov    -0x38(%rbp),%rax
ffffffff8010b55c:	48 01 d0             	add    %rdx,%rax
ffffffff8010b55f:	0f b6 00             	movzbl (%rax),%eax
ffffffff8010b562:	0f b6 c0             	movzbl %al,%eax
ffffffff8010b565:	48 8b 55 98          	mov    -0x68(%rbp),%rdx
ffffffff8010b569:	89 c7                	mov    %eax,%edi
ffffffff8010b56b:	ff d2                	callq  *%rdx
ffffffff8010b56d:	48 83 45 c8 01       	addq   $0x1,-0x38(%rbp)
ffffffff8010b572:	48 8b 45 b8          	mov    -0x48(%rbp),%rax
ffffffff8010b576:	48 89 c7             	mov    %rax,%rdi
ffffffff8010b579:	e8 91 29 00 00       	callq  ffffffff8010df0f <strlen>
ffffffff8010b57e:	48 39 45 c8          	cmp    %rax,-0x38(%rbp)
ffffffff8010b582:	72 d0                	jb     ffffffff8010b554 <print_args+0x3e7>
ffffffff8010b584:	90                   	nop
ffffffff8010b585:	48 83 45 f8 01       	addq   $0x1,-0x8(%rbp)
ffffffff8010b58a:	48 8b 45 a8          	mov    -0x58(%rbp),%rax
ffffffff8010b58e:	48 89 c7             	mov    %rax,%rdi
ffffffff8010b591:	e8 79 29 00 00       	callq  ffffffff8010df0f <strlen>
ffffffff8010b596:	48 39 45 f8          	cmp    %rax,-0x8(%rbp)
ffffffff8010b59a:	0f 82 f6 fb ff ff    	jb     ffffffff8010b196 <print_args+0x29>
ffffffff8010b5a0:	90                   	nop
ffffffff8010b5a1:	90                   	nop
ffffffff8010b5a2:	c9                   	leaveq 
ffffffff8010b5a3:	c3                   	retq   

ffffffff8010b5a4 <g_putchar>:
ffffffff8010b5a4:	55                   	push   %rbp
ffffffff8010b5a5:	48 89 e5             	mov    %rsp,%rbp
ffffffff8010b5a8:	48 83 ec 20          	sub    $0x20,%rsp
ffffffff8010b5ac:	89 f8                	mov    %edi,%eax
ffffffff8010b5ae:	88 45 ec             	mov    %al,-0x14(%rbp)
ffffffff8010b5b1:	0f b6 45 ec          	movzbl -0x14(%rbp),%eax
ffffffff8010b5b5:	83 f8 09             	cmp    $0x9,%eax
ffffffff8010b5b8:	74 44                	je     ffffffff8010b5fe <g_putchar+0x5a>
ffffffff8010b5ba:	83 f8 0a             	cmp    $0xa,%eax
ffffffff8010b5bd:	75 5e                	jne    ffffffff8010b61d <g_putchar+0x79>
ffffffff8010b5bf:	8b 05 6f 2f 01 00    	mov    0x12f6f(%rip),%eax        # ffffffff8011e534 <y_pos>
ffffffff8010b5c5:	8d 50 10             	lea    0x10(%rax),%edx
ffffffff8010b5c8:	8b 05 d2 1d 01 00    	mov    0x11dd2(%rip),%eax        # ffffffff8011d3a0 <fb_height>
ffffffff8010b5ce:	39 c2                	cmp    %eax,%edx
ffffffff8010b5d0:	75 11                	jne    ffffffff8010b5e3 <g_putchar+0x3f>
ffffffff8010b5d2:	be 10 00 00 00       	mov    $0x10,%esi
ffffffff8010b5d7:	bf ff ff ff 00       	mov    $0xffffff,%edi
ffffffff8010b5dc:	e8 6a aa ff ff       	callq  ffffffff8010604b <scroll>
ffffffff8010b5e1:	eb 0f                	jmp    ffffffff8010b5f2 <g_putchar+0x4e>
ffffffff8010b5e3:	8b 05 4b 2f 01 00    	mov    0x12f4b(%rip),%eax        # ffffffff8011e534 <y_pos>
ffffffff8010b5e9:	83 c0 10             	add    $0x10,%eax
ffffffff8010b5ec:	89 05 42 2f 01 00    	mov    %eax,0x12f42(%rip)        # ffffffff8011e534 <y_pos>
ffffffff8010b5f2:	c7 05 34 2f 01 00 00 	movl   $0x0,0x12f34(%rip)        # ffffffff8011e530 <x_pos>
ffffffff8010b5f9:	00 00 00 
ffffffff8010b5fc:	eb 70                	jmp    ffffffff8010b66e <g_putchar+0xca>
ffffffff8010b5fe:	c7 45 fc 00 00 00 00 	movl   $0x0,-0x4(%rbp)
ffffffff8010b605:	eb 0e                	jmp    ffffffff8010b615 <g_putchar+0x71>
ffffffff8010b607:	bf 20 00 00 00       	mov    $0x20,%edi
ffffffff8010b60c:	e8 93 ff ff ff       	callq  ffffffff8010b5a4 <g_putchar>
ffffffff8010b611:	83 45 fc 01          	addl   $0x1,-0x4(%rbp)
ffffffff8010b615:	83 7d fc 03          	cmpl   $0x3,-0x4(%rbp)
ffffffff8010b619:	7e ec                	jle    ffffffff8010b607 <g_putchar+0x63>
ffffffff8010b61b:	eb 51                	jmp    ffffffff8010b66e <g_putchar+0xca>
ffffffff8010b61d:	0f b6 45 ec          	movzbl -0x14(%rbp),%eax
ffffffff8010b621:	0f be d0             	movsbl %al,%edx
ffffffff8010b624:	8b 35 0a 2f 01 00    	mov    0x12f0a(%rip),%esi        # ffffffff8011e534 <y_pos>
ffffffff8010b62a:	8b 05 00 2f 01 00    	mov    0x12f00(%rip),%eax        # ffffffff8011e530 <x_pos>
ffffffff8010b630:	89 d1                	mov    %edx,%ecx
ffffffff8010b632:	ba b4 69 ff 00       	mov    $0xff69b4,%edx
ffffffff8010b637:	89 c7                	mov    %eax,%edi
ffffffff8010b639:	e8 82 ab ff ff       	callq  ffffffff801061c0 <render_char>
ffffffff8010b63e:	8b 05 ec 2e 01 00    	mov    0x12eec(%rip),%eax        # ffffffff8011e530 <x_pos>
ffffffff8010b644:	8d 50 08             	lea    0x8(%rax),%edx
ffffffff8010b647:	8b 05 57 1d 01 00    	mov    0x11d57(%rip),%eax        # ffffffff8011d3a4 <fb_width>
ffffffff8010b64d:	39 c2                	cmp    %eax,%edx
ffffffff8010b64f:	76 0c                	jbe    ffffffff8010b65d <g_putchar+0xb9>
ffffffff8010b651:	bf 0a 00 00 00       	mov    $0xa,%edi
ffffffff8010b656:	e8 49 ff ff ff       	callq  ffffffff8010b5a4 <g_putchar>
ffffffff8010b65b:	eb 11                	jmp    ffffffff8010b66e <g_putchar+0xca>
ffffffff8010b65d:	8b 05 cd 2e 01 00    	mov    0x12ecd(%rip),%eax        # ffffffff8011e530 <x_pos>
ffffffff8010b663:	83 c0 08             	add    $0x8,%eax
ffffffff8010b666:	89 05 c4 2e 01 00    	mov    %eax,0x12ec4(%rip)        # ffffffff8011e530 <x_pos>
ffffffff8010b66c:	eb 00                	jmp    ffffffff8010b66e <g_putchar+0xca>
ffffffff8010b66e:	90                   	nop
ffffffff8010b66f:	c9                   	leaveq 
ffffffff8010b670:	c3                   	retq   

ffffffff8010b671 <serial_read>:
ffffffff8010b671:	55                   	push   %rbp
ffffffff8010b672:	48 89 e5             	mov    %rsp,%rbp
ffffffff8010b675:	90                   	nop
ffffffff8010b676:	bf fd 03 00 00       	mov    $0x3fd,%edi
ffffffff8010b67b:	e8 6a 6b ff ff       	callq  ffffffff801021ea <inb>
ffffffff8010b680:	0f b6 c0             	movzbl %al,%eax
ffffffff8010b683:	83 e0 01             	and    $0x1,%eax
ffffffff8010b686:	85 c0                	test   %eax,%eax
ffffffff8010b688:	74 ec                	je     ffffffff8010b676 <serial_read+0x5>
ffffffff8010b68a:	bf f8 03 00 00       	mov    $0x3f8,%edi
ffffffff8010b68f:	e8 56 6b ff ff       	callq  ffffffff801021ea <inb>
ffffffff8010b694:	5d                   	pop    %rbp
ffffffff8010b695:	c3                   	retq   

ffffffff8010b696 <serial_write>:
ffffffff8010b696:	55                   	push   %rbp
ffffffff8010b697:	48 89 e5             	mov    %rsp,%rbp
ffffffff8010b69a:	48 83 ec 10          	sub    $0x10,%rsp
ffffffff8010b69e:	89 f8                	mov    %edi,%eax
ffffffff8010b6a0:	88 45 fc             	mov    %al,-0x4(%rbp)
ffffffff8010b6a3:	90                   	nop
ffffffff8010b6a4:	bf fd 03 00 00       	mov    $0x3fd,%edi
ffffffff8010b6a9:	e8 3c 6b ff ff       	callq  ffffffff801021ea <inb>
ffffffff8010b6ae:	0f b6 c0             	movzbl %al,%eax
ffffffff8010b6b1:	83 e0 20             	and    $0x20,%eax
ffffffff8010b6b4:	85 c0                	test   %eax,%eax
ffffffff8010b6b6:	74 ec                	je     ffffffff8010b6a4 <serial_write+0xe>
ffffffff8010b6b8:	0f b6 45 fc          	movzbl -0x4(%rbp),%eax
ffffffff8010b6bc:	89 c6                	mov    %eax,%esi
ffffffff8010b6be:	bf f8 03 00 00       	mov    $0x3f8,%edi
ffffffff8010b6c3:	e8 c4 6a ff ff       	callq  ffffffff8010218c <outb>
ffffffff8010b6c8:	90                   	nop
ffffffff8010b6c9:	c9                   	leaveq 
ffffffff8010b6ca:	c3                   	retq   

ffffffff8010b6cb <serial_write_str>:
ffffffff8010b6cb:	55                   	push   %rbp
ffffffff8010b6cc:	48 89 e5             	mov    %rsp,%rbp
ffffffff8010b6cf:	48 83 ec 10          	sub    $0x10,%rsp
ffffffff8010b6d3:	48 89 7d f8          	mov    %rdi,-0x8(%rbp)
ffffffff8010b6d7:	eb 16                	jmp    ffffffff8010b6ef <serial_write_str+0x24>
ffffffff8010b6d9:	48 8b 45 f8          	mov    -0x8(%rbp),%rax
ffffffff8010b6dd:	0f b6 00             	movzbl (%rax),%eax
ffffffff8010b6e0:	0f b6 c0             	movzbl %al,%eax
ffffffff8010b6e3:	89 c7                	mov    %eax,%edi
ffffffff8010b6e5:	e8 ac ff ff ff       	callq  ffffffff8010b696 <serial_write>
ffffffff8010b6ea:	48 83 45 f8 01       	addq   $0x1,-0x8(%rbp)
ffffffff8010b6ef:	48 8b 45 f8          	mov    -0x8(%rbp),%rax
ffffffff8010b6f3:	0f b6 00             	movzbl (%rax),%eax
ffffffff8010b6f6:	84 c0                	test   %al,%al
ffffffff8010b6f8:	75 df                	jne    ffffffff8010b6d9 <serial_write_str+0xe>
ffffffff8010b6fa:	90                   	nop
ffffffff8010b6fb:	90                   	nop
ffffffff8010b6fc:	c9                   	leaveq 
ffffffff8010b6fd:	c3                   	retq   

ffffffff8010b6fe <stacktrace>:
ffffffff8010b6fe:	55                   	push   %rbp
ffffffff8010b6ff:	48 89 e5             	mov    %rsp,%rbp
ffffffff8010b702:	48 83 ec 20          	sub    $0x20,%rsp
ffffffff8010b706:	48 89 7d e8          	mov    %rdi,-0x18(%rbp)
ffffffff8010b70a:	48 8b 45 e8          	mov    -0x18(%rbp),%rax
ffffffff8010b70e:	48 8b 00             	mov    (%rax),%rax
ffffffff8010b711:	48 89 45 f8          	mov    %rax,-0x8(%rbp)
ffffffff8010b715:	48 8b 45 e8          	mov    -0x18(%rbp),%rax
ffffffff8010b719:	48 8b 40 08          	mov    0x8(%rax),%rax
ffffffff8010b71d:	48 89 45 f0          	mov    %rax,-0x10(%rbp)
ffffffff8010b721:	48 83 7d f0 00       	cmpq   $0x0,-0x10(%rbp)
ffffffff8010b726:	74 29                	je     ffffffff8010b751 <stacktrace+0x53>
ffffffff8010b728:	48 8b 45 f0          	mov    -0x10(%rbp),%rax
ffffffff8010b72c:	48 89 c6             	mov    %rax,%rsi
ffffffff8010b72f:	48 c7 c7 10 08 11 80 	mov    $0xffffffff80110810,%rdi
ffffffff8010b736:	b8 00 00 00 00       	mov    $0x0,%eax
ffffffff8010b73b:	e8 62 f9 ff ff       	callq  ffffffff8010b0a2 <kvprintf>
ffffffff8010b740:	48 83 7d f8 00       	cmpq   $0x0,-0x8(%rbp)
ffffffff8010b745:	74 0d                	je     ffffffff8010b754 <stacktrace+0x56>
ffffffff8010b747:	48 8b 45 f8          	mov    -0x8(%rbp),%rax
ffffffff8010b74b:	48 89 45 e8          	mov    %rax,-0x18(%rbp)
ffffffff8010b74f:	eb b9                	jmp    ffffffff8010b70a <stacktrace+0xc>
ffffffff8010b751:	90                   	nop
ffffffff8010b752:	eb 01                	jmp    ffffffff8010b755 <stacktrace+0x57>
ffffffff8010b754:	90                   	nop
ffffffff8010b755:	90                   	nop
ffffffff8010b756:	c9                   	leaveq 
ffffffff8010b757:	c3                   	retq   

ffffffff8010b758 <add_pci_device>:
ffffffff8010b758:	55                   	push   %rbp
ffffffff8010b759:	48 89 e5             	mov    %rsp,%rbp
ffffffff8010b75c:	48 83 ec 10          	sub    $0x10,%rsp
ffffffff8010b760:	48 89 fa             	mov    %rdi,%rdx
ffffffff8010b763:	89 f0                	mov    %esi,%eax
ffffffff8010b765:	48 89 55 f0          	mov    %rdx,-0x10(%rbp)
ffffffff8010b769:	89 45 f8             	mov    %eax,-0x8(%rbp)
ffffffff8010b76c:	48 8b 05 e5 2d 01 00 	mov    0x12de5(%rip),%rax        # ffffffff8011e558 <pci_device_cnt>
ffffffff8010b773:	48 83 f8 ff          	cmp    $0xffffffffffffffff,%rax
ffffffff8010b777:	75 24                	jne    ffffffff8010b79d <add_pci_device+0x45>
ffffffff8010b779:	48 8b 05 d8 2d 01 00 	mov    0x12dd8(%rip),%rax        # ffffffff8011e558 <pci_device_cnt>
ffffffff8010b780:	48 8d 50 0a          	lea    0xa(%rax),%rdx
ffffffff8010b784:	48 8b 05 c5 2d 01 00 	mov    0x12dc5(%rip),%rax        # ffffffff8011e550 <pci_devices>
ffffffff8010b78b:	48 89 d6             	mov    %rdx,%rsi
ffffffff8010b78e:	48 89 c7             	mov    %rax,%rdi
ffffffff8010b791:	e8 79 6e ff ff       	callq  ffffffff8010260f <krealloc>
ffffffff8010b796:	48 89 05 b3 2d 01 00 	mov    %rax,0x12db3(%rip)        # ffffffff8011e550 <pci_devices>
ffffffff8010b79d:	48 8b 0d ac 2d 01 00 	mov    0x12dac(%rip),%rcx        # ffffffff8011e550 <pci_devices>
ffffffff8010b7a4:	48 8b 15 ad 2d 01 00 	mov    0x12dad(%rip),%rdx        # ffffffff8011e558 <pci_device_cnt>
ffffffff8010b7ab:	48 8d 42 01          	lea    0x1(%rdx),%rax
ffffffff8010b7af:	48 89 05 a2 2d 01 00 	mov    %rax,0x12da2(%rip)        # ffffffff8011e558 <pci_device_cnt>
ffffffff8010b7b6:	48 89 d0             	mov    %rdx,%rax
ffffffff8010b7b9:	48 01 c0             	add    %rax,%rax
ffffffff8010b7bc:	48 01 d0             	add    %rdx,%rax
ffffffff8010b7bf:	48 c1 e0 02          	shl    $0x2,%rax
ffffffff8010b7c3:	48 01 c8             	add    %rcx,%rax
ffffffff8010b7c6:	48 8b 55 f0          	mov    -0x10(%rbp),%rdx
ffffffff8010b7ca:	48 89 10             	mov    %rdx,(%rax)
ffffffff8010b7cd:	8b 55 f8             	mov    -0x8(%rbp),%edx
ffffffff8010b7d0:	89 50 08             	mov    %edx,0x8(%rax)
ffffffff8010b7d3:	90                   	nop
ffffffff8010b7d4:	c9                   	leaveq 
ffffffff8010b7d5:	c3                   	retq   

ffffffff8010b7d6 <check_device>:
ffffffff8010b7d6:	55                   	push   %rbp
ffffffff8010b7d7:	48 89 e5             	mov    %rsp,%rbp
ffffffff8010b7da:	48 83 ec 20          	sub    $0x20,%rsp
ffffffff8010b7de:	89 f1                	mov    %esi,%ecx
ffffffff8010b7e0:	89 d0                	mov    %edx,%eax
ffffffff8010b7e2:	89 fa                	mov    %edi,%edx
ffffffff8010b7e4:	88 55 ec             	mov    %dl,-0x14(%rbp)
ffffffff8010b7e7:	89 ca                	mov    %ecx,%edx
ffffffff8010b7e9:	88 55 e8             	mov    %dl,-0x18(%rbp)
ffffffff8010b7ec:	88 45 e4             	mov    %al,-0x1c(%rbp)
ffffffff8010b7ef:	c7 45 fc 01 00 00 00 	movl   $0x1,-0x4(%rbp)
ffffffff8010b7f6:	0f b6 55 e4          	movzbl -0x1c(%rbp),%edx
ffffffff8010b7fa:	0f b6 75 e8          	movzbl -0x18(%rbp),%esi
ffffffff8010b7fe:	0f b6 45 ec          	movzbl -0x14(%rbp),%eax
ffffffff8010b802:	b9 0c 00 00 00       	mov    $0xc,%ecx
ffffffff8010b807:	89 c7                	mov    %eax,%edi
ffffffff8010b809:	e8 40 01 00 00       	callq  ffffffff8010b94e <pci_read>
ffffffff8010b80e:	c1 e8 10             	shr    $0x10,%eax
ffffffff8010b811:	0f b6 c0             	movzbl %al,%eax
ffffffff8010b814:	24 7f                	and    $0x7f,%al
ffffffff8010b816:	83 f8 01             	cmp    $0x1,%eax
ffffffff8010b819:	75 3e                	jne    ffffffff8010b859 <check_device+0x83>
ffffffff8010b81b:	0f b6 55 e4          	movzbl -0x1c(%rbp),%edx
ffffffff8010b81f:	0f b6 75 e8          	movzbl -0x18(%rbp),%esi
ffffffff8010b823:	0f b6 45 ec          	movzbl -0x14(%rbp),%eax
ffffffff8010b827:	b9 08 00 00 00       	mov    $0x8,%ecx
ffffffff8010b82c:	89 c7                	mov    %eax,%edi
ffffffff8010b82e:	e8 1b 01 00 00       	callq  ffffffff8010b94e <pci_read>
ffffffff8010b833:	c1 e8 18             	shr    $0x18,%eax
ffffffff8010b836:	3c 06                	cmp    $0x6,%al
ffffffff8010b838:	75 1f                	jne    ffffffff8010b859 <check_device+0x83>
ffffffff8010b83a:	0f b6 55 e4          	movzbl -0x1c(%rbp),%edx
ffffffff8010b83e:	0f b6 75 e8          	movzbl -0x18(%rbp),%esi
ffffffff8010b842:	0f b6 45 ec          	movzbl -0x14(%rbp),%eax
ffffffff8010b846:	b9 08 00 00 00       	mov    $0x8,%ecx
ffffffff8010b84b:	89 c7                	mov    %eax,%edi
ffffffff8010b84d:	e8 fc 00 00 00       	callq  ffffffff8010b94e <pci_read>
ffffffff8010b852:	c1 e8 10             	shr    $0x10,%eax
ffffffff8010b855:	3c 04                	cmp    $0x4,%al
ffffffff8010b857:	74 07                	je     ffffffff8010b860 <check_device+0x8a>
ffffffff8010b859:	c7 45 fc 00 00 00 00 	movl   $0x0,-0x4(%rbp)
ffffffff8010b860:	83 7d fc 00          	cmpl   $0x0,-0x4(%rbp)
ffffffff8010b864:	74 2a                	je     ffffffff8010b890 <check_device+0xba>
ffffffff8010b866:	0f b6 55 e4          	movzbl -0x1c(%rbp),%edx
ffffffff8010b86a:	0f b6 75 e8          	movzbl -0x18(%rbp),%esi
ffffffff8010b86e:	0f b6 45 ec          	movzbl -0x14(%rbp),%eax
ffffffff8010b872:	b9 18 00 00 00       	mov    $0x18,%ecx
ffffffff8010b877:	89 c7                	mov    %eax,%edi
ffffffff8010b879:	e8 d0 00 00 00       	callq  ffffffff8010b94e <pci_read>
ffffffff8010b87e:	c1 e8 08             	shr    $0x8,%eax
ffffffff8010b881:	0f b6 c0             	movzbl %al,%eax
ffffffff8010b884:	89 c7                	mov    %eax,%edi
ffffffff8010b886:	e8 95 01 00 00       	callq  ffffffff8010ba20 <pci_scan_bus>
ffffffff8010b88b:	e9 bb 00 00 00       	jmpq   ffffffff8010b94b <check_device+0x175>
ffffffff8010b890:	0f b6 55 e4          	movzbl -0x1c(%rbp),%edx
ffffffff8010b894:	0f b6 75 e8          	movzbl -0x18(%rbp),%esi
ffffffff8010b898:	0f b6 45 ec          	movzbl -0x14(%rbp),%eax
ffffffff8010b89c:	b9 08 00 00 00       	mov    $0x8,%ecx
ffffffff8010b8a1:	89 c7                	mov    %eax,%edi
ffffffff8010b8a3:	e8 a6 00 00 00       	callq  ffffffff8010b94e <pci_read>
ffffffff8010b8a8:	c1 e8 18             	shr    $0x18,%eax
ffffffff8010b8ab:	88 45 f0             	mov    %al,-0x10(%rbp)
ffffffff8010b8ae:	0f b6 55 e4          	movzbl -0x1c(%rbp),%edx
ffffffff8010b8b2:	0f b6 75 e8          	movzbl -0x18(%rbp),%esi
ffffffff8010b8b6:	0f b6 45 ec          	movzbl -0x14(%rbp),%eax
ffffffff8010b8ba:	b9 08 00 00 00       	mov    $0x8,%ecx
ffffffff8010b8bf:	89 c7                	mov    %eax,%edi
ffffffff8010b8c1:	e8 88 00 00 00       	callq  ffffffff8010b94e <pci_read>
ffffffff8010b8c6:	c1 e8 10             	shr    $0x10,%eax
ffffffff8010b8c9:	88 45 f1             	mov    %al,-0xf(%rbp)
ffffffff8010b8cc:	0f b6 55 e4          	movzbl -0x1c(%rbp),%edx
ffffffff8010b8d0:	0f b6 75 e8          	movzbl -0x18(%rbp),%esi
ffffffff8010b8d4:	0f b6 45 ec          	movzbl -0x14(%rbp),%eax
ffffffff8010b8d8:	b9 08 00 00 00       	mov    $0x8,%ecx
ffffffff8010b8dd:	89 c7                	mov    %eax,%edi
ffffffff8010b8df:	e8 6a 00 00 00       	callq  ffffffff8010b94e <pci_read>
ffffffff8010b8e4:	c1 e8 08             	shr    $0x8,%eax
ffffffff8010b8e7:	88 45 f2             	mov    %al,-0xe(%rbp)
ffffffff8010b8ea:	0f b6 55 e4          	movzbl -0x1c(%rbp),%edx
ffffffff8010b8ee:	0f b6 75 e8          	movzbl -0x18(%rbp),%esi
ffffffff8010b8f2:	0f b6 45 ec          	movzbl -0x14(%rbp),%eax
ffffffff8010b8f6:	b9 00 00 00 00       	mov    $0x0,%ecx
ffffffff8010b8fb:	89 c7                	mov    %eax,%edi
ffffffff8010b8fd:	e8 4c 00 00 00       	callq  ffffffff8010b94e <pci_read>
ffffffff8010b902:	c1 e8 10             	shr    $0x10,%eax
ffffffff8010b905:	66 89 45 f4          	mov    %ax,-0xc(%rbp)
ffffffff8010b909:	0f b6 55 e4          	movzbl -0x1c(%rbp),%edx
ffffffff8010b90d:	0f b6 75 e8          	movzbl -0x18(%rbp),%esi
ffffffff8010b911:	0f b6 45 ec          	movzbl -0x14(%rbp),%eax
ffffffff8010b915:	b9 00 00 00 00       	mov    $0x0,%ecx
ffffffff8010b91a:	89 c7                	mov    %eax,%edi
ffffffff8010b91c:	e8 2d 00 00 00       	callq  ffffffff8010b94e <pci_read>
ffffffff8010b921:	66 89 45 f6          	mov    %ax,-0xa(%rbp)
ffffffff8010b925:	0f b6 45 ec          	movzbl -0x14(%rbp),%eax
ffffffff8010b929:	88 45 f8             	mov    %al,-0x8(%rbp)
ffffffff8010b92c:	0f b6 45 e8          	movzbl -0x18(%rbp),%eax
ffffffff8010b930:	88 45 f9             	mov    %al,-0x7(%rbp)
ffffffff8010b933:	0f b6 45 e4          	movzbl -0x1c(%rbp),%eax
ffffffff8010b937:	88 45 fa             	mov    %al,-0x6(%rbp)
ffffffff8010b93a:	48 8b 55 f0          	mov    -0x10(%rbp),%rdx
ffffffff8010b93e:	8b 45 f8             	mov    -0x8(%rbp),%eax
ffffffff8010b941:	48 89 d7             	mov    %rdx,%rdi
ffffffff8010b944:	89 c6                	mov    %eax,%esi
ffffffff8010b946:	e8 0d fe ff ff       	callq  ffffffff8010b758 <add_pci_device>
ffffffff8010b94b:	90                   	nop
ffffffff8010b94c:	c9                   	leaveq 
ffffffff8010b94d:	c3                   	retq   

ffffffff8010b94e <pci_read>:
ffffffff8010b94e:	55                   	push   %rbp
ffffffff8010b94f:	48 89 e5             	mov    %rsp,%rbp
ffffffff8010b952:	48 83 ec 10          	sub    $0x10,%rsp
ffffffff8010b956:	89 c8                	mov    %ecx,%eax
ffffffff8010b958:	89 f9                	mov    %edi,%ecx
ffffffff8010b95a:	88 4d fc             	mov    %cl,-0x4(%rbp)
ffffffff8010b95d:	89 f1                	mov    %esi,%ecx
ffffffff8010b95f:	88 4d f8             	mov    %cl,-0x8(%rbp)
ffffffff8010b962:	88 55 f4             	mov    %dl,-0xc(%rbp)
ffffffff8010b965:	88 45 f0             	mov    %al,-0x10(%rbp)
ffffffff8010b968:	0f b6 45 fc          	movzbl -0x4(%rbp),%eax
ffffffff8010b96c:	c1 e0 10             	shl    $0x10,%eax
ffffffff8010b96f:	89 c2                	mov    %eax,%edx
ffffffff8010b971:	0f b6 45 f8          	movzbl -0x8(%rbp),%eax
ffffffff8010b975:	c1 e0 0b             	shl    $0xb,%eax
ffffffff8010b978:	0f b7 c0             	movzwl %ax,%eax
ffffffff8010b97b:	09 c2                	or     %eax,%edx
ffffffff8010b97d:	0f b6 45 f4          	movzbl -0xc(%rbp),%eax
ffffffff8010b981:	c1 e0 08             	shl    $0x8,%eax
ffffffff8010b984:	25 00 07 00 00       	and    $0x700,%eax
ffffffff8010b989:	09 c2                	or     %eax,%edx
ffffffff8010b98b:	0f b6 45 f0          	movzbl -0x10(%rbp),%eax
ffffffff8010b98f:	83 e0 fc             	and    $0xfffffffc,%eax
ffffffff8010b992:	09 d0                	or     %edx,%eax
ffffffff8010b994:	0d 00 00 00 80       	or     $0x80000000,%eax
ffffffff8010b999:	89 c6                	mov    %eax,%esi
ffffffff8010b99b:	bf f8 0c 00 00       	mov    $0xcf8,%edi
ffffffff8010b9a0:	e8 29 68 ff ff       	callq  ffffffff801021ce <outd>
ffffffff8010b9a5:	bf fc 0c 00 00       	mov    $0xcfc,%edi
ffffffff8010b9aa:	e8 79 68 ff ff       	callq  ffffffff80102228 <ind>
ffffffff8010b9af:	c9                   	leaveq 
ffffffff8010b9b0:	c3                   	retq   

ffffffff8010b9b1 <pci_write>:
ffffffff8010b9b1:	55                   	push   %rbp
ffffffff8010b9b2:	48 89 e5             	mov    %rsp,%rbp
ffffffff8010b9b5:	48 83 ec 20          	sub    $0x20,%rsp
ffffffff8010b9b9:	89 7d fc             	mov    %edi,-0x4(%rbp)
ffffffff8010b9bc:	89 c8                	mov    %ecx,%eax
ffffffff8010b9be:	44 89 c7             	mov    %r8d,%edi
ffffffff8010b9c1:	89 f1                	mov    %esi,%ecx
ffffffff8010b9c3:	88 4d f8             	mov    %cl,-0x8(%rbp)
ffffffff8010b9c6:	88 55 f4             	mov    %dl,-0xc(%rbp)
ffffffff8010b9c9:	88 45 f0             	mov    %al,-0x10(%rbp)
ffffffff8010b9cc:	89 f8                	mov    %edi,%eax
ffffffff8010b9ce:	88 45 ec             	mov    %al,-0x14(%rbp)
ffffffff8010b9d1:	0f b6 45 f8          	movzbl -0x8(%rbp),%eax
ffffffff8010b9d5:	c1 e0 10             	shl    $0x10,%eax
ffffffff8010b9d8:	89 c2                	mov    %eax,%edx
ffffffff8010b9da:	0f b6 45 f4          	movzbl -0xc(%rbp),%eax
ffffffff8010b9de:	c1 e0 0b             	shl    $0xb,%eax
ffffffff8010b9e1:	0f b7 c0             	movzwl %ax,%eax
ffffffff8010b9e4:	09 c2                	or     %eax,%edx
ffffffff8010b9e6:	0f b6 45 f0          	movzbl -0x10(%rbp),%eax
ffffffff8010b9ea:	c1 e0 08             	shl    $0x8,%eax
ffffffff8010b9ed:	25 00 07 00 00       	and    $0x700,%eax
ffffffff8010b9f2:	09 c2                	or     %eax,%edx
ffffffff8010b9f4:	0f b6 45 ec          	movzbl -0x14(%rbp),%eax
ffffffff8010b9f8:	83 e0 fc             	and    $0xfffffffc,%eax
ffffffff8010b9fb:	09 d0                	or     %edx,%eax
ffffffff8010b9fd:	0d 00 00 00 80       	or     $0x80000000,%eax
ffffffff8010ba02:	89 c6                	mov    %eax,%esi
ffffffff8010ba04:	bf f8 0c 00 00       	mov    $0xcf8,%edi
ffffffff8010ba09:	e8 c0 67 ff ff       	callq  ffffffff801021ce <outd>
ffffffff8010ba0e:	8b 45 fc             	mov    -0x4(%rbp),%eax
ffffffff8010ba11:	89 c6                	mov    %eax,%esi
ffffffff8010ba13:	bf fc 0c 00 00       	mov    $0xcfc,%edi
ffffffff8010ba18:	e8 b1 67 ff ff       	callq  ffffffff801021ce <outd>
ffffffff8010ba1d:	90                   	nop
ffffffff8010ba1e:	c9                   	leaveq 
ffffffff8010ba1f:	c3                   	retq   

ffffffff8010ba20 <pci_scan_bus>:
ffffffff8010ba20:	55                   	push   %rbp
ffffffff8010ba21:	48 89 e5             	mov    %rsp,%rbp
ffffffff8010ba24:	48 83 ec 20          	sub    $0x20,%rsp
ffffffff8010ba28:	89 f8                	mov    %edi,%eax
ffffffff8010ba2a:	88 45 ec             	mov    %al,-0x14(%rbp)
ffffffff8010ba2d:	c6 45 ff 00          	movb   $0x0,-0x1(%rbp)
ffffffff8010ba31:	e9 a8 00 00 00       	jmpq   ffffffff8010bade <pci_scan_bus+0xbe>
ffffffff8010ba36:	0f b6 75 ff          	movzbl -0x1(%rbp),%esi
ffffffff8010ba3a:	0f b6 45 ec          	movzbl -0x14(%rbp),%eax
ffffffff8010ba3e:	b9 00 00 00 00       	mov    $0x0,%ecx
ffffffff8010ba43:	ba 00 00 00 00       	mov    $0x0,%edx
ffffffff8010ba48:	89 c7                	mov    %eax,%edi
ffffffff8010ba4a:	e8 ff fe ff ff       	callq  ffffffff8010b94e <pci_read>
ffffffff8010ba4f:	66 83 f8 ff          	cmp    $0xffff,%ax
ffffffff8010ba53:	74 7f                	je     ffffffff8010bad4 <pci_scan_bus+0xb4>
ffffffff8010ba55:	0f b6 4d ff          	movzbl -0x1(%rbp),%ecx
ffffffff8010ba59:	0f b6 45 ec          	movzbl -0x14(%rbp),%eax
ffffffff8010ba5d:	ba 00 00 00 00       	mov    $0x0,%edx
ffffffff8010ba62:	89 ce                	mov    %ecx,%esi
ffffffff8010ba64:	89 c7                	mov    %eax,%edi
ffffffff8010ba66:	e8 6b fd ff ff       	callq  ffffffff8010b7d6 <check_device>
ffffffff8010ba6b:	0f b6 75 ff          	movzbl -0x1(%rbp),%esi
ffffffff8010ba6f:	0f b6 45 ec          	movzbl -0x14(%rbp),%eax
ffffffff8010ba73:	b9 0c 00 00 00       	mov    $0xc,%ecx
ffffffff8010ba78:	ba 00 00 00 00       	mov    $0x0,%edx
ffffffff8010ba7d:	89 c7                	mov    %eax,%edi
ffffffff8010ba7f:	e8 ca fe ff ff       	callq  ffffffff8010b94e <pci_read>
ffffffff8010ba84:	c1 e8 10             	shr    $0x10,%eax
ffffffff8010ba87:	84 c0                	test   %al,%al
ffffffff8010ba89:	79 49                	jns    ffffffff8010bad4 <pci_scan_bus+0xb4>
ffffffff8010ba8b:	c6 45 fe 01          	movb   $0x1,-0x2(%rbp)
ffffffff8010ba8f:	eb 3d                	jmp    ffffffff8010bace <pci_scan_bus+0xae>
ffffffff8010ba91:	0f b6 55 fe          	movzbl -0x2(%rbp),%edx
ffffffff8010ba95:	0f b6 75 ff          	movzbl -0x1(%rbp),%esi
ffffffff8010ba99:	0f b6 45 ec          	movzbl -0x14(%rbp),%eax
ffffffff8010ba9d:	b9 00 00 00 00       	mov    $0x0,%ecx
ffffffff8010baa2:	89 c7                	mov    %eax,%edi
ffffffff8010baa4:	e8 a5 fe ff ff       	callq  ffffffff8010b94e <pci_read>
ffffffff8010baa9:	66 83 f8 ff          	cmp    $0xffff,%ax
ffffffff8010baad:	74 15                	je     ffffffff8010bac4 <pci_scan_bus+0xa4>
ffffffff8010baaf:	0f b6 55 fe          	movzbl -0x2(%rbp),%edx
ffffffff8010bab3:	0f b6 4d ff          	movzbl -0x1(%rbp),%ecx
ffffffff8010bab7:	0f b6 45 ec          	movzbl -0x14(%rbp),%eax
ffffffff8010babb:	89 ce                	mov    %ecx,%esi
ffffffff8010babd:	89 c7                	mov    %eax,%edi
ffffffff8010babf:	e8 12 fd ff ff       	callq  ffffffff8010b7d6 <check_device>
ffffffff8010bac4:	0f b6 45 fe          	movzbl -0x2(%rbp),%eax
ffffffff8010bac8:	83 c0 01             	add    $0x1,%eax
ffffffff8010bacb:	88 45 fe             	mov    %al,-0x2(%rbp)
ffffffff8010bace:	80 7d fe 07          	cmpb   $0x7,-0x2(%rbp)
ffffffff8010bad2:	76 bd                	jbe    ffffffff8010ba91 <pci_scan_bus+0x71>
ffffffff8010bad4:	0f b6 45 ff          	movzbl -0x1(%rbp),%eax
ffffffff8010bad8:	83 c0 01             	add    $0x1,%eax
ffffffff8010badb:	88 45 ff             	mov    %al,-0x1(%rbp)
ffffffff8010bade:	80 7d ff 1f          	cmpb   $0x1f,-0x1(%rbp)
ffffffff8010bae2:	0f 86 4e ff ff ff    	jbe    ffffffff8010ba36 <pci_scan_bus+0x16>
ffffffff8010bae8:	90                   	nop
ffffffff8010bae9:	90                   	nop
ffffffff8010baea:	c9                   	leaveq 
ffffffff8010baeb:	c3                   	retq   

ffffffff8010baec <pci_get_bar>:
ffffffff8010baec:	55                   	push   %rbp
ffffffff8010baed:	48 89 e5             	mov    %rsp,%rbp
ffffffff8010baf0:	53                   	push   %rbx
ffffffff8010baf1:	48 83 ec 38          	sub    $0x38,%rsp
ffffffff8010baf5:	48 89 f9             	mov    %rdi,%rcx
ffffffff8010baf8:	89 f0                	mov    %esi,%eax
ffffffff8010bafa:	48 89 55 c8          	mov    %rdx,-0x38(%rbp)
ffffffff8010bafe:	48 89 4d d0          	mov    %rcx,-0x30(%rbp)
ffffffff8010bb02:	89 45 d8             	mov    %eax,-0x28(%rbp)
ffffffff8010bb05:	48 8b 45 c8          	mov    -0x38(%rbp),%rax
ffffffff8010bb09:	48 83 c0 04          	add    $0x4,%rax
ffffffff8010bb0d:	c1 e0 02             	shl    $0x2,%eax
ffffffff8010bb10:	0f b6 c8             	movzbl %al,%ecx
ffffffff8010bb13:	0f b6 45 da          	movzbl -0x26(%rbp),%eax
ffffffff8010bb17:	0f b6 d0             	movzbl %al,%edx
ffffffff8010bb1a:	0f b6 45 d9          	movzbl -0x27(%rbp),%eax
ffffffff8010bb1e:	0f b6 f0             	movzbl %al,%esi
ffffffff8010bb21:	0f b6 45 d8          	movzbl -0x28(%rbp),%eax
ffffffff8010bb25:	0f b6 c0             	movzbl %al,%eax
ffffffff8010bb28:	89 c7                	mov    %eax,%edi
ffffffff8010bb2a:	e8 1f fe ff ff       	callq  ffffffff8010b94e <pci_read>
ffffffff8010bb2f:	89 45 ec             	mov    %eax,-0x14(%rbp)
ffffffff8010bb32:	48 8b 45 c8          	mov    -0x38(%rbp),%rax
ffffffff8010bb36:	48 83 c0 04          	add    $0x4,%rax
ffffffff8010bb3a:	c1 e0 02             	shl    $0x2,%eax
ffffffff8010bb3d:	0f b6 f0             	movzbl %al,%esi
ffffffff8010bb40:	0f b6 45 da          	movzbl -0x26(%rbp),%eax
ffffffff8010bb44:	0f b6 c8             	movzbl %al,%ecx
ffffffff8010bb47:	0f b6 45 d9          	movzbl -0x27(%rbp),%eax
ffffffff8010bb4b:	0f b6 d0             	movzbl %al,%edx
ffffffff8010bb4e:	0f b6 45 d8          	movzbl -0x28(%rbp),%eax
ffffffff8010bb52:	0f b6 c0             	movzbl %al,%eax
ffffffff8010bb55:	41 89 f0             	mov    %esi,%r8d
ffffffff8010bb58:	89 c6                	mov    %eax,%esi
ffffffff8010bb5a:	bf ff ff ff ff       	mov    $0xffffffff,%edi
ffffffff8010bb5f:	e8 4d fe ff ff       	callq  ffffffff8010b9b1 <pci_write>
ffffffff8010bb64:	48 8b 45 c8          	mov    -0x38(%rbp),%rax
ffffffff8010bb68:	48 83 c0 04          	add    $0x4,%rax
ffffffff8010bb6c:	c1 e0 02             	shl    $0x2,%eax
ffffffff8010bb6f:	0f b6 c8             	movzbl %al,%ecx
ffffffff8010bb72:	0f b6 45 da          	movzbl -0x26(%rbp),%eax
ffffffff8010bb76:	0f b6 d0             	movzbl %al,%edx
ffffffff8010bb79:	0f b6 45 d9          	movzbl -0x27(%rbp),%eax
ffffffff8010bb7d:	0f b6 f0             	movzbl %al,%esi
ffffffff8010bb80:	0f b6 45 d8          	movzbl -0x28(%rbp),%eax
ffffffff8010bb84:	0f b6 c0             	movzbl %al,%eax
ffffffff8010bb87:	89 c7                	mov    %eax,%edi
ffffffff8010bb89:	e8 c0 fd ff ff       	callq  ffffffff8010b94e <pci_read>
ffffffff8010bb8e:	89 45 e8             	mov    %eax,-0x18(%rbp)
ffffffff8010bb91:	48 8b 45 c8          	mov    -0x38(%rbp),%rax
ffffffff8010bb95:	48 83 c0 04          	add    $0x4,%rax
ffffffff8010bb99:	c1 e0 02             	shl    $0x2,%eax
ffffffff8010bb9c:	0f b6 f8             	movzbl %al,%edi
ffffffff8010bb9f:	0f b6 45 da          	movzbl -0x26(%rbp),%eax
ffffffff8010bba3:	0f b6 c8             	movzbl %al,%ecx
ffffffff8010bba6:	0f b6 45 d9          	movzbl -0x27(%rbp),%eax
ffffffff8010bbaa:	0f b6 d0             	movzbl %al,%edx
ffffffff8010bbad:	0f b6 45 d8          	movzbl -0x28(%rbp),%eax
ffffffff8010bbb1:	0f b6 f0             	movzbl %al,%esi
ffffffff8010bbb4:	8b 45 ec             	mov    -0x14(%rbp),%eax
ffffffff8010bbb7:	41 89 f8             	mov    %edi,%r8d
ffffffff8010bbba:	89 c7                	mov    %eax,%edi
ffffffff8010bbbc:	e8 f0 fd ff ff       	callq  ffffffff8010b9b1 <pci_write>
ffffffff8010bbc1:	8b 45 e8             	mov    -0x18(%rbp),%eax
ffffffff8010bbc4:	f7 d8                	neg    %eax
ffffffff8010bbc6:	89 c2                	mov    %eax,%edx
ffffffff8010bbc8:	8b 45 ec             	mov    -0x14(%rbp),%eax
ffffffff8010bbcb:	48 b9 00 00 00 00 ff 	movabs $0xffffffff00000000,%rcx
ffffffff8010bbd2:	ff ff ff 
ffffffff8010bbd5:	48 21 d9             	and    %rbx,%rcx
ffffffff8010bbd8:	48 09 c8             	or     %rcx,%rax
ffffffff8010bbdb:	48 89 c3             	mov    %rax,%rbx
ffffffff8010bbde:	89 d0                	mov    %edx,%eax
ffffffff8010bbe0:	48 c1 e0 20          	shl    $0x20,%rax
ffffffff8010bbe4:	89 da                	mov    %ebx,%edx
ffffffff8010bbe6:	48 09 d0             	or     %rdx,%rax
ffffffff8010bbe9:	48 89 c3             	mov    %rax,%rbx
ffffffff8010bbec:	48 89 d8             	mov    %rbx,%rax
ffffffff8010bbef:	48 8b 5d f8          	mov    -0x8(%rbp),%rbx
ffffffff8010bbf3:	c9                   	leaveq 
ffffffff8010bbf4:	c3                   	retq   

ffffffff8010bbf5 <pci_init>:
ffffffff8010bbf5:	55                   	push   %rbp
ffffffff8010bbf6:	48 89 e5             	mov    %rsp,%rbp
ffffffff8010bbf9:	bf 78 00 00 00       	mov    $0x78,%edi
ffffffff8010bbfe:	e8 44 67 ff ff       	callq  ffffffff80102347 <kmalloc>
ffffffff8010bc03:	48 89 05 46 29 01 00 	mov    %rax,0x12946(%rip)        # ffffffff8011e550 <pci_devices>
ffffffff8010bc0a:	bf 00 00 00 00       	mov    $0x0,%edi
ffffffff8010bc0f:	e8 0c fe ff ff       	callq  ffffffff8010ba20 <pci_scan_bus>
ffffffff8010bc14:	b8 00 00 00 00       	mov    $0x0,%eax
ffffffff8010bc19:	e8 03 00 00 00       	callq  ffffffff8010bc21 <show_pci_devices>
ffffffff8010bc1e:	90                   	nop
ffffffff8010bc1f:	5d                   	pop    %rbp
ffffffff8010bc20:	c3                   	retq   

ffffffff8010bc21 <show_pci_devices>:
ffffffff8010bc21:	55                   	push   %rbp
ffffffff8010bc22:	48 89 e5             	mov    %rsp,%rbp
ffffffff8010bc25:	48 83 ec 10          	sub    $0x10,%rsp
ffffffff8010bc29:	48 c7 45 f8 00 00 00 	movq   $0x0,-0x8(%rbp)
ffffffff8010bc30:	00 
ffffffff8010bc31:	e9 33 01 00 00       	jmpq   ffffffff8010bd69 <show_pci_devices+0x148>
ffffffff8010bc36:	48 8b 45 f8          	mov    -0x8(%rbp),%rax
ffffffff8010bc3a:	48 89 c6             	mov    %rax,%rsi
ffffffff8010bc3d:	48 c7 c7 20 08 11 80 	mov    $0xffffffff80110820,%rdi
ffffffff8010bc44:	b8 00 00 00 00       	mov    $0x0,%eax
ffffffff8010bc49:	e8 54 f4 ff ff       	callq  ffffffff8010b0a2 <kvprintf>
ffffffff8010bc4e:	48 8b 0d fb 28 01 00 	mov    0x128fb(%rip),%rcx        # ffffffff8011e550 <pci_devices>
ffffffff8010bc55:	48 8b 55 f8          	mov    -0x8(%rbp),%rdx
ffffffff8010bc59:	48 89 d0             	mov    %rdx,%rax
ffffffff8010bc5c:	48 01 c0             	add    %rax,%rax
ffffffff8010bc5f:	48 01 d0             	add    %rdx,%rax
ffffffff8010bc62:	48 c1 e0 02          	shl    $0x2,%rax
ffffffff8010bc66:	48 01 c8             	add    %rcx,%rax
ffffffff8010bc69:	0f b6 40 0a          	movzbl 0xa(%rax),%eax
ffffffff8010bc6d:	0f b6 c8             	movzbl %al,%ecx
ffffffff8010bc70:	48 8b 35 d9 28 01 00 	mov    0x128d9(%rip),%rsi        # ffffffff8011e550 <pci_devices>
ffffffff8010bc77:	48 8b 55 f8          	mov    -0x8(%rbp),%rdx
ffffffff8010bc7b:	48 89 d0             	mov    %rdx,%rax
ffffffff8010bc7e:	48 01 c0             	add    %rax,%rax
ffffffff8010bc81:	48 01 d0             	add    %rdx,%rax
ffffffff8010bc84:	48 c1 e0 02          	shl    $0x2,%rax
ffffffff8010bc88:	48 01 f0             	add    %rsi,%rax
ffffffff8010bc8b:	0f b6 40 08          	movzbl 0x8(%rax),%eax
ffffffff8010bc8f:	0f b6 d0             	movzbl %al,%edx
ffffffff8010bc92:	48 8b 3d b7 28 01 00 	mov    0x128b7(%rip),%rdi        # ffffffff8011e550 <pci_devices>
ffffffff8010bc99:	48 8b 75 f8          	mov    -0x8(%rbp),%rsi
ffffffff8010bc9d:	48 89 f0             	mov    %rsi,%rax
ffffffff8010bca0:	48 01 c0             	add    %rax,%rax
ffffffff8010bca3:	48 01 f0             	add    %rsi,%rax
ffffffff8010bca6:	48 c1 e0 02          	shl    $0x2,%rax
ffffffff8010bcaa:	48 01 f8             	add    %rdi,%rax
ffffffff8010bcad:	0f b7 40 06          	movzwl 0x6(%rax),%eax
ffffffff8010bcb1:	0f b7 c0             	movzwl %ax,%eax
ffffffff8010bcb4:	89 c6                	mov    %eax,%esi
ffffffff8010bcb6:	48 c7 c7 38 08 11 80 	mov    $0xffffffff80110838,%rdi
ffffffff8010bcbd:	b8 00 00 00 00       	mov    $0x0,%eax
ffffffff8010bcc2:	e8 db f3 ff ff       	callq  ffffffff8010b0a2 <kvprintf>
ffffffff8010bcc7:	48 8b 0d 82 28 01 00 	mov    0x12882(%rip),%rcx        # ffffffff8011e550 <pci_devices>
ffffffff8010bcce:	48 8b 55 f8          	mov    -0x8(%rbp),%rdx
ffffffff8010bcd2:	48 89 d0             	mov    %rdx,%rax
ffffffff8010bcd5:	48 01 c0             	add    %rax,%rax
ffffffff8010bcd8:	48 01 d0             	add    %rdx,%rax
ffffffff8010bcdb:	48 c1 e0 02          	shl    $0x2,%rax
ffffffff8010bcdf:	48 01 c8             	add    %rcx,%rax
ffffffff8010bce2:	0f b7 40 04          	movzwl 0x4(%rax),%eax
ffffffff8010bce6:	0f b7 f8             	movzwl %ax,%edi
ffffffff8010bce9:	48 8b 0d 60 28 01 00 	mov    0x12860(%rip),%rcx        # ffffffff8011e550 <pci_devices>
ffffffff8010bcf0:	48 8b 55 f8          	mov    -0x8(%rbp),%rdx
ffffffff8010bcf4:	48 89 d0             	mov    %rdx,%rax
ffffffff8010bcf7:	48 01 c0             	add    %rax,%rax
ffffffff8010bcfa:	48 01 d0             	add    %rdx,%rax
ffffffff8010bcfd:	48 c1 e0 02          	shl    $0x2,%rax
ffffffff8010bd01:	48 01 c8             	add    %rcx,%rax
ffffffff8010bd04:	0f b6 40 02          	movzbl 0x2(%rax),%eax
ffffffff8010bd08:	0f b6 c8             	movzbl %al,%ecx
ffffffff8010bd0b:	48 8b 35 3e 28 01 00 	mov    0x1283e(%rip),%rsi        # ffffffff8011e550 <pci_devices>
ffffffff8010bd12:	48 8b 55 f8          	mov    -0x8(%rbp),%rdx
ffffffff8010bd16:	48 89 d0             	mov    %rdx,%rax
ffffffff8010bd19:	48 01 c0             	add    %rax,%rax
ffffffff8010bd1c:	48 01 d0             	add    %rdx,%rax
ffffffff8010bd1f:	48 c1 e0 02          	shl    $0x2,%rax
ffffffff8010bd23:	48 01 f0             	add    %rsi,%rax
ffffffff8010bd26:	0f b6 40 01          	movzbl 0x1(%rax),%eax
ffffffff8010bd2a:	0f b6 d0             	movzbl %al,%edx
ffffffff8010bd2d:	4c 8b 05 1c 28 01 00 	mov    0x1281c(%rip),%r8        # ffffffff8011e550 <pci_devices>
ffffffff8010bd34:	48 8b 75 f8          	mov    -0x8(%rbp),%rsi
ffffffff8010bd38:	48 89 f0             	mov    %rsi,%rax
ffffffff8010bd3b:	48 01 c0             	add    %rax,%rax
ffffffff8010bd3e:	48 01 f0             	add    %rsi,%rax
ffffffff8010bd41:	48 c1 e0 02          	shl    $0x2,%rax
ffffffff8010bd45:	4c 01 c0             	add    %r8,%rax
ffffffff8010bd48:	0f b6 00             	movzbl (%rax),%eax
ffffffff8010bd4b:	0f b6 c0             	movzbl %al,%eax
ffffffff8010bd4e:	41 89 f8             	mov    %edi,%r8d
ffffffff8010bd51:	89 c6                	mov    %eax,%esi
ffffffff8010bd53:	48 c7 c7 68 08 11 80 	mov    $0xffffffff80110868,%rdi
ffffffff8010bd5a:	b8 00 00 00 00       	mov    $0x0,%eax
ffffffff8010bd5f:	e8 3e f3 ff ff       	callq  ffffffff8010b0a2 <kvprintf>
ffffffff8010bd64:	48 83 45 f8 01       	addq   $0x1,-0x8(%rbp)
ffffffff8010bd69:	48 8b 05 e8 27 01 00 	mov    0x127e8(%rip),%rax        # ffffffff8011e558 <pci_device_cnt>
ffffffff8010bd70:	48 39 45 f8          	cmp    %rax,-0x8(%rbp)
ffffffff8010bd74:	0f 82 bc fe ff ff    	jb     ffffffff8010bc36 <show_pci_devices+0x15>
ffffffff8010bd7a:	48 8b 05 d7 27 01 00 	mov    0x127d7(%rip),%rax        # ffffffff8011e558 <pci_device_cnt>
ffffffff8010bd81:	48 89 c6             	mov    %rax,%rsi
ffffffff8010bd84:	48 c7 c7 b2 08 11 80 	mov    $0xffffffff801108b2,%rdi
ffffffff8010bd8b:	b8 00 00 00 00       	mov    $0x0,%eax
ffffffff8010bd90:	e8 0d f3 ff ff       	callq  ffffffff8010b0a2 <kvprintf>
ffffffff8010bd95:	90                   	nop
ffffffff8010bd96:	c9                   	leaveq 
ffffffff8010bd97:	c3                   	retq   

ffffffff8010bd98 <pmm_init>:
ffffffff8010bd98:	55                   	push   %rbp
ffffffff8010bd99:	48 89 e5             	mov    %rsp,%rbp
ffffffff8010bd9c:	48 83 ec 40          	sub    $0x40,%rsp
ffffffff8010bda0:	48 89 7d c8          	mov    %rdi,-0x38(%rbp)
ffffffff8010bda4:	48 8b 45 c8          	mov    -0x38(%rbp),%rax
ffffffff8010bda8:	48 8b 40 08          	mov    0x8(%rax),%rax
ffffffff8010bdac:	48 89 45 e0          	mov    %rax,-0x20(%rbp)
ffffffff8010bdb0:	48 c7 45 f8 00 00 00 	movq   $0x0,-0x8(%rbp)
ffffffff8010bdb7:	00 
ffffffff8010bdb8:	e9 f5 00 00 00       	jmpq   ffffffff8010beb2 <pmm_init+0x11a>
ffffffff8010bdbd:	48 8b 55 f8          	mov    -0x8(%rbp),%rdx
ffffffff8010bdc1:	48 89 d0             	mov    %rdx,%rax
ffffffff8010bdc4:	48 01 c0             	add    %rax,%rax
ffffffff8010bdc7:	48 01 d0             	add    %rdx,%rax
ffffffff8010bdca:	48 c1 e0 03          	shl    $0x3,%rax
ffffffff8010bdce:	48 89 c2             	mov    %rax,%rdx
ffffffff8010bdd1:	48 8b 45 e0          	mov    -0x20(%rbp),%rax
ffffffff8010bdd5:	48 01 d0             	add    %rdx,%rax
ffffffff8010bdd8:	48 8b 50 08          	mov    0x8(%rax),%rdx
ffffffff8010bddc:	48 8b 05 7d 27 01 00 	mov    0x1277d(%rip),%rax        # ffffffff8011e560 <total_physical_mem>
ffffffff8010bde3:	48 01 d0             	add    %rdx,%rax
ffffffff8010bde6:	48 89 05 73 27 01 00 	mov    %rax,0x12773(%rip)        # ffffffff8011e560 <total_physical_mem>
ffffffff8010bded:	48 8b 55 f8          	mov    -0x8(%rbp),%rdx
ffffffff8010bdf1:	48 89 d0             	mov    %rdx,%rax
ffffffff8010bdf4:	48 01 c0             	add    %rax,%rax
ffffffff8010bdf7:	48 01 d0             	add    %rdx,%rax
ffffffff8010bdfa:	48 c1 e0 03          	shl    $0x3,%rax
ffffffff8010bdfe:	48 89 c2             	mov    %rax,%rdx
ffffffff8010be01:	48 8b 45 e0          	mov    -0x20(%rbp),%rax
ffffffff8010be05:	48 01 d0             	add    %rdx,%rax
ffffffff8010be08:	8b 78 10             	mov    0x10(%rax),%edi
ffffffff8010be0b:	48 8b 55 f8          	mov    -0x8(%rbp),%rdx
ffffffff8010be0f:	48 89 d0             	mov    %rdx,%rax
ffffffff8010be12:	48 01 c0             	add    %rax,%rax
ffffffff8010be15:	48 01 d0             	add    %rdx,%rax
ffffffff8010be18:	48 c1 e0 03          	shl    $0x3,%rax
ffffffff8010be1c:	48 89 c2             	mov    %rax,%rdx
ffffffff8010be1f:	48 8b 45 e0          	mov    -0x20(%rbp),%rax
ffffffff8010be23:	48 01 d0             	add    %rdx,%rax
ffffffff8010be26:	48 8b 70 08          	mov    0x8(%rax),%rsi
ffffffff8010be2a:	48 8b 55 f8          	mov    -0x8(%rbp),%rdx
ffffffff8010be2e:	48 89 d0             	mov    %rdx,%rax
ffffffff8010be31:	48 01 c0             	add    %rax,%rax
ffffffff8010be34:	48 01 d0             	add    %rdx,%rax
ffffffff8010be37:	48 c1 e0 03          	shl    $0x3,%rax
ffffffff8010be3b:	48 89 c2             	mov    %rax,%rdx
ffffffff8010be3e:	48 8b 45 e0          	mov    -0x20(%rbp),%rax
ffffffff8010be42:	48 01 d0             	add    %rdx,%rax
ffffffff8010be45:	48 8b 08             	mov    (%rax),%rcx
ffffffff8010be48:	48 8b 55 f8          	mov    -0x8(%rbp),%rdx
ffffffff8010be4c:	48 89 d0             	mov    %rdx,%rax
ffffffff8010be4f:	48 01 c0             	add    %rax,%rax
ffffffff8010be52:	48 01 d0             	add    %rdx,%rax
ffffffff8010be55:	48 c1 e0 03          	shl    $0x3,%rax
ffffffff8010be59:	48 89 c2             	mov    %rax,%rdx
ffffffff8010be5c:	48 8b 45 e0          	mov    -0x20(%rbp),%rax
ffffffff8010be60:	48 01 d0             	add    %rdx,%rax
ffffffff8010be63:	48 8b 40 08          	mov    0x8(%rax),%rax
ffffffff8010be67:	48 8d 14 01          	lea    (%rcx,%rax,1),%rdx
ffffffff8010be6b:	48 8b 4d f8          	mov    -0x8(%rbp),%rcx
ffffffff8010be6f:	48 89 c8             	mov    %rcx,%rax
ffffffff8010be72:	48 01 c0             	add    %rax,%rax
ffffffff8010be75:	48 01 c8             	add    %rcx,%rax
ffffffff8010be78:	48 c1 e0 03          	shl    $0x3,%rax
ffffffff8010be7c:	48 89 c1             	mov    %rax,%rcx
ffffffff8010be7f:	48 8b 45 e0          	mov    -0x20(%rbp),%rax
ffffffff8010be83:	48 01 c8             	add    %rcx,%rax
ffffffff8010be86:	48 8b 00             	mov    (%rax),%rax
ffffffff8010be89:	41 89 f9             	mov    %edi,%r9d
ffffffff8010be8c:	49 89 f0             	mov    %rsi,%r8
ffffffff8010be8f:	48 89 d1             	mov    %rdx,%rcx
ffffffff8010be92:	48 89 c2             	mov    %rax,%rdx
ffffffff8010be95:	48 c7 c6 d0 08 11 80 	mov    $0xffffffff801108d0,%rsi
ffffffff8010be9c:	48 c7 c7 ef 08 11 80 	mov    $0xffffffff801108ef,%rdi
ffffffff8010bea3:	b8 00 00 00 00       	mov    $0x0,%eax
ffffffff8010bea8:	e8 00 f0 ff ff       	callq  ffffffff8010aead <kprintf>
ffffffff8010bead:	48 83 45 f8 01       	addq   $0x1,-0x8(%rbp)
ffffffff8010beb2:	48 8b 45 c8          	mov    -0x38(%rbp),%rax
ffffffff8010beb6:	48 8b 40 10          	mov    0x10(%rax),%rax
ffffffff8010beba:	48 39 45 f8          	cmp    %rax,-0x8(%rbp)
ffffffff8010bebe:	0f 82 f9 fe ff ff    	jb     ffffffff8010bdbd <pmm_init+0x25>
ffffffff8010bec4:	48 8b 05 95 26 01 00 	mov    0x12695(%rip),%rax        # ffffffff8011e560 <total_physical_mem>
ffffffff8010becb:	48 c1 e8 0f          	shr    $0xf,%rax
ffffffff8010becf:	48 89 45 d8          	mov    %rax,-0x28(%rbp)
ffffffff8010bed3:	48 c7 45 f0 00 00 00 	movq   $0x0,-0x10(%rbp)
ffffffff8010beda:	00 
ffffffff8010bedb:	e9 a2 00 00 00       	jmpq   ffffffff8010bf82 <pmm_init+0x1ea>
ffffffff8010bee0:	48 8b 55 f0          	mov    -0x10(%rbp),%rdx
ffffffff8010bee4:	48 89 d0             	mov    %rdx,%rax
ffffffff8010bee7:	48 01 c0             	add    %rax,%rax
ffffffff8010beea:	48 01 d0             	add    %rdx,%rax
ffffffff8010beed:	48 c1 e0 03          	shl    $0x3,%rax
ffffffff8010bef1:	48 89 c2             	mov    %rax,%rdx
ffffffff8010bef4:	48 8b 45 e0          	mov    -0x20(%rbp),%rax
ffffffff8010bef8:	48 01 d0             	add    %rdx,%rax
ffffffff8010befb:	8b 40 10             	mov    0x10(%rax),%eax
ffffffff8010befe:	83 f8 01             	cmp    $0x1,%eax
ffffffff8010bf01:	75 7a                	jne    ffffffff8010bf7d <pmm_init+0x1e5>
ffffffff8010bf03:	48 8b 55 f0          	mov    -0x10(%rbp),%rdx
ffffffff8010bf07:	48 89 d0             	mov    %rdx,%rax
ffffffff8010bf0a:	48 01 c0             	add    %rax,%rax
ffffffff8010bf0d:	48 01 d0             	add    %rdx,%rax
ffffffff8010bf10:	48 c1 e0 03          	shl    $0x3,%rax
ffffffff8010bf14:	48 89 c2             	mov    %rax,%rdx
ffffffff8010bf17:	48 8b 45 e0          	mov    -0x20(%rbp),%rax
ffffffff8010bf1b:	48 01 d0             	add    %rdx,%rax
ffffffff8010bf1e:	48 8b 40 08          	mov    0x8(%rax),%rax
ffffffff8010bf22:	48 39 45 d8          	cmp    %rax,-0x28(%rbp)
ffffffff8010bf26:	77 55                	ja     ffffffff8010bf7d <pmm_init+0x1e5>
ffffffff8010bf28:	48 8b 55 f0          	mov    -0x10(%rbp),%rdx
ffffffff8010bf2c:	48 89 d0             	mov    %rdx,%rax
ffffffff8010bf2f:	48 01 c0             	add    %rax,%rax
ffffffff8010bf32:	48 01 d0             	add    %rdx,%rax
ffffffff8010bf35:	48 c1 e0 03          	shl    $0x3,%rax
ffffffff8010bf39:	48 89 c2             	mov    %rax,%rdx
ffffffff8010bf3c:	48 8b 45 e0          	mov    -0x20(%rbp),%rax
ffffffff8010bf40:	48 01 d0             	add    %rdx,%rax
ffffffff8010bf43:	48 8b 00             	mov    (%rax),%rax
ffffffff8010bf46:	48 ba 00 00 00 00 00 	movabs $0xffff800000000000,%rdx
ffffffff8010bf4d:	80 ff ff 
ffffffff8010bf50:	48 01 d0             	add    %rdx,%rax
ffffffff8010bf53:	48 89 05 0e 26 01 00 	mov    %rax,0x1260e(%rip)        # ffffffff8011e568 <bitmap>
ffffffff8010bf5a:	48 8b 45 d8          	mov    -0x28(%rbp),%rax
ffffffff8010bf5e:	48 c1 e8 03          	shr    $0x3,%rax
ffffffff8010bf62:	48 89 c2             	mov    %rax,%rdx
ffffffff8010bf65:	48 8b 05 fc 25 01 00 	mov    0x125fc(%rip),%rax        # ffffffff8011e568 <bitmap>
ffffffff8010bf6c:	48 c7 c6 ff ff ff ff 	mov    $0xffffffffffffffff,%rsi
ffffffff8010bf73:	48 89 c7             	mov    %rax,%rdi
ffffffff8010bf76:	e8 7f ec ff ff       	callq  ffffffff8010abfa <memset64>
ffffffff8010bf7b:	eb 17                	jmp    ffffffff8010bf94 <pmm_init+0x1fc>
ffffffff8010bf7d:	48 83 45 f0 01       	addq   $0x1,-0x10(%rbp)
ffffffff8010bf82:	48 8b 45 c8          	mov    -0x38(%rbp),%rax
ffffffff8010bf86:	48 8b 40 10          	mov    0x10(%rax),%rax
ffffffff8010bf8a:	48 39 45 f0          	cmp    %rax,-0x10(%rbp)
ffffffff8010bf8e:	0f 82 4c ff ff ff    	jb     ffffffff8010bee0 <pmm_init+0x148>
ffffffff8010bf94:	48 c7 45 e8 00 00 00 	movq   $0x0,-0x18(%rbp)
ffffffff8010bf9b:	00 
ffffffff8010bf9c:	eb 70                	jmp    ffffffff8010c00e <pmm_init+0x276>
ffffffff8010bf9e:	48 8b 55 e8          	mov    -0x18(%rbp),%rdx
ffffffff8010bfa2:	48 89 d0             	mov    %rdx,%rax
ffffffff8010bfa5:	48 01 c0             	add    %rax,%rax
ffffffff8010bfa8:	48 01 d0             	add    %rdx,%rax
ffffffff8010bfab:	48 c1 e0 03          	shl    $0x3,%rax
ffffffff8010bfaf:	48 89 c2             	mov    %rax,%rdx
ffffffff8010bfb2:	48 8b 45 e0          	mov    -0x20(%rbp),%rax
ffffffff8010bfb6:	48 01 d0             	add    %rdx,%rax
ffffffff8010bfb9:	8b 40 10             	mov    0x10(%rax),%eax
ffffffff8010bfbc:	83 f8 01             	cmp    $0x1,%eax
ffffffff8010bfbf:	75 48                	jne    ffffffff8010c009 <pmm_init+0x271>
ffffffff8010bfc1:	48 8b 55 e8          	mov    -0x18(%rbp),%rdx
ffffffff8010bfc5:	48 89 d0             	mov    %rdx,%rax
ffffffff8010bfc8:	48 01 c0             	add    %rax,%rax
ffffffff8010bfcb:	48 01 d0             	add    %rdx,%rax
ffffffff8010bfce:	48 c1 e0 03          	shl    $0x3,%rax
ffffffff8010bfd2:	48 89 c2             	mov    %rax,%rdx
ffffffff8010bfd5:	48 8b 45 e0          	mov    -0x20(%rbp),%rax
ffffffff8010bfd9:	48 01 d0             	add    %rdx,%rax
ffffffff8010bfdc:	48 8b 50 08          	mov    0x8(%rax),%rdx
ffffffff8010bfe0:	48 8b 4d e8          	mov    -0x18(%rbp),%rcx
ffffffff8010bfe4:	48 89 c8             	mov    %rcx,%rax
ffffffff8010bfe7:	48 01 c0             	add    %rax,%rax
ffffffff8010bfea:	48 01 c8             	add    %rcx,%rax
ffffffff8010bfed:	48 c1 e0 03          	shl    $0x3,%rax
ffffffff8010bff1:	48 89 c1             	mov    %rax,%rcx
ffffffff8010bff4:	48 8b 45 e0          	mov    -0x20(%rbp),%rax
ffffffff8010bff8:	48 01 c8             	add    %rcx,%rax
ffffffff8010bffb:	48 8b 00             	mov    (%rax),%rax
ffffffff8010bffe:	48 89 d6             	mov    %rdx,%rsi
ffffffff8010c001:	48 89 c7             	mov    %rax,%rdi
ffffffff8010c004:	e8 1e 03 00 00       	callq  ffffffff8010c327 <bm_free_region>
ffffffff8010c009:	48 83 45 e8 01       	addq   $0x1,-0x18(%rbp)
ffffffff8010c00e:	48 8b 45 c8          	mov    -0x38(%rbp),%rax
ffffffff8010c012:	48 8b 40 10          	mov    0x10(%rax),%rax
ffffffff8010c016:	48 39 45 e8          	cmp    %rax,-0x18(%rbp)
ffffffff8010c01a:	72 82                	jb     ffffffff8010bf9e <pmm_init+0x206>
ffffffff8010c01c:	48 8b 05 45 25 01 00 	mov    0x12545(%rip),%rax        # ffffffff8011e568 <bitmap>
ffffffff8010c023:	48 89 c2             	mov    %rax,%rdx
ffffffff8010c026:	48 b8 00 00 00 00 00 	movabs $0x800000000000,%rax
ffffffff8010c02d:	80 00 00 
ffffffff8010c030:	48 01 c2             	add    %rax,%rdx
ffffffff8010c033:	48 8b 45 d8          	mov    -0x28(%rbp),%rax
ffffffff8010c037:	48 89 c6             	mov    %rax,%rsi
ffffffff8010c03a:	48 89 d7             	mov    %rdx,%rdi
ffffffff8010c03d:	e8 59 02 00 00       	callq  ffffffff8010c29b <bm_alloc_region>
ffffffff8010c042:	be 00 00 10 00       	mov    $0x100000,%esi
ffffffff8010c047:	bf 00 00 00 00       	mov    $0x0,%edi
ffffffff8010c04c:	e8 4a 02 00 00       	callq  ffffffff8010c29b <bm_alloc_region>
ffffffff8010c051:	48 8b 05 08 25 01 00 	mov    0x12508(%rip),%rax        # ffffffff8011e560 <total_physical_mem>
ffffffff8010c058:	48 89 c2             	mov    %rax,%rdx
ffffffff8010c05b:	48 c7 c6 f5 08 11 80 	mov    $0xffffffff801108f5,%rsi
ffffffff8010c062:	48 c7 c7 ef 08 11 80 	mov    $0xffffffff801108ef,%rdi
ffffffff8010c069:	b8 00 00 00 00       	mov    $0x0,%eax
ffffffff8010c06e:	e8 3a ee ff ff       	callq  ffffffff8010aead <kprintf>
ffffffff8010c073:	90                   	nop
ffffffff8010c074:	c9                   	leaveq 
ffffffff8010c075:	c3                   	retq   

ffffffff8010c076 <pmm_alloc>:
ffffffff8010c076:	55                   	push   %rbp
ffffffff8010c077:	48 89 e5             	mov    %rsp,%rbp
ffffffff8010c07a:	48 83 ec 30          	sub    $0x30,%rsp
ffffffff8010c07e:	48 89 7d d8          	mov    %rdi,-0x28(%rbp)
ffffffff8010c082:	b8 00 00 00 00       	mov    $0x0,%eax
ffffffff8010c087:	e8 29 03 00 00       	callq  ffffffff8010c3b5 <bm_first_free>
ffffffff8010c08c:	c1 e0 0c             	shl    $0xc,%eax
ffffffff8010c08f:	48 98                	cltq   
ffffffff8010c091:	48 89 45 f8          	mov    %rax,-0x8(%rbp)
ffffffff8010c095:	48 c7 45 f0 00 00 00 	movq   $0x0,-0x10(%rbp)
ffffffff8010c09c:	00 
ffffffff8010c09d:	b8 00 00 00 00       	mov    $0x0,%eax
ffffffff8010c0a2:	e8 0e 03 00 00       	callq  ffffffff8010c3b5 <bm_first_free>
ffffffff8010c0a7:	48 98                	cltq   
ffffffff8010c0a9:	48 89 45 e8          	mov    %rax,-0x18(%rbp)
ffffffff8010c0ad:	e9 eb 00 00 00       	jmpq   ffffffff8010c19d <pmm_alloc+0x127>
ffffffff8010c0b2:	48 8b 15 af 24 01 00 	mov    0x124af(%rip),%rdx        # ffffffff8011e568 <bitmap>
ffffffff8010c0b9:	48 8b 45 e8          	mov    -0x18(%rbp),%rax
ffffffff8010c0bd:	48 c1 e8 03          	shr    $0x3,%rax
ffffffff8010c0c1:	48 01 d0             	add    %rdx,%rax
ffffffff8010c0c4:	0f b6 00             	movzbl (%rax),%eax
ffffffff8010c0c7:	0f b6 d0             	movzbl %al,%edx
ffffffff8010c0ca:	48 8b 45 e8          	mov    -0x18(%rbp),%rax
ffffffff8010c0ce:	83 e0 07             	and    $0x7,%eax
ffffffff8010c0d1:	89 c1                	mov    %eax,%ecx
ffffffff8010c0d3:	d3 fa                	sar    %cl,%edx
ffffffff8010c0d5:	89 d0                	mov    %edx,%eax
ffffffff8010c0d7:	83 e0 01             	and    $0x1,%eax
ffffffff8010c0da:	85 c0                	test   %eax,%eax
ffffffff8010c0dc:	74 1d                	je     ffffffff8010c0fb <pmm_alloc+0x85>
ffffffff8010c0de:	48 8b 45 f0          	mov    -0x10(%rbp),%rax
ffffffff8010c0e2:	48 83 c0 01          	add    $0x1,%rax
ffffffff8010c0e6:	48 c1 e0 0c          	shl    $0xc,%rax
ffffffff8010c0ea:	48 01 45 f8          	add    %rax,-0x8(%rbp)
ffffffff8010c0ee:	48 c7 45 f0 00 00 00 	movq   $0x0,-0x10(%rbp)
ffffffff8010c0f5:	00 
ffffffff8010c0f6:	e9 9d 00 00 00       	jmpq   ffffffff8010c198 <pmm_alloc+0x122>
ffffffff8010c0fb:	48 83 45 f0 01       	addq   $0x1,-0x10(%rbp)
ffffffff8010c100:	48 8b 45 f0          	mov    -0x10(%rbp),%rax
ffffffff8010c104:	48 3b 45 d8          	cmp    -0x28(%rbp),%rax
ffffffff8010c108:	0f 85 8a 00 00 00    	jne    ffffffff8010c198 <pmm_alloc+0x122>
ffffffff8010c10e:	48 c7 45 e0 00 00 00 	movq   $0x0,-0x20(%rbp)
ffffffff8010c115:	00 
ffffffff8010c116:	eb 70                	jmp    ffffffff8010c188 <pmm_alloc+0x112>
ffffffff8010c118:	48 8b 15 49 24 01 00 	mov    0x12449(%rip),%rdx        # ffffffff8011e568 <bitmap>
ffffffff8010c11f:	48 8b 45 f8          	mov    -0x8(%rbp),%rax
ffffffff8010c123:	48 c1 e8 0c          	shr    $0xc,%rax
ffffffff8010c127:	48 89 c1             	mov    %rax,%rcx
ffffffff8010c12a:	48 8b 45 e0          	mov    -0x20(%rbp),%rax
ffffffff8010c12e:	48 01 c8             	add    %rcx,%rax
ffffffff8010c131:	48 c1 e8 03          	shr    $0x3,%rax
ffffffff8010c135:	48 01 d0             	add    %rdx,%rax
ffffffff8010c138:	0f b6 00             	movzbl (%rax),%eax
ffffffff8010c13b:	89 c6                	mov    %eax,%esi
ffffffff8010c13d:	48 8b 45 f8          	mov    -0x8(%rbp),%rax
ffffffff8010c141:	48 c1 e8 0c          	shr    $0xc,%rax
ffffffff8010c145:	89 c2                	mov    %eax,%edx
ffffffff8010c147:	48 8b 45 e0          	mov    -0x20(%rbp),%rax
ffffffff8010c14b:	01 d0                	add    %edx,%eax
ffffffff8010c14d:	83 e0 07             	and    $0x7,%eax
ffffffff8010c150:	ba 01 00 00 00       	mov    $0x1,%edx
ffffffff8010c155:	89 c1                	mov    %eax,%ecx
ffffffff8010c157:	d3 e2                	shl    %cl,%edx
ffffffff8010c159:	89 d0                	mov    %edx,%eax
ffffffff8010c15b:	09 c6                	or     %eax,%esi
ffffffff8010c15d:	89 f1                	mov    %esi,%ecx
ffffffff8010c15f:	48 8b 15 02 24 01 00 	mov    0x12402(%rip),%rdx        # ffffffff8011e568 <bitmap>
ffffffff8010c166:	48 8b 45 f8          	mov    -0x8(%rbp),%rax
ffffffff8010c16a:	48 c1 e8 0c          	shr    $0xc,%rax
ffffffff8010c16e:	48 89 c6             	mov    %rax,%rsi
ffffffff8010c171:	48 8b 45 e0          	mov    -0x20(%rbp),%rax
ffffffff8010c175:	48 01 f0             	add    %rsi,%rax
ffffffff8010c178:	48 c1 e8 03          	shr    $0x3,%rax
ffffffff8010c17c:	48 01 d0             	add    %rdx,%rax
ffffffff8010c17f:	89 ca                	mov    %ecx,%edx
ffffffff8010c181:	88 10                	mov    %dl,(%rax)
ffffffff8010c183:	48 83 45 e0 01       	addq   $0x1,-0x20(%rbp)
ffffffff8010c188:	48 8b 45 e0          	mov    -0x20(%rbp),%rax
ffffffff8010c18c:	48 3b 45 f0          	cmp    -0x10(%rbp),%rax
ffffffff8010c190:	72 86                	jb     ffffffff8010c118 <pmm_alloc+0xa2>
ffffffff8010c192:	48 8b 45 f8          	mov    -0x8(%rbp),%rax
ffffffff8010c196:	eb 1f                	jmp    ffffffff8010c1b7 <pmm_alloc+0x141>
ffffffff8010c198:	48 83 45 e8 01       	addq   $0x1,-0x18(%rbp)
ffffffff8010c19d:	48 8b 05 bc 23 01 00 	mov    0x123bc(%rip),%rax        # ffffffff8011e560 <total_physical_mem>
ffffffff8010c1a4:	48 c1 e8 0c          	shr    $0xc,%rax
ffffffff8010c1a8:	48 39 45 e8          	cmp    %rax,-0x18(%rbp)
ffffffff8010c1ac:	0f 82 00 ff ff ff    	jb     ffffffff8010c0b2 <pmm_alloc+0x3c>
ffffffff8010c1b2:	b8 00 00 00 00       	mov    $0x0,%eax
ffffffff8010c1b7:	c9                   	leaveq 
ffffffff8010c1b8:	c3                   	retq   

ffffffff8010c1b9 <pmm_calloc>:
ffffffff8010c1b9:	55                   	push   %rbp
ffffffff8010c1ba:	48 89 e5             	mov    %rsp,%rbp
ffffffff8010c1bd:	48 83 ec 20          	sub    $0x20,%rsp
ffffffff8010c1c1:	48 89 7d e8          	mov    %rdi,-0x18(%rbp)
ffffffff8010c1c5:	48 8b 45 e8          	mov    -0x18(%rbp),%rax
ffffffff8010c1c9:	48 89 c7             	mov    %rax,%rdi
ffffffff8010c1cc:	e8 a5 fe ff ff       	callq  ffffffff8010c076 <pmm_alloc>
ffffffff8010c1d1:	48 89 45 f8          	mov    %rax,-0x8(%rbp)
ffffffff8010c1d5:	48 8b 45 e8          	mov    -0x18(%rbp),%rax
ffffffff8010c1d9:	48 c1 e0 0c          	shl    $0xc,%rax
ffffffff8010c1dd:	48 c1 e8 03          	shr    $0x3,%rax
ffffffff8010c1e1:	48 b9 00 00 00 00 00 	movabs $0xffff800000000000,%rcx
ffffffff8010c1e8:	80 ff ff 
ffffffff8010c1eb:	48 8b 55 f8          	mov    -0x8(%rbp),%rdx
ffffffff8010c1ef:	48 01 ca             	add    %rcx,%rdx
ffffffff8010c1f2:	48 89 d1             	mov    %rdx,%rcx
ffffffff8010c1f5:	48 89 c2             	mov    %rax,%rdx
ffffffff8010c1f8:	be 00 00 00 00       	mov    $0x0,%esi
ffffffff8010c1fd:	48 89 cf             	mov    %rcx,%rdi
ffffffff8010c200:	e8 f5 e9 ff ff       	callq  ffffffff8010abfa <memset64>
ffffffff8010c205:	48 8b 45 f8          	mov    -0x8(%rbp),%rax
ffffffff8010c209:	c9                   	leaveq 
ffffffff8010c20a:	c3                   	retq   

ffffffff8010c20b <pmm_free>:
ffffffff8010c20b:	55                   	push   %rbp
ffffffff8010c20c:	48 89 e5             	mov    %rsp,%rbp
ffffffff8010c20f:	48 83 ec 20          	sub    $0x20,%rsp
ffffffff8010c213:	48 89 7d e8          	mov    %rdi,-0x18(%rbp)
ffffffff8010c217:	48 89 75 e0          	mov    %rsi,-0x20(%rbp)
ffffffff8010c21b:	48 8b 45 e8          	mov    -0x18(%rbp),%rax
ffffffff8010c21f:	48 05 ff 0f 00 00    	add    $0xfff,%rax
ffffffff8010c225:	48 c1 e8 0c          	shr    $0xc,%rax
ffffffff8010c229:	48 89 45 f8          	mov    %rax,-0x8(%rbp)
ffffffff8010c22d:	eb 4a                	jmp    ffffffff8010c279 <pmm_free+0x6e>
ffffffff8010c22f:	48 8b 15 32 23 01 00 	mov    0x12332(%rip),%rdx        # ffffffff8011e568 <bitmap>
ffffffff8010c236:	48 8b 45 f8          	mov    -0x8(%rbp),%rax
ffffffff8010c23a:	48 c1 e8 03          	shr    $0x3,%rax
ffffffff8010c23e:	48 01 d0             	add    %rdx,%rax
ffffffff8010c241:	0f b6 00             	movzbl (%rax),%eax
ffffffff8010c244:	89 c6                	mov    %eax,%esi
ffffffff8010c246:	48 8b 45 f8          	mov    -0x8(%rbp),%rax
ffffffff8010c24a:	83 e0 07             	and    $0x7,%eax
ffffffff8010c24d:	ba 01 00 00 00       	mov    $0x1,%edx
ffffffff8010c252:	89 c1                	mov    %eax,%ecx
ffffffff8010c254:	d3 e2                	shl    %cl,%edx
ffffffff8010c256:	89 d0                	mov    %edx,%eax
ffffffff8010c258:	f7 d0                	not    %eax
ffffffff8010c25a:	21 c6                	and    %eax,%esi
ffffffff8010c25c:	89 f1                	mov    %esi,%ecx
ffffffff8010c25e:	48 8b 15 03 23 01 00 	mov    0x12303(%rip),%rdx        # ffffffff8011e568 <bitmap>
ffffffff8010c265:	48 8b 45 f8          	mov    -0x8(%rbp),%rax
ffffffff8010c269:	48 c1 e8 03          	shr    $0x3,%rax
ffffffff8010c26d:	48 01 d0             	add    %rdx,%rax
ffffffff8010c270:	89 ca                	mov    %ecx,%edx
ffffffff8010c272:	88 10                	mov    %dl,(%rax)
ffffffff8010c274:	48 83 45 f8 01       	addq   $0x1,-0x8(%rbp)
ffffffff8010c279:	48 8b 45 e8          	mov    -0x18(%rbp),%rax
ffffffff8010c27d:	48 05 ff 0f 00 00    	add    $0xfff,%rax
ffffffff8010c283:	48 c1 e8 0c          	shr    $0xc,%rax
ffffffff8010c287:	48 89 c2             	mov    %rax,%rdx
ffffffff8010c28a:	48 8b 45 e0          	mov    -0x20(%rbp),%rax
ffffffff8010c28e:	48 01 d0             	add    %rdx,%rax
ffffffff8010c291:	48 39 45 f8          	cmp    %rax,-0x8(%rbp)
ffffffff8010c295:	72 98                	jb     ffffffff8010c22f <pmm_free+0x24>
ffffffff8010c297:	90                   	nop
ffffffff8010c298:	90                   	nop
ffffffff8010c299:	c9                   	leaveq 
ffffffff8010c29a:	c3                   	retq   

ffffffff8010c29b <bm_alloc_region>:
ffffffff8010c29b:	55                   	push   %rbp
ffffffff8010c29c:	48 89 e5             	mov    %rsp,%rbp
ffffffff8010c29f:	48 83 ec 20          	sub    $0x20,%rsp
ffffffff8010c2a3:	48 89 7d e8          	mov    %rdi,-0x18(%rbp)
ffffffff8010c2a7:	48 89 75 e0          	mov    %rsi,-0x20(%rbp)
ffffffff8010c2ab:	48 8b 45 e8          	mov    -0x18(%rbp),%rax
ffffffff8010c2af:	48 c1 e8 0c          	shr    $0xc,%rax
ffffffff8010c2b3:	48 89 45 f8          	mov    %rax,-0x8(%rbp)
ffffffff8010c2b7:	eb 48                	jmp    ffffffff8010c301 <bm_alloc_region+0x66>
ffffffff8010c2b9:	48 8b 15 a8 22 01 00 	mov    0x122a8(%rip),%rdx        # ffffffff8011e568 <bitmap>
ffffffff8010c2c0:	48 8b 45 f8          	mov    -0x8(%rbp),%rax
ffffffff8010c2c4:	48 c1 e8 03          	shr    $0x3,%rax
ffffffff8010c2c8:	48 01 d0             	add    %rdx,%rax
ffffffff8010c2cb:	0f b6 00             	movzbl (%rax),%eax
ffffffff8010c2ce:	89 c6                	mov    %eax,%esi
ffffffff8010c2d0:	48 8b 45 f8          	mov    -0x8(%rbp),%rax
ffffffff8010c2d4:	83 e0 07             	and    $0x7,%eax
ffffffff8010c2d7:	ba 01 00 00 00       	mov    $0x1,%edx
ffffffff8010c2dc:	89 c1                	mov    %eax,%ecx
ffffffff8010c2de:	d3 e2                	shl    %cl,%edx
ffffffff8010c2e0:	89 d0                	mov    %edx,%eax
ffffffff8010c2e2:	09 c6                	or     %eax,%esi
ffffffff8010c2e4:	89 f1                	mov    %esi,%ecx
ffffffff8010c2e6:	48 8b 15 7b 22 01 00 	mov    0x1227b(%rip),%rdx        # ffffffff8011e568 <bitmap>
ffffffff8010c2ed:	48 8b 45 f8          	mov    -0x8(%rbp),%rax
ffffffff8010c2f1:	48 c1 e8 03          	shr    $0x3,%rax
ffffffff8010c2f5:	48 01 d0             	add    %rdx,%rax
ffffffff8010c2f8:	89 ca                	mov    %ecx,%edx
ffffffff8010c2fa:	88 10                	mov    %dl,(%rax)
ffffffff8010c2fc:	48 83 45 f8 01       	addq   $0x1,-0x8(%rbp)
ffffffff8010c301:	48 8b 45 e8          	mov    -0x18(%rbp),%rax
ffffffff8010c305:	48 c1 e8 0c          	shr    $0xc,%rax
ffffffff8010c309:	48 89 c2             	mov    %rax,%rdx
ffffffff8010c30c:	48 8b 45 e0          	mov    -0x20(%rbp),%rax
ffffffff8010c310:	48 05 ff 0f 00 00    	add    $0xfff,%rax
ffffffff8010c316:	48 c1 e8 0c          	shr    $0xc,%rax
ffffffff8010c31a:	48 01 d0             	add    %rdx,%rax
ffffffff8010c31d:	48 39 45 f8          	cmp    %rax,-0x8(%rbp)
ffffffff8010c321:	72 96                	jb     ffffffff8010c2b9 <bm_alloc_region+0x1e>
ffffffff8010c323:	90                   	nop
ffffffff8010c324:	90                   	nop
ffffffff8010c325:	c9                   	leaveq 
ffffffff8010c326:	c3                   	retq   

ffffffff8010c327 <bm_free_region>:
ffffffff8010c327:	55                   	push   %rbp
ffffffff8010c328:	48 89 e5             	mov    %rsp,%rbp
ffffffff8010c32b:	48 83 ec 20          	sub    $0x20,%rsp
ffffffff8010c32f:	48 89 7d e8          	mov    %rdi,-0x18(%rbp)
ffffffff8010c333:	48 89 75 e0          	mov    %rsi,-0x20(%rbp)
ffffffff8010c337:	48 8b 45 e8          	mov    -0x18(%rbp),%rax
ffffffff8010c33b:	48 c1 e8 0c          	shr    $0xc,%rax
ffffffff8010c33f:	48 89 45 f8          	mov    %rax,-0x8(%rbp)
ffffffff8010c343:	eb 4a                	jmp    ffffffff8010c38f <bm_free_region+0x68>
ffffffff8010c345:	48 8b 15 1c 22 01 00 	mov    0x1221c(%rip),%rdx        # ffffffff8011e568 <bitmap>
ffffffff8010c34c:	48 8b 45 f8          	mov    -0x8(%rbp),%rax
ffffffff8010c350:	48 c1 e8 03          	shr    $0x3,%rax
ffffffff8010c354:	48 01 d0             	add    %rdx,%rax
ffffffff8010c357:	0f b6 00             	movzbl (%rax),%eax
ffffffff8010c35a:	89 c6                	mov    %eax,%esi
ffffffff8010c35c:	48 8b 45 f8          	mov    -0x8(%rbp),%rax
ffffffff8010c360:	83 e0 07             	and    $0x7,%eax
ffffffff8010c363:	ba 01 00 00 00       	mov    $0x1,%edx
ffffffff8010c368:	89 c1                	mov    %eax,%ecx
ffffffff8010c36a:	d3 e2                	shl    %cl,%edx
ffffffff8010c36c:	89 d0                	mov    %edx,%eax
ffffffff8010c36e:	f7 d0                	not    %eax
ffffffff8010c370:	21 c6                	and    %eax,%esi
ffffffff8010c372:	89 f1                	mov    %esi,%ecx
ffffffff8010c374:	48 8b 15 ed 21 01 00 	mov    0x121ed(%rip),%rdx        # ffffffff8011e568 <bitmap>
ffffffff8010c37b:	48 8b 45 f8          	mov    -0x8(%rbp),%rax
ffffffff8010c37f:	48 c1 e8 03          	shr    $0x3,%rax
ffffffff8010c383:	48 01 d0             	add    %rdx,%rax
ffffffff8010c386:	89 ca                	mov    %ecx,%edx
ffffffff8010c388:	88 10                	mov    %dl,(%rax)
ffffffff8010c38a:	48 83 45 f8 01       	addq   $0x1,-0x8(%rbp)
ffffffff8010c38f:	48 8b 45 e8          	mov    -0x18(%rbp),%rax
ffffffff8010c393:	48 c1 e8 0c          	shr    $0xc,%rax
ffffffff8010c397:	48 89 c2             	mov    %rax,%rdx
ffffffff8010c39a:	48 8b 45 e0          	mov    -0x20(%rbp),%rax
ffffffff8010c39e:	48 05 ff 0f 00 00    	add    $0xfff,%rax
ffffffff8010c3a4:	48 c1 e8 0c          	shr    $0xc,%rax
ffffffff8010c3a8:	48 01 d0             	add    %rdx,%rax
ffffffff8010c3ab:	48 39 45 f8          	cmp    %rax,-0x8(%rbp)
ffffffff8010c3af:	72 94                	jb     ffffffff8010c345 <bm_free_region+0x1e>
ffffffff8010c3b1:	90                   	nop
ffffffff8010c3b2:	90                   	nop
ffffffff8010c3b3:	c9                   	leaveq 
ffffffff8010c3b4:	c3                   	retq   

ffffffff8010c3b5 <bm_first_free>:
ffffffff8010c3b5:	55                   	push   %rbp
ffffffff8010c3b6:	48 89 e5             	mov    %rsp,%rbp
ffffffff8010c3b9:	48 83 ec 10          	sub    $0x10,%rsp
ffffffff8010c3bd:	48 c7 45 f8 00 00 00 	movq   $0x0,-0x8(%rbp)
ffffffff8010c3c4:	00 
ffffffff8010c3c5:	eb 37                	jmp    ffffffff8010c3fe <bm_first_free+0x49>
ffffffff8010c3c7:	48 8b 15 9a 21 01 00 	mov    0x1219a(%rip),%rdx        # ffffffff8011e568 <bitmap>
ffffffff8010c3ce:	48 8b 45 f8          	mov    -0x8(%rbp),%rax
ffffffff8010c3d2:	48 c1 e8 03          	shr    $0x3,%rax
ffffffff8010c3d6:	48 01 d0             	add    %rdx,%rax
ffffffff8010c3d9:	0f b6 00             	movzbl (%rax),%eax
ffffffff8010c3dc:	0f b6 d0             	movzbl %al,%edx
ffffffff8010c3df:	48 8b 45 f8          	mov    -0x8(%rbp),%rax
ffffffff8010c3e3:	83 e0 07             	and    $0x7,%eax
ffffffff8010c3e6:	89 c1                	mov    %eax,%ecx
ffffffff8010c3e8:	d3 fa                	sar    %cl,%edx
ffffffff8010c3ea:	89 d0                	mov    %edx,%eax
ffffffff8010c3ec:	83 e0 01             	and    $0x1,%eax
ffffffff8010c3ef:	85 c0                	test   %eax,%eax
ffffffff8010c3f1:	75 06                	jne    ffffffff8010c3f9 <bm_first_free+0x44>
ffffffff8010c3f3:	48 8b 45 f8          	mov    -0x8(%rbp),%rax
ffffffff8010c3f7:	eb 1b                	jmp    ffffffff8010c414 <bm_first_free+0x5f>
ffffffff8010c3f9:	48 83 45 f8 01       	addq   $0x1,-0x8(%rbp)
ffffffff8010c3fe:	48 8b 05 5b 21 01 00 	mov    0x1215b(%rip),%rax        # ffffffff8011e560 <total_physical_mem>
ffffffff8010c405:	48 c1 e8 0c          	shr    $0xc,%rax
ffffffff8010c409:	48 39 45 f8          	cmp    %rax,-0x8(%rbp)
ffffffff8010c40d:	72 b8                	jb     ffffffff8010c3c7 <bm_first_free+0x12>
ffffffff8010c40f:	b8 ff ff ff ff       	mov    $0xffffffff,%eax
ffffffff8010c414:	c9                   	leaveq 
ffffffff8010c415:	c3                   	retq   

ffffffff8010c416 <ps2_keyboard_handler>:
ffffffff8010c416:	55                   	push   %rbp
ffffffff8010c417:	48 89 e5             	mov    %rsp,%rbp
ffffffff8010c41a:	48 83 ec 20          	sub    $0x20,%rsp
ffffffff8010c41e:	48 89 7d e8          	mov    %rdi,-0x18(%rbp)
ffffffff8010c422:	bf 60 00 00 00       	mov    $0x60,%edi
ffffffff8010c427:	e8 be 5d ff ff       	callq  ffffffff801021ea <inb>
ffffffff8010c42c:	88 45 ff             	mov    %al,-0x1(%rbp)
ffffffff8010c42f:	0f b6 45 ff          	movzbl -0x1(%rbp),%eax
ffffffff8010c433:	3d aa 00 00 00       	cmp    $0xaa,%eax
ffffffff8010c438:	74 27                	je     ffffffff8010c461 <ps2_keyboard_handler+0x4b>
ffffffff8010c43a:	3d aa 00 00 00       	cmp    $0xaa,%eax
ffffffff8010c43f:	7f 4a                	jg     ffffffff8010c48b <ps2_keyboard_handler+0x75>
ffffffff8010c441:	83 f8 2a             	cmp    $0x2a,%eax
ffffffff8010c444:	74 27                	je     ffffffff8010c46d <ps2_keyboard_handler+0x57>
ffffffff8010c446:	83 f8 2a             	cmp    $0x2a,%eax
ffffffff8010c449:	7f 40                	jg     ffffffff8010c48b <ps2_keyboard_handler+0x75>
ffffffff8010c44b:	83 f8 1c             	cmp    $0x1c,%eax
ffffffff8010c44e:	74 35                	je     ffffffff8010c485 <ps2_keyboard_handler+0x6f>
ffffffff8010c450:	83 f8 1c             	cmp    $0x1c,%eax
ffffffff8010c453:	7f 36                	jg     ffffffff8010c48b <ps2_keyboard_handler+0x75>
ffffffff8010c455:	83 f8 0e             	cmp    $0xe,%eax
ffffffff8010c458:	74 25                	je     ffffffff8010c47f <ps2_keyboard_handler+0x69>
ffffffff8010c45a:	83 f8 0f             	cmp    $0xf,%eax
ffffffff8010c45d:	74 1a                	je     ffffffff8010c479 <ps2_keyboard_handler+0x63>
ffffffff8010c45f:	eb 2a                	jmp    ffffffff8010c48b <ps2_keyboard_handler+0x75>
ffffffff8010c461:	c7 05 05 21 01 00 00 	movl   $0x0,0x12105(%rip)        # ffffffff8011e570 <up_key>
ffffffff8010c468:	00 00 00 
ffffffff8010c46b:	eb 52                	jmp    ffffffff8010c4bf <ps2_keyboard_handler+0xa9>
ffffffff8010c46d:	c7 05 f9 20 01 00 01 	movl   $0x1,0x120f9(%rip)        # ffffffff8011e570 <up_key>
ffffffff8010c474:	00 00 00 
ffffffff8010c477:	eb 46                	jmp    ffffffff8010c4bf <ps2_keyboard_handler+0xa9>
ffffffff8010c479:	c6 45 fe 09          	movb   $0x9,-0x2(%rbp)
ffffffff8010c47d:	eb 40                	jmp    ffffffff8010c4bf <ps2_keyboard_handler+0xa9>
ffffffff8010c47f:	c6 45 fe 08          	movb   $0x8,-0x2(%rbp)
ffffffff8010c483:	eb 3a                	jmp    ffffffff8010c4bf <ps2_keyboard_handler+0xa9>
ffffffff8010c485:	c6 45 fe 1c          	movb   $0x1c,-0x2(%rbp)
ffffffff8010c489:	eb 34                	jmp    ffffffff8010c4bf <ps2_keyboard_handler+0xa9>
ffffffff8010c48b:	80 7d ff 80          	cmpb   $0x80,-0x1(%rbp)
ffffffff8010c48f:	77 2e                	ja     ffffffff8010c4bf <ps2_keyboard_handler+0xa9>
ffffffff8010c491:	8b 05 d9 20 01 00    	mov    0x120d9(%rip),%eax        # ffffffff8011e570 <up_key>
ffffffff8010c497:	85 c0                	test   %eax,%eax
ffffffff8010c499:	74 12                	je     ffffffff8010c4ad <ps2_keyboard_handler+0x97>
ffffffff8010c49b:	0f b6 45 ff          	movzbl -0x1(%rbp),%eax
ffffffff8010c49f:	48 98                	cltq   
ffffffff8010c4a1:	0f b6 80 00 41 11 80 	movzbl -0x7feebf00(%rax),%eax
ffffffff8010c4a8:	88 45 fe             	mov    %al,-0x2(%rbp)
ffffffff8010c4ab:	eb 12                	jmp    ffffffff8010c4bf <ps2_keyboard_handler+0xa9>
ffffffff8010c4ad:	0f b6 45 ff          	movzbl -0x1(%rbp),%eax
ffffffff8010c4b1:	48 98                	cltq   
ffffffff8010c4b3:	0f b6 80 c0 40 11 80 	movzbl -0x7feebf40(%rax),%eax
ffffffff8010c4ba:	88 45 fe             	mov    %al,-0x2(%rbp)
ffffffff8010c4bd:	eb 00                	jmp    ffffffff8010c4bf <ps2_keyboard_handler+0xa9>
ffffffff8010c4bf:	90                   	nop
ffffffff8010c4c0:	c9                   	leaveq 
ffffffff8010c4c1:	c3                   	retq   

ffffffff8010c4c2 <vfs2ramfs>:
ffffffff8010c4c2:	55                   	push   %rbp
ffffffff8010c4c3:	48 89 e5             	mov    %rsp,%rbp
ffffffff8010c4c6:	48 83 ec 30          	sub    $0x30,%rsp
ffffffff8010c4ca:	48 89 7d d8          	mov    %rdi,-0x28(%rbp)
ffffffff8010c4ce:	48 c7 45 f8 00 00 00 	movq   $0x0,-0x8(%rbp)
ffffffff8010c4d5:	00 
ffffffff8010c4d6:	e9 86 00 00 00       	jmpq   ffffffff8010c561 <vfs2ramfs+0x9f>
ffffffff8010c4db:	48 c7 45 f0 00 00 00 	movq   $0x0,-0x10(%rbp)
ffffffff8010c4e2:	00 
ffffffff8010c4e3:	48 c7 c7 88 e5 11 80 	mov    $0xffffffff8011e588,%rdi
ffffffff8010c4ea:	e8 b1 19 00 00       	callq  ffffffff8010dea0 <spin_lock>
ffffffff8010c4ef:	48 8b 05 a2 20 01 00 	mov    0x120a2(%rip),%rax        # ffffffff8011e598 <ramfs_nodes+0x18>
ffffffff8010c4f6:	48 39 45 f8          	cmp    %rax,-0x8(%rbp)
ffffffff8010c4fa:	73 28                	jae    ffffffff8010c524 <vfs2ramfs+0x62>
ffffffff8010c4fc:	48 8b 0d 7d 20 01 00 	mov    0x1207d(%rip),%rcx        # ffffffff8011e580 <ramfs_nodes>
ffffffff8010c503:	48 8b 55 f8          	mov    -0x8(%rbp),%rdx
ffffffff8010c507:	48 89 d0             	mov    %rdx,%rax
ffffffff8010c50a:	48 01 c0             	add    %rax,%rax
ffffffff8010c50d:	48 01 d0             	add    %rdx,%rax
ffffffff8010c510:	48 c1 e0 02          	shl    $0x2,%rax
ffffffff8010c514:	48 01 d0             	add    %rdx,%rax
ffffffff8010c517:	48 c1 e0 04          	shl    $0x4,%rax
ffffffff8010c51b:	48 01 c8             	add    %rcx,%rax
ffffffff8010c51e:	48 89 45 f0          	mov    %rax,-0x10(%rbp)
ffffffff8010c522:	eb 01                	jmp    ffffffff8010c525 <vfs2ramfs+0x63>
ffffffff8010c524:	90                   	nop
ffffffff8010c525:	48 c7 c7 88 e5 11 80 	mov    $0xffffffff8011e588,%rdi
ffffffff8010c52c:	e8 c4 19 00 00       	callq  ffffffff8010def5 <spin_release>
ffffffff8010c531:	48 8b 45 f0          	mov    -0x10(%rbp),%rax
ffffffff8010c535:	48 89 45 e8          	mov    %rax,-0x18(%rbp)
ffffffff8010c539:	48 8b 45 d8          	mov    -0x28(%rbp),%rax
ffffffff8010c53d:	48 8b 10             	mov    (%rax),%rdx
ffffffff8010c540:	48 8b 45 e8          	mov    -0x18(%rbp),%rax
ffffffff8010c544:	48 8b 00             	mov    (%rax),%rax
ffffffff8010c547:	48 89 d6             	mov    %rdx,%rsi
ffffffff8010c54a:	48 89 c7             	mov    %rax,%rdi
ffffffff8010c54d:	e8 f0 19 00 00       	callq  ffffffff8010df42 <strcmp>
ffffffff8010c552:	85 c0                	test   %eax,%eax
ffffffff8010c554:	75 06                	jne    ffffffff8010c55c <vfs2ramfs+0x9a>
ffffffff8010c556:	48 8b 45 e8          	mov    -0x18(%rbp),%rax
ffffffff8010c55a:	eb 1b                	jmp    ffffffff8010c577 <vfs2ramfs+0xb5>
ffffffff8010c55c:	48 83 45 f8 01       	addq   $0x1,-0x8(%rbp)
ffffffff8010c561:	48 8b 05 30 20 01 00 	mov    0x12030(%rip),%rax        # ffffffff8011e598 <ramfs_nodes+0x18>
ffffffff8010c568:	48 39 45 f8          	cmp    %rax,-0x8(%rbp)
ffffffff8010c56c:	0f 82 69 ff ff ff    	jb     ffffffff8010c4db <vfs2ramfs+0x19>
ffffffff8010c572:	b8 00 00 00 00       	mov    $0x0,%eax
ffffffff8010c577:	c9                   	leaveq 
ffffffff8010c578:	c3                   	retq   

ffffffff8010c579 <ramfs_write>:
ffffffff8010c579:	55                   	push   %rbp
ffffffff8010c57a:	48 89 e5             	mov    %rsp,%rbp
ffffffff8010c57d:	48 83 ec 30          	sub    $0x30,%rsp
ffffffff8010c581:	48 89 7d e8          	mov    %rdi,-0x18(%rbp)
ffffffff8010c585:	48 89 75 e0          	mov    %rsi,-0x20(%rbp)
ffffffff8010c589:	48 89 55 d8          	mov    %rdx,-0x28(%rbp)
ffffffff8010c58d:	48 89 4d d0          	mov    %rcx,-0x30(%rbp)
ffffffff8010c591:	48 8b 45 e8          	mov    -0x18(%rbp),%rax
ffffffff8010c595:	48 89 c7             	mov    %rax,%rdi
ffffffff8010c598:	e8 25 ff ff ff       	callq  ffffffff8010c4c2 <vfs2ramfs>
ffffffff8010c59d:	48 89 45 f8          	mov    %rax,-0x8(%rbp)
ffffffff8010c5a1:	48 83 7d f8 00       	cmpq   $0x0,-0x8(%rbp)
ffffffff8010c5a6:	75 0a                	jne    ffffffff8010c5b2 <ramfs_write+0x39>
ffffffff8010c5a8:	b8 ff ff ff ff       	mov    $0xffffffff,%eax
ffffffff8010c5ad:	e9 c2 00 00 00       	jmpq   ffffffff8010c674 <ramfs_write+0xfb>
ffffffff8010c5b2:	48 8b 45 f8          	mov    -0x8(%rbp),%rax
ffffffff8010c5b6:	48 8b 80 c8 00 00 00 	mov    0xc8(%rax),%rax
ffffffff8010c5bd:	48 85 c0             	test   %rax,%rax
ffffffff8010c5c0:	75 31                	jne    ffffffff8010c5f3 <ramfs_write+0x7a>
ffffffff8010c5c2:	48 8b 55 e0          	mov    -0x20(%rbp),%rdx
ffffffff8010c5c6:	48 8b 45 d8          	mov    -0x28(%rbp),%rax
ffffffff8010c5ca:	48 01 c2             	add    %rax,%rdx
ffffffff8010c5cd:	48 8b 45 e8          	mov    -0x18(%rbp),%rax
ffffffff8010c5d1:	48 89 50 48          	mov    %rdx,0x48(%rax)
ffffffff8010c5d5:	48 8b 55 e0          	mov    -0x20(%rbp),%rdx
ffffffff8010c5d9:	48 8b 45 d8          	mov    -0x28(%rbp),%rax
ffffffff8010c5dd:	48 01 d0             	add    %rdx,%rax
ffffffff8010c5e0:	48 89 c7             	mov    %rax,%rdi
ffffffff8010c5e3:	e8 5f 5d ff ff       	callq  ffffffff80102347 <kmalloc>
ffffffff8010c5e8:	48 8b 55 f8          	mov    -0x8(%rbp),%rdx
ffffffff8010c5ec:	48 89 82 c8 00 00 00 	mov    %rax,0xc8(%rdx)
ffffffff8010c5f3:	48 8b 55 e0          	mov    -0x20(%rbp),%rdx
ffffffff8010c5f7:	48 8b 45 d8          	mov    -0x28(%rbp),%rax
ffffffff8010c5fb:	48 01 c2             	add    %rax,%rdx
ffffffff8010c5fe:	48 8b 45 e8          	mov    -0x18(%rbp),%rax
ffffffff8010c602:	48 8b 40 48          	mov    0x48(%rax),%rax
ffffffff8010c606:	48 39 c2             	cmp    %rax,%rdx
ffffffff8010c609:	7e 3f                	jle    ffffffff8010c64a <ramfs_write+0xd1>
ffffffff8010c60b:	48 8b 55 e0          	mov    -0x20(%rbp),%rdx
ffffffff8010c60f:	48 8b 45 d8          	mov    -0x28(%rbp),%rax
ffffffff8010c613:	48 01 c2             	add    %rax,%rdx
ffffffff8010c616:	48 8b 45 e8          	mov    -0x18(%rbp),%rax
ffffffff8010c61a:	48 89 50 48          	mov    %rdx,0x48(%rax)
ffffffff8010c61e:	48 8b 45 e8          	mov    -0x18(%rbp),%rax
ffffffff8010c622:	48 8b 40 48          	mov    0x48(%rax),%rax
ffffffff8010c626:	48 89 c2             	mov    %rax,%rdx
ffffffff8010c629:	48 8b 45 f8          	mov    -0x8(%rbp),%rax
ffffffff8010c62d:	48 8b 80 c8 00 00 00 	mov    0xc8(%rax),%rax
ffffffff8010c634:	48 89 d6             	mov    %rdx,%rsi
ffffffff8010c637:	48 89 c7             	mov    %rax,%rdi
ffffffff8010c63a:	e8 d0 5f ff ff       	callq  ffffffff8010260f <krealloc>
ffffffff8010c63f:	48 8b 55 f8          	mov    -0x8(%rbp),%rdx
ffffffff8010c643:	48 89 82 c8 00 00 00 	mov    %rax,0xc8(%rdx)
ffffffff8010c64a:	48 8b 55 d8          	mov    -0x28(%rbp),%rdx
ffffffff8010c64e:	48 8b 45 f8          	mov    -0x8(%rbp),%rax
ffffffff8010c652:	48 8b 88 c8 00 00 00 	mov    0xc8(%rax),%rcx
ffffffff8010c659:	48 8b 45 e0          	mov    -0x20(%rbp),%rax
ffffffff8010c65d:	48 01 c1             	add    %rax,%rcx
ffffffff8010c660:	48 8b 45 d0          	mov    -0x30(%rbp),%rax
ffffffff8010c664:	48 89 c6             	mov    %rax,%rsi
ffffffff8010c667:	48 89 cf             	mov    %rcx,%rdi
ffffffff8010c66a:	e8 cf e5 ff ff       	callq  ffffffff8010ac3e <memcpy8>
ffffffff8010c66f:	b8 00 00 00 00       	mov    $0x0,%eax
ffffffff8010c674:	c9                   	leaveq 
ffffffff8010c675:	c3                   	retq   

ffffffff8010c676 <ramfs_read>:
ffffffff8010c676:	55                   	push   %rbp
ffffffff8010c677:	48 89 e5             	mov    %rsp,%rbp
ffffffff8010c67a:	48 83 ec 30          	sub    $0x30,%rsp
ffffffff8010c67e:	48 89 7d e8          	mov    %rdi,-0x18(%rbp)
ffffffff8010c682:	48 89 75 e0          	mov    %rsi,-0x20(%rbp)
ffffffff8010c686:	48 89 55 d8          	mov    %rdx,-0x28(%rbp)
ffffffff8010c68a:	48 89 4d d0          	mov    %rcx,-0x30(%rbp)
ffffffff8010c68e:	48 8b 45 e8          	mov    -0x18(%rbp),%rax
ffffffff8010c692:	48 89 c7             	mov    %rax,%rdi
ffffffff8010c695:	e8 28 fe ff ff       	callq  ffffffff8010c4c2 <vfs2ramfs>
ffffffff8010c69a:	48 89 45 f8          	mov    %rax,-0x8(%rbp)
ffffffff8010c69e:	48 83 7d f8 00       	cmpq   $0x0,-0x8(%rbp)
ffffffff8010c6a3:	75 07                	jne    ffffffff8010c6ac <ramfs_read+0x36>
ffffffff8010c6a5:	b8 ff ff ff ff       	mov    $0xffffffff,%eax
ffffffff8010c6aa:	eb 67                	jmp    ffffffff8010c713 <ramfs_read+0x9d>
ffffffff8010c6ac:	48 8b 45 e8          	mov    -0x18(%rbp),%rax
ffffffff8010c6b0:	48 8b 40 48          	mov    0x48(%rax),%rax
ffffffff8010c6b4:	48 39 45 e0          	cmp    %rax,-0x20(%rbp)
ffffffff8010c6b8:	7e 07                	jle    ffffffff8010c6c1 <ramfs_read+0x4b>
ffffffff8010c6ba:	b8 ff ff ff ff       	mov    $0xffffffff,%eax
ffffffff8010c6bf:	eb 52                	jmp    ffffffff8010c713 <ramfs_read+0x9d>
ffffffff8010c6c1:	48 8b 55 e0          	mov    -0x20(%rbp),%rdx
ffffffff8010c6c5:	48 8b 45 d8          	mov    -0x28(%rbp),%rax
ffffffff8010c6c9:	48 01 c2             	add    %rax,%rdx
ffffffff8010c6cc:	48 8b 45 e8          	mov    -0x18(%rbp),%rax
ffffffff8010c6d0:	48 8b 40 48          	mov    0x48(%rax),%rax
ffffffff8010c6d4:	48 39 c2             	cmp    %rax,%rdx
ffffffff8010c6d7:	7e 10                	jle    ffffffff8010c6e9 <ramfs_read+0x73>
ffffffff8010c6d9:	48 8b 45 e8          	mov    -0x18(%rbp),%rax
ffffffff8010c6dd:	48 8b 40 48          	mov    0x48(%rax),%rax
ffffffff8010c6e1:	48 2b 45 e0          	sub    -0x20(%rbp),%rax
ffffffff8010c6e5:	48 89 45 d8          	mov    %rax,-0x28(%rbp)
ffffffff8010c6e9:	48 8b 55 d8          	mov    -0x28(%rbp),%rdx
ffffffff8010c6ed:	48 8b 45 f8          	mov    -0x8(%rbp),%rax
ffffffff8010c6f1:	48 8b 88 c8 00 00 00 	mov    0xc8(%rax),%rcx
ffffffff8010c6f8:	48 8b 45 e0          	mov    -0x20(%rbp),%rax
ffffffff8010c6fc:	48 01 c1             	add    %rax,%rcx
ffffffff8010c6ff:	48 8b 45 d0          	mov    -0x30(%rbp),%rax
ffffffff8010c703:	48 89 ce             	mov    %rcx,%rsi
ffffffff8010c706:	48 89 c7             	mov    %rax,%rdi
ffffffff8010c709:	e8 30 e5 ff ff       	callq  ffffffff8010ac3e <memcpy8>
ffffffff8010c70e:	b8 00 00 00 00       	mov    $0x0,%eax
ffffffff8010c713:	c9                   	leaveq 
ffffffff8010c714:	c3                   	retq   

ffffffff8010c715 <ramfs_delete>:
ffffffff8010c715:	55                   	push   %rbp
ffffffff8010c716:	48 89 e5             	mov    %rsp,%rbp
ffffffff8010c719:	48 83 ec 50          	sub    $0x50,%rsp
ffffffff8010c71d:	48 89 7d b8          	mov    %rdi,-0x48(%rbp)
ffffffff8010c721:	48 8b 45 b8          	mov    -0x48(%rbp),%rax
ffffffff8010c725:	48 89 c7             	mov    %rax,%rdi
ffffffff8010c728:	e8 95 fd ff ff       	callq  ffffffff8010c4c2 <vfs2ramfs>
ffffffff8010c72d:	48 89 45 d8          	mov    %rax,-0x28(%rbp)
ffffffff8010c731:	48 83 7d d8 00       	cmpq   $0x0,-0x28(%rbp)
ffffffff8010c736:	75 0a                	jne    ffffffff8010c742 <ramfs_delete+0x2d>
ffffffff8010c738:	b8 ff ff ff ff       	mov    $0xffffffff,%eax
ffffffff8010c73d:	e9 22 01 00 00       	jmpq   ffffffff8010c864 <ramfs_delete+0x14f>
ffffffff8010c742:	48 8b 45 d8          	mov    -0x28(%rbp),%rax
ffffffff8010c746:	48 8b 80 c8 00 00 00 	mov    0xc8(%rax),%rax
ffffffff8010c74d:	48 89 c7             	mov    %rax,%rdi
ffffffff8010c750:	e8 9e 5d ff ff       	callq  ffffffff801024f3 <kfree>
ffffffff8010c755:	c7 45 fc ff ff ff ff 	movl   $0xffffffff,-0x4(%rbp)
ffffffff8010c75c:	48 c7 45 f0 00 00 00 	movq   $0x0,-0x10(%rbp)
ffffffff8010c763:	00 
ffffffff8010c764:	e9 e5 00 00 00       	jmpq   ffffffff8010c84e <ramfs_delete+0x139>
ffffffff8010c769:	48 8b 0d 10 1e 01 00 	mov    0x11e10(%rip),%rcx        # ffffffff8011e580 <ramfs_nodes>
ffffffff8010c770:	48 8b 55 f0          	mov    -0x10(%rbp),%rdx
ffffffff8010c774:	48 89 d0             	mov    %rdx,%rax
ffffffff8010c777:	48 01 c0             	add    %rax,%rax
ffffffff8010c77a:	48 01 d0             	add    %rdx,%rax
ffffffff8010c77d:	48 c1 e0 02          	shl    $0x2,%rax
ffffffff8010c781:	48 01 d0             	add    %rdx,%rax
ffffffff8010c784:	48 c1 e0 04          	shl    $0x4,%rax
ffffffff8010c788:	48 01 c8             	add    %rcx,%rax
ffffffff8010c78b:	48 39 45 d8          	cmp    %rax,-0x28(%rbp)
ffffffff8010c78f:	0f 85 b4 00 00 00    	jne    ffffffff8010c849 <ramfs_delete+0x134>
ffffffff8010c795:	c7 45 ec 00 00 00 00 	movl   $0x0,-0x14(%rbp)
ffffffff8010c79c:	48 c7 c7 88 e5 11 80 	mov    $0xffffffff8011e588,%rdi
ffffffff8010c7a3:	e8 f8 16 00 00       	callq  ffffffff8010dea0 <spin_lock>
ffffffff8010c7a8:	48 8b 05 e9 1d 01 00 	mov    0x11de9(%rip),%rax        # ffffffff8011e598 <ramfs_nodes+0x18>
ffffffff8010c7af:	48 39 45 f0          	cmp    %rax,-0x10(%rbp)
ffffffff8010c7b3:	72 09                	jb     ffffffff8010c7be <ramfs_delete+0xa9>
ffffffff8010c7b5:	c7 45 ec ff ff ff ff 	movl   $0xffffffff,-0x14(%rbp)
ffffffff8010c7bc:	eb 77                	jmp    ffffffff8010c835 <ramfs_delete+0x120>
ffffffff8010c7be:	48 8b 15 cb 1d 01 00 	mov    0x11dcb(%rip),%rdx        # ffffffff8011e590 <ramfs_nodes+0x10>
ffffffff8010c7c5:	48 89 d0             	mov    %rdx,%rax
ffffffff8010c7c8:	48 01 c0             	add    %rax,%rax
ffffffff8010c7cb:	48 01 d0             	add    %rdx,%rax
ffffffff8010c7ce:	48 c1 e0 02          	shl    $0x2,%rax
ffffffff8010c7d2:	48 01 d0             	add    %rdx,%rax
ffffffff8010c7d5:	48 c1 e0 04          	shl    $0x4,%rax
ffffffff8010c7d9:	48 89 c7             	mov    %rax,%rdi
ffffffff8010c7dc:	e8 66 5b ff ff       	callq  ffffffff80102347 <kmalloc>
ffffffff8010c7e1:	48 89 45 d0          	mov    %rax,-0x30(%rbp)
ffffffff8010c7e5:	48 c7 45 c8 00 00 00 	movq   $0x0,-0x38(%rbp)
ffffffff8010c7ec:	00 
ffffffff8010c7ed:	48 c7 45 e0 00 00 00 	movq   $0x0,-0x20(%rbp)
ffffffff8010c7f4:	00 
ffffffff8010c7f5:	eb 05                	jmp    ffffffff8010c7fc <ramfs_delete+0xe7>
ffffffff8010c7f7:	48 83 45 e0 01       	addq   $0x1,-0x20(%rbp)
ffffffff8010c7fc:	48 8b 05 95 1d 01 00 	mov    0x11d95(%rip),%rax        # ffffffff8011e598 <ramfs_nodes+0x18>
ffffffff8010c803:	48 39 45 e0          	cmp    %rax,-0x20(%rbp)
ffffffff8010c807:	72 ee                	jb     ffffffff8010c7f7 <ramfs_delete+0xe2>
ffffffff8010c809:	48 8b 05 88 1d 01 00 	mov    0x11d88(%rip),%rax        # ffffffff8011e598 <ramfs_nodes+0x18>
ffffffff8010c810:	48 83 e8 01          	sub    $0x1,%rax
ffffffff8010c814:	48 89 05 7d 1d 01 00 	mov    %rax,0x11d7d(%rip)        # ffffffff8011e598 <ramfs_nodes+0x18>
ffffffff8010c81b:	48 8b 05 5e 1d 01 00 	mov    0x11d5e(%rip),%rax        # ffffffff8011e580 <ramfs_nodes>
ffffffff8010c822:	48 89 c7             	mov    %rax,%rdi
ffffffff8010c825:	e8 c9 5c ff ff       	callq  ffffffff801024f3 <kfree>
ffffffff8010c82a:	48 8b 45 d0          	mov    -0x30(%rbp),%rax
ffffffff8010c82e:	48 89 05 4b 1d 01 00 	mov    %rax,0x11d4b(%rip)        # ffffffff8011e580 <ramfs_nodes>
ffffffff8010c835:	48 c7 c7 88 e5 11 80 	mov    $0xffffffff8011e588,%rdi
ffffffff8010c83c:	e8 b4 16 00 00       	callq  ffffffff8010def5 <spin_release>
ffffffff8010c841:	8b 45 ec             	mov    -0x14(%rbp),%eax
ffffffff8010c844:	89 45 fc             	mov    %eax,-0x4(%rbp)
ffffffff8010c847:	eb 16                	jmp    ffffffff8010c85f <ramfs_delete+0x14a>
ffffffff8010c849:	48 83 45 f0 01       	addq   $0x1,-0x10(%rbp)
ffffffff8010c84e:	48 8b 05 43 1d 01 00 	mov    0x11d43(%rip),%rax        # ffffffff8011e598 <ramfs_nodes+0x18>
ffffffff8010c855:	48 39 45 f0          	cmp    %rax,-0x10(%rbp)
ffffffff8010c859:	0f 82 0a ff ff ff    	jb     ffffffff8010c769 <ramfs_delete+0x54>
ffffffff8010c85f:	b8 00 00 00 00       	mov    $0x0,%eax
ffffffff8010c864:	c9                   	leaveq 
ffffffff8010c865:	c3                   	retq   

ffffffff8010c866 <ramfs_open>:
ffffffff8010c866:	55                   	push   %rbp
ffffffff8010c867:	48 89 e5             	mov    %rsp,%rbp
ffffffff8010c86a:	48 81 ec f0 00 00 00 	sub    $0xf0,%rsp
ffffffff8010c871:	48 89 bd 18 ff ff ff 	mov    %rdi,-0xe8(%rbp)
ffffffff8010c878:	89 b5 14 ff ff ff    	mov    %esi,-0xec(%rbp)
ffffffff8010c87e:	8b 85 14 ff ff ff    	mov    -0xec(%rbp),%eax
ffffffff8010c884:	83 e0 10             	and    $0x10,%eax
ffffffff8010c887:	85 c0                	test   %eax,%eax
ffffffff8010c889:	0f 84 37 01 00 00    	je     ffffffff8010c9c6 <ramfs_open+0x160>
ffffffff8010c88f:	48 8d 95 28 ff ff ff 	lea    -0xd8(%rbp),%rdx
ffffffff8010c896:	b8 00 00 00 00       	mov    $0x0,%eax
ffffffff8010c89b:	b9 1a 00 00 00       	mov    $0x1a,%ecx
ffffffff8010c8a0:	48 89 d7             	mov    %rdx,%rdi
ffffffff8010c8a3:	f3 48 ab             	rep stos %rax,%es:(%rdi)
ffffffff8010c8a6:	48 8b 95 18 ff ff ff 	mov    -0xe8(%rbp),%rdx
ffffffff8010c8ad:	48 8d 85 28 ff ff ff 	lea    -0xd8(%rbp),%rax
ffffffff8010c8b4:	48 89 d6             	mov    %rdx,%rsi
ffffffff8010c8b7:	ba 18 00 00 00       	mov    $0x18,%edx
ffffffff8010c8bc:	48 89 c7             	mov    %rax,%rdi
ffffffff8010c8bf:	48 89 d1             	mov    %rdx,%rcx
ffffffff8010c8c2:	f3 48 a5             	rep movsq %ds:(%rsi),%es:(%rdi)
ffffffff8010c8c5:	8b 85 14 ff ff ff    	mov    -0xec(%rbp),%eax
ffffffff8010c8cb:	66 89 45 e8          	mov    %ax,-0x18(%rbp)
ffffffff8010c8cf:	48 c7 c7 88 e5 11 80 	mov    $0xffffffff8011e588,%rdi
ffffffff8010c8d6:	e8 c5 15 00 00       	callq  ffffffff8010dea0 <spin_lock>
ffffffff8010c8db:	c7 45 fc 00 00 00 00 	movl   $0x0,-0x4(%rbp)
ffffffff8010c8e2:	48 8b 05 97 1c 01 00 	mov    0x11c97(%rip),%rax        # ffffffff8011e580 <ramfs_nodes>
ffffffff8010c8e9:	48 85 c0             	test   %rax,%rax
ffffffff8010c8ec:	75 1c                	jne    ffffffff8010c90a <ramfs_open+0xa4>
ffffffff8010c8ee:	bf 00 1a 00 00       	mov    $0x1a00,%edi
ffffffff8010c8f3:	e8 4f 5a ff ff       	callq  ffffffff80102347 <kmalloc>
ffffffff8010c8f8:	48 89 05 81 1c 01 00 	mov    %rax,0x11c81(%rip)        # ffffffff8011e580 <ramfs_nodes>
ffffffff8010c8ff:	48 c7 05 86 1c 01 00 	movq   $0x20,0x11c86(%rip)        # ffffffff8011e590 <ramfs_nodes+0x10>
ffffffff8010c906:	20 00 00 00 
ffffffff8010c90a:	48 8b 15 8f 1c 01 00 	mov    0x11c8f(%rip),%rdx        # ffffffff8011e5a0 <ramfs_nodes+0x20>
ffffffff8010c911:	48 8b 05 78 1c 01 00 	mov    0x11c78(%rip),%rax        # ffffffff8011e590 <ramfs_nodes+0x10>
ffffffff8010c918:	48 39 c2             	cmp    %rax,%rdx
ffffffff8010c91b:	76 32                	jbe    ffffffff8010c94f <ramfs_open+0xe9>
ffffffff8010c91d:	48 8b 05 6c 1c 01 00 	mov    0x11c6c(%rip),%rax        # ffffffff8011e590 <ramfs_nodes+0x10>
ffffffff8010c924:	48 83 c0 20          	add    $0x20,%rax
ffffffff8010c928:	48 89 05 61 1c 01 00 	mov    %rax,0x11c61(%rip)        # ffffffff8011e590 <ramfs_nodes+0x10>
ffffffff8010c92f:	48 8b 15 5a 1c 01 00 	mov    0x11c5a(%rip),%rdx        # ffffffff8011e590 <ramfs_nodes+0x10>
ffffffff8010c936:	48 8b 05 43 1c 01 00 	mov    0x11c43(%rip),%rax        # ffffffff8011e580 <ramfs_nodes>
ffffffff8010c93d:	48 89 d6             	mov    %rdx,%rsi
ffffffff8010c940:	48 89 c7             	mov    %rax,%rdi
ffffffff8010c943:	e8 c7 5c ff ff       	callq  ffffffff8010260f <krealloc>
ffffffff8010c948:	48 89 05 31 1c 01 00 	mov    %rax,0x11c31(%rip)        # ffffffff8011e580 <ramfs_nodes>
ffffffff8010c94f:	48 8b 05 4a 1c 01 00 	mov    0x11c4a(%rip),%rax        # ffffffff8011e5a0 <ramfs_nodes+0x20>
ffffffff8010c956:	89 45 fc             	mov    %eax,-0x4(%rbp)
ffffffff8010c959:	48 8b 0d 20 1c 01 00 	mov    0x11c20(%rip),%rcx        # ffffffff8011e580 <ramfs_nodes>
ffffffff8010c960:	48 8b 15 39 1c 01 00 	mov    0x11c39(%rip),%rdx        # ffffffff8011e5a0 <ramfs_nodes+0x20>
ffffffff8010c967:	48 8d 42 01          	lea    0x1(%rdx),%rax
ffffffff8010c96b:	48 89 05 2e 1c 01 00 	mov    %rax,0x11c2e(%rip)        # ffffffff8011e5a0 <ramfs_nodes+0x20>
ffffffff8010c972:	48 89 d0             	mov    %rdx,%rax
ffffffff8010c975:	48 01 c0             	add    %rax,%rax
ffffffff8010c978:	48 01 d0             	add    %rdx,%rax
ffffffff8010c97b:	48 c1 e0 02          	shl    $0x2,%rax
ffffffff8010c97f:	48 01 d0             	add    %rdx,%rax
ffffffff8010c982:	48 c1 e0 04          	shl    $0x4,%rax
ffffffff8010c986:	48 01 c8             	add    %rcx,%rax
ffffffff8010c989:	48 89 c7             	mov    %rax,%rdi
ffffffff8010c98c:	48 8d 85 28 ff ff ff 	lea    -0xd8(%rbp),%rax
ffffffff8010c993:	ba 1a 00 00 00       	mov    $0x1a,%edx
ffffffff8010c998:	48 89 c6             	mov    %rax,%rsi
ffffffff8010c99b:	48 89 d1             	mov    %rdx,%rcx
ffffffff8010c99e:	f3 48 a5             	rep movsq %ds:(%rsi),%es:(%rdi)
ffffffff8010c9a1:	48 8b 05 f0 1b 01 00 	mov    0x11bf0(%rip),%rax        # ffffffff8011e598 <ramfs_nodes+0x18>
ffffffff8010c9a8:	48 83 c0 01          	add    $0x1,%rax
ffffffff8010c9ac:	48 89 05 e5 1b 01 00 	mov    %rax,0x11be5(%rip)        # ffffffff8011e598 <ramfs_nodes+0x18>
ffffffff8010c9b3:	48 c7 c7 88 e5 11 80 	mov    $0xffffffff8011e588,%rdi
ffffffff8010c9ba:	e8 36 15 00 00       	callq  ffffffff8010def5 <spin_release>
ffffffff8010c9bf:	b8 00 00 00 00       	mov    $0x0,%eax
ffffffff8010c9c4:	eb 20                	jmp    ffffffff8010c9e6 <ramfs_open+0x180>
ffffffff8010c9c6:	48 8b 85 18 ff ff ff 	mov    -0xe8(%rbp),%rax
ffffffff8010c9cd:	48 89 c7             	mov    %rax,%rdi
ffffffff8010c9d0:	e8 ed fa ff ff       	callq  ffffffff8010c4c2 <vfs2ramfs>
ffffffff8010c9d5:	48 85 c0             	test   %rax,%rax
ffffffff8010c9d8:	75 07                	jne    ffffffff8010c9e1 <ramfs_open+0x17b>
ffffffff8010c9da:	b8 ff ff ff ff       	mov    $0xffffffff,%eax
ffffffff8010c9df:	eb 05                	jmp    ffffffff8010c9e6 <ramfs_open+0x180>
ffffffff8010c9e1:	b8 00 00 00 00       	mov    $0x0,%eax
ffffffff8010c9e6:	c9                   	leaveq 
ffffffff8010c9e7:	c3                   	retq   
ffffffff8010c9e8:	0f 1f 84 00 00 00 00 	nopl   0x0(%rax,%rax,1)
ffffffff8010c9ef:	00 

ffffffff8010c9f0 <smp_tramp_begin>:
ffffffff8010c9f0:	fa                   	cli    
ffffffff8010c9f1:	fc                   	cld    
ffffffff8010c9f2:	ea                   	(bad)  
ffffffff8010c9f3:	07                   	(bad)  
ffffffff8010c9f4:	10 00                	adc    %al,(%rax)
ffffffff8010c9f6:	00 31                	add    %dh,(%rcx)
ffffffff8010c9f8:	c0 8e d8 8e c0 8e e0 	rorb   $0xe0,-0x713f7128(%rsi)
ffffffff8010c9ff:	8e d0                	mov    %eax,%ss
ffffffff8010ca01:	8e e8                	mov    %eax,%gs
ffffffff8010ca03:	bc 00 7c e4 92       	mov    $0x92e47c00,%esp
ffffffff8010ca08:	0c 02                	or     $0x2,%al
ffffffff8010ca0a:	e6 92                	out    %al,$0x92
ffffffff8010ca0c:	0f 01 16             	lgdt   (%rsi)
ffffffff8010ca0f:	7b 10                	jnp    ffffffff8010ca21 <smp_tramp_begin+0x31>
ffffffff8010ca11:	66 a1 08 05 0f 22 d8 	movabs 0xe0200fd8220f0508,%ax
ffffffff8010ca18:	0f 20 e0 
ffffffff8010ca1b:	66 83 c8 20          	or     $0x20,%ax
ffffffff8010ca1f:	0f 22 e0             	mov    %rax,%cr4
ffffffff8010ca22:	66 b9 80 00          	mov    $0x80,%cx
ffffffff8010ca26:	00 c0                	add    %al,%al
ffffffff8010ca28:	0f 32                	rdmsr  
ffffffff8010ca2a:	66 0d 00 01          	or     $0x100,%ax
ffffffff8010ca2e:	00 00                	add    %al,(%rax)
ffffffff8010ca30:	0f 30                	wrmsr  
ffffffff8010ca32:	66 b8 11 00          	mov    $0x11,%ax
ffffffff8010ca36:	00 80 0f 22 c0 ea    	add    %al,-0x153fddf1(%rax)
ffffffff8010ca3c:	50                   	push   %rax
ffffffff8010ca3d:	10 08                	adc    %cl,(%rax)
ffffffff8010ca3f:	00 66 b8             	add    %ah,-0x48(%rsi)
ffffffff8010ca42:	10 00                	adc    %al,(%rax)
ffffffff8010ca44:	8e d8                	mov    %eax,%ds
ffffffff8010ca46:	8e c0                	mov    %eax,%es
ffffffff8010ca48:	8e e0                	mov    %eax,%fs
ffffffff8010ca4a:	8e e8                	mov    %eax,%gs
ffffffff8010ca4c:	8e d0                	mov    %eax,%ss
ffffffff8010ca4e:	48 8b 24 25 00 05 00 	mov    0x500,%rsp
ffffffff8010ca55:	00 
ffffffff8010ca56:	48 8b 1c 25 10 05 00 	mov    0x510,%rbx
ffffffff8010ca5d:	00 
ffffffff8010ca5e:	48 8b 0c 25 18 05 00 	mov    0x518,%rcx
ffffffff8010ca65:	00 
ffffffff8010ca66:	0f 01 19             	lidt   (%rcx)
ffffffff8010ca69:	ff e3                	jmpq   *%rbx
ffffffff8010ca6b:	17                   	(bad)  
ffffffff8010ca6c:	00 81 10 00 00 00    	add    %al,0x10(%rcx)
	...
ffffffff8010ca7e:	9a                   	(bad)  
ffffffff8010ca7f:	20 00                	and    %al,(%rax)
ffffffff8010ca81:	00 00                	add    %al,(%rax)
ffffffff8010ca83:	00 00                	add    %al,(%rax)
ffffffff8010ca85:	00                   	.byte 0x0
ffffffff8010ca86:	92                   	xchg   %eax,%edx
	...

ffffffff8010ca89 <rsdp_init>:
ffffffff8010ca89:	55                   	push   %rbp
ffffffff8010ca8a:	48 89 e5             	mov    %rsp,%rbp
ffffffff8010ca8d:	48 83 ec 10          	sub    $0x10,%rsp
ffffffff8010ca91:	48 89 7d f8          	mov    %rdi,-0x8(%rbp)
ffffffff8010ca95:	48 8b 45 f8          	mov    -0x8(%rbp),%rax
ffffffff8010ca99:	48 89 05 08 1b 01 00 	mov    %rax,0x11b08(%rip)        # ffffffff8011e5a8 <rsdp>
ffffffff8010caa0:	48 8b 05 01 1b 01 00 	mov    0x11b01(%rip),%rax        # ffffffff8011e5a8 <rsdp>
ffffffff8010caa7:	48 8b 40 18          	mov    0x18(%rax),%rax
ffffffff8010caab:	48 85 c0             	test   %rax,%rax
ffffffff8010caae:	74 5e                	je     ffffffff8010cb0e <rsdp_init+0x85>
ffffffff8010cab0:	48 8b 05 f1 1a 01 00 	mov    0x11af1(%rip),%rax        # ffffffff8011e5a8 <rsdp>
ffffffff8010cab7:	48 8b 40 18          	mov    0x18(%rax),%rax
ffffffff8010cabb:	48 ba 00 00 00 00 00 	movabs $0xffff800000000000,%rdx
ffffffff8010cac2:	80 ff ff 
ffffffff8010cac5:	48 01 d0             	add    %rdx,%rax
ffffffff8010cac8:	48 89 05 e9 1a 01 00 	mov    %rax,0x11ae9(%rip)        # ffffffff8011e5b8 <xsdt>
ffffffff8010cacf:	48 8b 05 e2 1a 01 00 	mov    0x11ae2(%rip),%rax        # ffffffff8011e5b8 <xsdt>
ffffffff8010cad6:	48 89 c2             	mov    %rax,%rdx
ffffffff8010cad9:	48 c7 c6 0f 09 11 80 	mov    $0xffffffff8011090f,%rsi
ffffffff8010cae0:	48 c7 c7 20 09 11 80 	mov    $0xffffffff80110920,%rdi
ffffffff8010cae7:	b8 00 00 00 00       	mov    $0x0,%eax
ffffffff8010caec:	e8 bc e3 ff ff       	callq  ffffffff8010aead <kprintf>
ffffffff8010caf1:	48 8b 05 c0 1a 01 00 	mov    0x11ac0(%rip),%rax        # ffffffff8011e5b8 <xsdt>
ffffffff8010caf8:	48 89 c6             	mov    %rax,%rsi
ffffffff8010cafb:	48 c7 c7 27 09 11 80 	mov    $0xffffffff80110927,%rdi
ffffffff8010cb02:	b8 00 00 00 00       	mov    $0x0,%eax
ffffffff8010cb07:	e8 96 e5 ff ff       	callq  ffffffff8010b0a2 <kvprintf>
ffffffff8010cb0c:	eb 6b                	jmp    ffffffff8010cb79 <rsdp_init+0xf0>
ffffffff8010cb0e:	48 8b 05 93 1a 01 00 	mov    0x11a93(%rip),%rax        # ffffffff8011e5a8 <rsdp>
ffffffff8010cb15:	8b 40 10             	mov    0x10(%rax),%eax
ffffffff8010cb18:	85 c0                	test   %eax,%eax
ffffffff8010cb1a:	74 5d                	je     ffffffff8010cb79 <rsdp_init+0xf0>
ffffffff8010cb1c:	48 8b 05 85 1a 01 00 	mov    0x11a85(%rip),%rax        # ffffffff8011e5a8 <rsdp>
ffffffff8010cb23:	8b 40 10             	mov    0x10(%rax),%eax
ffffffff8010cb26:	89 c2                	mov    %eax,%edx
ffffffff8010cb28:	48 b8 00 00 00 00 00 	movabs $0xffff800000000000,%rax
ffffffff8010cb2f:	80 ff ff 
ffffffff8010cb32:	48 01 d0             	add    %rdx,%rax
ffffffff8010cb35:	48 89 05 74 1a 01 00 	mov    %rax,0x11a74(%rip)        # ffffffff8011e5b0 <rsdt>
ffffffff8010cb3c:	48 8b 05 6d 1a 01 00 	mov    0x11a6d(%rip),%rax        # ffffffff8011e5b0 <rsdt>
ffffffff8010cb43:	48 89 c2             	mov    %rax,%rdx
ffffffff8010cb46:	48 c7 c6 40 09 11 80 	mov    $0xffffffff80110940,%rsi
ffffffff8010cb4d:	48 c7 c7 20 09 11 80 	mov    $0xffffffff80110920,%rdi
ffffffff8010cb54:	b8 00 00 00 00       	mov    $0x0,%eax
ffffffff8010cb59:	e8 4f e3 ff ff       	callq  ffffffff8010aead <kprintf>
ffffffff8010cb5e:	48 8b 05 4b 1a 01 00 	mov    0x11a4b(%rip),%rax        # ffffffff8011e5b0 <rsdt>
ffffffff8010cb65:	48 89 c6             	mov    %rax,%rsi
ffffffff8010cb68:	48 c7 c7 51 09 11 80 	mov    $0xffffffff80110951,%rdi
ffffffff8010cb6f:	b8 00 00 00 00       	mov    $0x0,%eax
ffffffff8010cb74:	e8 29 e5 ff ff       	callq  ffffffff8010b0a2 <kvprintf>
ffffffff8010cb79:	90                   	nop
ffffffff8010cb7a:	c9                   	leaveq 
ffffffff8010cb7b:	c3                   	retq   

ffffffff8010cb7c <find_SDT>:
ffffffff8010cb7c:	55                   	push   %rbp
ffffffff8010cb7d:	48 89 e5             	mov    %rsp,%rbp
ffffffff8010cb80:	48 83 ec 30          	sub    $0x30,%rsp
ffffffff8010cb84:	48 89 7d d8          	mov    %rdi,-0x28(%rbp)
ffffffff8010cb88:	48 8b 05 29 1a 01 00 	mov    0x11a29(%rip),%rax        # ffffffff8011e5b8 <xsdt>
ffffffff8010cb8f:	48 85 c0             	test   %rax,%rax
ffffffff8010cb92:	0f 84 ad 00 00 00    	je     ffffffff8010cc45 <find_SDT+0xc9>
ffffffff8010cb98:	48 c7 45 f8 00 00 00 	movq   $0x0,-0x8(%rbp)
ffffffff8010cb9f:	00 
ffffffff8010cba0:	e9 86 00 00 00       	jmpq   ffffffff8010cc2b <find_SDT+0xaf>
ffffffff8010cba5:	48 8b 05 0c 1a 01 00 	mov    0x11a0c(%rip),%rax        # ffffffff8011e5b8 <xsdt>
ffffffff8010cbac:	48 8b 55 f8          	mov    -0x8(%rbp),%rdx
ffffffff8010cbb0:	48 83 c2 04          	add    $0x4,%rdx
ffffffff8010cbb4:	48 8b 44 d0 04       	mov    0x4(%rax,%rdx,8),%rax
ffffffff8010cbb9:	48 ba 00 00 00 00 00 	movabs $0xffff800000000000,%rdx
ffffffff8010cbc0:	80 ff ff 
ffffffff8010cbc3:	48 01 d0             	add    %rdx,%rax
ffffffff8010cbc6:	48 89 45 e8          	mov    %rax,-0x18(%rbp)
ffffffff8010cbca:	48 8b 45 e8          	mov    -0x18(%rbp),%rax
ffffffff8010cbce:	48 8b 4d d8          	mov    -0x28(%rbp),%rcx
ffffffff8010cbd2:	ba 04 00 00 00       	mov    $0x4,%edx
ffffffff8010cbd7:	48 89 ce             	mov    %rcx,%rsi
ffffffff8010cbda:	48 89 c7             	mov    %rax,%rdi
ffffffff8010cbdd:	e8 b3 13 00 00       	callq  ffffffff8010df95 <strncmp>
ffffffff8010cbe2:	85 c0                	test   %eax,%eax
ffffffff8010cbe4:	75 40                	jne    ffffffff8010cc26 <find_SDT+0xaa>
ffffffff8010cbe6:	48 8b 45 d8          	mov    -0x28(%rbp),%rax
ffffffff8010cbea:	48 89 c2             	mov    %rax,%rdx
ffffffff8010cbed:	48 c7 c6 6a 09 11 80 	mov    $0xffffffff8011096a,%rsi
ffffffff8010cbf4:	48 c7 c7 20 09 11 80 	mov    $0xffffffff80110920,%rdi
ffffffff8010cbfb:	b8 00 00 00 00       	mov    $0x0,%eax
ffffffff8010cc00:	e8 a8 e2 ff ff       	callq  ffffffff8010aead <kprintf>
ffffffff8010cc05:	48 8b 45 d8          	mov    -0x28(%rbp),%rax
ffffffff8010cc09:	48 89 c6             	mov    %rax,%rsi
ffffffff8010cc0c:	48 c7 c7 73 09 11 80 	mov    $0xffffffff80110973,%rdi
ffffffff8010cc13:	b8 00 00 00 00       	mov    $0x0,%eax
ffffffff8010cc18:	e8 85 e4 ff ff       	callq  ffffffff8010b0a2 <kvprintf>
ffffffff8010cc1d:	48 8b 45 e8          	mov    -0x18(%rbp),%rax
ffffffff8010cc21:	e9 fe 00 00 00       	jmpq   ffffffff8010cd24 <find_SDT+0x1a8>
ffffffff8010cc26:	48 83 45 f8 01       	addq   $0x1,-0x8(%rbp)
ffffffff8010cc2b:	48 8b 05 86 19 01 00 	mov    0x11986(%rip),%rax        # ffffffff8011e5b8 <xsdt>
ffffffff8010cc32:	8b 40 04             	mov    0x4(%rax),%eax
ffffffff8010cc35:	89 c0                	mov    %eax,%eax
ffffffff8010cc37:	48 83 e8 24          	sub    $0x24,%rax
ffffffff8010cc3b:	48 39 45 f8          	cmp    %rax,-0x8(%rbp)
ffffffff8010cc3f:	0f 82 60 ff ff ff    	jb     ffffffff8010cba5 <find_SDT+0x29>
ffffffff8010cc45:	48 8b 05 64 19 01 00 	mov    0x11964(%rip),%rax        # ffffffff8011e5b0 <rsdt>
ffffffff8010cc4c:	48 85 c0             	test   %rax,%rax
ffffffff8010cc4f:	0f 84 ab 00 00 00    	je     ffffffff8010cd00 <find_SDT+0x184>
ffffffff8010cc55:	48 c7 45 f0 00 00 00 	movq   $0x0,-0x10(%rbp)
ffffffff8010cc5c:	00 
ffffffff8010cc5d:	e9 84 00 00 00       	jmpq   ffffffff8010cce6 <find_SDT+0x16a>
ffffffff8010cc62:	48 8b 05 47 19 01 00 	mov    0x11947(%rip),%rax        # ffffffff8011e5b0 <rsdt>
ffffffff8010cc69:	48 8b 55 f0          	mov    -0x10(%rbp),%rdx
ffffffff8010cc6d:	48 83 c2 08          	add    $0x8,%rdx
ffffffff8010cc71:	8b 44 90 04          	mov    0x4(%rax,%rdx,4),%eax
ffffffff8010cc75:	89 c2                	mov    %eax,%edx
ffffffff8010cc77:	48 b8 00 00 00 00 00 	movabs $0xffff800000000000,%rax
ffffffff8010cc7e:	80 ff ff 
ffffffff8010cc81:	48 01 d0             	add    %rdx,%rax
ffffffff8010cc84:	48 89 45 e0          	mov    %rax,-0x20(%rbp)
ffffffff8010cc88:	48 8b 45 e0          	mov    -0x20(%rbp),%rax
ffffffff8010cc8c:	48 8b 4d d8          	mov    -0x28(%rbp),%rcx
ffffffff8010cc90:	ba 04 00 00 00       	mov    $0x4,%edx
ffffffff8010cc95:	48 89 ce             	mov    %rcx,%rsi
ffffffff8010cc98:	48 89 c7             	mov    %rax,%rdi
ffffffff8010cc9b:	e8 f5 12 00 00       	callq  ffffffff8010df95 <strncmp>
ffffffff8010cca0:	85 c0                	test   %eax,%eax
ffffffff8010cca2:	75 3d                	jne    ffffffff8010cce1 <find_SDT+0x165>
ffffffff8010cca4:	48 8b 45 d8          	mov    -0x28(%rbp),%rax
ffffffff8010cca8:	48 89 c2             	mov    %rax,%rdx
ffffffff8010ccab:	48 c7 c6 6a 09 11 80 	mov    $0xffffffff8011096a,%rsi
ffffffff8010ccb2:	48 c7 c7 20 09 11 80 	mov    $0xffffffff80110920,%rdi
ffffffff8010ccb9:	b8 00 00 00 00       	mov    $0x0,%eax
ffffffff8010ccbe:	e8 ea e1 ff ff       	callq  ffffffff8010aead <kprintf>
ffffffff8010ccc3:	48 8b 45 d8          	mov    -0x28(%rbp),%rax
ffffffff8010ccc7:	48 89 c6             	mov    %rax,%rsi
ffffffff8010ccca:	48 c7 c7 73 09 11 80 	mov    $0xffffffff80110973,%rdi
ffffffff8010ccd1:	b8 00 00 00 00       	mov    $0x0,%eax
ffffffff8010ccd6:	e8 c7 e3 ff ff       	callq  ffffffff8010b0a2 <kvprintf>
ffffffff8010ccdb:	48 8b 45 e0          	mov    -0x20(%rbp),%rax
ffffffff8010ccdf:	eb 43                	jmp    ffffffff8010cd24 <find_SDT+0x1a8>
ffffffff8010cce1:	48 83 45 f0 01       	addq   $0x1,-0x10(%rbp)
ffffffff8010cce6:	48 8b 05 c3 18 01 00 	mov    0x118c3(%rip),%rax        # ffffffff8011e5b0 <rsdt>
ffffffff8010cced:	8b 40 04             	mov    0x4(%rax),%eax
ffffffff8010ccf0:	89 c0                	mov    %eax,%eax
ffffffff8010ccf2:	48 83 e8 24          	sub    $0x24,%rax
ffffffff8010ccf6:	48 39 45 f0          	cmp    %rax,-0x10(%rbp)
ffffffff8010ccfa:	0f 82 62 ff ff ff    	jb     ffffffff8010cc62 <find_SDT+0xe6>
ffffffff8010cd00:	48 8b 45 d8          	mov    -0x28(%rbp),%rax
ffffffff8010cd04:	48 89 c2             	mov    %rax,%rdx
ffffffff8010cd07:	48 c7 c6 84 09 11 80 	mov    $0xffffffff80110984,%rsi
ffffffff8010cd0e:	48 c7 c7 20 09 11 80 	mov    $0xffffffff80110920,%rdi
ffffffff8010cd15:	b8 00 00 00 00       	mov    $0x0,%eax
ffffffff8010cd1a:	e8 8e e1 ff ff       	callq  ffffffff8010aead <kprintf>
ffffffff8010cd1f:	b8 00 00 00 00       	mov    $0x0,%eax
ffffffff8010cd24:	c9                   	leaveq 
ffffffff8010cd25:	c3                   	retq   

ffffffff8010cd26 <find_next_thread>:
ffffffff8010cd26:	55                   	push   %rbp
ffffffff8010cd27:	48 89 e5             	mov    %rsp,%rbp
ffffffff8010cd2a:	48 83 ec 40          	sub    $0x40,%rsp
ffffffff8010cd2e:	48 89 7d c8          	mov    %rdi,-0x38(%rbp)
ffffffff8010cd32:	48 c7 45 f8 00 00 00 	movq   $0x0,-0x8(%rbp)
ffffffff8010cd39:	00 
ffffffff8010cd3a:	48 c7 45 f0 00 00 00 	movq   $0x0,-0x10(%rbp)
ffffffff8010cd41:	00 
ffffffff8010cd42:	48 c7 45 e8 00 00 00 	movq   $0x0,-0x18(%rbp)
ffffffff8010cd49:	00 
ffffffff8010cd4a:	e9 aa 00 00 00       	jmpq   ffffffff8010cdf9 <find_next_thread+0xd3>
ffffffff8010cd4f:	48 c7 45 e0 00 00 00 	movq   $0x0,-0x20(%rbp)
ffffffff8010cd56:	00 
ffffffff8010cd57:	48 8b 45 c8          	mov    -0x38(%rbp),%rax
ffffffff8010cd5b:	48 83 c0 28          	add    $0x28,%rax
ffffffff8010cd5f:	48 89 c7             	mov    %rax,%rdi
ffffffff8010cd62:	e8 39 11 00 00       	callq  ffffffff8010dea0 <spin_lock>
ffffffff8010cd67:	48 8b 45 c8          	mov    -0x38(%rbp),%rax
ffffffff8010cd6b:	48 8b 40 38          	mov    0x38(%rax),%rax
ffffffff8010cd6f:	48 39 45 f0          	cmp    %rax,-0x10(%rbp)
ffffffff8010cd73:	73 23                	jae    ffffffff8010cd98 <find_next_thread+0x72>
ffffffff8010cd75:	48 8b 45 c8          	mov    -0x38(%rbp),%rax
ffffffff8010cd79:	48 8b 48 20          	mov    0x20(%rax),%rcx
ffffffff8010cd7d:	48 8b 55 f0          	mov    -0x10(%rbp),%rdx
ffffffff8010cd81:	48 89 d0             	mov    %rdx,%rax
ffffffff8010cd84:	48 c1 e0 05          	shl    $0x5,%rax
ffffffff8010cd88:	48 29 d0             	sub    %rdx,%rax
ffffffff8010cd8b:	48 c1 e0 03          	shl    $0x3,%rax
ffffffff8010cd8f:	48 01 c8             	add    %rcx,%rax
ffffffff8010cd92:	48 89 45 e0          	mov    %rax,-0x20(%rbp)
ffffffff8010cd96:	eb 01                	jmp    ffffffff8010cd99 <find_next_thread+0x73>
ffffffff8010cd98:	90                   	nop
ffffffff8010cd99:	48 8b 45 c8          	mov    -0x38(%rbp),%rax
ffffffff8010cd9d:	48 83 c0 28          	add    $0x28,%rax
ffffffff8010cda1:	48 89 c7             	mov    %rax,%rdi
ffffffff8010cda4:	e8 4c 11 00 00       	callq  ffffffff8010def5 <spin_release>
ffffffff8010cda9:	48 8b 45 e0          	mov    -0x20(%rbp),%rax
ffffffff8010cdad:	48 89 45 d8          	mov    %rax,-0x28(%rbp)
ffffffff8010cdb1:	48 8b 45 d8          	mov    -0x28(%rbp),%rax
ffffffff8010cdb5:	48 8b 40 08          	mov    0x8(%rax),%rax
ffffffff8010cdb9:	48 8d 50 01          	lea    0x1(%rax),%rdx
ffffffff8010cdbd:	48 8b 45 d8          	mov    -0x28(%rbp),%rax
ffffffff8010cdc1:	48 89 50 08          	mov    %rdx,0x8(%rax)
ffffffff8010cdc5:	48 8b 45 d8          	mov    -0x28(%rbp),%rax
ffffffff8010cdc9:	48 8b 40 10          	mov    0x10(%rax),%rax
ffffffff8010cdcd:	48 85 c0             	test   %rax,%rax
ffffffff8010cdd0:	75 22                	jne    ffffffff8010cdf4 <find_next_thread+0xce>
ffffffff8010cdd2:	48 8b 45 d8          	mov    -0x28(%rbp),%rax
ffffffff8010cdd6:	48 8b 40 08          	mov    0x8(%rax),%rax
ffffffff8010cdda:	48 39 45 e8          	cmp    %rax,-0x18(%rbp)
ffffffff8010cdde:	73 14                	jae    ffffffff8010cdf4 <find_next_thread+0xce>
ffffffff8010cde0:	48 8b 45 d8          	mov    -0x28(%rbp),%rax
ffffffff8010cde4:	48 8b 40 08          	mov    0x8(%rax),%rax
ffffffff8010cde8:	48 89 45 e8          	mov    %rax,-0x18(%rbp)
ffffffff8010cdec:	48 8b 45 d8          	mov    -0x28(%rbp),%rax
ffffffff8010cdf0:	48 89 45 f8          	mov    %rax,-0x8(%rbp)
ffffffff8010cdf4:	48 83 45 f0 01       	addq   $0x1,-0x10(%rbp)
ffffffff8010cdf9:	48 8b 45 c8          	mov    -0x38(%rbp),%rax
ffffffff8010cdfd:	48 8b 40 18          	mov    0x18(%rax),%rax
ffffffff8010ce01:	48 39 45 f0          	cmp    %rax,-0x10(%rbp)
ffffffff8010ce05:	0f 82 44 ff ff ff    	jb     ffffffff8010cd4f <find_next_thread+0x29>
ffffffff8010ce0b:	48 8b 45 f8          	mov    -0x8(%rbp),%rax
ffffffff8010ce0f:	c9                   	leaveq 
ffffffff8010ce10:	c3                   	retq   

ffffffff8010ce11 <find_next_task>:
ffffffff8010ce11:	55                   	push   %rbp
ffffffff8010ce12:	48 89 e5             	mov    %rsp,%rbp
ffffffff8010ce15:	48 83 ec 30          	sub    $0x30,%rsp
ffffffff8010ce19:	48 c7 45 f8 00 00 00 	movq   $0x0,-0x8(%rbp)
ffffffff8010ce20:	00 
ffffffff8010ce21:	48 8b 05 b8 17 01 00 	mov    0x117b8(%rip),%rax        # ffffffff8011e5e0 <tasks>
ffffffff8010ce28:	48 83 f8 01          	cmp    $0x1,%rax
ffffffff8010ce2c:	75 43                	jne    ffffffff8010ce71 <find_next_task+0x60>
ffffffff8010ce2e:	48 c7 45 f0 00 00 00 	movq   $0x0,-0x10(%rbp)
ffffffff8010ce35:	00 
ffffffff8010ce36:	48 c7 c7 f0 e5 11 80 	mov    $0xffffffff8011e5f0,%rdi
ffffffff8010ce3d:	e8 5e 10 00 00       	callq  ffffffff8010dea0 <spin_lock>
ffffffff8010ce42:	48 8b 05 b7 17 01 00 	mov    0x117b7(%rip),%rax        # ffffffff8011e600 <tasks+0x20>
ffffffff8010ce49:	48 85 c0             	test   %rax,%rax
ffffffff8010ce4c:	74 0d                	je     ffffffff8010ce5b <find_next_task+0x4a>
ffffffff8010ce4e:	48 8b 05 93 17 01 00 	mov    0x11793(%rip),%rax        # ffffffff8011e5e8 <tasks+0x8>
ffffffff8010ce55:	48 89 45 f0          	mov    %rax,-0x10(%rbp)
ffffffff8010ce59:	eb 01                	jmp    ffffffff8010ce5c <find_next_task+0x4b>
ffffffff8010ce5b:	90                   	nop
ffffffff8010ce5c:	48 c7 c7 f0 e5 11 80 	mov    $0xffffffff8011e5f0,%rdi
ffffffff8010ce63:	e8 8d 10 00 00       	callq  ffffffff8010def5 <spin_release>
ffffffff8010ce68:	48 8b 45 f0          	mov    -0x10(%rbp),%rax
ffffffff8010ce6c:	e9 ca 00 00 00       	jmpq   ffffffff8010cf3b <find_next_task+0x12a>
ffffffff8010ce71:	48 c7 45 e8 00 00 00 	movq   $0x0,-0x18(%rbp)
ffffffff8010ce78:	00 
ffffffff8010ce79:	48 c7 45 e0 00 00 00 	movq   $0x0,-0x20(%rbp)
ffffffff8010ce80:	00 
ffffffff8010ce81:	e9 a0 00 00 00       	jmpq   ffffffff8010cf26 <find_next_task+0x115>
ffffffff8010ce86:	48 c7 45 d8 00 00 00 	movq   $0x0,-0x28(%rbp)
ffffffff8010ce8d:	00 
ffffffff8010ce8e:	48 c7 c7 f0 e5 11 80 	mov    $0xffffffff8011e5f0,%rdi
ffffffff8010ce95:	e8 06 10 00 00       	callq  ffffffff8010dea0 <spin_lock>
ffffffff8010ce9a:	48 8b 05 5f 17 01 00 	mov    0x1175f(%rip),%rax        # ffffffff8011e600 <tasks+0x20>
ffffffff8010cea1:	48 39 45 e8          	cmp    %rax,-0x18(%rbp)
ffffffff8010cea5:	73 22                	jae    ffffffff8010cec9 <find_next_task+0xb8>
ffffffff8010cea7:	48 8b 0d 3a 17 01 00 	mov    0x1173a(%rip),%rcx        # ffffffff8011e5e8 <tasks+0x8>
ffffffff8010ceae:	48 8b 55 e8          	mov    -0x18(%rbp),%rdx
ffffffff8010ceb2:	48 89 d0             	mov    %rdx,%rax
ffffffff8010ceb5:	48 c1 e0 02          	shl    $0x2,%rax
ffffffff8010ceb9:	48 01 d0             	add    %rdx,%rax
ffffffff8010cebc:	48 c1 e0 05          	shl    $0x5,%rax
ffffffff8010cec0:	48 01 c8             	add    %rcx,%rax
ffffffff8010cec3:	48 89 45 d8          	mov    %rax,-0x28(%rbp)
ffffffff8010cec7:	eb 01                	jmp    ffffffff8010ceca <find_next_task+0xb9>
ffffffff8010cec9:	90                   	nop
ffffffff8010ceca:	48 c7 c7 f0 e5 11 80 	mov    $0xffffffff8011e5f0,%rdi
ffffffff8010ced1:	e8 1f 10 00 00       	callq  ffffffff8010def5 <spin_release>
ffffffff8010ced6:	48 8b 45 d8          	mov    -0x28(%rbp),%rax
ffffffff8010ceda:	48 89 45 d0          	mov    %rax,-0x30(%rbp)
ffffffff8010cede:	48 8b 45 d0          	mov    -0x30(%rbp),%rax
ffffffff8010cee2:	48 8b 40 08          	mov    0x8(%rax),%rax
ffffffff8010cee6:	48 8d 50 01          	lea    0x1(%rax),%rdx
ffffffff8010ceea:	48 8b 45 d0          	mov    -0x30(%rbp),%rax
ffffffff8010ceee:	48 89 50 08          	mov    %rdx,0x8(%rax)
ffffffff8010cef2:	48 8b 45 d0          	mov    -0x30(%rbp),%rax
ffffffff8010cef6:	48 8b 40 10          	mov    0x10(%rax),%rax
ffffffff8010cefa:	48 85 c0             	test   %rax,%rax
ffffffff8010cefd:	75 22                	jne    ffffffff8010cf21 <find_next_task+0x110>
ffffffff8010ceff:	48 8b 45 d0          	mov    -0x30(%rbp),%rax
ffffffff8010cf03:	48 8b 40 08          	mov    0x8(%rax),%rax
ffffffff8010cf07:	48 39 45 e0          	cmp    %rax,-0x20(%rbp)
ffffffff8010cf0b:	73 14                	jae    ffffffff8010cf21 <find_next_task+0x110>
ffffffff8010cf0d:	48 8b 45 d0          	mov    -0x30(%rbp),%rax
ffffffff8010cf11:	48 8b 40 08          	mov    0x8(%rax),%rax
ffffffff8010cf15:	48 89 45 e0          	mov    %rax,-0x20(%rbp)
ffffffff8010cf19:	48 8b 45 d0          	mov    -0x30(%rbp),%rax
ffffffff8010cf1d:	48 89 45 f8          	mov    %rax,-0x8(%rbp)
ffffffff8010cf21:	48 83 45 e8 01       	addq   $0x1,-0x18(%rbp)
ffffffff8010cf26:	48 8b 05 b3 16 01 00 	mov    0x116b3(%rip),%rax        # ffffffff8011e5e0 <tasks>
ffffffff8010cf2d:	48 39 45 e8          	cmp    %rax,-0x18(%rbp)
ffffffff8010cf31:	0f 82 4f ff ff ff    	jb     ffffffff8010ce86 <find_next_task+0x75>
ffffffff8010cf37:	48 8b 45 f8          	mov    -0x8(%rbp),%rax
ffffffff8010cf3b:	c9                   	leaveq 
ffffffff8010cf3c:	c3                   	retq   

ffffffff8010cf3d <reschedule>:
ffffffff8010cf3d:	55                   	push   %rbp
ffffffff8010cf3e:	48 89 e5             	mov    %rsp,%rbp
ffffffff8010cf41:	48 81 ec 90 00 00 00 	sub    $0x90,%rsp
ffffffff8010cf48:	48 89 bd 78 ff ff ff 	mov    %rdi,-0x88(%rbp)
ffffffff8010cf4f:	48 c7 c7 ff ff ff ff 	mov    $0xffffffffffffffff,%rdi
ffffffff8010cf56:	e8 08 0f 00 00       	callq  ffffffff8010de63 <get_core_local>
ffffffff8010cf5b:	48 89 45 b8          	mov    %rax,-0x48(%rbp)
ffffffff8010cf5f:	b8 00 00 00 00       	mov    $0x0,%eax
ffffffff8010cf64:	e8 a8 fe ff ff       	callq  ffffffff8010ce11 <find_next_task>
ffffffff8010cf69:	48 89 45 b0          	mov    %rax,-0x50(%rbp)
ffffffff8010cf6d:	48 83 7d b0 00       	cmpq   $0x0,-0x50(%rbp)
ffffffff8010cf72:	0f 84 ef 02 00 00    	je     ffffffff8010d267 <reschedule+0x32a>
ffffffff8010cf78:	48 8b 45 b0          	mov    -0x50(%rbp),%rax
ffffffff8010cf7c:	48 89 c7             	mov    %rax,%rdi
ffffffff8010cf7f:	e8 a2 fd ff ff       	callq  ffffffff8010cd26 <find_next_thread>
ffffffff8010cf84:	48 89 45 a8          	mov    %rax,-0x58(%rbp)
ffffffff8010cf88:	48 83 7d a8 00       	cmpq   $0x0,-0x58(%rbp)
ffffffff8010cf8d:	0f 84 d7 02 00 00    	je     ffffffff8010d26a <reschedule+0x32d>
ffffffff8010cf93:	48 8b 45 a8          	mov    -0x58(%rbp),%rax
ffffffff8010cf97:	8b 00                	mov    (%rax),%eax
ffffffff8010cf99:	89 45 a4             	mov    %eax,-0x5c(%rbp)
ffffffff8010cf9c:	48 8b 45 b0          	mov    -0x50(%rbp),%rax
ffffffff8010cfa0:	8b 00                	mov    (%rax),%eax
ffffffff8010cfa2:	89 45 a0             	mov    %eax,-0x60(%rbp)
ffffffff8010cfa5:	48 8b 45 b8          	mov    -0x48(%rbp),%rax
ffffffff8010cfa9:	8b 40 2c             	mov    0x2c(%rax),%eax
ffffffff8010cfac:	83 f8 ff             	cmp    $0xffffffff,%eax
ffffffff8010cfaf:	0f 84 41 02 00 00    	je     ffffffff8010d1f6 <reschedule+0x2b9>
ffffffff8010cfb5:	48 8b 45 b8          	mov    -0x48(%rbp),%rax
ffffffff8010cfb9:	8b 40 28             	mov    0x28(%rax),%eax
ffffffff8010cfbc:	83 f8 ff             	cmp    $0xffffffff,%eax
ffffffff8010cfbf:	0f 84 31 02 00 00    	je     ffffffff8010d1f6 <reschedule+0x2b9>
ffffffff8010cfc5:	48 c7 45 f8 00 00 00 	movq   $0x0,-0x8(%rbp)
ffffffff8010cfcc:	00 
ffffffff8010cfcd:	48 c7 45 f0 00 00 00 	movq   $0x0,-0x10(%rbp)
ffffffff8010cfd4:	00 
ffffffff8010cfd5:	eb 65                	jmp    ffffffff8010d03c <reschedule+0xff>
ffffffff8010cfd7:	48 c7 45 e8 00 00 00 	movq   $0x0,-0x18(%rbp)
ffffffff8010cfde:	00 
ffffffff8010cfdf:	48 c7 c7 18 e6 11 80 	mov    $0xffffffff8011e618,%rdi
ffffffff8010cfe6:	e8 b5 0e 00 00       	callq  ffffffff8010dea0 <spin_lock>
ffffffff8010cfeb:	48 8b 05 36 16 01 00 	mov    0x11636(%rip),%rax        # ffffffff8011e628 <tasks+0x48>
ffffffff8010cff2:	48 39 45 f0          	cmp    %rax,-0x10(%rbp)
ffffffff8010cff6:	73 18                	jae    ffffffff8010d010 <reschedule+0xd3>
ffffffff8010cff8:	48 8b 15 11 16 01 00 	mov    0x11611(%rip),%rdx        # ffffffff8011e610 <tasks+0x30>
ffffffff8010cfff:	48 8b 45 f0          	mov    -0x10(%rbp),%rax
ffffffff8010d003:	48 c1 e0 03          	shl    $0x3,%rax
ffffffff8010d007:	48 01 d0             	add    %rdx,%rax
ffffffff8010d00a:	48 89 45 e8          	mov    %rax,-0x18(%rbp)
ffffffff8010d00e:	eb 01                	jmp    ffffffff8010d011 <reschedule+0xd4>
ffffffff8010d010:	90                   	nop
ffffffff8010d011:	48 c7 c7 18 e6 11 80 	mov    $0xffffffff8011e618,%rdi
ffffffff8010d018:	e8 d8 0e 00 00       	callq  ffffffff8010def5 <spin_release>
ffffffff8010d01d:	48 8b 45 e8          	mov    -0x18(%rbp),%rax
ffffffff8010d021:	48 8b 00             	mov    (%rax),%rax
ffffffff8010d024:	48 89 45 98          	mov    %rax,-0x68(%rbp)
ffffffff8010d028:	48 8b 45 b8          	mov    -0x48(%rbp),%rax
ffffffff8010d02c:	8b 40 28             	mov    0x28(%rax),%eax
ffffffff8010d02f:	48 98                	cltq   
ffffffff8010d031:	48 39 45 98          	cmp    %rax,-0x68(%rbp)
ffffffff8010d035:	74 14                	je     ffffffff8010d04b <reschedule+0x10e>
ffffffff8010d037:	48 83 45 f0 01       	addq   $0x1,-0x10(%rbp)
ffffffff8010d03c:	48 8b 05 e5 15 01 00 	mov    0x115e5(%rip),%rax        # ffffffff8011e628 <tasks+0x48>
ffffffff8010d043:	48 39 45 f0          	cmp    %rax,-0x10(%rbp)
ffffffff8010d047:	72 8e                	jb     ffffffff8010cfd7 <reschedule+0x9a>
ffffffff8010d049:	eb 59                	jmp    ffffffff8010d0a4 <reschedule+0x167>
ffffffff8010d04b:	90                   	nop
ffffffff8010d04c:	48 c7 45 e0 00 00 00 	movq   $0x0,-0x20(%rbp)
ffffffff8010d053:	00 
ffffffff8010d054:	48 c7 c7 f0 e5 11 80 	mov    $0xffffffff8011e5f0,%rdi
ffffffff8010d05b:	e8 40 0e 00 00       	callq  ffffffff8010dea0 <spin_lock>
ffffffff8010d060:	48 8b 05 99 15 01 00 	mov    0x11599(%rip),%rax        # ffffffff8011e600 <tasks+0x20>
ffffffff8010d067:	48 39 45 f0          	cmp    %rax,-0x10(%rbp)
ffffffff8010d06b:	73 22                	jae    ffffffff8010d08f <reschedule+0x152>
ffffffff8010d06d:	48 8b 0d 74 15 01 00 	mov    0x11574(%rip),%rcx        # ffffffff8011e5e8 <tasks+0x8>
ffffffff8010d074:	48 8b 55 f0          	mov    -0x10(%rbp),%rdx
ffffffff8010d078:	48 89 d0             	mov    %rdx,%rax
ffffffff8010d07b:	48 c1 e0 02          	shl    $0x2,%rax
ffffffff8010d07f:	48 01 d0             	add    %rdx,%rax
ffffffff8010d082:	48 c1 e0 05          	shl    $0x5,%rax
ffffffff8010d086:	48 01 c8             	add    %rcx,%rax
ffffffff8010d089:	48 89 45 e0          	mov    %rax,-0x20(%rbp)
ffffffff8010d08d:	eb 01                	jmp    ffffffff8010d090 <reschedule+0x153>
ffffffff8010d08f:	90                   	nop
ffffffff8010d090:	48 c7 c7 f0 e5 11 80 	mov    $0xffffffff8011e5f0,%rdi
ffffffff8010d097:	e8 59 0e 00 00       	callq  ffffffff8010def5 <spin_release>
ffffffff8010d09c:	48 8b 45 e0          	mov    -0x20(%rbp),%rax
ffffffff8010d0a0:	48 89 45 f8          	mov    %rax,-0x8(%rbp)
ffffffff8010d0a4:	48 8b 45 f8          	mov    -0x8(%rbp),%rax
ffffffff8010d0a8:	48 89 45 90          	mov    %rax,-0x70(%rbp)
ffffffff8010d0ac:	48 83 7d 90 00       	cmpq   $0x0,-0x70(%rbp)
ffffffff8010d0b1:	0f 84 b6 01 00 00    	je     ffffffff8010d26d <reschedule+0x330>
ffffffff8010d0b7:	48 c7 45 d8 00 00 00 	movq   $0x0,-0x28(%rbp)
ffffffff8010d0be:	00 
ffffffff8010d0bf:	48 c7 45 d0 00 00 00 	movq   $0x0,-0x30(%rbp)
ffffffff8010d0c6:	00 
ffffffff8010d0c7:	eb 6f                	jmp    ffffffff8010d138 <reschedule+0x1fb>
ffffffff8010d0c9:	48 c7 45 c8 00 00 00 	movq   $0x0,-0x38(%rbp)
ffffffff8010d0d0:	00 
ffffffff8010d0d1:	48 8b 45 90          	mov    -0x70(%rbp),%rax
ffffffff8010d0d5:	48 83 c0 50          	add    $0x50,%rax
ffffffff8010d0d9:	48 89 c7             	mov    %rax,%rdi
ffffffff8010d0dc:	e8 bf 0d 00 00       	callq  ffffffff8010dea0 <spin_lock>
ffffffff8010d0e1:	48 8b 45 90          	mov    -0x70(%rbp),%rax
ffffffff8010d0e5:	48 8b 40 60          	mov    0x60(%rax),%rax
ffffffff8010d0e9:	48 39 45 d0          	cmp    %rax,-0x30(%rbp)
ffffffff8010d0ed:	73 19                	jae    ffffffff8010d108 <reschedule+0x1cb>
ffffffff8010d0ef:	48 8b 45 90          	mov    -0x70(%rbp),%rax
ffffffff8010d0f3:	48 8b 50 48          	mov    0x48(%rax),%rdx
ffffffff8010d0f7:	48 8b 45 d0          	mov    -0x30(%rbp),%rax
ffffffff8010d0fb:	48 c1 e0 03          	shl    $0x3,%rax
ffffffff8010d0ff:	48 01 d0             	add    %rdx,%rax
ffffffff8010d102:	48 89 45 c8          	mov    %rax,-0x38(%rbp)
ffffffff8010d106:	eb 01                	jmp    ffffffff8010d109 <reschedule+0x1cc>
ffffffff8010d108:	90                   	nop
ffffffff8010d109:	48 8b 45 90          	mov    -0x70(%rbp),%rax
ffffffff8010d10d:	48 83 c0 50          	add    $0x50,%rax
ffffffff8010d111:	48 89 c7             	mov    %rax,%rdi
ffffffff8010d114:	e8 dc 0d 00 00       	callq  ffffffff8010def5 <spin_release>
ffffffff8010d119:	48 8b 45 c8          	mov    -0x38(%rbp),%rax
ffffffff8010d11d:	48 8b 00             	mov    (%rax),%rax
ffffffff8010d120:	48 89 45 88          	mov    %rax,-0x78(%rbp)
ffffffff8010d124:	48 8b 45 b8          	mov    -0x48(%rbp),%rax
ffffffff8010d128:	8b 40 2c             	mov    0x2c(%rax),%eax
ffffffff8010d12b:	48 98                	cltq   
ffffffff8010d12d:	48 39 45 88          	cmp    %rax,-0x78(%rbp)
ffffffff8010d131:	74 15                	je     ffffffff8010d148 <reschedule+0x20b>
ffffffff8010d133:	48 83 45 d0 01       	addq   $0x1,-0x30(%rbp)
ffffffff8010d138:	48 8b 45 90          	mov    -0x70(%rbp),%rax
ffffffff8010d13c:	48 8b 40 60          	mov    0x60(%rax),%rax
ffffffff8010d140:	48 39 45 d0          	cmp    %rax,-0x30(%rbp)
ffffffff8010d144:	72 83                	jb     ffffffff8010d0c9 <reschedule+0x18c>
ffffffff8010d146:	eb 63                	jmp    ffffffff8010d1ab <reschedule+0x26e>
ffffffff8010d148:	90                   	nop
ffffffff8010d149:	48 c7 45 c0 00 00 00 	movq   $0x0,-0x40(%rbp)
ffffffff8010d150:	00 
ffffffff8010d151:	48 8b 45 90          	mov    -0x70(%rbp),%rax
ffffffff8010d155:	48 83 c0 28          	add    $0x28,%rax
ffffffff8010d159:	48 89 c7             	mov    %rax,%rdi
ffffffff8010d15c:	e8 3f 0d 00 00       	callq  ffffffff8010dea0 <spin_lock>
ffffffff8010d161:	48 8b 45 90          	mov    -0x70(%rbp),%rax
ffffffff8010d165:	48 8b 40 38          	mov    0x38(%rax),%rax
ffffffff8010d169:	48 39 45 d0          	cmp    %rax,-0x30(%rbp)
ffffffff8010d16d:	73 23                	jae    ffffffff8010d192 <reschedule+0x255>
ffffffff8010d16f:	48 8b 45 90          	mov    -0x70(%rbp),%rax
ffffffff8010d173:	48 8b 48 20          	mov    0x20(%rax),%rcx
ffffffff8010d177:	48 8b 55 d0          	mov    -0x30(%rbp),%rdx
ffffffff8010d17b:	48 89 d0             	mov    %rdx,%rax
ffffffff8010d17e:	48 c1 e0 05          	shl    $0x5,%rax
ffffffff8010d182:	48 29 d0             	sub    %rdx,%rax
ffffffff8010d185:	48 c1 e0 03          	shl    $0x3,%rax
ffffffff8010d189:	48 01 c8             	add    %rcx,%rax
ffffffff8010d18c:	48 89 45 c0          	mov    %rax,-0x40(%rbp)
ffffffff8010d190:	eb 01                	jmp    ffffffff8010d193 <reschedule+0x256>
ffffffff8010d192:	90                   	nop
ffffffff8010d193:	48 8b 45 90          	mov    -0x70(%rbp),%rax
ffffffff8010d197:	48 83 c0 28          	add    $0x28,%rax
ffffffff8010d19b:	48 89 c7             	mov    %rax,%rdi
ffffffff8010d19e:	e8 52 0d 00 00       	callq  ffffffff8010def5 <spin_release>
ffffffff8010d1a3:	48 8b 45 c0          	mov    -0x40(%rbp),%rax
ffffffff8010d1a7:	48 89 45 d8          	mov    %rax,-0x28(%rbp)
ffffffff8010d1ab:	48 8b 45 d8          	mov    -0x28(%rbp),%rax
ffffffff8010d1af:	48 89 45 80          	mov    %rax,-0x80(%rbp)
ffffffff8010d1b3:	48 83 7d 80 00       	cmpq   $0x0,-0x80(%rbp)
ffffffff8010d1b8:	0f 84 b2 00 00 00    	je     ffffffff8010d270 <reschedule+0x333>
ffffffff8010d1be:	48 8b 45 80          	mov    -0x80(%rbp),%rax
ffffffff8010d1c2:	48 8b 95 78 ff ff ff 	mov    -0x88(%rbp),%rdx
ffffffff8010d1c9:	48 83 c0 48          	add    $0x48,%rax
ffffffff8010d1cd:	48 89 d6             	mov    %rdx,%rsi
ffffffff8010d1d0:	ba 16 00 00 00       	mov    $0x16,%edx
ffffffff8010d1d5:	48 89 c7             	mov    %rax,%rdi
ffffffff8010d1d8:	48 89 d1             	mov    %rdx,%rcx
ffffffff8010d1db:	f3 48 a5             	rep movsq %ds:(%rsi),%es:(%rdi)
ffffffff8010d1de:	48 8b 45 80          	mov    -0x80(%rbp),%rax
ffffffff8010d1e2:	48 c7 40 10 00 00 00 	movq   $0x0,0x10(%rax)
ffffffff8010d1e9:	00 
ffffffff8010d1ea:	48 8b 45 90          	mov    -0x70(%rbp),%rax
ffffffff8010d1ee:	48 c7 40 10 00 00 00 	movq   $0x0,0x10(%rax)
ffffffff8010d1f5:	00 
ffffffff8010d1f6:	48 8b 45 b8          	mov    -0x48(%rbp),%rax
ffffffff8010d1fa:	8b 55 a0             	mov    -0x60(%rbp),%edx
ffffffff8010d1fd:	89 50 28             	mov    %edx,0x28(%rax)
ffffffff8010d200:	48 8b 45 b8          	mov    -0x48(%rbp),%rax
ffffffff8010d204:	8b 55 a4             	mov    -0x5c(%rbp),%edx
ffffffff8010d207:	89 50 2c             	mov    %edx,0x2c(%rax)
ffffffff8010d20a:	48 8b 45 a8          	mov    -0x58(%rbp),%rax
ffffffff8010d20e:	48 c7 40 08 00 00 00 	movq   $0x0,0x8(%rax)
ffffffff8010d215:	00 
ffffffff8010d216:	48 8b 45 b0          	mov    -0x50(%rbp),%rax
ffffffff8010d21a:	48 c7 40 08 00 00 00 	movq   $0x0,0x8(%rax)
ffffffff8010d221:	00 
ffffffff8010d222:	48 8b 45 a8          	mov    -0x58(%rbp),%rax
ffffffff8010d226:	48 c7 40 10 02 00 00 	movq   $0x2,0x10(%rax)
ffffffff8010d22d:	00 
ffffffff8010d22e:	48 8b 45 b0          	mov    -0x50(%rbp),%rax
ffffffff8010d232:	48 c7 40 10 02 00 00 	movq   $0x2,0x10(%rax)
ffffffff8010d239:	00 
ffffffff8010d23a:	be 00 00 00 00       	mov    $0x0,%esi
ffffffff8010d23f:	bf b0 00 00 00       	mov    $0xb0,%edi
ffffffff8010d244:	e8 bf 49 ff ff       	callq  ffffffff80101c08 <lapic_write>
ffffffff8010d249:	48 c7 c7 c0 e5 11 80 	mov    $0xffffffff8011e5c0,%rdi
ffffffff8010d250:	e8 a0 0c 00 00       	callq  ffffffff8010def5 <spin_release>
ffffffff8010d255:	48 8b 45 a8          	mov    -0x58(%rbp),%rax
ffffffff8010d259:	48 83 c0 48          	add    $0x48,%rax
ffffffff8010d25d:	48 89 c7             	mov    %rax,%rdi
ffffffff8010d260:	e8 93 08 00 00       	callq  ffffffff8010daf8 <switch_task>
ffffffff8010d265:	eb 0a                	jmp    ffffffff8010d271 <reschedule+0x334>
ffffffff8010d267:	90                   	nop
ffffffff8010d268:	eb 07                	jmp    ffffffff8010d271 <reschedule+0x334>
ffffffff8010d26a:	90                   	nop
ffffffff8010d26b:	eb 04                	jmp    ffffffff8010d271 <reschedule+0x334>
ffffffff8010d26d:	90                   	nop
ffffffff8010d26e:	eb 01                	jmp    ffffffff8010d271 <reschedule+0x334>
ffffffff8010d270:	90                   	nop
ffffffff8010d271:	c9                   	leaveq 
ffffffff8010d272:	c3                   	retq   

ffffffff8010d273 <sched_create_task>:
ffffffff8010d273:	55                   	push   %rbp
ffffffff8010d274:	48 89 e5             	mov    %rsp,%rbp
ffffffff8010d277:	48 81 ec 00 01 00 00 	sub    $0x100,%rsp
ffffffff8010d27e:	48 89 bd 08 ff ff ff 	mov    %rdi,-0xf8(%rbp)
ffffffff8010d285:	48 89 b5 00 ff ff ff 	mov    %rsi,-0x100(%rbp)
ffffffff8010d28c:	48 8d 95 18 ff ff ff 	lea    -0xe8(%rbp),%rdx
ffffffff8010d293:	b8 00 00 00 00       	mov    $0x0,%eax
ffffffff8010d298:	b9 14 00 00 00       	mov    $0x14,%ecx
ffffffff8010d29d:	48 89 d7             	mov    %rdx,%rdi
ffffffff8010d2a0:	f3 48 ab             	rep stos %rax,%es:(%rdi)
ffffffff8010d2a3:	48 83 bd 08 ff ff ff 	cmpq   $0x0,-0xf8(%rbp)
ffffffff8010d2aa:	00 
ffffffff8010d2ab:	74 0f                	je     ffffffff8010d2bc <sched_create_task+0x49>
ffffffff8010d2ad:	48 8b 85 08 ff ff ff 	mov    -0xf8(%rbp),%rax
ffffffff8010d2b4:	8b 00                	mov    (%rax),%eax
ffffffff8010d2b6:	89 85 1c ff ff ff    	mov    %eax,-0xe4(%rbp)
ffffffff8010d2bc:	48 83 bd 00 ff ff ff 	cmpq   $0x0,-0x100(%rbp)
ffffffff8010d2c3:	00 
ffffffff8010d2c4:	74 0b                	je     ffffffff8010d2d1 <sched_create_task+0x5e>
ffffffff8010d2c6:	48 8b 85 00 ff ff ff 	mov    -0x100(%rbp),%rax
ffffffff8010d2cd:	48 89 45 b0          	mov    %rax,-0x50(%rbp)
ffffffff8010d2d1:	48 8b 05 08 13 01 00 	mov    0x11308(%rip),%rax        # ffffffff8011e5e0 <tasks>
ffffffff8010d2d8:	48 89 45 d8          	mov    %rax,-0x28(%rbp)
ffffffff8010d2dc:	48 c7 c7 f0 e5 11 80 	mov    $0xffffffff8011e5f0,%rdi
ffffffff8010d2e3:	e8 b8 0b 00 00       	callq  ffffffff8010dea0 <spin_lock>
ffffffff8010d2e8:	c7 45 d4 00 00 00 00 	movl   $0x0,-0x2c(%rbp)
ffffffff8010d2ef:	48 8b 05 f2 12 01 00 	mov    0x112f2(%rip),%rax        # ffffffff8011e5e8 <tasks+0x8>
ffffffff8010d2f6:	48 85 c0             	test   %rax,%rax
ffffffff8010d2f9:	75 1c                	jne    ffffffff8010d317 <sched_create_task+0xa4>
ffffffff8010d2fb:	bf 00 14 00 00       	mov    $0x1400,%edi
ffffffff8010d300:	e8 42 50 ff ff       	callq  ffffffff80102347 <kmalloc>
ffffffff8010d305:	48 89 05 dc 12 01 00 	mov    %rax,0x112dc(%rip)        # ffffffff8011e5e8 <tasks+0x8>
ffffffff8010d30c:	48 c7 05 e1 12 01 00 	movq   $0x20,0x112e1(%rip)        # ffffffff8011e5f8 <tasks+0x18>
ffffffff8010d313:	20 00 00 00 
ffffffff8010d317:	48 8b 15 ea 12 01 00 	mov    0x112ea(%rip),%rdx        # ffffffff8011e608 <tasks+0x28>
ffffffff8010d31e:	48 8b 05 d3 12 01 00 	mov    0x112d3(%rip),%rax        # ffffffff8011e5f8 <tasks+0x18>
ffffffff8010d325:	48 39 c2             	cmp    %rax,%rdx
ffffffff8010d328:	76 32                	jbe    ffffffff8010d35c <sched_create_task+0xe9>
ffffffff8010d32a:	48 8b 05 c7 12 01 00 	mov    0x112c7(%rip),%rax        # ffffffff8011e5f8 <tasks+0x18>
ffffffff8010d331:	48 83 c0 20          	add    $0x20,%rax
ffffffff8010d335:	48 89 05 bc 12 01 00 	mov    %rax,0x112bc(%rip)        # ffffffff8011e5f8 <tasks+0x18>
ffffffff8010d33c:	48 8b 15 b5 12 01 00 	mov    0x112b5(%rip),%rdx        # ffffffff8011e5f8 <tasks+0x18>
ffffffff8010d343:	48 8b 05 9e 12 01 00 	mov    0x1129e(%rip),%rax        # ffffffff8011e5e8 <tasks+0x8>
ffffffff8010d34a:	48 89 d6             	mov    %rdx,%rsi
ffffffff8010d34d:	48 89 c7             	mov    %rax,%rdi
ffffffff8010d350:	e8 ba 52 ff ff       	callq  ffffffff8010260f <krealloc>
ffffffff8010d355:	48 89 05 8c 12 01 00 	mov    %rax,0x1128c(%rip)        # ffffffff8011e5e8 <tasks+0x8>
ffffffff8010d35c:	48 8b 05 a5 12 01 00 	mov    0x112a5(%rip),%rax        # ffffffff8011e608 <tasks+0x28>
ffffffff8010d363:	89 45 d4             	mov    %eax,-0x2c(%rbp)
ffffffff8010d366:	48 8b 0d 7b 12 01 00 	mov    0x1127b(%rip),%rcx        # ffffffff8011e5e8 <tasks+0x8>
ffffffff8010d36d:	48 8b 15 94 12 01 00 	mov    0x11294(%rip),%rdx        # ffffffff8011e608 <tasks+0x28>
ffffffff8010d374:	48 8d 42 01          	lea    0x1(%rdx),%rax
ffffffff8010d378:	48 89 05 89 12 01 00 	mov    %rax,0x11289(%rip)        # ffffffff8011e608 <tasks+0x28>
ffffffff8010d37f:	48 89 d0             	mov    %rdx,%rax
ffffffff8010d382:	48 c1 e0 02          	shl    $0x2,%rax
ffffffff8010d386:	48 01 d0             	add    %rdx,%rax
ffffffff8010d389:	48 c1 e0 05          	shl    $0x5,%rax
ffffffff8010d38d:	48 01 c8             	add    %rcx,%rax
ffffffff8010d390:	48 89 c7             	mov    %rax,%rdi
ffffffff8010d393:	48 8d 85 18 ff ff ff 	lea    -0xe8(%rbp),%rax
ffffffff8010d39a:	ba 14 00 00 00       	mov    $0x14,%edx
ffffffff8010d39f:	48 89 c6             	mov    %rax,%rsi
ffffffff8010d3a2:	48 89 d1             	mov    %rdx,%rcx
ffffffff8010d3a5:	f3 48 a5             	rep movsq %ds:(%rsi),%es:(%rdi)
ffffffff8010d3a8:	48 8b 05 51 12 01 00 	mov    0x11251(%rip),%rax        # ffffffff8011e600 <tasks+0x20>
ffffffff8010d3af:	48 83 c0 01          	add    $0x1,%rax
ffffffff8010d3b3:	48 89 05 46 12 01 00 	mov    %rax,0x11246(%rip)        # ffffffff8011e600 <tasks+0x20>
ffffffff8010d3ba:	48 c7 c7 f0 e5 11 80 	mov    $0xffffffff8011e5f0,%rdi
ffffffff8010d3c1:	e8 2f 0b 00 00       	callq  ffffffff8010def5 <spin_release>
ffffffff8010d3c6:	48 c7 c7 18 e6 11 80 	mov    $0xffffffff8011e618,%rdi
ffffffff8010d3cd:	e8 ce 0a 00 00       	callq  ffffffff8010dea0 <spin_lock>
ffffffff8010d3d2:	c7 45 d0 00 00 00 00 	movl   $0x0,-0x30(%rbp)
ffffffff8010d3d9:	48 8b 05 30 12 01 00 	mov    0x11230(%rip),%rax        # ffffffff8011e610 <tasks+0x30>
ffffffff8010d3e0:	48 85 c0             	test   %rax,%rax
ffffffff8010d3e3:	75 1c                	jne    ffffffff8010d401 <sched_create_task+0x18e>
ffffffff8010d3e5:	bf 00 14 00 00       	mov    $0x1400,%edi
ffffffff8010d3ea:	e8 58 4f ff ff       	callq  ffffffff80102347 <kmalloc>
ffffffff8010d3ef:	48 89 05 1a 12 01 00 	mov    %rax,0x1121a(%rip)        # ffffffff8011e610 <tasks+0x30>
ffffffff8010d3f6:	48 c7 05 1f 12 01 00 	movq   $0x20,0x1121f(%rip)        # ffffffff8011e620 <tasks+0x40>
ffffffff8010d3fd:	20 00 00 00 
ffffffff8010d401:	48 8b 15 28 12 01 00 	mov    0x11228(%rip),%rdx        # ffffffff8011e630 <tasks+0x50>
ffffffff8010d408:	48 8b 05 11 12 01 00 	mov    0x11211(%rip),%rax        # ffffffff8011e620 <tasks+0x40>
ffffffff8010d40f:	48 39 c2             	cmp    %rax,%rdx
ffffffff8010d412:	76 32                	jbe    ffffffff8010d446 <sched_create_task+0x1d3>
ffffffff8010d414:	48 8b 05 05 12 01 00 	mov    0x11205(%rip),%rax        # ffffffff8011e620 <tasks+0x40>
ffffffff8010d41b:	48 83 c0 20          	add    $0x20,%rax
ffffffff8010d41f:	48 89 05 fa 11 01 00 	mov    %rax,0x111fa(%rip)        # ffffffff8011e620 <tasks+0x40>
ffffffff8010d426:	48 8b 15 f3 11 01 00 	mov    0x111f3(%rip),%rdx        # ffffffff8011e620 <tasks+0x40>
ffffffff8010d42d:	48 8b 05 dc 11 01 00 	mov    0x111dc(%rip),%rax        # ffffffff8011e610 <tasks+0x30>
ffffffff8010d434:	48 89 d6             	mov    %rdx,%rsi
ffffffff8010d437:	48 89 c7             	mov    %rax,%rdi
ffffffff8010d43a:	e8 d0 51 ff ff       	callq  ffffffff8010260f <krealloc>
ffffffff8010d43f:	48 89 05 ca 11 01 00 	mov    %rax,0x111ca(%rip)        # ffffffff8011e610 <tasks+0x30>
ffffffff8010d446:	48 8b 05 e3 11 01 00 	mov    0x111e3(%rip),%rax        # ffffffff8011e630 <tasks+0x50>
ffffffff8010d44d:	89 45 d0             	mov    %eax,-0x30(%rbp)
ffffffff8010d450:	48 8b 05 89 11 01 00 	mov    0x11189(%rip),%rax        # ffffffff8011e5e0 <tasks>
ffffffff8010d457:	48 8d 50 01          	lea    0x1(%rax),%rdx
ffffffff8010d45b:	48 89 15 7e 11 01 00 	mov    %rdx,0x1117e(%rip)        # ffffffff8011e5e0 <tasks>
ffffffff8010d462:	48 8b 35 a7 11 01 00 	mov    0x111a7(%rip),%rsi        # ffffffff8011e610 <tasks+0x30>
ffffffff8010d469:	48 8b 15 c0 11 01 00 	mov    0x111c0(%rip),%rdx        # ffffffff8011e630 <tasks+0x50>
ffffffff8010d470:	48 8d 4a 01          	lea    0x1(%rdx),%rcx
ffffffff8010d474:	48 89 0d b5 11 01 00 	mov    %rcx,0x111b5(%rip)        # ffffffff8011e630 <tasks+0x50>
ffffffff8010d47b:	48 c1 e2 03          	shl    $0x3,%rdx
ffffffff8010d47f:	48 01 f2             	add    %rsi,%rdx
ffffffff8010d482:	48 89 02             	mov    %rax,(%rdx)
ffffffff8010d485:	48 8b 05 9c 11 01 00 	mov    0x1119c(%rip),%rax        # ffffffff8011e628 <tasks+0x48>
ffffffff8010d48c:	48 83 c0 01          	add    $0x1,%rax
ffffffff8010d490:	48 89 05 91 11 01 00 	mov    %rax,0x11191(%rip)        # ffffffff8011e628 <tasks+0x48>
ffffffff8010d497:	48 c7 c7 18 e6 11 80 	mov    $0xffffffff8011e618,%rdi
ffffffff8010d49e:	e8 52 0a 00 00       	callq  ffffffff8010def5 <spin_release>
ffffffff8010d4a3:	48 8b 45 d8          	mov    -0x28(%rbp),%rax
ffffffff8010d4a7:	89 45 cc             	mov    %eax,-0x34(%rbp)
ffffffff8010d4aa:	48 c7 45 f8 00 00 00 	movq   $0x0,-0x8(%rbp)
ffffffff8010d4b1:	00 
ffffffff8010d4b2:	48 c7 45 f0 00 00 00 	movq   $0x0,-0x10(%rbp)
ffffffff8010d4b9:	00 
ffffffff8010d4ba:	eb 61                	jmp    ffffffff8010d51d <sched_create_task+0x2aa>
ffffffff8010d4bc:	48 c7 45 e8 00 00 00 	movq   $0x0,-0x18(%rbp)
ffffffff8010d4c3:	00 
ffffffff8010d4c4:	48 c7 c7 18 e6 11 80 	mov    $0xffffffff8011e618,%rdi
ffffffff8010d4cb:	e8 d0 09 00 00       	callq  ffffffff8010dea0 <spin_lock>
ffffffff8010d4d0:	48 8b 05 51 11 01 00 	mov    0x11151(%rip),%rax        # ffffffff8011e628 <tasks+0x48>
ffffffff8010d4d7:	48 39 45 f0          	cmp    %rax,-0x10(%rbp)
ffffffff8010d4db:	73 18                	jae    ffffffff8010d4f5 <sched_create_task+0x282>
ffffffff8010d4dd:	48 8b 15 2c 11 01 00 	mov    0x1112c(%rip),%rdx        # ffffffff8011e610 <tasks+0x30>
ffffffff8010d4e4:	48 8b 45 f0          	mov    -0x10(%rbp),%rax
ffffffff8010d4e8:	48 c1 e0 03          	shl    $0x3,%rax
ffffffff8010d4ec:	48 01 d0             	add    %rdx,%rax
ffffffff8010d4ef:	48 89 45 e8          	mov    %rax,-0x18(%rbp)
ffffffff8010d4f3:	eb 01                	jmp    ffffffff8010d4f6 <sched_create_task+0x283>
ffffffff8010d4f5:	90                   	nop
ffffffff8010d4f6:	48 c7 c7 18 e6 11 80 	mov    $0xffffffff8011e618,%rdi
ffffffff8010d4fd:	e8 f3 09 00 00       	callq  ffffffff8010def5 <spin_release>
ffffffff8010d502:	48 8b 45 e8          	mov    -0x18(%rbp),%rax
ffffffff8010d506:	48 8b 00             	mov    (%rax),%rax
ffffffff8010d509:	48 89 45 c0          	mov    %rax,-0x40(%rbp)
ffffffff8010d50d:	8b 45 cc             	mov    -0x34(%rbp),%eax
ffffffff8010d510:	48 98                	cltq   
ffffffff8010d512:	48 39 45 c0          	cmp    %rax,-0x40(%rbp)
ffffffff8010d516:	74 14                	je     ffffffff8010d52c <sched_create_task+0x2b9>
ffffffff8010d518:	48 83 45 f0 01       	addq   $0x1,-0x10(%rbp)
ffffffff8010d51d:	48 8b 05 04 11 01 00 	mov    0x11104(%rip),%rax        # ffffffff8011e628 <tasks+0x48>
ffffffff8010d524:	48 39 45 f0          	cmp    %rax,-0x10(%rbp)
ffffffff8010d528:	72 92                	jb     ffffffff8010d4bc <sched_create_task+0x249>
ffffffff8010d52a:	eb 59                	jmp    ffffffff8010d585 <sched_create_task+0x312>
ffffffff8010d52c:	90                   	nop
ffffffff8010d52d:	48 c7 45 e0 00 00 00 	movq   $0x0,-0x20(%rbp)
ffffffff8010d534:	00 
ffffffff8010d535:	48 c7 c7 f0 e5 11 80 	mov    $0xffffffff8011e5f0,%rdi
ffffffff8010d53c:	e8 5f 09 00 00       	callq  ffffffff8010dea0 <spin_lock>
ffffffff8010d541:	48 8b 05 b8 10 01 00 	mov    0x110b8(%rip),%rax        # ffffffff8011e600 <tasks+0x20>
ffffffff8010d548:	48 39 45 f0          	cmp    %rax,-0x10(%rbp)
ffffffff8010d54c:	73 22                	jae    ffffffff8010d570 <sched_create_task+0x2fd>
ffffffff8010d54e:	48 8b 0d 93 10 01 00 	mov    0x11093(%rip),%rcx        # ffffffff8011e5e8 <tasks+0x8>
ffffffff8010d555:	48 8b 55 f0          	mov    -0x10(%rbp),%rdx
ffffffff8010d559:	48 89 d0             	mov    %rdx,%rax
ffffffff8010d55c:	48 c1 e0 02          	shl    $0x2,%rax
ffffffff8010d560:	48 01 d0             	add    %rdx,%rax
ffffffff8010d563:	48 c1 e0 05          	shl    $0x5,%rax
ffffffff8010d567:	48 01 c8             	add    %rcx,%rax
ffffffff8010d56a:	48 89 45 e0          	mov    %rax,-0x20(%rbp)
ffffffff8010d56e:	eb 01                	jmp    ffffffff8010d571 <sched_create_task+0x2fe>
ffffffff8010d570:	90                   	nop
ffffffff8010d571:	48 c7 c7 f0 e5 11 80 	mov    $0xffffffff8011e5f0,%rdi
ffffffff8010d578:	e8 78 09 00 00       	callq  ffffffff8010def5 <spin_release>
ffffffff8010d57d:	48 8b 45 e0          	mov    -0x20(%rbp),%rax
ffffffff8010d581:	48 89 45 f8          	mov    %rax,-0x8(%rbp)
ffffffff8010d585:	48 8b 45 f8          	mov    -0x8(%rbp),%rax
ffffffff8010d589:	48 89 45 b8          	mov    %rax,-0x48(%rbp)
ffffffff8010d58d:	48 8b 45 b8          	mov    -0x48(%rbp),%rax
ffffffff8010d591:	8b 55 cc             	mov    -0x34(%rbp),%edx
ffffffff8010d594:	89 10                	mov    %edx,(%rax)
ffffffff8010d596:	48 8b 45 b8          	mov    -0x48(%rbp),%rax
ffffffff8010d59a:	c9                   	leaveq 
ffffffff8010d59b:	c3                   	retq   

ffffffff8010d59c <sched_create_thread>:
ffffffff8010d59c:	55                   	push   %rbp
ffffffff8010d59d:	48 89 e5             	mov    %rsp,%rbp
ffffffff8010d5a0:	48 81 ec 80 01 00 00 	sub    $0x180,%rsp
ffffffff8010d5a7:	89 bd 8c fe ff ff    	mov    %edi,-0x174(%rbp)
ffffffff8010d5ad:	48 89 b5 80 fe ff ff 	mov    %rsi,-0x180(%rbp)
ffffffff8010d5b4:	89 d0                	mov    %edx,%eax
ffffffff8010d5b6:	66 89 85 88 fe ff ff 	mov    %ax,-0x178(%rbp)
ffffffff8010d5bd:	48 c7 45 f8 00 00 00 	movq   $0x0,-0x8(%rbp)
ffffffff8010d5c4:	00 
ffffffff8010d5c5:	48 c7 45 f0 00 00 00 	movq   $0x0,-0x10(%rbp)
ffffffff8010d5cc:	00 
ffffffff8010d5cd:	eb 64                	jmp    ffffffff8010d633 <sched_create_thread+0x97>
ffffffff8010d5cf:	48 c7 45 e8 00 00 00 	movq   $0x0,-0x18(%rbp)
ffffffff8010d5d6:	00 
ffffffff8010d5d7:	48 c7 c7 18 e6 11 80 	mov    $0xffffffff8011e618,%rdi
ffffffff8010d5de:	e8 bd 08 00 00       	callq  ffffffff8010dea0 <spin_lock>
ffffffff8010d5e3:	48 8b 05 3e 10 01 00 	mov    0x1103e(%rip),%rax        # ffffffff8011e628 <tasks+0x48>
ffffffff8010d5ea:	48 39 45 f0          	cmp    %rax,-0x10(%rbp)
ffffffff8010d5ee:	73 18                	jae    ffffffff8010d608 <sched_create_thread+0x6c>
ffffffff8010d5f0:	48 8b 15 19 10 01 00 	mov    0x11019(%rip),%rdx        # ffffffff8011e610 <tasks+0x30>
ffffffff8010d5f7:	48 8b 45 f0          	mov    -0x10(%rbp),%rax
ffffffff8010d5fb:	48 c1 e0 03          	shl    $0x3,%rax
ffffffff8010d5ff:	48 01 d0             	add    %rdx,%rax
ffffffff8010d602:	48 89 45 e8          	mov    %rax,-0x18(%rbp)
ffffffff8010d606:	eb 01                	jmp    ffffffff8010d609 <sched_create_thread+0x6d>
ffffffff8010d608:	90                   	nop
ffffffff8010d609:	48 c7 c7 18 e6 11 80 	mov    $0xffffffff8011e618,%rdi
ffffffff8010d610:	e8 e0 08 00 00       	callq  ffffffff8010def5 <spin_release>
ffffffff8010d615:	48 8b 45 e8          	mov    -0x18(%rbp),%rax
ffffffff8010d619:	48 8b 00             	mov    (%rax),%rax
ffffffff8010d61c:	48 89 45 b8          	mov    %rax,-0x48(%rbp)
ffffffff8010d620:	8b 85 8c fe ff ff    	mov    -0x174(%rbp),%eax
ffffffff8010d626:	48 98                	cltq   
ffffffff8010d628:	48 39 45 b8          	cmp    %rax,-0x48(%rbp)
ffffffff8010d62c:	74 14                	je     ffffffff8010d642 <sched_create_thread+0xa6>
ffffffff8010d62e:	48 83 45 f0 01       	addq   $0x1,-0x10(%rbp)
ffffffff8010d633:	48 8b 05 ee 0f 01 00 	mov    0x10fee(%rip),%rax        # ffffffff8011e628 <tasks+0x48>
ffffffff8010d63a:	48 39 45 f0          	cmp    %rax,-0x10(%rbp)
ffffffff8010d63e:	72 8f                	jb     ffffffff8010d5cf <sched_create_thread+0x33>
ffffffff8010d640:	eb 59                	jmp    ffffffff8010d69b <sched_create_thread+0xff>
ffffffff8010d642:	90                   	nop
ffffffff8010d643:	48 c7 45 e0 00 00 00 	movq   $0x0,-0x20(%rbp)
ffffffff8010d64a:	00 
ffffffff8010d64b:	48 c7 c7 f0 e5 11 80 	mov    $0xffffffff8011e5f0,%rdi
ffffffff8010d652:	e8 49 08 00 00       	callq  ffffffff8010dea0 <spin_lock>
ffffffff8010d657:	48 8b 05 a2 0f 01 00 	mov    0x10fa2(%rip),%rax        # ffffffff8011e600 <tasks+0x20>
ffffffff8010d65e:	48 39 45 f0          	cmp    %rax,-0x10(%rbp)
ffffffff8010d662:	73 22                	jae    ffffffff8010d686 <sched_create_thread+0xea>
ffffffff8010d664:	48 8b 0d 7d 0f 01 00 	mov    0x10f7d(%rip),%rcx        # ffffffff8011e5e8 <tasks+0x8>
ffffffff8010d66b:	48 8b 55 f0          	mov    -0x10(%rbp),%rdx
ffffffff8010d66f:	48 89 d0             	mov    %rdx,%rax
ffffffff8010d672:	48 c1 e0 02          	shl    $0x2,%rax
ffffffff8010d676:	48 01 d0             	add    %rdx,%rax
ffffffff8010d679:	48 c1 e0 05          	shl    $0x5,%rax
ffffffff8010d67d:	48 01 c8             	add    %rcx,%rax
ffffffff8010d680:	48 89 45 e0          	mov    %rax,-0x20(%rbp)
ffffffff8010d684:	eb 01                	jmp    ffffffff8010d687 <sched_create_thread+0xeb>
ffffffff8010d686:	90                   	nop
ffffffff8010d687:	48 c7 c7 f0 e5 11 80 	mov    $0xffffffff8011e5f0,%rdi
ffffffff8010d68e:	e8 62 08 00 00       	callq  ffffffff8010def5 <spin_release>
ffffffff8010d693:	48 8b 45 e0          	mov    -0x20(%rbp),%rax
ffffffff8010d697:	48 89 45 f8          	mov    %rax,-0x8(%rbp)
ffffffff8010d69b:	48 8b 45 f8          	mov    -0x8(%rbp),%rax
ffffffff8010d69f:	48 89 45 b0          	mov    %rax,-0x50(%rbp)
ffffffff8010d6a3:	48 83 7d b0 00       	cmpq   $0x0,-0x50(%rbp)
ffffffff8010d6a8:	75 0a                	jne    ffffffff8010d6b4 <sched_create_thread+0x118>
ffffffff8010d6aa:	b8 00 00 00 00       	mov    $0x0,%eax
ffffffff8010d6af:	e9 fb 03 00 00       	jmpq   ffffffff8010daaf <sched_create_thread+0x513>
ffffffff8010d6b4:	48 8d 95 90 fe ff ff 	lea    -0x170(%rbp),%rdx
ffffffff8010d6bb:	b8 00 00 00 00       	mov    $0x0,%eax
ffffffff8010d6c0:	b9 1f 00 00 00       	mov    $0x1f,%ecx
ffffffff8010d6c5:	48 89 d7             	mov    %rdx,%rdi
ffffffff8010d6c8:	f3 48 ab             	rep stos %rax,%es:(%rdi)
ffffffff8010d6cb:	bf 04 00 00 00       	mov    $0x4,%edi
ffffffff8010d6d0:	e8 a1 e9 ff ff       	callq  ffffffff8010c076 <pmm_alloc>
ffffffff8010d6d5:	48 89 85 a8 fe ff ff 	mov    %rax,-0x158(%rbp)
ffffffff8010d6dc:	bf 04 00 00 00       	mov    $0x4,%edi
ffffffff8010d6e1:	e8 90 e9 ff ff       	callq  ffffffff8010c076 <pmm_alloc>
ffffffff8010d6e6:	48 89 85 b0 fe ff ff 	mov    %rax,-0x150(%rbp)
ffffffff8010d6ed:	48 c7 85 c8 fe ff ff 	movq   $0x4,-0x138(%rbp)
ffffffff8010d6f4:	04 00 00 00 
ffffffff8010d6f8:	48 c7 85 d0 fe ff ff 	movq   $0x4,-0x130(%rbp)
ffffffff8010d6ff:	04 00 00 00 
ffffffff8010d703:	48 8b 45 b0          	mov    -0x50(%rbp),%rax
ffffffff8010d707:	48 8b 40 18          	mov    0x18(%rax),%rax
ffffffff8010d70b:	48 89 45 a8          	mov    %rax,-0x58(%rbp)
ffffffff8010d70f:	48 8b 45 b0          	mov    -0x50(%rbp),%rax
ffffffff8010d713:	48 83 c0 28          	add    $0x28,%rax
ffffffff8010d717:	48 89 c7             	mov    %rax,%rdi
ffffffff8010d71a:	e8 81 07 00 00       	callq  ffffffff8010dea0 <spin_lock>
ffffffff8010d71f:	c7 45 a4 00 00 00 00 	movl   $0x0,-0x5c(%rbp)
ffffffff8010d726:	48 8b 45 b0          	mov    -0x50(%rbp),%rax
ffffffff8010d72a:	48 8b 40 20          	mov    0x20(%rax),%rax
ffffffff8010d72e:	48 85 c0             	test   %rax,%rax
ffffffff8010d731:	75 1e                	jne    ffffffff8010d751 <sched_create_thread+0x1b5>
ffffffff8010d733:	bf 00 1f 00 00       	mov    $0x1f00,%edi
ffffffff8010d738:	e8 0a 4c ff ff       	callq  ffffffff80102347 <kmalloc>
ffffffff8010d73d:	48 8b 55 b0          	mov    -0x50(%rbp),%rdx
ffffffff8010d741:	48 89 42 20          	mov    %rax,0x20(%rdx)
ffffffff8010d745:	48 8b 45 b0          	mov    -0x50(%rbp),%rax
ffffffff8010d749:	48 c7 40 30 20 00 00 	movq   $0x20,0x30(%rax)
ffffffff8010d750:	00 
ffffffff8010d751:	48 8b 45 b0          	mov    -0x50(%rbp),%rax
ffffffff8010d755:	48 8b 50 40          	mov    0x40(%rax),%rdx
ffffffff8010d759:	48 8b 45 b0          	mov    -0x50(%rbp),%rax
ffffffff8010d75d:	48 8b 40 30          	mov    0x30(%rax),%rax
ffffffff8010d761:	48 39 c2             	cmp    %rax,%rdx
ffffffff8010d764:	76 37                	jbe    ffffffff8010d79d <sched_create_thread+0x201>
ffffffff8010d766:	48 8b 45 b0          	mov    -0x50(%rbp),%rax
ffffffff8010d76a:	48 8b 40 30          	mov    0x30(%rax),%rax
ffffffff8010d76e:	48 8d 50 20          	lea    0x20(%rax),%rdx
ffffffff8010d772:	48 8b 45 b0          	mov    -0x50(%rbp),%rax
ffffffff8010d776:	48 89 50 30          	mov    %rdx,0x30(%rax)
ffffffff8010d77a:	48 8b 45 b0          	mov    -0x50(%rbp),%rax
ffffffff8010d77e:	48 8b 50 30          	mov    0x30(%rax),%rdx
ffffffff8010d782:	48 8b 45 b0          	mov    -0x50(%rbp),%rax
ffffffff8010d786:	48 8b 40 20          	mov    0x20(%rax),%rax
ffffffff8010d78a:	48 89 d6             	mov    %rdx,%rsi
ffffffff8010d78d:	48 89 c7             	mov    %rax,%rdi
ffffffff8010d790:	e8 7a 4e ff ff       	callq  ffffffff8010260f <krealloc>
ffffffff8010d795:	48 8b 55 b0          	mov    -0x50(%rbp),%rdx
ffffffff8010d799:	48 89 42 20          	mov    %rax,0x20(%rdx)
ffffffff8010d79d:	48 8b 45 b0          	mov    -0x50(%rbp),%rax
ffffffff8010d7a1:	48 8b 40 40          	mov    0x40(%rax),%rax
ffffffff8010d7a5:	89 45 a4             	mov    %eax,-0x5c(%rbp)
ffffffff8010d7a8:	48 8b 45 b0          	mov    -0x50(%rbp),%rax
ffffffff8010d7ac:	48 8b 70 20          	mov    0x20(%rax),%rsi
ffffffff8010d7b0:	48 8b 45 b0          	mov    -0x50(%rbp),%rax
ffffffff8010d7b4:	48 8b 50 40          	mov    0x40(%rax),%rdx
ffffffff8010d7b8:	48 8d 4a 01          	lea    0x1(%rdx),%rcx
ffffffff8010d7bc:	48 8b 45 b0          	mov    -0x50(%rbp),%rax
ffffffff8010d7c0:	48 89 48 40          	mov    %rcx,0x40(%rax)
ffffffff8010d7c4:	48 89 d0             	mov    %rdx,%rax
ffffffff8010d7c7:	48 c1 e0 05          	shl    $0x5,%rax
ffffffff8010d7cb:	48 29 d0             	sub    %rdx,%rax
ffffffff8010d7ce:	48 c1 e0 03          	shl    $0x3,%rax
ffffffff8010d7d2:	48 01 f0             	add    %rsi,%rax
ffffffff8010d7d5:	48 89 c7             	mov    %rax,%rdi
ffffffff8010d7d8:	48 8d 85 90 fe ff ff 	lea    -0x170(%rbp),%rax
ffffffff8010d7df:	ba 1f 00 00 00       	mov    $0x1f,%edx
ffffffff8010d7e4:	48 89 c6             	mov    %rax,%rsi
ffffffff8010d7e7:	48 89 d1             	mov    %rdx,%rcx
ffffffff8010d7ea:	f3 48 a5             	rep movsq %ds:(%rsi),%es:(%rdi)
ffffffff8010d7ed:	48 8b 45 b0          	mov    -0x50(%rbp),%rax
ffffffff8010d7f1:	48 8b 40 38          	mov    0x38(%rax),%rax
ffffffff8010d7f5:	48 8d 50 01          	lea    0x1(%rax),%rdx
ffffffff8010d7f9:	48 8b 45 b0          	mov    -0x50(%rbp),%rax
ffffffff8010d7fd:	48 89 50 38          	mov    %rdx,0x38(%rax)
ffffffff8010d801:	48 8b 45 b0          	mov    -0x50(%rbp),%rax
ffffffff8010d805:	48 83 c0 28          	add    $0x28,%rax
ffffffff8010d809:	48 89 c7             	mov    %rax,%rdi
ffffffff8010d80c:	e8 e4 06 00 00       	callq  ffffffff8010def5 <spin_release>
ffffffff8010d811:	48 8b 45 b0          	mov    -0x50(%rbp),%rax
ffffffff8010d815:	48 83 c0 50          	add    $0x50,%rax
ffffffff8010d819:	48 89 c7             	mov    %rax,%rdi
ffffffff8010d81c:	e8 7f 06 00 00       	callq  ffffffff8010dea0 <spin_lock>
ffffffff8010d821:	c7 45 a0 00 00 00 00 	movl   $0x0,-0x60(%rbp)
ffffffff8010d828:	48 8b 45 b0          	mov    -0x50(%rbp),%rax
ffffffff8010d82c:	48 8b 40 48          	mov    0x48(%rax),%rax
ffffffff8010d830:	48 85 c0             	test   %rax,%rax
ffffffff8010d833:	75 1e                	jne    ffffffff8010d853 <sched_create_thread+0x2b7>
ffffffff8010d835:	bf 00 1f 00 00       	mov    $0x1f00,%edi
ffffffff8010d83a:	e8 08 4b ff ff       	callq  ffffffff80102347 <kmalloc>
ffffffff8010d83f:	48 8b 55 b0          	mov    -0x50(%rbp),%rdx
ffffffff8010d843:	48 89 42 48          	mov    %rax,0x48(%rdx)
ffffffff8010d847:	48 8b 45 b0          	mov    -0x50(%rbp),%rax
ffffffff8010d84b:	48 c7 40 58 20 00 00 	movq   $0x20,0x58(%rax)
ffffffff8010d852:	00 
ffffffff8010d853:	48 8b 45 b0          	mov    -0x50(%rbp),%rax
ffffffff8010d857:	48 8b 50 68          	mov    0x68(%rax),%rdx
ffffffff8010d85b:	48 8b 45 b0          	mov    -0x50(%rbp),%rax
ffffffff8010d85f:	48 8b 40 58          	mov    0x58(%rax),%rax
ffffffff8010d863:	48 39 c2             	cmp    %rax,%rdx
ffffffff8010d866:	76 37                	jbe    ffffffff8010d89f <sched_create_thread+0x303>
ffffffff8010d868:	48 8b 45 b0          	mov    -0x50(%rbp),%rax
ffffffff8010d86c:	48 8b 40 58          	mov    0x58(%rax),%rax
ffffffff8010d870:	48 8d 50 20          	lea    0x20(%rax),%rdx
ffffffff8010d874:	48 8b 45 b0          	mov    -0x50(%rbp),%rax
ffffffff8010d878:	48 89 50 58          	mov    %rdx,0x58(%rax)
ffffffff8010d87c:	48 8b 45 b0          	mov    -0x50(%rbp),%rax
ffffffff8010d880:	48 8b 50 58          	mov    0x58(%rax),%rdx
ffffffff8010d884:	48 8b 45 b0          	mov    -0x50(%rbp),%rax
ffffffff8010d888:	48 8b 40 48          	mov    0x48(%rax),%rax
ffffffff8010d88c:	48 89 d6             	mov    %rdx,%rsi
ffffffff8010d88f:	48 89 c7             	mov    %rax,%rdi
ffffffff8010d892:	e8 78 4d ff ff       	callq  ffffffff8010260f <krealloc>
ffffffff8010d897:	48 8b 55 b0          	mov    -0x50(%rbp),%rdx
ffffffff8010d89b:	48 89 42 48          	mov    %rax,0x48(%rdx)
ffffffff8010d89f:	48 8b 45 b0          	mov    -0x50(%rbp),%rax
ffffffff8010d8a3:	48 8b 40 68          	mov    0x68(%rax),%rax
ffffffff8010d8a7:	89 45 a0             	mov    %eax,-0x60(%rbp)
ffffffff8010d8aa:	48 8b 45 b0          	mov    -0x50(%rbp),%rax
ffffffff8010d8ae:	48 8b 40 18          	mov    0x18(%rax),%rax
ffffffff8010d8b2:	48 8d 48 01          	lea    0x1(%rax),%rcx
ffffffff8010d8b6:	48 8b 55 b0          	mov    -0x50(%rbp),%rdx
ffffffff8010d8ba:	48 89 4a 18          	mov    %rcx,0x18(%rdx)
ffffffff8010d8be:	48 8b 55 b0          	mov    -0x50(%rbp),%rdx
ffffffff8010d8c2:	48 8b 7a 48          	mov    0x48(%rdx),%rdi
ffffffff8010d8c6:	48 8b 55 b0          	mov    -0x50(%rbp),%rdx
ffffffff8010d8ca:	48 8b 52 68          	mov    0x68(%rdx),%rdx
ffffffff8010d8ce:	48 8d 72 01          	lea    0x1(%rdx),%rsi
ffffffff8010d8d2:	48 8b 4d b0          	mov    -0x50(%rbp),%rcx
ffffffff8010d8d6:	48 89 71 68          	mov    %rsi,0x68(%rcx)
ffffffff8010d8da:	48 c1 e2 03          	shl    $0x3,%rdx
ffffffff8010d8de:	48 01 fa             	add    %rdi,%rdx
ffffffff8010d8e1:	48 89 02             	mov    %rax,(%rdx)
ffffffff8010d8e4:	48 8b 45 b0          	mov    -0x50(%rbp),%rax
ffffffff8010d8e8:	48 8b 40 60          	mov    0x60(%rax),%rax
ffffffff8010d8ec:	48 8d 50 01          	lea    0x1(%rax),%rdx
ffffffff8010d8f0:	48 8b 45 b0          	mov    -0x50(%rbp),%rax
ffffffff8010d8f4:	48 89 50 60          	mov    %rdx,0x60(%rax)
ffffffff8010d8f8:	48 8b 45 b0          	mov    -0x50(%rbp),%rax
ffffffff8010d8fc:	48 83 c0 50          	add    $0x50,%rax
ffffffff8010d900:	48 89 c7             	mov    %rax,%rdi
ffffffff8010d903:	e8 ed 05 00 00       	callq  ffffffff8010def5 <spin_release>
ffffffff8010d908:	48 8b 45 a8          	mov    -0x58(%rbp),%rax
ffffffff8010d90c:	89 45 9c             	mov    %eax,-0x64(%rbp)
ffffffff8010d90f:	48 c7 45 d8 00 00 00 	movq   $0x0,-0x28(%rbp)
ffffffff8010d916:	00 
ffffffff8010d917:	48 c7 45 d0 00 00 00 	movq   $0x0,-0x30(%rbp)
ffffffff8010d91e:	00 
ffffffff8010d91f:	eb 6b                	jmp    ffffffff8010d98c <sched_create_thread+0x3f0>
ffffffff8010d921:	48 c7 45 c8 00 00 00 	movq   $0x0,-0x38(%rbp)
ffffffff8010d928:	00 
ffffffff8010d929:	48 8b 45 b0          	mov    -0x50(%rbp),%rax
ffffffff8010d92d:	48 83 c0 50          	add    $0x50,%rax
ffffffff8010d931:	48 89 c7             	mov    %rax,%rdi
ffffffff8010d934:	e8 67 05 00 00       	callq  ffffffff8010dea0 <spin_lock>
ffffffff8010d939:	48 8b 45 b0          	mov    -0x50(%rbp),%rax
ffffffff8010d93d:	48 8b 40 60          	mov    0x60(%rax),%rax
ffffffff8010d941:	48 39 45 d0          	cmp    %rax,-0x30(%rbp)
ffffffff8010d945:	73 19                	jae    ffffffff8010d960 <sched_create_thread+0x3c4>
ffffffff8010d947:	48 8b 45 b0          	mov    -0x50(%rbp),%rax
ffffffff8010d94b:	48 8b 50 48          	mov    0x48(%rax),%rdx
ffffffff8010d94f:	48 8b 45 d0          	mov    -0x30(%rbp),%rax
ffffffff8010d953:	48 c1 e0 03          	shl    $0x3,%rax
ffffffff8010d957:	48 01 d0             	add    %rdx,%rax
ffffffff8010d95a:	48 89 45 c8          	mov    %rax,-0x38(%rbp)
ffffffff8010d95e:	eb 01                	jmp    ffffffff8010d961 <sched_create_thread+0x3c5>
ffffffff8010d960:	90                   	nop
ffffffff8010d961:	48 8b 45 b0          	mov    -0x50(%rbp),%rax
ffffffff8010d965:	48 83 c0 50          	add    $0x50,%rax
ffffffff8010d969:	48 89 c7             	mov    %rax,%rdi
ffffffff8010d96c:	e8 84 05 00 00       	callq  ffffffff8010def5 <spin_release>
ffffffff8010d971:	48 8b 45 c8          	mov    -0x38(%rbp),%rax
ffffffff8010d975:	48 8b 00             	mov    (%rax),%rax
ffffffff8010d978:	48 89 45 90          	mov    %rax,-0x70(%rbp)
ffffffff8010d97c:	8b 45 9c             	mov    -0x64(%rbp),%eax
ffffffff8010d97f:	48 98                	cltq   
ffffffff8010d981:	48 39 45 90          	cmp    %rax,-0x70(%rbp)
ffffffff8010d985:	74 15                	je     ffffffff8010d99c <sched_create_thread+0x400>
ffffffff8010d987:	48 83 45 d0 01       	addq   $0x1,-0x30(%rbp)
ffffffff8010d98c:	48 8b 45 b0          	mov    -0x50(%rbp),%rax
ffffffff8010d990:	48 8b 40 60          	mov    0x60(%rax),%rax
ffffffff8010d994:	48 39 45 d0          	cmp    %rax,-0x30(%rbp)
ffffffff8010d998:	72 87                	jb     ffffffff8010d921 <sched_create_thread+0x385>
ffffffff8010d99a:	eb 63                	jmp    ffffffff8010d9ff <sched_create_thread+0x463>
ffffffff8010d99c:	90                   	nop
ffffffff8010d99d:	48 c7 45 c0 00 00 00 	movq   $0x0,-0x40(%rbp)
ffffffff8010d9a4:	00 
ffffffff8010d9a5:	48 8b 45 b0          	mov    -0x50(%rbp),%rax
ffffffff8010d9a9:	48 83 c0 28          	add    $0x28,%rax
ffffffff8010d9ad:	48 89 c7             	mov    %rax,%rdi
ffffffff8010d9b0:	e8 eb 04 00 00       	callq  ffffffff8010dea0 <spin_lock>
ffffffff8010d9b5:	48 8b 45 b0          	mov    -0x50(%rbp),%rax
ffffffff8010d9b9:	48 8b 40 38          	mov    0x38(%rax),%rax
ffffffff8010d9bd:	48 39 45 d0          	cmp    %rax,-0x30(%rbp)
ffffffff8010d9c1:	73 23                	jae    ffffffff8010d9e6 <sched_create_thread+0x44a>
ffffffff8010d9c3:	48 8b 45 b0          	mov    -0x50(%rbp),%rax
ffffffff8010d9c7:	48 8b 48 20          	mov    0x20(%rax),%rcx
ffffffff8010d9cb:	48 8b 55 d0          	mov    -0x30(%rbp),%rdx
ffffffff8010d9cf:	48 89 d0             	mov    %rdx,%rax
ffffffff8010d9d2:	48 c1 e0 05          	shl    $0x5,%rax
ffffffff8010d9d6:	48 29 d0             	sub    %rdx,%rax
ffffffff8010d9d9:	48 c1 e0 03          	shl    $0x3,%rax
ffffffff8010d9dd:	48 01 c8             	add    %rcx,%rax
ffffffff8010d9e0:	48 89 45 c0          	mov    %rax,-0x40(%rbp)
ffffffff8010d9e4:	eb 01                	jmp    ffffffff8010d9e7 <sched_create_thread+0x44b>
ffffffff8010d9e6:	90                   	nop
ffffffff8010d9e7:	48 8b 45 b0          	mov    -0x50(%rbp),%rax
ffffffff8010d9eb:	48 83 c0 28          	add    $0x28,%rax
ffffffff8010d9ef:	48 89 c7             	mov    %rax,%rdi
ffffffff8010d9f2:	e8 fe 04 00 00       	callq  ffffffff8010def5 <spin_release>
ffffffff8010d9f7:	48 8b 45 c0          	mov    -0x40(%rbp),%rax
ffffffff8010d9fb:	48 89 45 d8          	mov    %rax,-0x28(%rbp)
ffffffff8010d9ff:	48 8b 45 d8          	mov    -0x28(%rbp),%rax
ffffffff8010da03:	48 89 45 88          	mov    %rax,-0x78(%rbp)
ffffffff8010da07:	48 8b 45 88          	mov    -0x78(%rbp),%rax
ffffffff8010da0b:	8b 55 9c             	mov    -0x64(%rbp),%edx
ffffffff8010da0e:	89 10                	mov    %edx,(%rax)
ffffffff8010da10:	48 8b 45 88          	mov    -0x78(%rbp),%rax
ffffffff8010da14:	48 8b 95 80 fe ff ff 	mov    -0x180(%rbp),%rdx
ffffffff8010da1b:	48 89 90 d0 00 00 00 	mov    %rdx,0xd0(%rax)
ffffffff8010da22:	0f b7 95 88 fe ff ff 	movzwl -0x178(%rbp),%edx
ffffffff8010da29:	48 8b 45 88          	mov    -0x78(%rbp),%rax
ffffffff8010da2d:	48 89 90 d8 00 00 00 	mov    %rdx,0xd8(%rax)
ffffffff8010da34:	0f b7 85 88 fe ff ff 	movzwl -0x178(%rbp),%eax
ffffffff8010da3b:	83 c0 08             	add    $0x8,%eax
ffffffff8010da3e:	48 63 d0             	movslq %eax,%rdx
ffffffff8010da41:	48 8b 45 88          	mov    -0x78(%rbp),%rax
ffffffff8010da45:	48 89 90 f0 00 00 00 	mov    %rdx,0xf0(%rax)
ffffffff8010da4c:	48 8b 45 88          	mov    -0x78(%rbp),%rax
ffffffff8010da50:	48 c7 80 e0 00 00 00 	movq   $0x202,0xe0(%rax)
ffffffff8010da57:	02 02 00 00 
ffffffff8010da5b:	0f b7 85 88 fe ff ff 	movzwl -0x178(%rbp),%eax
ffffffff8010da62:	83 e0 03             	and    $0x3,%eax
ffffffff8010da65:	85 c0                	test   %eax,%eax
ffffffff8010da67:	74 22                	je     ffffffff8010da8b <sched_create_thread+0x4ef>
ffffffff8010da69:	48 8b 45 88          	mov    -0x78(%rbp),%rax
ffffffff8010da6d:	48 8b 40 18          	mov    0x18(%rax),%rax
ffffffff8010da71:	48 ba 00 00 00 00 00 	movabs $0xffff800000000000,%rdx
ffffffff8010da78:	80 ff ff 
ffffffff8010da7b:	48 01 c2             	add    %rax,%rdx
ffffffff8010da7e:	48 8b 45 88          	mov    -0x78(%rbp),%rax
ffffffff8010da82:	48 89 90 e8 00 00 00 	mov    %rdx,0xe8(%rax)
ffffffff8010da89:	eb 20                	jmp    ffffffff8010daab <sched_create_thread+0x50f>
ffffffff8010da8b:	48 8b 45 88          	mov    -0x78(%rbp),%rax
ffffffff8010da8f:	48 8b 40 20          	mov    0x20(%rax),%rax
ffffffff8010da93:	48 ba 00 00 00 00 00 	movabs $0xffff800000000000,%rdx
ffffffff8010da9a:	80 ff ff 
ffffffff8010da9d:	48 01 c2             	add    %rax,%rdx
ffffffff8010daa0:	48 8b 45 88          	mov    -0x78(%rbp),%rax
ffffffff8010daa4:	48 89 90 e8 00 00 00 	mov    %rdx,0xe8(%rax)
ffffffff8010daab:	48 8b 45 88          	mov    -0x78(%rbp),%rax
ffffffff8010daaf:	c9                   	leaveq 
ffffffff8010dab0:	c3                   	retq   

ffffffff8010dab1 <scheduler_main>:
ffffffff8010dab1:	55                   	push   %rbp
ffffffff8010dab2:	48 89 e5             	mov    %rsp,%rbp
ffffffff8010dab5:	48 83 ec 10          	sub    $0x10,%rsp
ffffffff8010dab9:	48 89 7d f8          	mov    %rdi,-0x8(%rbp)
ffffffff8010dabd:	48 c7 c7 c0 e5 11 80 	mov    $0xffffffff8011e5c0,%rdi
ffffffff8010dac4:	e8 d7 03 00 00       	callq  ffffffff8010dea0 <spin_lock>
ffffffff8010dac9:	48 8b 45 f8          	mov    -0x8(%rbp),%rax
ffffffff8010dacd:	48 89 c7             	mov    %rax,%rdi
ffffffff8010dad0:	e8 68 f4 ff ff       	callq  ffffffff8010cf3d <reschedule>
ffffffff8010dad5:	48 c7 c7 c0 e5 11 80 	mov    $0xffffffff8011e5c0,%rdi
ffffffff8010dadc:	e8 14 04 00 00       	callq  ffffffff8010def5 <spin_release>
ffffffff8010dae1:	90                   	nop
ffffffff8010dae2:	c9                   	leaveq 
ffffffff8010dae3:	c3                   	retq   
ffffffff8010dae4:	66 2e 0f 1f 84 00 00 	nopw   %cs:0x0(%rax,%rax,1)
ffffffff8010daeb:	00 00 00 
ffffffff8010daee:	66 90                	xchg   %ax,%ax

ffffffff8010daf0 <start_task>:
ffffffff8010daf0:	fb                   	sti    
ffffffff8010daf1:	57                   	push   %rdi
ffffffff8010daf2:	56                   	push   %rsi
ffffffff8010daf3:	9c                   	pushfq 
ffffffff8010daf4:	52                   	push   %rdx
ffffffff8010daf5:	51                   	push   %rcx
ffffffff8010daf6:	48 cf                	iretq  

ffffffff8010daf8 <switch_task>:
ffffffff8010daf8:	fb                   	sti    
ffffffff8010daf9:	48 89 fc             	mov    %rdi,%rsp
ffffffff8010dafc:	41 5f                	pop    %r15
ffffffff8010dafe:	41 5e                	pop    %r14
ffffffff8010db00:	41 5d                	pop    %r13
ffffffff8010db02:	41 5c                	pop    %r12
ffffffff8010db04:	41 5b                	pop    %r11
ffffffff8010db06:	41 5a                	pop    %r10
ffffffff8010db08:	41 59                	pop    %r9
ffffffff8010db0a:	41 58                	pop    %r8
ffffffff8010db0c:	5e                   	pop    %rsi
ffffffff8010db0d:	5f                   	pop    %rdi
ffffffff8010db0e:	5d                   	pop    %rbp
ffffffff8010db0f:	5a                   	pop    %rdx
ffffffff8010db10:	59                   	pop    %rcx
ffffffff8010db11:	5b                   	pop    %rbx
ffffffff8010db12:	58                   	pop    %rax
ffffffff8010db13:	48 83 c4 10          	add    $0x10,%rsp
ffffffff8010db17:	48 cf                	iretq  

ffffffff8010db19 <prep_trampoline>:
ffffffff8010db19:	55                   	push   %rbp
ffffffff8010db1a:	48 89 e5             	mov    %rsp,%rbp
ffffffff8010db1d:	48 83 ec 30          	sub    $0x30,%rsp
ffffffff8010db21:	48 89 7d e8          	mov    %rdi,-0x18(%rbp)
ffffffff8010db25:	48 89 75 e0          	mov    %rsi,-0x20(%rbp)
ffffffff8010db29:	48 89 55 d8          	mov    %rdx,-0x28(%rbp)
ffffffff8010db2d:	48 89 4d d0          	mov    %rcx,-0x30(%rbp)
ffffffff8010db31:	48 b8 00 05 00 00 00 	movabs $0xffff800000000500,%rax
ffffffff8010db38:	80 ff ff 
ffffffff8010db3b:	48 89 45 f8          	mov    %rax,-0x8(%rbp)
ffffffff8010db3f:	48 8b 45 f8          	mov    -0x8(%rbp),%rax
ffffffff8010db43:	48 8b 55 e8          	mov    -0x18(%rbp),%rdx
ffffffff8010db47:	48 89 10             	mov    %rdx,(%rax)
ffffffff8010db4a:	48 8b 45 f8          	mov    -0x8(%rbp),%rax
ffffffff8010db4e:	48 8d 50 08          	lea    0x8(%rax),%rdx
ffffffff8010db52:	48 8b 45 e0          	mov    -0x20(%rbp),%rax
ffffffff8010db56:	48 89 02             	mov    %rax,(%rdx)
ffffffff8010db59:	48 8b 45 f8          	mov    -0x8(%rbp),%rax
ffffffff8010db5d:	48 8d 50 10          	lea    0x10(%rax),%rdx
ffffffff8010db61:	48 8b 45 d8          	mov    -0x28(%rbp),%rax
ffffffff8010db65:	48 89 02             	mov    %rax,(%rdx)
ffffffff8010db68:	48 8b 45 f8          	mov    -0x8(%rbp),%rax
ffffffff8010db6c:	48 8d 50 18          	lea    0x18(%rax),%rdx
ffffffff8010db70:	48 8b 45 d0          	mov    -0x30(%rbp),%rax
ffffffff8010db74:	48 89 02             	mov    %rax,(%rdx)
ffffffff8010db77:	90                   	nop
ffffffff8010db78:	c9                   	leaveq 
ffffffff8010db79:	c3                   	retq   

ffffffff8010db7a <init_cpu_features>:
ffffffff8010db7a:	55                   	push   %rbp
ffffffff8010db7b:	48 89 e5             	mov    %rsp,%rbp
ffffffff8010db7e:	bf 80 00 00 c0       	mov    $0xc0000080,%edi
ffffffff8010db83:	e8 bd 46 ff ff       	callq  ffffffff80102245 <rdmsr>
ffffffff8010db88:	48 83 c8 01          	or     $0x1,%rax
ffffffff8010db8c:	48 89 c6             	mov    %rax,%rsi
ffffffff8010db8f:	bf 80 00 00 c0       	mov    $0xc0000080,%edi
ffffffff8010db94:	e8 d7 46 ff ff       	callq  ffffffff80102270 <wrmsr>
ffffffff8010db99:	48 be 00 00 00 00 08 	movabs $0x13000800000000,%rsi
ffffffff8010dba0:	00 13 00 
ffffffff8010dba3:	bf 81 00 00 c0       	mov    $0xc0000081,%edi
ffffffff8010dba8:	e8 c3 46 ff ff       	callq  ffffffff80102270 <wrmsr>
ffffffff8010dbad:	48 c7 c0 70 e4 10 80 	mov    $0xffffffff8010e470,%rax
ffffffff8010dbb4:	48 89 c6             	mov    %rax,%rsi
ffffffff8010dbb7:	bf 82 00 00 c0       	mov    $0xc0000082,%edi
ffffffff8010dbbc:	e8 af 46 ff ff       	callq  ffffffff80102270 <wrmsr>
ffffffff8010dbc1:	be fd ff ff ff       	mov    $0xfffffffd,%esi
ffffffff8010dbc6:	bf 84 00 00 c0       	mov    $0xc0000084,%edi
ffffffff8010dbcb:	e8 a0 46 ff ff       	callq  ffffffff80102270 <wrmsr>
ffffffff8010dbd0:	48 8b 0d 69 0a 01 00 	mov    0x10a69(%rip),%rcx        # ffffffff8011e640 <core_local>
ffffffff8010dbd7:	48 8b 15 5a 0a 01 00 	mov    0x10a5a(%rip),%rdx        # ffffffff8011e638 <core_cnt>
ffffffff8010dbde:	48 8d 42 01          	lea    0x1(%rdx),%rax
ffffffff8010dbe2:	48 89 05 4f 0a 01 00 	mov    %rax,0x10a4f(%rip)        # ffffffff8011e638 <core_cnt>
ffffffff8010dbe9:	48 89 d0             	mov    %rdx,%rax
ffffffff8010dbec:	48 01 c0             	add    %rax,%rax
ffffffff8010dbef:	48 01 d0             	add    %rdx,%rax
ffffffff8010dbf2:	48 c1 e0 04          	shl    $0x4,%rax
ffffffff8010dbf6:	48 01 c8             	add    %rcx,%rax
ffffffff8010dbf9:	48 89 c6             	mov    %rax,%rsi
ffffffff8010dbfc:	bf 01 01 00 c0       	mov    $0xc0000101,%edi
ffffffff8010dc01:	e8 6a 46 ff ff       	callq  ffffffff80102270 <wrmsr>
ffffffff8010dc06:	90                   	nop
ffffffff8010dc07:	5d                   	pop    %rbp
ffffffff8010dc08:	c3                   	retq   

ffffffff8010dc09 <bootstrap_core>:
ffffffff8010dc09:	55                   	push   %rbp
ffffffff8010dc0a:	48 89 e5             	mov    %rsp,%rbp
ffffffff8010dc0d:	b8 00 00 00 00       	mov    $0x0,%eax
ffffffff8010dc12:	e8 63 ff ff ff       	callq  ffffffff8010db7a <init_cpu_features>
ffffffff8010dc17:	bf f0 00 00 00       	mov    $0xf0,%edi
ffffffff8010dc1c:	e8 b5 3f ff ff       	callq  ffffffff80101bd6 <lapic_read>
ffffffff8010dc21:	0d ff 01 00 00       	or     $0x1ff,%eax
ffffffff8010dc26:	89 c6                	mov    %eax,%esi
ffffffff8010dc28:	bf f0 00 00 00       	mov    $0xf0,%edi
ffffffff8010dc2d:	e8 d6 3f ff ff       	callq  ffffffff80101c08 <lapic_write>
ffffffff8010dc32:	b8 00 00 00 00       	mov    $0x0,%eax
ffffffff8010dc37:	e8 ff 81 ff ff       	callq  ffffffff80105e3b <create_generic_tss>
ffffffff8010dc3c:	bf 32 00 00 00       	mov    $0x32,%edi
ffffffff8010dc41:	e8 bc 42 ff ff       	callq  ffffffff80101f02 <lapic_timer_init>
ffffffff8010dc46:	f3 90                	pause  
ffffffff8010dc48:	eb fc                	jmp    ffffffff8010dc46 <bootstrap_core+0x3d>

ffffffff8010dc4a <init_smp>:
ffffffff8010dc4a:	55                   	push   %rbp
ffffffff8010dc4b:	48 89 e5             	mov    %rsp,%rbp
ffffffff8010dc4e:	41 55                	push   %r13
ffffffff8010dc50:	41 54                	push   %r12
ffffffff8010dc52:	53                   	push   %rbx
ffffffff8010dc53:	48 83 ec 68          	sub    $0x68,%rsp
ffffffff8010dc57:	48 8b 15 ba 07 01 00 	mov    0x107ba(%rip),%rdx        # ffffffff8011e418 <madt0+0x18>
ffffffff8010dc5e:	48 89 d0             	mov    %rdx,%rax
ffffffff8010dc61:	48 01 c0             	add    %rax,%rax
ffffffff8010dc64:	48 01 d0             	add    %rdx,%rax
ffffffff8010dc67:	48 c1 e0 04          	shl    $0x4,%rax
ffffffff8010dc6b:	48 89 c7             	mov    %rax,%rdi
ffffffff8010dc6e:	e8 d4 46 ff ff       	callq  ffffffff80102347 <kmalloc>
ffffffff8010dc73:	48 89 05 c6 09 01 00 	mov    %rax,0x109c6(%rip)        # ffffffff8011e640 <core_local>
ffffffff8010dc7a:	c6 45 df 00          	movb   $0x0,-0x21(%rbp)
ffffffff8010dc7e:	eb 4f                	jmp    ffffffff8010dccf <init_smp+0x85>
ffffffff8010dc80:	48 8b 0d b9 09 01 00 	mov    0x109b9(%rip),%rcx        # ffffffff8011e640 <core_local>
ffffffff8010dc87:	0f b6 55 df          	movzbl -0x21(%rbp),%edx
ffffffff8010dc8b:	48 89 d0             	mov    %rdx,%rax
ffffffff8010dc8e:	48 01 c0             	add    %rax,%rax
ffffffff8010dc91:	48 01 d0             	add    %rdx,%rax
ffffffff8010dc94:	48 c1 e0 04          	shl    $0x4,%rax
ffffffff8010dc98:	48 8d 14 01          	lea    (%rcx,%rax,1),%rdx
ffffffff8010dc9c:	44 0f b6 45 df       	movzbl -0x21(%rbp),%r8d
ffffffff8010dca1:	48 89 d6             	mov    %rdx,%rsi
ffffffff8010dca4:	b8 00 00 00 00       	mov    $0x0,%eax
ffffffff8010dca9:	b9 06 00 00 00       	mov    $0x6,%ecx
ffffffff8010dcae:	48 89 f7             	mov    %rsi,%rdi
ffffffff8010dcb1:	f3 48 ab             	rep stos %rax,%es:(%rdi)
ffffffff8010dcb4:	4c 89 02             	mov    %r8,(%rdx)
ffffffff8010dcb7:	c7 42 28 ff ff ff ff 	movl   $0xffffffff,0x28(%rdx)
ffffffff8010dcbe:	c7 42 2c ff ff ff ff 	movl   $0xffffffff,0x2c(%rdx)
ffffffff8010dcc5:	0f b6 45 df          	movzbl -0x21(%rbp),%eax
ffffffff8010dcc9:	83 c0 01             	add    $0x1,%eax
ffffffff8010dccc:	88 45 df             	mov    %al,-0x21(%rbp)
ffffffff8010dccf:	0f b6 55 df          	movzbl -0x21(%rbp),%edx
ffffffff8010dcd3:	48 8b 05 3e 07 01 00 	mov    0x1073e(%rip),%rax        # ffffffff8011e418 <madt0+0x18>
ffffffff8010dcda:	48 39 c2             	cmp    %rax,%rdx
ffffffff8010dcdd:	72 a1                	jb     ffffffff8010dc80 <init_smp+0x36>
ffffffff8010dcdf:	b8 00 00 00 00       	mov    $0x0,%eax
ffffffff8010dce4:	e8 91 fe ff ff       	callq  ffffffff8010db7a <init_cpu_features>
ffffffff8010dce9:	48 c7 c0 89 ca 10 80 	mov    $0xffffffff8010ca89,%rax
ffffffff8010dcf0:	48 c7 c2 f0 c9 10 80 	mov    $0xffffffff8010c9f0,%rdx
ffffffff8010dcf7:	48 29 d0             	sub    %rdx,%rax
ffffffff8010dcfa:	48 89 c2             	mov    %rax,%rdx
ffffffff8010dcfd:	48 c7 c6 f0 c9 10 80 	mov    $0xffffffff8010c9f0,%rsi
ffffffff8010dd04:	48 bf 00 10 00 00 00 	movabs $0xffff800000001000,%rdi
ffffffff8010dd0b:	80 ff ff 
ffffffff8010dd0e:	e8 2b cf ff ff       	callq  ffffffff8010ac3e <memcpy8>
ffffffff8010dd13:	0f 01 0d 2e 09 01 00 	sidt   0x1092e(%rip)        # ffffffff8011e648 <idtr.0>
ffffffff8010dd1a:	48 c7 45 d0 01 00 00 	movq   $0x1,-0x30(%rbp)
ffffffff8010dd21:	00 
ffffffff8010dd22:	e9 1e 01 00 00       	jmpq   ffffffff8010de45 <init_smp+0x1fb>
ffffffff8010dd27:	48 c7 45 c8 00 00 00 	movq   $0x0,-0x38(%rbp)
ffffffff8010dd2e:	00 
ffffffff8010dd2f:	48 c7 c7 08 e4 11 80 	mov    $0xffffffff8011e408,%rdi
ffffffff8010dd36:	e8 65 01 00 00       	callq  ffffffff8010dea0 <spin_lock>
ffffffff8010dd3b:	48 8b 05 d6 06 01 00 	mov    0x106d6(%rip),%rax        # ffffffff8011e418 <madt0+0x18>
ffffffff8010dd42:	48 39 45 d0          	cmp    %rax,-0x30(%rbp)
ffffffff8010dd46:	73 20                	jae    ffffffff8010dd68 <init_smp+0x11e>
ffffffff8010dd48:	48 8b 0d b1 06 01 00 	mov    0x106b1(%rip),%rcx        # ffffffff8011e400 <madt0>
ffffffff8010dd4f:	48 8b 55 d0          	mov    -0x30(%rbp),%rdx
ffffffff8010dd53:	48 89 d0             	mov    %rdx,%rax
ffffffff8010dd56:	48 01 c0             	add    %rax,%rax
ffffffff8010dd59:	48 01 d0             	add    %rdx,%rax
ffffffff8010dd5c:	48 01 c0             	add    %rax,%rax
ffffffff8010dd5f:	48 01 c8             	add    %rcx,%rax
ffffffff8010dd62:	48 89 45 c8          	mov    %rax,-0x38(%rbp)
ffffffff8010dd66:	eb 01                	jmp    ffffffff8010dd69 <init_smp+0x11f>
ffffffff8010dd68:	90                   	nop
ffffffff8010dd69:	48 c7 c7 08 e4 11 80 	mov    $0xffffffff8011e408,%rdi
ffffffff8010dd70:	e8 80 01 00 00       	callq  ffffffff8010def5 <spin_release>
ffffffff8010dd75:	48 8b 45 c8          	mov    -0x38(%rbp),%rax
ffffffff8010dd79:	8b 10                	mov    (%rax),%edx
ffffffff8010dd7b:	89 55 be             	mov    %edx,-0x42(%rbp)
ffffffff8010dd7e:	0f b7 40 04          	movzwl 0x4(%rax),%eax
ffffffff8010dd82:	66 89 45 c2          	mov    %ax,-0x3e(%rbp)
ffffffff8010dd86:	0f b6 45 bf          	movzbl -0x41(%rbp),%eax
ffffffff8010dd8a:	0f b6 c0             	movzbl %al,%eax
ffffffff8010dd8d:	89 45 c4             	mov    %eax,-0x3c(%rbp)
ffffffff8010dd90:	48 8b 45 d0          	mov    -0x30(%rbp),%rax
ffffffff8010dd94:	48 89 c2             	mov    %rax,%rdx
ffffffff8010dd97:	48 c7 c6 91 09 11 80 	mov    $0xffffffff80110991,%rsi
ffffffff8010dd9e:	48 c7 c7 a5 09 11 80 	mov    $0xffffffff801109a5,%rdi
ffffffff8010dda5:	b8 00 00 00 00       	mov    $0x0,%eax
ffffffff8010ddaa:	e8 fe d0 ff ff       	callq  ffffffff8010aead <kprintf>
ffffffff8010ddaf:	48 8b 45 d0          	mov    -0x30(%rbp),%rax
ffffffff8010ddb3:	48 89 c6             	mov    %rax,%rsi
ffffffff8010ddb6:	48 c7 c7 ab 09 11 80 	mov    $0xffffffff801109ab,%rdi
ffffffff8010ddbd:	b8 00 00 00 00       	mov    $0x0,%eax
ffffffff8010ddc2:	e8 db d2 ff ff       	callq  ffffffff8010b0a2 <kvprintf>
ffffffff8010ddc7:	8b 45 c0             	mov    -0x40(%rbp),%eax
ffffffff8010ddca:	83 f8 01             	cmp    $0x1,%eax
ffffffff8010ddcd:	75 71                	jne    ffffffff8010de40 <init_smp+0x1f6>
ffffffff8010ddcf:	49 c7 c5 48 e6 11 80 	mov    $0xffffffff8011e648,%r13
ffffffff8010ddd6:	49 c7 c4 09 dc 10 80 	mov    $0xffffffff8010dc09,%r12
ffffffff8010dddd:	b8 00 00 00 00       	mov    $0x0,%eax
ffffffff8010dde2:	e8 4e 19 00 00       	callq  ffffffff8010f735 <grab_PML4>
ffffffff8010dde7:	48 89 c3             	mov    %rax,%rbx
ffffffff8010ddea:	bf 02 00 00 00       	mov    $0x2,%edi
ffffffff8010ddef:	e8 82 e2 ff ff       	callq  ffffffff8010c076 <pmm_alloc>
ffffffff8010ddf4:	48 ba 00 20 00 00 00 	movabs $0xffff800000002000,%rdx
ffffffff8010ddfb:	80 ff ff 
ffffffff8010ddfe:	48 01 d0             	add    %rdx,%rax
ffffffff8010de01:	4c 89 e9             	mov    %r13,%rcx
ffffffff8010de04:	4c 89 e2             	mov    %r12,%rdx
ffffffff8010de07:	48 89 de             	mov    %rbx,%rsi
ffffffff8010de0a:	48 89 c7             	mov    %rax,%rdi
ffffffff8010de0d:	e8 07 fd ff ff       	callq  ffffffff8010db19 <prep_trampoline>
ffffffff8010de12:	8b 45 c4             	mov    -0x3c(%rbp),%eax
ffffffff8010de15:	0f b6 c0             	movzbl %al,%eax
ffffffff8010de18:	be 00 05 00 00       	mov    $0x500,%esi
ffffffff8010de1d:	89 c7                	mov    %eax,%edi
ffffffff8010de1f:	e8 20 3e ff ff       	callq  ffffffff80101c44 <send_IPI>
ffffffff8010de24:	8b 45 c4             	mov    -0x3c(%rbp),%eax
ffffffff8010de27:	0f b6 c0             	movzbl %al,%eax
ffffffff8010de2a:	be 01 06 00 00       	mov    $0x601,%esi
ffffffff8010de2f:	89 c7                	mov    %eax,%edi
ffffffff8010de31:	e8 0e 3e ff ff       	callq  ffffffff80101c44 <send_IPI>
ffffffff8010de36:	bf 14 00 00 00       	mov    $0x14,%edi
ffffffff8010de3b:	e8 e8 86 ff ff       	callq  ffffffff80106528 <ksleep>
ffffffff8010de40:	48 83 45 d0 01       	addq   $0x1,-0x30(%rbp)
ffffffff8010de45:	48 8b 05 cc 05 01 00 	mov    0x105cc(%rip),%rax        # ffffffff8011e418 <madt0+0x18>
ffffffff8010de4c:	48 39 45 d0          	cmp    %rax,-0x30(%rbp)
ffffffff8010de50:	0f 82 d1 fe ff ff    	jb     ffffffff8010dd27 <init_smp+0xdd>
ffffffff8010de56:	90                   	nop
ffffffff8010de57:	90                   	nop
ffffffff8010de58:	48 83 c4 68          	add    $0x68,%rsp
ffffffff8010de5c:	5b                   	pop    %rbx
ffffffff8010de5d:	41 5c                	pop    %r12
ffffffff8010de5f:	41 5d                	pop    %r13
ffffffff8010de61:	5d                   	pop    %rbp
ffffffff8010de62:	c3                   	retq   

ffffffff8010de63 <get_core_local>:
ffffffff8010de63:	55                   	push   %rbp
ffffffff8010de64:	48 89 e5             	mov    %rsp,%rbp
ffffffff8010de67:	48 83 ec 08          	sub    $0x8,%rsp
ffffffff8010de6b:	48 89 7d f8          	mov    %rdi,-0x8(%rbp)
ffffffff8010de6f:	48 83 7d f8 ff       	cmpq   $0xffffffffffffffff,-0x8(%rbp)
ffffffff8010de74:	75 0d                	jne    ffffffff8010de83 <get_core_local+0x20>
ffffffff8010de76:	65 48 8b 04 25 00 00 	mov    %gs:0x0,%rax
ffffffff8010de7d:	00 00 
ffffffff8010de7f:	48 89 45 f8          	mov    %rax,-0x8(%rbp)
ffffffff8010de83:	48 8b 0d b6 07 01 00 	mov    0x107b6(%rip),%rcx        # ffffffff8011e640 <core_local>
ffffffff8010de8a:	48 8b 55 f8          	mov    -0x8(%rbp),%rdx
ffffffff8010de8e:	48 89 d0             	mov    %rdx,%rax
ffffffff8010de91:	48 01 c0             	add    %rax,%rax
ffffffff8010de94:	48 01 d0             	add    %rdx,%rax
ffffffff8010de97:	48 c1 e0 04          	shl    $0x4,%rax
ffffffff8010de9b:	48 01 c8             	add    %rcx,%rax
ffffffff8010de9e:	c9                   	leaveq 
ffffffff8010de9f:	c3                   	retq   

ffffffff8010dea0 <spin_lock>:
ffffffff8010dea0:	55                   	push   %rbp
ffffffff8010dea1:	48 89 e5             	mov    %rsp,%rbp
ffffffff8010dea4:	48 83 ec 20          	sub    $0x20,%rsp
ffffffff8010dea8:	48 89 7d e8          	mov    %rdi,-0x18(%rbp)
ffffffff8010deac:	48 c7 45 f8 00 00 00 	movq   $0x0,-0x8(%rbp)
ffffffff8010deb3:	00 
ffffffff8010deb4:	eb 2c                	jmp    ffffffff8010dee2 <spin_lock+0x42>
ffffffff8010deb6:	48 8b 45 f8          	mov    -0x8(%rbp),%rax
ffffffff8010deba:	48 83 c0 01          	add    $0x1,%rax
ffffffff8010debe:	48 89 45 f8          	mov    %rax,-0x8(%rbp)
ffffffff8010dec2:	48 3d 00 00 00 10    	cmp    $0x10000000,%rax
ffffffff8010dec8:	75 18                	jne    ffffffff8010dee2 <spin_lock+0x42>
ffffffff8010deca:	48 c7 c6 c6 09 11 80 	mov    $0xffffffff801109c6,%rsi
ffffffff8010ded1:	48 c7 c7 d8 09 11 80 	mov    $0xffffffff801109d8,%rdi
ffffffff8010ded8:	b8 00 00 00 00       	mov    $0x0,%eax
ffffffff8010dedd:	e8 cb cf ff ff       	callq  ffffffff8010aead <kprintf>
ffffffff8010dee2:	48 8b 55 e8          	mov    -0x18(%rbp),%rdx
ffffffff8010dee6:	b8 01 00 00 00       	mov    $0x1,%eax
ffffffff8010deeb:	86 02                	xchg   %al,(%rdx)
ffffffff8010deed:	84 c0                	test   %al,%al
ffffffff8010deef:	75 c5                	jne    ffffffff8010deb6 <spin_lock+0x16>
ffffffff8010def1:	90                   	nop
ffffffff8010def2:	90                   	nop
ffffffff8010def3:	c9                   	leaveq 
ffffffff8010def4:	c3                   	retq   

ffffffff8010def5 <spin_release>:
ffffffff8010def5:	55                   	push   %rbp
ffffffff8010def6:	48 89 e5             	mov    %rsp,%rbp
ffffffff8010def9:	48 83 ec 08          	sub    $0x8,%rsp
ffffffff8010defd:	48 89 7d f8          	mov    %rdi,-0x8(%rbp)
ffffffff8010df01:	48 8b 45 f8          	mov    -0x8(%rbp),%rax
ffffffff8010df05:	ba 00 00 00 00       	mov    $0x0,%edx
ffffffff8010df0a:	88 10                	mov    %dl,(%rax)
ffffffff8010df0c:	90                   	nop
ffffffff8010df0d:	c9                   	leaveq 
ffffffff8010df0e:	c3                   	retq   

ffffffff8010df0f <strlen>:
ffffffff8010df0f:	55                   	push   %rbp
ffffffff8010df10:	48 89 e5             	mov    %rsp,%rbp
ffffffff8010df13:	48 83 ec 18          	sub    $0x18,%rsp
ffffffff8010df17:	48 89 7d e8          	mov    %rdi,-0x18(%rbp)
ffffffff8010df1b:	48 c7 45 f8 00 00 00 	movq   $0x0,-0x8(%rbp)
ffffffff8010df22:	00 
ffffffff8010df23:	eb 05                	jmp    ffffffff8010df2a <strlen+0x1b>
ffffffff8010df25:	48 83 45 f8 01       	addq   $0x1,-0x8(%rbp)
ffffffff8010df2a:	48 8b 55 e8          	mov    -0x18(%rbp),%rdx
ffffffff8010df2e:	48 8b 45 f8          	mov    -0x8(%rbp),%rax
ffffffff8010df32:	48 01 d0             	add    %rdx,%rax
ffffffff8010df35:	0f b6 00             	movzbl (%rax),%eax
ffffffff8010df38:	84 c0                	test   %al,%al
ffffffff8010df3a:	75 e9                	jne    ffffffff8010df25 <strlen+0x16>
ffffffff8010df3c:	48 8b 45 f8          	mov    -0x8(%rbp),%rax
ffffffff8010df40:	c9                   	leaveq 
ffffffff8010df41:	c3                   	retq   

ffffffff8010df42 <strcmp>:
ffffffff8010df42:	55                   	push   %rbp
ffffffff8010df43:	48 89 e5             	mov    %rsp,%rbp
ffffffff8010df46:	48 83 ec 10          	sub    $0x10,%rsp
ffffffff8010df4a:	48 89 7d f8          	mov    %rdi,-0x8(%rbp)
ffffffff8010df4e:	48 89 75 f0          	mov    %rsi,-0x10(%rbp)
ffffffff8010df52:	eb 0a                	jmp    ffffffff8010df5e <strcmp+0x1c>
ffffffff8010df54:	48 83 45 f8 01       	addq   $0x1,-0x8(%rbp)
ffffffff8010df59:	48 83 45 f0 01       	addq   $0x1,-0x10(%rbp)
ffffffff8010df5e:	48 8b 45 f8          	mov    -0x8(%rbp),%rax
ffffffff8010df62:	0f b6 00             	movzbl (%rax),%eax
ffffffff8010df65:	84 c0                	test   %al,%al
ffffffff8010df67:	74 12                	je     ffffffff8010df7b <strcmp+0x39>
ffffffff8010df69:	48 8b 45 f8          	mov    -0x8(%rbp),%rax
ffffffff8010df6d:	0f b6 10             	movzbl (%rax),%edx
ffffffff8010df70:	48 8b 45 f0          	mov    -0x10(%rbp),%rax
ffffffff8010df74:	0f b6 00             	movzbl (%rax),%eax
ffffffff8010df77:	38 c2                	cmp    %al,%dl
ffffffff8010df79:	74 d9                	je     ffffffff8010df54 <strcmp+0x12>
ffffffff8010df7b:	48 8b 45 f8          	mov    -0x8(%rbp),%rax
ffffffff8010df7f:	0f b6 00             	movzbl (%rax),%eax
ffffffff8010df82:	0f be d0             	movsbl %al,%edx
ffffffff8010df85:	48 8b 45 f0          	mov    -0x10(%rbp),%rax
ffffffff8010df89:	0f b6 00             	movzbl (%rax),%eax
ffffffff8010df8c:	0f be c8             	movsbl %al,%ecx
ffffffff8010df8f:	89 d0                	mov    %edx,%eax
ffffffff8010df91:	29 c8                	sub    %ecx,%eax
ffffffff8010df93:	c9                   	leaveq 
ffffffff8010df94:	c3                   	retq   

ffffffff8010df95 <strncmp>:
ffffffff8010df95:	55                   	push   %rbp
ffffffff8010df96:	48 89 e5             	mov    %rsp,%rbp
ffffffff8010df99:	48 83 ec 28          	sub    $0x28,%rsp
ffffffff8010df9d:	48 89 7d e8          	mov    %rdi,-0x18(%rbp)
ffffffff8010dfa1:	48 89 75 e0          	mov    %rsi,-0x20(%rbp)
ffffffff8010dfa5:	48 89 55 d8          	mov    %rdx,-0x28(%rbp)
ffffffff8010dfa9:	48 c7 45 f8 00 00 00 	movq   $0x0,-0x8(%rbp)
ffffffff8010dfb0:	00 
ffffffff8010dfb1:	eb 2c                	jmp    ffffffff8010dfdf <strncmp+0x4a>
ffffffff8010dfb3:	48 8b 55 e8          	mov    -0x18(%rbp),%rdx
ffffffff8010dfb7:	48 8b 45 f8          	mov    -0x8(%rbp),%rax
ffffffff8010dfbb:	48 01 d0             	add    %rdx,%rax
ffffffff8010dfbe:	0f b6 10             	movzbl (%rax),%edx
ffffffff8010dfc1:	48 8b 4d e0          	mov    -0x20(%rbp),%rcx
ffffffff8010dfc5:	48 8b 45 f8          	mov    -0x8(%rbp),%rax
ffffffff8010dfc9:	48 01 c8             	add    %rcx,%rax
ffffffff8010dfcc:	0f b6 00             	movzbl (%rax),%eax
ffffffff8010dfcf:	38 c2                	cmp    %al,%dl
ffffffff8010dfd1:	74 07                	je     ffffffff8010dfda <strncmp+0x45>
ffffffff8010dfd3:	b8 01 00 00 00       	mov    $0x1,%eax
ffffffff8010dfd8:	eb 14                	jmp    ffffffff8010dfee <strncmp+0x59>
ffffffff8010dfda:	48 83 45 f8 01       	addq   $0x1,-0x8(%rbp)
ffffffff8010dfdf:	48 8b 45 f8          	mov    -0x8(%rbp),%rax
ffffffff8010dfe3:	48 3b 45 d8          	cmp    -0x28(%rbp),%rax
ffffffff8010dfe7:	72 ca                	jb     ffffffff8010dfb3 <strncmp+0x1e>
ffffffff8010dfe9:	b8 00 00 00 00       	mov    $0x0,%eax
ffffffff8010dfee:	c9                   	leaveq 
ffffffff8010dfef:	c3                   	retq   

ffffffff8010dff0 <strcpy>:
ffffffff8010dff0:	55                   	push   %rbp
ffffffff8010dff1:	48 89 e5             	mov    %rsp,%rbp
ffffffff8010dff4:	48 83 ec 20          	sub    $0x20,%rsp
ffffffff8010dff8:	48 89 7d e8          	mov    %rdi,-0x18(%rbp)
ffffffff8010dffc:	48 89 75 e0          	mov    %rsi,-0x20(%rbp)
ffffffff8010e000:	48 c7 45 f8 00 00 00 	movq   $0x0,-0x8(%rbp)
ffffffff8010e007:	00 
ffffffff8010e008:	eb 20                	jmp    ffffffff8010e02a <strcpy+0x3a>
ffffffff8010e00a:	48 8b 55 e0          	mov    -0x20(%rbp),%rdx
ffffffff8010e00e:	48 8b 45 f8          	mov    -0x8(%rbp),%rax
ffffffff8010e012:	48 01 d0             	add    %rdx,%rax
ffffffff8010e015:	48 8b 4d e8          	mov    -0x18(%rbp),%rcx
ffffffff8010e019:	48 8b 55 f8          	mov    -0x8(%rbp),%rdx
ffffffff8010e01d:	48 01 ca             	add    %rcx,%rdx
ffffffff8010e020:	0f b6 00             	movzbl (%rax),%eax
ffffffff8010e023:	88 02                	mov    %al,(%rdx)
ffffffff8010e025:	48 83 45 f8 01       	addq   $0x1,-0x8(%rbp)
ffffffff8010e02a:	48 8b 55 e0          	mov    -0x20(%rbp),%rdx
ffffffff8010e02e:	48 8b 45 f8          	mov    -0x8(%rbp),%rax
ffffffff8010e032:	48 01 d0             	add    %rdx,%rax
ffffffff8010e035:	0f b6 00             	movzbl (%rax),%eax
ffffffff8010e038:	84 c0                	test   %al,%al
ffffffff8010e03a:	75 ce                	jne    ffffffff8010e00a <strcpy+0x1a>
ffffffff8010e03c:	48 8b 55 e8          	mov    -0x18(%rbp),%rdx
ffffffff8010e040:	48 8b 45 f8          	mov    -0x8(%rbp),%rax
ffffffff8010e044:	48 01 d0             	add    %rdx,%rax
ffffffff8010e047:	c6 00 00             	movb   $0x0,(%rax)
ffffffff8010e04a:	48 8b 45 e8          	mov    -0x18(%rbp),%rax
ffffffff8010e04e:	c9                   	leaveq 
ffffffff8010e04f:	c3                   	retq   

ffffffff8010e050 <strncpy>:
ffffffff8010e050:	55                   	push   %rbp
ffffffff8010e051:	48 89 e5             	mov    %rsp,%rbp
ffffffff8010e054:	48 83 ec 28          	sub    $0x28,%rsp
ffffffff8010e058:	48 89 7d e8          	mov    %rdi,-0x18(%rbp)
ffffffff8010e05c:	48 89 75 e0          	mov    %rsi,-0x20(%rbp)
ffffffff8010e060:	48 89 55 d8          	mov    %rdx,-0x28(%rbp)
ffffffff8010e064:	48 c7 45 f8 00 00 00 	movq   $0x0,-0x8(%rbp)
ffffffff8010e06b:	00 
ffffffff8010e06c:	eb 20                	jmp    ffffffff8010e08e <strncpy+0x3e>
ffffffff8010e06e:	48 8b 55 e0          	mov    -0x20(%rbp),%rdx
ffffffff8010e072:	48 8b 45 f8          	mov    -0x8(%rbp),%rax
ffffffff8010e076:	48 01 d0             	add    %rdx,%rax
ffffffff8010e079:	48 8b 4d e8          	mov    -0x18(%rbp),%rcx
ffffffff8010e07d:	48 8b 55 f8          	mov    -0x8(%rbp),%rdx
ffffffff8010e081:	48 01 ca             	add    %rcx,%rdx
ffffffff8010e084:	0f b6 00             	movzbl (%rax),%eax
ffffffff8010e087:	88 02                	mov    %al,(%rdx)
ffffffff8010e089:	48 83 45 f8 01       	addq   $0x1,-0x8(%rbp)
ffffffff8010e08e:	48 8b 45 f8          	mov    -0x8(%rbp),%rax
ffffffff8010e092:	48 3b 45 d8          	cmp    -0x28(%rbp),%rax
ffffffff8010e096:	73 27                	jae    ffffffff8010e0bf <strncpy+0x6f>
ffffffff8010e098:	48 8b 55 e0          	mov    -0x20(%rbp),%rdx
ffffffff8010e09c:	48 8b 45 f8          	mov    -0x8(%rbp),%rax
ffffffff8010e0a0:	48 01 d0             	add    %rdx,%rax
ffffffff8010e0a3:	0f b6 00             	movzbl (%rax),%eax
ffffffff8010e0a6:	84 c0                	test   %al,%al
ffffffff8010e0a8:	75 c4                	jne    ffffffff8010e06e <strncpy+0x1e>
ffffffff8010e0aa:	eb 13                	jmp    ffffffff8010e0bf <strncpy+0x6f>
ffffffff8010e0ac:	48 8b 55 e8          	mov    -0x18(%rbp),%rdx
ffffffff8010e0b0:	48 8b 45 f8          	mov    -0x8(%rbp),%rax
ffffffff8010e0b4:	48 01 d0             	add    %rdx,%rax
ffffffff8010e0b7:	c6 00 00             	movb   $0x0,(%rax)
ffffffff8010e0ba:	48 83 45 f8 01       	addq   $0x1,-0x8(%rbp)
ffffffff8010e0bf:	48 8b 45 f8          	mov    -0x8(%rbp),%rax
ffffffff8010e0c3:	48 3b 45 d8          	cmp    -0x28(%rbp),%rax
ffffffff8010e0c7:	72 e3                	jb     ffffffff8010e0ac <strncpy+0x5c>
ffffffff8010e0c9:	48 8b 45 e8          	mov    -0x18(%rbp),%rax
ffffffff8010e0cd:	c9                   	leaveq 
ffffffff8010e0ce:	c3                   	retq   

ffffffff8010e0cf <itob>:
ffffffff8010e0cf:	55                   	push   %rbp
ffffffff8010e0d0:	48 89 e5             	mov    %rsp,%rbp
ffffffff8010e0d3:	48 83 ec 20          	sub    $0x20,%rsp
ffffffff8010e0d7:	48 89 7d e8          	mov    %rdi,-0x18(%rbp)
ffffffff8010e0db:	48 89 75 e0          	mov    %rsi,-0x20(%rbp)
ffffffff8010e0df:	48 c7 45 f8 91 e6 11 	movq   $0xffffffff8011e691,-0x8(%rbp)
ffffffff8010e0e6:	80 
ffffffff8010e0e7:	48 8b 45 f8          	mov    -0x8(%rbp),%rax
ffffffff8010e0eb:	c6 00 00             	movb   $0x0,(%rax)
ffffffff8010e0ee:	48 8b 45 e8          	mov    -0x18(%rbp),%rax
ffffffff8010e0f2:	ba 00 00 00 00       	mov    $0x0,%edx
ffffffff8010e0f7:	48 f7 75 e0          	divq   -0x20(%rbp)
ffffffff8010e0fb:	48 89 d0             	mov    %rdx,%rax
ffffffff8010e0fe:	48 83 6d f8 01       	subq   $0x1,-0x8(%rbp)
ffffffff8010e103:	0f b6 90 40 41 11 80 	movzbl -0x7feebec0(%rax),%edx
ffffffff8010e10a:	48 8b 45 f8          	mov    -0x8(%rbp),%rax
ffffffff8010e10e:	88 10                	mov    %dl,(%rax)
ffffffff8010e110:	48 8b 45 e8          	mov    -0x18(%rbp),%rax
ffffffff8010e114:	ba 00 00 00 00       	mov    $0x0,%edx
ffffffff8010e119:	48 f7 75 e0          	divq   -0x20(%rbp)
ffffffff8010e11d:	48 89 45 e8          	mov    %rax,-0x18(%rbp)
ffffffff8010e121:	48 83 7d e8 00       	cmpq   $0x0,-0x18(%rbp)
ffffffff8010e126:	75 c6                	jne    ffffffff8010e0ee <itob+0x1f>
ffffffff8010e128:	48 8b 45 f8          	mov    -0x8(%rbp),%rax
ffffffff8010e12c:	c9                   	leaveq 
ffffffff8010e12d:	c3                   	retq   

ffffffff8010e12e <character_cnt>:
ffffffff8010e12e:	55                   	push   %rbp
ffffffff8010e12f:	48 89 e5             	mov    %rsp,%rbp
ffffffff8010e132:	48 83 ec 20          	sub    $0x20,%rsp
ffffffff8010e136:	48 89 7d e8          	mov    %rdi,-0x18(%rbp)
ffffffff8010e13a:	89 f0                	mov    %esi,%eax
ffffffff8010e13c:	88 45 e4             	mov    %al,-0x1c(%rbp)
ffffffff8010e13f:	c7 45 fc 00 00 00 00 	movl   $0x0,-0x4(%rbp)
ffffffff8010e146:	48 c7 45 f0 00 00 00 	movq   $0x0,-0x10(%rbp)
ffffffff8010e14d:	00 
ffffffff8010e14e:	eb 1c                	jmp    ffffffff8010e16c <character_cnt+0x3e>
ffffffff8010e150:	48 8b 55 e8          	mov    -0x18(%rbp),%rdx
ffffffff8010e154:	48 8b 45 f0          	mov    -0x10(%rbp),%rax
ffffffff8010e158:	48 01 d0             	add    %rdx,%rax
ffffffff8010e15b:	0f b6 00             	movzbl (%rax),%eax
ffffffff8010e15e:	38 45 e4             	cmp    %al,-0x1c(%rbp)
ffffffff8010e161:	75 04                	jne    ffffffff8010e167 <character_cnt+0x39>
ffffffff8010e163:	83 45 fc 01          	addl   $0x1,-0x4(%rbp)
ffffffff8010e167:	48 83 45 f0 01       	addq   $0x1,-0x10(%rbp)
ffffffff8010e16c:	48 8b 45 e8          	mov    -0x18(%rbp),%rax
ffffffff8010e170:	48 89 c7             	mov    %rax,%rdi
ffffffff8010e173:	e8 97 fd ff ff       	callq  ffffffff8010df0f <strlen>
ffffffff8010e178:	48 39 45 f0          	cmp    %rax,-0x10(%rbp)
ffffffff8010e17c:	72 d2                	jb     ffffffff8010e150 <character_cnt+0x22>
ffffffff8010e17e:	8b 45 fc             	mov    -0x4(%rbp),%eax
ffffffff8010e181:	c9                   	leaveq 
ffffffff8010e182:	c3                   	retq   

ffffffff8010e183 <strchr>:
ffffffff8010e183:	55                   	push   %rbp
ffffffff8010e184:	48 89 e5             	mov    %rsp,%rbp
ffffffff8010e187:	48 83 ec 20          	sub    $0x20,%rsp
ffffffff8010e18b:	48 89 7d e8          	mov    %rdi,-0x18(%rbp)
ffffffff8010e18f:	89 75 e4             	mov    %esi,-0x1c(%rbp)
ffffffff8010e192:	48 c7 45 f8 00 00 00 	movq   $0x0,-0x8(%rbp)
ffffffff8010e199:	00 
ffffffff8010e19a:	eb 28                	jmp    ffffffff8010e1c4 <strchr+0x41>
ffffffff8010e19c:	48 8b 55 e8          	mov    -0x18(%rbp),%rdx
ffffffff8010e1a0:	48 8b 45 f8          	mov    -0x8(%rbp),%rax
ffffffff8010e1a4:	48 01 d0             	add    %rdx,%rax
ffffffff8010e1a7:	0f b6 00             	movzbl (%rax),%eax
ffffffff8010e1aa:	0f be c0             	movsbl %al,%eax
ffffffff8010e1ad:	39 45 e4             	cmp    %eax,-0x1c(%rbp)
ffffffff8010e1b0:	75 0d                	jne    ffffffff8010e1bf <strchr+0x3c>
ffffffff8010e1b2:	48 8b 55 e8          	mov    -0x18(%rbp),%rdx
ffffffff8010e1b6:	48 8b 45 f8          	mov    -0x8(%rbp),%rax
ffffffff8010e1ba:	48 01 d0             	add    %rdx,%rax
ffffffff8010e1bd:	eb 2f                	jmp    ffffffff8010e1ee <strchr+0x6b>
ffffffff8010e1bf:	48 83 45 f8 01       	addq   $0x1,-0x8(%rbp)
ffffffff8010e1c4:	48 8b 55 e8          	mov    -0x18(%rbp),%rdx
ffffffff8010e1c8:	48 8b 45 f8          	mov    -0x8(%rbp),%rax
ffffffff8010e1cc:	48 01 d0             	add    %rdx,%rax
ffffffff8010e1cf:	0f b6 00             	movzbl (%rax),%eax
ffffffff8010e1d2:	84 c0                	test   %al,%al
ffffffff8010e1d4:	75 c6                	jne    ffffffff8010e19c <strchr+0x19>
ffffffff8010e1d6:	83 7d e4 00          	cmpl   $0x0,-0x1c(%rbp)
ffffffff8010e1da:	75 0d                	jne    ffffffff8010e1e9 <strchr+0x66>
ffffffff8010e1dc:	48 8b 55 e8          	mov    -0x18(%rbp),%rdx
ffffffff8010e1e0:	48 8b 45 f8          	mov    -0x8(%rbp),%rax
ffffffff8010e1e4:	48 01 d0             	add    %rdx,%rax
ffffffff8010e1e7:	eb 05                	jmp    ffffffff8010e1ee <strchr+0x6b>
ffffffff8010e1e9:	b8 00 00 00 00       	mov    $0x0,%eax
ffffffff8010e1ee:	c9                   	leaveq 
ffffffff8010e1ef:	c3                   	retq   

ffffffff8010e1f0 <strtok_r>:
ffffffff8010e1f0:	55                   	push   %rbp
ffffffff8010e1f1:	48 89 e5             	mov    %rsp,%rbp
ffffffff8010e1f4:	48 83 ec 28          	sub    $0x28,%rsp
ffffffff8010e1f8:	48 89 7d e8          	mov    %rdi,-0x18(%rbp)
ffffffff8010e1fc:	48 89 75 e0          	mov    %rsi,-0x20(%rbp)
ffffffff8010e200:	48 89 55 d8          	mov    %rdx,-0x28(%rbp)
ffffffff8010e204:	48 83 7d e8 00       	cmpq   $0x0,-0x18(%rbp)
ffffffff8010e209:	74 0a                	je     ffffffff8010e215 <strtok_r+0x25>
ffffffff8010e20b:	48 8b 45 e8          	mov    -0x18(%rbp),%rax
ffffffff8010e20f:	48 89 45 f8          	mov    %rax,-0x8(%rbp)
ffffffff8010e213:	eb 28                	jmp    ffffffff8010e23d <strtok_r+0x4d>
ffffffff8010e215:	48 8b 45 d8          	mov    -0x28(%rbp),%rax
ffffffff8010e219:	48 8b 00             	mov    (%rax),%rax
ffffffff8010e21c:	48 85 c0             	test   %rax,%rax
ffffffff8010e21f:	74 0d                	je     ffffffff8010e22e <strtok_r+0x3e>
ffffffff8010e221:	48 8b 45 d8          	mov    -0x28(%rbp),%rax
ffffffff8010e225:	48 8b 00             	mov    (%rax),%rax
ffffffff8010e228:	48 89 45 f8          	mov    %rax,-0x8(%rbp)
ffffffff8010e22c:	eb 0f                	jmp    ffffffff8010e23d <strtok_r+0x4d>
ffffffff8010e22e:	b8 00 00 00 00       	mov    $0x0,%eax
ffffffff8010e233:	e9 a7 00 00 00       	jmpq   ffffffff8010e2df <strtok_r+0xef>
ffffffff8010e238:	48 83 45 f8 01       	addq   $0x1,-0x8(%rbp)
ffffffff8010e23d:	48 8b 45 f8          	mov    -0x8(%rbp),%rax
ffffffff8010e241:	0f b6 00             	movzbl (%rax),%eax
ffffffff8010e244:	84 c0                	test   %al,%al
ffffffff8010e246:	74 1d                	je     ffffffff8010e265 <strtok_r+0x75>
ffffffff8010e248:	48 8b 45 f8          	mov    -0x8(%rbp),%rax
ffffffff8010e24c:	0f b6 00             	movzbl (%rax),%eax
ffffffff8010e24f:	0f be d0             	movsbl %al,%edx
ffffffff8010e252:	48 8b 45 e0          	mov    -0x20(%rbp),%rax
ffffffff8010e256:	89 d6                	mov    %edx,%esi
ffffffff8010e258:	48 89 c7             	mov    %rax,%rdi
ffffffff8010e25b:	e8 23 ff ff ff       	callq  ffffffff8010e183 <strchr>
ffffffff8010e260:	48 85 c0             	test   %rax,%rax
ffffffff8010e263:	75 d3                	jne    ffffffff8010e238 <strtok_r+0x48>
ffffffff8010e265:	48 8b 45 f8          	mov    -0x8(%rbp),%rax
ffffffff8010e269:	48 89 45 f0          	mov    %rax,-0x10(%rbp)
ffffffff8010e26d:	eb 05                	jmp    ffffffff8010e274 <strtok_r+0x84>
ffffffff8010e26f:	48 83 45 f0 01       	addq   $0x1,-0x10(%rbp)
ffffffff8010e274:	48 8b 45 f0          	mov    -0x10(%rbp),%rax
ffffffff8010e278:	0f b6 00             	movzbl (%rax),%eax
ffffffff8010e27b:	84 c0                	test   %al,%al
ffffffff8010e27d:	74 1d                	je     ffffffff8010e29c <strtok_r+0xac>
ffffffff8010e27f:	48 8b 45 f0          	mov    -0x10(%rbp),%rax
ffffffff8010e283:	0f b6 00             	movzbl (%rax),%eax
ffffffff8010e286:	0f be d0             	movsbl %al,%edx
ffffffff8010e289:	48 8b 45 e0          	mov    -0x20(%rbp),%rax
ffffffff8010e28d:	89 d6                	mov    %edx,%esi
ffffffff8010e28f:	48 89 c7             	mov    %rax,%rdi
ffffffff8010e292:	e8 ec fe ff ff       	callq  ffffffff8010e183 <strchr>
ffffffff8010e297:	48 85 c0             	test   %rax,%rax
ffffffff8010e29a:	74 d3                	je     ffffffff8010e26f <strtok_r+0x7f>
ffffffff8010e29c:	48 8b 45 f0          	mov    -0x10(%rbp),%rax
ffffffff8010e2a0:	0f b6 00             	movzbl (%rax),%eax
ffffffff8010e2a3:	84 c0                	test   %al,%al
ffffffff8010e2a5:	74 18                	je     ffffffff8010e2bf <strtok_r+0xcf>
ffffffff8010e2a7:	48 8b 45 f0          	mov    -0x10(%rbp),%rax
ffffffff8010e2ab:	c6 00 00             	movb   $0x0,(%rax)
ffffffff8010e2ae:	48 8b 45 f0          	mov    -0x10(%rbp),%rax
ffffffff8010e2b2:	48 8d 50 01          	lea    0x1(%rax),%rdx
ffffffff8010e2b6:	48 8b 45 d8          	mov    -0x28(%rbp),%rax
ffffffff8010e2ba:	48 89 10             	mov    %rdx,(%rax)
ffffffff8010e2bd:	eb 0b                	jmp    ffffffff8010e2ca <strtok_r+0xda>
ffffffff8010e2bf:	48 8b 45 d8          	mov    -0x28(%rbp),%rax
ffffffff8010e2c3:	48 c7 00 00 00 00 00 	movq   $0x0,(%rax)
ffffffff8010e2ca:	48 8b 45 f0          	mov    -0x10(%rbp),%rax
ffffffff8010e2ce:	48 3b 45 f8          	cmp    -0x8(%rbp),%rax
ffffffff8010e2d2:	75 07                	jne    ffffffff8010e2db <strtok_r+0xeb>
ffffffff8010e2d4:	b8 00 00 00 00       	mov    $0x0,%eax
ffffffff8010e2d9:	eb 04                	jmp    ffffffff8010e2df <strtok_r+0xef>
ffffffff8010e2db:	48 8b 45 f8          	mov    -0x8(%rbp),%rax
ffffffff8010e2df:	c9                   	leaveq 
ffffffff8010e2e0:	c3                   	retq   

ffffffff8010e2e1 <strtok>:
ffffffff8010e2e1:	55                   	push   %rbp
ffffffff8010e2e2:	48 89 e5             	mov    %rsp,%rbp
ffffffff8010e2e5:	48 83 ec 10          	sub    $0x10,%rsp
ffffffff8010e2e9:	48 89 7d f8          	mov    %rdi,-0x8(%rbp)
ffffffff8010e2ed:	48 89 75 f0          	mov    %rsi,-0x10(%rbp)
ffffffff8010e2f1:	48 8b 4d f0          	mov    -0x10(%rbp),%rcx
ffffffff8010e2f5:	48 8b 45 f8          	mov    -0x8(%rbp),%rax
ffffffff8010e2f9:	48 c7 c2 98 e6 11 80 	mov    $0xffffffff8011e698,%rdx
ffffffff8010e300:	48 89 ce             	mov    %rcx,%rsi
ffffffff8010e303:	48 89 c7             	mov    %rax,%rdi
ffffffff8010e306:	e8 e5 fe ff ff       	callq  ffffffff8010e1f0 <strtok_r>
ffffffff8010e30b:	c9                   	leaveq 
ffffffff8010e30c:	c3                   	retq   

ffffffff8010e30d <atoi>:
ffffffff8010e30d:	55                   	push   %rbp
ffffffff8010e30e:	48 89 e5             	mov    %rsp,%rbp
ffffffff8010e311:	48 83 ec 18          	sub    $0x18,%rsp
ffffffff8010e315:	48 89 7d e8          	mov    %rdi,-0x18(%rbp)
ffffffff8010e319:	c7 45 fc 00 00 00 00 	movl   $0x0,-0x4(%rbp)
ffffffff8010e320:	48 c7 45 f0 00 00 00 	movq   $0x0,-0x10(%rbp)
ffffffff8010e327:	00 
ffffffff8010e328:	eb 2c                	jmp    ffffffff8010e356 <atoi+0x49>
ffffffff8010e32a:	8b 55 fc             	mov    -0x4(%rbp),%edx
ffffffff8010e32d:	89 d0                	mov    %edx,%eax
ffffffff8010e32f:	c1 e0 02             	shl    $0x2,%eax
ffffffff8010e332:	01 d0                	add    %edx,%eax
ffffffff8010e334:	01 c0                	add    %eax,%eax
ffffffff8010e336:	89 c1                	mov    %eax,%ecx
ffffffff8010e338:	48 8b 55 e8          	mov    -0x18(%rbp),%rdx
ffffffff8010e33c:	48 8b 45 f0          	mov    -0x10(%rbp),%rax
ffffffff8010e340:	48 01 d0             	add    %rdx,%rax
ffffffff8010e343:	0f b6 00             	movzbl (%rax),%eax
ffffffff8010e346:	0f be c0             	movsbl %al,%eax
ffffffff8010e349:	01 c8                	add    %ecx,%eax
ffffffff8010e34b:	83 e8 30             	sub    $0x30,%eax
ffffffff8010e34e:	89 45 fc             	mov    %eax,-0x4(%rbp)
ffffffff8010e351:	48 83 45 f0 01       	addq   $0x1,-0x10(%rbp)
ffffffff8010e356:	48 8b 45 e8          	mov    -0x18(%rbp),%rax
ffffffff8010e35a:	48 89 c7             	mov    %rax,%rdi
ffffffff8010e35d:	e8 ad fb ff ff       	callq  ffffffff8010df0f <strlen>
ffffffff8010e362:	48 39 45 f0          	cmp    %rax,-0x10(%rbp)
ffffffff8010e366:	72 c2                	jb     ffffffff8010e32a <atoi+0x1d>
ffffffff8010e368:	8b 45 fc             	mov    -0x4(%rbp),%eax
ffffffff8010e36b:	c9                   	leaveq 
ffffffff8010e36c:	c3                   	retq   

ffffffff8010e36d <str_congregate>:
ffffffff8010e36d:	55                   	push   %rbp
ffffffff8010e36e:	48 89 e5             	mov    %rsp,%rbp
ffffffff8010e371:	53                   	push   %rbx
ffffffff8010e372:	48 83 ec 28          	sub    $0x28,%rsp
ffffffff8010e376:	48 89 7d d8          	mov    %rdi,-0x28(%rbp)
ffffffff8010e37a:	48 89 75 d0          	mov    %rsi,-0x30(%rbp)
ffffffff8010e37e:	48 8b 45 d8          	mov    -0x28(%rbp),%rax
ffffffff8010e382:	48 89 c7             	mov    %rax,%rdi
ffffffff8010e385:	e8 85 fb ff ff       	callq  ffffffff8010df0f <strlen>
ffffffff8010e38a:	48 89 c3             	mov    %rax,%rbx
ffffffff8010e38d:	48 8b 45 d0          	mov    -0x30(%rbp),%rax
ffffffff8010e391:	48 89 c7             	mov    %rax,%rdi
ffffffff8010e394:	e8 76 fb ff ff       	callq  ffffffff8010df0f <strlen>
ffffffff8010e399:	48 01 d8             	add    %rbx,%rax
ffffffff8010e39c:	48 83 c0 01          	add    $0x1,%rax
ffffffff8010e3a0:	48 89 c7             	mov    %rax,%rdi
ffffffff8010e3a3:	e8 17 43 ff ff       	callq  ffffffff801026bf <kcalloc>
ffffffff8010e3a8:	48 89 45 e8          	mov    %rax,-0x18(%rbp)
ffffffff8010e3ac:	48 8b 45 d8          	mov    -0x28(%rbp),%rax
ffffffff8010e3b0:	48 89 c7             	mov    %rax,%rdi
ffffffff8010e3b3:	e8 57 fb ff ff       	callq  ffffffff8010df0f <strlen>
ffffffff8010e3b8:	48 89 c2             	mov    %rax,%rdx
ffffffff8010e3bb:	48 8b 4d d8          	mov    -0x28(%rbp),%rcx
ffffffff8010e3bf:	48 8b 45 e8          	mov    -0x18(%rbp),%rax
ffffffff8010e3c3:	48 89 ce             	mov    %rcx,%rsi
ffffffff8010e3c6:	48 89 c7             	mov    %rax,%rdi
ffffffff8010e3c9:	e8 82 fc ff ff       	callq  ffffffff8010e050 <strncpy>
ffffffff8010e3ce:	48 8b 45 d0          	mov    -0x30(%rbp),%rax
ffffffff8010e3d2:	48 89 c7             	mov    %rax,%rdi
ffffffff8010e3d5:	e8 35 fb ff ff       	callq  ffffffff8010df0f <strlen>
ffffffff8010e3da:	48 8d 58 01          	lea    0x1(%rax),%rbx
ffffffff8010e3de:	48 8b 45 d8          	mov    -0x28(%rbp),%rax
ffffffff8010e3e2:	48 89 c7             	mov    %rax,%rdi
ffffffff8010e3e5:	e8 25 fb ff ff       	callq  ffffffff8010df0f <strlen>
ffffffff8010e3ea:	48 8b 55 e8          	mov    -0x18(%rbp),%rdx
ffffffff8010e3ee:	48 8d 0c 10          	lea    (%rax,%rdx,1),%rcx
ffffffff8010e3f2:	48 8b 45 d0          	mov    -0x30(%rbp),%rax
ffffffff8010e3f6:	48 89 da             	mov    %rbx,%rdx
ffffffff8010e3f9:	48 89 c6             	mov    %rax,%rsi
ffffffff8010e3fc:	48 89 cf             	mov    %rcx,%rdi
ffffffff8010e3ff:	e8 4c fc ff ff       	callq  ffffffff8010e050 <strncpy>
ffffffff8010e404:	48 8b 45 e8          	mov    -0x18(%rbp),%rax
ffffffff8010e408:	48 8b 5d f8          	mov    -0x8(%rbp),%rbx
ffffffff8010e40c:	c9                   	leaveq 
ffffffff8010e40d:	c3                   	retq   

ffffffff8010e40e <last_char>:
ffffffff8010e40e:	55                   	push   %rbp
ffffffff8010e40f:	48 89 e5             	mov    %rsp,%rbp
ffffffff8010e412:	48 83 ec 20          	sub    $0x20,%rsp
ffffffff8010e416:	48 89 7d e8          	mov    %rdi,-0x18(%rbp)
ffffffff8010e41a:	89 f0                	mov    %esi,%eax
ffffffff8010e41c:	88 45 e4             	mov    %al,-0x1c(%rbp)
ffffffff8010e41f:	48 c7 45 f8 00 00 00 	movq   $0x0,-0x8(%rbp)
ffffffff8010e426:	00 
ffffffff8010e427:	48 c7 45 f0 00 00 00 	movq   $0x0,-0x10(%rbp)
ffffffff8010e42e:	00 
ffffffff8010e42f:	eb 24                	jmp    ffffffff8010e455 <last_char+0x47>
ffffffff8010e431:	48 8b 55 e8          	mov    -0x18(%rbp),%rdx
ffffffff8010e435:	48 8b 45 f0          	mov    -0x10(%rbp),%rax
ffffffff8010e439:	48 01 d0             	add    %rdx,%rax
ffffffff8010e43c:	0f b6 00             	movzbl (%rax),%eax
ffffffff8010e43f:	38 45 e4             	cmp    %al,-0x1c(%rbp)
ffffffff8010e442:	75 0c                	jne    ffffffff8010e450 <last_char+0x42>
ffffffff8010e444:	48 8b 45 f0          	mov    -0x10(%rbp),%rax
ffffffff8010e448:	48 83 c0 01          	add    $0x1,%rax
ffffffff8010e44c:	48 89 45 f8          	mov    %rax,-0x8(%rbp)
ffffffff8010e450:	48 83 45 f0 01       	addq   $0x1,-0x10(%rbp)
ffffffff8010e455:	48 8b 45 e8          	mov    -0x18(%rbp),%rax
ffffffff8010e459:	48 89 c7             	mov    %rax,%rdi
ffffffff8010e45c:	e8 ae fa ff ff       	callq  ffffffff8010df0f <strlen>
ffffffff8010e461:	48 39 45 f0          	cmp    %rax,-0x10(%rbp)
ffffffff8010e465:	72 ca                	jb     ffffffff8010e431 <last_char+0x23>
ffffffff8010e467:	48 8b 45 f8          	mov    -0x8(%rbp),%rax
ffffffff8010e46b:	c9                   	leaveq 
ffffffff8010e46c:	c3                   	retq   
ffffffff8010e46d:	0f 1f 00             	nopl   (%rax)

ffffffff8010e470 <syscall_main_stub>:
ffffffff8010e470:	65 48 89 24 25 10 00 	mov    %rsp,%gs:0x10
ffffffff8010e477:	00 00 
ffffffff8010e479:	65 48 8b 24 25 08 00 	mov    %gs:0x8,%rsp
ffffffff8010e480:	00 00 
ffffffff8010e482:	fb                   	sti    
ffffffff8010e483:	41 53                	push   %r11
ffffffff8010e485:	51                   	push   %rcx
ffffffff8010e486:	50                   	push   %rax
ffffffff8010e487:	53                   	push   %rbx
ffffffff8010e488:	51                   	push   %rcx
ffffffff8010e489:	52                   	push   %rdx
ffffffff8010e48a:	55                   	push   %rbp
ffffffff8010e48b:	57                   	push   %rdi
ffffffff8010e48c:	56                   	push   %rsi
ffffffff8010e48d:	41 50                	push   %r8
ffffffff8010e48f:	41 51                	push   %r9
ffffffff8010e491:	41 52                	push   %r10
ffffffff8010e493:	41 53                	push   %r11
ffffffff8010e495:	41 54                	push   %r12
ffffffff8010e497:	41 55                	push   %r13
ffffffff8010e499:	41 56                	push   %r14
ffffffff8010e49b:	41 57                	push   %r15
ffffffff8010e49d:	48 83 f8 00          	cmp    $0x0,%rax
ffffffff8010e4a1:	73 2c                	jae    ffffffff8010e4cf <syscall_main_stub.error>
ffffffff8010e4a3:	ff 14 c5 70 e4 10 80 	callq  *-0x7fef1b90(,%rax,8)

ffffffff8010e4aa <syscall_main_stub.leave>:
ffffffff8010e4aa:	41 5f                	pop    %r15
ffffffff8010e4ac:	41 5e                	pop    %r14
ffffffff8010e4ae:	41 5d                	pop    %r13
ffffffff8010e4b0:	41 5c                	pop    %r12
ffffffff8010e4b2:	41 5b                	pop    %r11
ffffffff8010e4b4:	41 5a                	pop    %r10
ffffffff8010e4b6:	41 59                	pop    %r9
ffffffff8010e4b8:	41 58                	pop    %r8
ffffffff8010e4ba:	5e                   	pop    %rsi
ffffffff8010e4bb:	5f                   	pop    %rdi
ffffffff8010e4bc:	5d                   	pop    %rbp
ffffffff8010e4bd:	5a                   	pop    %rdx
ffffffff8010e4be:	59                   	pop    %rcx
ffffffff8010e4bf:	5b                   	pop    %rbx
ffffffff8010e4c0:	59                   	pop    %rcx
ffffffff8010e4c1:	41 5b                	pop    %r11
ffffffff8010e4c3:	65 48 8b 24 25 10 00 	mov    %gs:0x10,%rsp
ffffffff8010e4ca:	00 00 
ffffffff8010e4cc:	48 0f 07             	sysretq 

ffffffff8010e4cf <syscall_main_stub.error>:
ffffffff8010e4cf:	48 c7 c0 ff ff ff ff 	mov    $0xffffffffffffffff,%rax
ffffffff8010e4d6:	eb d2                	jmp    ffffffff8010e4aa <syscall_main_stub.leave>

ffffffff8010e4d8 <vfs_create_node>:
ffffffff8010e4d8:	55                   	push   %rbp
ffffffff8010e4d9:	48 89 e5             	mov    %rsp,%rbp
ffffffff8010e4dc:	48 81 ec 00 01 00 00 	sub    $0x100,%rsp
ffffffff8010e4e3:	48 89 bd 08 ff ff ff 	mov    %rdi,-0xf8(%rbp)
ffffffff8010e4ea:	48 89 b5 00 ff ff ff 	mov    %rsi,-0x100(%rbp)
ffffffff8010e4f1:	48 81 bd 08 ff ff ff 	cmpq   $0xffffffff80114160,-0xf8(%rbp)
ffffffff8010e4f8:	60 41 11 80 
ffffffff8010e4fc:	74 45                	je     ffffffff8010e543 <vfs_create_node+0x6b>
ffffffff8010e4fe:	48 8b 85 08 ff ff ff 	mov    -0xf8(%rbp),%rax
ffffffff8010e505:	48 8b 00             	mov    (%rax),%rax
ffffffff8010e508:	48 c7 c6 e1 09 11 80 	mov    $0xffffffff801109e1,%rsi
ffffffff8010e50f:	48 89 c7             	mov    %rax,%rdi
ffffffff8010e512:	e8 56 fe ff ff       	callq  ffffffff8010e36d <str_congregate>
ffffffff8010e517:	48 89 45 e0          	mov    %rax,-0x20(%rbp)
ffffffff8010e51b:	48 8b 95 00 ff ff ff 	mov    -0x100(%rbp),%rdx
ffffffff8010e522:	48 8b 45 e0          	mov    -0x20(%rbp),%rax
ffffffff8010e526:	48 89 d6             	mov    %rdx,%rsi
ffffffff8010e529:	48 89 c7             	mov    %rax,%rdi
ffffffff8010e52c:	e8 3c fe ff ff       	callq  ffffffff8010e36d <str_congregate>
ffffffff8010e531:	48 89 45 f8          	mov    %rax,-0x8(%rbp)
ffffffff8010e535:	48 8b 45 e0          	mov    -0x20(%rbp),%rax
ffffffff8010e539:	48 89 c7             	mov    %rax,%rdi
ffffffff8010e53c:	e8 b2 3f ff ff       	callq  ffffffff801024f3 <kfree>
ffffffff8010e541:	eb 20                	jmp    ffffffff8010e563 <vfs_create_node+0x8b>
ffffffff8010e543:	48 8b 85 08 ff ff ff 	mov    -0xf8(%rbp),%rax
ffffffff8010e54a:	48 8b 00             	mov    (%rax),%rax
ffffffff8010e54d:	48 8b 95 00 ff ff ff 	mov    -0x100(%rbp),%rdx
ffffffff8010e554:	48 89 d6             	mov    %rdx,%rsi
ffffffff8010e557:	48 89 c7             	mov    %rax,%rdi
ffffffff8010e55a:	e8 0e fe ff ff       	callq  ffffffff8010e36d <str_congregate>
ffffffff8010e55f:	48 89 45 f8          	mov    %rax,-0x8(%rbp)
ffffffff8010e563:	48 c7 45 f0 00 00 00 	movq   $0x0,-0x10(%rbp)
ffffffff8010e56a:	00 
ffffffff8010e56b:	48 8b 85 08 ff ff ff 	mov    -0xf8(%rbp),%rax
ffffffff8010e572:	48 8b 40 18          	mov    0x18(%rax),%rax
ffffffff8010e576:	48 85 c0             	test   %rax,%rax
ffffffff8010e579:	74 36                	je     ffffffff8010e5b1 <vfs_create_node+0xd9>
ffffffff8010e57b:	48 8b 85 08 ff ff ff 	mov    -0xf8(%rbp),%rax
ffffffff8010e582:	48 8b 40 18          	mov    0x18(%rax),%rax
ffffffff8010e586:	48 8b 40 10          	mov    0x10(%rax),%rax
ffffffff8010e58a:	48 85 c0             	test   %rax,%rax
ffffffff8010e58d:	74 22                	je     ffffffff8010e5b1 <vfs_create_node+0xd9>
ffffffff8010e58f:	48 8b 85 08 ff ff ff 	mov    -0xf8(%rbp),%rax
ffffffff8010e596:	48 8b 40 18          	mov    0x18(%rax),%rax
ffffffff8010e59a:	48 8b 40 10          	mov    0x10(%rax),%rax
ffffffff8010e59e:	48 89 c7             	mov    %rax,%rdi
ffffffff8010e5a1:	e8 69 f9 ff ff       	callq  ffffffff8010df0f <strlen>
ffffffff8010e5a6:	48 8b 55 f8          	mov    -0x8(%rbp),%rdx
ffffffff8010e5aa:	48 01 d0             	add    %rdx,%rax
ffffffff8010e5ad:	48 89 45 f0          	mov    %rax,-0x10(%rbp)
ffffffff8010e5b1:	48 8d 95 18 ff ff ff 	lea    -0xe8(%rbp),%rdx
ffffffff8010e5b8:	b8 00 00 00 00       	mov    $0x0,%eax
ffffffff8010e5bd:	b9 18 00 00 00       	mov    $0x18,%ecx
ffffffff8010e5c2:	48 89 d7             	mov    %rdx,%rdi
ffffffff8010e5c5:	f3 48 ab             	rep stos %rax,%es:(%rdi)
ffffffff8010e5c8:	48 8b 45 f8          	mov    -0x8(%rbp),%rax
ffffffff8010e5cc:	48 89 85 18 ff ff ff 	mov    %rax,-0xe8(%rbp)
ffffffff8010e5d3:	48 8b 45 f0          	mov    -0x10(%rbp),%rax
ffffffff8010e5d7:	48 89 85 20 ff ff ff 	mov    %rax,-0xe0(%rbp)
ffffffff8010e5de:	48 8b 85 00 ff ff ff 	mov    -0x100(%rbp),%rax
ffffffff8010e5e5:	48 89 85 28 ff ff ff 	mov    %rax,-0xd8(%rbp)
ffffffff8010e5ec:	48 8b 85 08 ff ff ff 	mov    -0xf8(%rbp),%rax
ffffffff8010e5f3:	48 8b 40 18          	mov    0x18(%rax),%rax
ffffffff8010e5f7:	48 89 85 30 ff ff ff 	mov    %rax,-0xd0(%rbp)
ffffffff8010e5fe:	48 8b 85 08 ff ff ff 	mov    -0xf8(%rbp),%rax
ffffffff8010e605:	48 89 45 d0          	mov    %rax,-0x30(%rbp)
ffffffff8010e609:	48 8b 85 08 ff ff ff 	mov    -0xf8(%rbp),%rax
ffffffff8010e610:	48 05 98 00 00 00    	add    $0x98,%rax
ffffffff8010e616:	48 89 c7             	mov    %rax,%rdi
ffffffff8010e619:	e8 82 f8 ff ff       	callq  ffffffff8010dea0 <spin_lock>
ffffffff8010e61e:	c7 45 dc 00 00 00 00 	movl   $0x0,-0x24(%rbp)
ffffffff8010e625:	48 8b 85 08 ff ff ff 	mov    -0xf8(%rbp),%rax
ffffffff8010e62c:	48 8b 80 90 00 00 00 	mov    0x90(%rax),%rax
ffffffff8010e633:	48 85 c0             	test   %rax,%rax
ffffffff8010e636:	75 2a                	jne    ffffffff8010e662 <vfs_create_node+0x18a>
ffffffff8010e638:	bf 00 18 00 00       	mov    $0x1800,%edi
ffffffff8010e63d:	e8 05 3d ff ff       	callq  ffffffff80102347 <kmalloc>
ffffffff8010e642:	48 8b 95 08 ff ff ff 	mov    -0xf8(%rbp),%rdx
ffffffff8010e649:	48 89 82 90 00 00 00 	mov    %rax,0x90(%rdx)
ffffffff8010e650:	48 8b 85 08 ff ff ff 	mov    -0xf8(%rbp),%rax
ffffffff8010e657:	48 c7 80 a0 00 00 00 	movq   $0x20,0xa0(%rax)
ffffffff8010e65e:	20 00 00 00 
ffffffff8010e662:	48 8b 85 08 ff ff ff 	mov    -0xf8(%rbp),%rax
ffffffff8010e669:	48 8b 90 b0 00 00 00 	mov    0xb0(%rax),%rdx
ffffffff8010e670:	48 8b 85 08 ff ff ff 	mov    -0xf8(%rbp),%rax
ffffffff8010e677:	48 8b 80 a0 00 00 00 	mov    0xa0(%rax),%rax
ffffffff8010e67e:	48 39 c2             	cmp    %rax,%rdx
ffffffff8010e681:	76 55                	jbe    ffffffff8010e6d8 <vfs_create_node+0x200>
ffffffff8010e683:	48 8b 85 08 ff ff ff 	mov    -0xf8(%rbp),%rax
ffffffff8010e68a:	48 8b 80 a0 00 00 00 	mov    0xa0(%rax),%rax
ffffffff8010e691:	48 8d 50 20          	lea    0x20(%rax),%rdx
ffffffff8010e695:	48 8b 85 08 ff ff ff 	mov    -0xf8(%rbp),%rax
ffffffff8010e69c:	48 89 90 a0 00 00 00 	mov    %rdx,0xa0(%rax)
ffffffff8010e6a3:	48 8b 85 08 ff ff ff 	mov    -0xf8(%rbp),%rax
ffffffff8010e6aa:	48 8b 90 a0 00 00 00 	mov    0xa0(%rax),%rdx
ffffffff8010e6b1:	48 8b 85 08 ff ff ff 	mov    -0xf8(%rbp),%rax
ffffffff8010e6b8:	48 8b 80 90 00 00 00 	mov    0x90(%rax),%rax
ffffffff8010e6bf:	48 89 d6             	mov    %rdx,%rsi
ffffffff8010e6c2:	48 89 c7             	mov    %rax,%rdi
ffffffff8010e6c5:	e8 45 3f ff ff       	callq  ffffffff8010260f <krealloc>
ffffffff8010e6ca:	48 8b 95 08 ff ff ff 	mov    -0xf8(%rbp),%rdx
ffffffff8010e6d1:	48 89 82 90 00 00 00 	mov    %rax,0x90(%rdx)
ffffffff8010e6d8:	48 8b 85 08 ff ff ff 	mov    -0xf8(%rbp),%rax
ffffffff8010e6df:	48 8b 80 b0 00 00 00 	mov    0xb0(%rax),%rax
ffffffff8010e6e6:	89 45 dc             	mov    %eax,-0x24(%rbp)
ffffffff8010e6e9:	48 8b 85 08 ff ff ff 	mov    -0xf8(%rbp),%rax
ffffffff8010e6f0:	48 8b b0 90 00 00 00 	mov    0x90(%rax),%rsi
ffffffff8010e6f7:	48 8b 85 08 ff ff ff 	mov    -0xf8(%rbp),%rax
ffffffff8010e6fe:	48 8b 90 b0 00 00 00 	mov    0xb0(%rax),%rdx
ffffffff8010e705:	48 8d 4a 01          	lea    0x1(%rdx),%rcx
ffffffff8010e709:	48 8b 85 08 ff ff ff 	mov    -0xf8(%rbp),%rax
ffffffff8010e710:	48 89 88 b0 00 00 00 	mov    %rcx,0xb0(%rax)
ffffffff8010e717:	48 89 d0             	mov    %rdx,%rax
ffffffff8010e71a:	48 01 c0             	add    %rax,%rax
ffffffff8010e71d:	48 01 d0             	add    %rdx,%rax
ffffffff8010e720:	48 c1 e0 06          	shl    $0x6,%rax
ffffffff8010e724:	48 01 f0             	add    %rsi,%rax
ffffffff8010e727:	48 89 c7             	mov    %rax,%rdi
ffffffff8010e72a:	48 8d 85 18 ff ff ff 	lea    -0xe8(%rbp),%rax
ffffffff8010e731:	ba 18 00 00 00       	mov    $0x18,%edx
ffffffff8010e736:	48 89 c6             	mov    %rax,%rsi
ffffffff8010e739:	48 89 d1             	mov    %rdx,%rcx
ffffffff8010e73c:	f3 48 a5             	rep movsq %ds:(%rsi),%es:(%rdi)
ffffffff8010e73f:	48 8b 85 08 ff ff ff 	mov    -0xf8(%rbp),%rax
ffffffff8010e746:	48 8b 80 a8 00 00 00 	mov    0xa8(%rax),%rax
ffffffff8010e74d:	48 8d 50 01          	lea    0x1(%rax),%rdx
ffffffff8010e751:	48 8b 85 08 ff ff ff 	mov    -0xf8(%rbp),%rax
ffffffff8010e758:	48 89 90 a8 00 00 00 	mov    %rdx,0xa8(%rax)
ffffffff8010e75f:	48 8b 85 08 ff ff ff 	mov    -0xf8(%rbp),%rax
ffffffff8010e766:	48 05 98 00 00 00    	add    $0x98,%rax
ffffffff8010e76c:	48 89 c7             	mov    %rax,%rdi
ffffffff8010e76f:	e8 81 f7 ff ff       	callq  ffffffff8010def5 <spin_release>
ffffffff8010e774:	48 c7 45 e8 00 00 00 	movq   $0x0,-0x18(%rbp)
ffffffff8010e77b:	00 
ffffffff8010e77c:	48 8b 85 08 ff ff ff 	mov    -0xf8(%rbp),%rax
ffffffff8010e783:	48 05 98 00 00 00    	add    $0x98,%rax
ffffffff8010e789:	48 89 c7             	mov    %rax,%rdi
ffffffff8010e78c:	e8 0f f7 ff ff       	callq  ffffffff8010dea0 <spin_lock>
ffffffff8010e791:	48 8b 85 08 ff ff ff 	mov    -0xf8(%rbp),%rax
ffffffff8010e798:	48 8b 80 a8 00 00 00 	mov    0xa8(%rax),%rax
ffffffff8010e79f:	48 85 c0             	test   %rax,%rax
ffffffff8010e7a2:	74 38                	je     ffffffff8010e7dc <vfs_create_node+0x304>
ffffffff8010e7a4:	48 8b 85 08 ff ff ff 	mov    -0xf8(%rbp),%rax
ffffffff8010e7ab:	48 8b 88 90 00 00 00 	mov    0x90(%rax),%rcx
ffffffff8010e7b2:	48 8b 85 08 ff ff ff 	mov    -0xf8(%rbp),%rax
ffffffff8010e7b9:	48 8b 90 a8 00 00 00 	mov    0xa8(%rax),%rdx
ffffffff8010e7c0:	48 89 d0             	mov    %rdx,%rax
ffffffff8010e7c3:	48 01 c0             	add    %rax,%rax
ffffffff8010e7c6:	48 01 d0             	add    %rdx,%rax
ffffffff8010e7c9:	48 c1 e0 06          	shl    $0x6,%rax
ffffffff8010e7cd:	48 2d c0 00 00 00    	sub    $0xc0,%rax
ffffffff8010e7d3:	48 01 c8             	add    %rcx,%rax
ffffffff8010e7d6:	48 89 45 e8          	mov    %rax,-0x18(%rbp)
ffffffff8010e7da:	eb 01                	jmp    ffffffff8010e7dd <vfs_create_node+0x305>
ffffffff8010e7dc:	90                   	nop
ffffffff8010e7dd:	48 8b 85 08 ff ff ff 	mov    -0xf8(%rbp),%rax
ffffffff8010e7e4:	48 05 98 00 00 00    	add    $0x98,%rax
ffffffff8010e7ea:	48 89 c7             	mov    %rax,%rdi
ffffffff8010e7ed:	e8 03 f7 ff ff       	callq  ffffffff8010def5 <spin_release>
ffffffff8010e7f2:	48 8b 45 e8          	mov    -0x18(%rbp),%rax
ffffffff8010e7f6:	c9                   	leaveq 
ffffffff8010e7f7:	c3                   	retq   

ffffffff8010e7f8 <vfs_create_node_deep>:
ffffffff8010e7f8:	55                   	push   %rbp
ffffffff8010e7f9:	48 89 e5             	mov    %rsp,%rbp
ffffffff8010e7fc:	48 83 ec 40          	sub    $0x40,%rsp
ffffffff8010e800:	48 89 7d c8          	mov    %rdi,-0x38(%rbp)
ffffffff8010e804:	48 8b 45 c8          	mov    -0x38(%rbp),%rax
ffffffff8010e808:	48 89 c7             	mov    %rax,%rdi
ffffffff8010e80b:	e8 ff f6 ff ff       	callq  ffffffff8010df0f <strlen>
ffffffff8010e810:	48 89 c7             	mov    %rax,%rdi
ffffffff8010e813:	e8 2f 3b ff ff       	callq  ffffffff80102347 <kmalloc>
ffffffff8010e818:	48 89 45 e0          	mov    %rax,-0x20(%rbp)
ffffffff8010e81c:	48 8b 55 c8          	mov    -0x38(%rbp),%rdx
ffffffff8010e820:	48 8b 45 e0          	mov    -0x20(%rbp),%rax
ffffffff8010e824:	48 89 d6             	mov    %rdx,%rsi
ffffffff8010e827:	48 89 c7             	mov    %rax,%rdi
ffffffff8010e82a:	e8 c1 f7 ff ff       	callq  ffffffff8010dff0 <strcpy>
ffffffff8010e82f:	48 c7 45 f8 60 41 11 	movq   $0xffffffff80114160,-0x8(%rbp)
ffffffff8010e836:	80 
ffffffff8010e837:	48 8b 45 e0          	mov    -0x20(%rbp),%rax
ffffffff8010e83b:	48 89 45 d0          	mov    %rax,-0x30(%rbp)
ffffffff8010e83f:	eb 26                	jmp    ffffffff8010e867 <vfs_create_node_deep+0x6f>
ffffffff8010e841:	48 8b 45 f8          	mov    -0x8(%rbp),%rax
ffffffff8010e845:	48 89 45 f0          	mov    %rax,-0x10(%rbp)
ffffffff8010e849:	48 8b 55 e8          	mov    -0x18(%rbp),%rdx
ffffffff8010e84d:	48 8b 45 f8          	mov    -0x8(%rbp),%rax
ffffffff8010e851:	48 89 d6             	mov    %rdx,%rsi
ffffffff8010e854:	48 89 c7             	mov    %rax,%rdi
ffffffff8010e857:	e8 98 01 00 00       	callq  ffffffff8010e9f4 <vfs_relative_path>
ffffffff8010e85c:	48 89 45 f8          	mov    %rax,-0x8(%rbp)
ffffffff8010e860:	48 83 7d f8 00       	cmpq   $0x0,-0x8(%rbp)
ffffffff8010e865:	74 35                	je     ffffffff8010e89c <vfs_create_node_deep+0xa4>
ffffffff8010e867:	48 8b 45 d0          	mov    -0x30(%rbp),%rax
ffffffff8010e86b:	48 8d 55 d0          	lea    -0x30(%rbp),%rdx
ffffffff8010e86f:	48 c7 c6 e1 09 11 80 	mov    $0xffffffff801109e1,%rsi
ffffffff8010e876:	48 89 c7             	mov    %rax,%rdi
ffffffff8010e879:	e8 72 f9 ff ff       	callq  ffffffff8010e1f0 <strtok_r>
ffffffff8010e87e:	48 89 45 e8          	mov    %rax,-0x18(%rbp)
ffffffff8010e882:	48 83 7d e8 00       	cmpq   $0x0,-0x18(%rbp)
ffffffff8010e887:	75 b8                	jne    ffffffff8010e841 <vfs_create_node_deep+0x49>
ffffffff8010e889:	48 8b 45 e0          	mov    -0x20(%rbp),%rax
ffffffff8010e88d:	48 89 c7             	mov    %rax,%rdi
ffffffff8010e890:	e8 5e 3c ff ff       	callq  ffffffff801024f3 <kfree>
ffffffff8010e895:	b8 00 00 00 00       	mov    $0x0,%eax
ffffffff8010e89a:	eb 75                	jmp    ffffffff8010e911 <vfs_create_node_deep+0x119>
ffffffff8010e89c:	90                   	nop
ffffffff8010e89d:	48 8b 45 e8          	mov    -0x18(%rbp),%rax
ffffffff8010e8a1:	48 89 c7             	mov    %rax,%rdi
ffffffff8010e8a4:	e8 66 f6 ff ff       	callq  ffffffff8010df0f <strlen>
ffffffff8010e8a9:	48 89 c7             	mov    %rax,%rdi
ffffffff8010e8ac:	e8 96 3a ff ff       	callq  ffffffff80102347 <kmalloc>
ffffffff8010e8b1:	48 89 45 d8          	mov    %rax,-0x28(%rbp)
ffffffff8010e8b5:	48 8b 55 e8          	mov    -0x18(%rbp),%rdx
ffffffff8010e8b9:	48 8b 45 d8          	mov    -0x28(%rbp),%rax
ffffffff8010e8bd:	48 89 d6             	mov    %rdx,%rsi
ffffffff8010e8c0:	48 89 c7             	mov    %rax,%rdi
ffffffff8010e8c3:	e8 28 f7 ff ff       	callq  ffffffff8010dff0 <strcpy>
ffffffff8010e8c8:	48 8b 55 d8          	mov    -0x28(%rbp),%rdx
ffffffff8010e8cc:	48 8b 45 f0          	mov    -0x10(%rbp),%rax
ffffffff8010e8d0:	48 89 d6             	mov    %rdx,%rsi
ffffffff8010e8d3:	48 89 c7             	mov    %rax,%rdi
ffffffff8010e8d6:	e8 fd fb ff ff       	callq  ffffffff8010e4d8 <vfs_create_node>
ffffffff8010e8db:	48 89 45 f0          	mov    %rax,-0x10(%rbp)
ffffffff8010e8df:	48 8b 45 d0          	mov    -0x30(%rbp),%rax
ffffffff8010e8e3:	48 8d 55 d0          	lea    -0x30(%rbp),%rdx
ffffffff8010e8e7:	48 c7 c6 e1 09 11 80 	mov    $0xffffffff801109e1,%rsi
ffffffff8010e8ee:	48 89 c7             	mov    %rax,%rdi
ffffffff8010e8f1:	e8 fa f8 ff ff       	callq  ffffffff8010e1f0 <strtok_r>
ffffffff8010e8f6:	48 89 45 e8          	mov    %rax,-0x18(%rbp)
ffffffff8010e8fa:	48 83 7d e8 00       	cmpq   $0x0,-0x18(%rbp)
ffffffff8010e8ff:	75 9c                	jne    ffffffff8010e89d <vfs_create_node_deep+0xa5>
ffffffff8010e901:	48 8b 45 e0          	mov    -0x20(%rbp),%rax
ffffffff8010e905:	48 89 c7             	mov    %rax,%rdi
ffffffff8010e908:	e8 e6 3b ff ff       	callq  ffffffff801024f3 <kfree>
ffffffff8010e90d:	48 8b 45 f0          	mov    -0x10(%rbp),%rax
ffffffff8010e911:	c9                   	leaveq 
ffffffff8010e912:	c3                   	retq   

ffffffff8010e913 <vfs_absolute_path>:
ffffffff8010e913:	55                   	push   %rbp
ffffffff8010e914:	48 89 e5             	mov    %rsp,%rbp
ffffffff8010e917:	48 83 ec 30          	sub    $0x30,%rsp
ffffffff8010e91b:	48 89 7d d8          	mov    %rdi,-0x28(%rbp)
ffffffff8010e91f:	48 8b 45 d8          	mov    -0x28(%rbp),%rax
ffffffff8010e923:	48 c7 c6 e1 09 11 80 	mov    $0xffffffff801109e1,%rsi
ffffffff8010e92a:	48 89 c7             	mov    %rax,%rdi
ffffffff8010e92d:	e8 10 f6 ff ff       	callq  ffffffff8010df42 <strcmp>
ffffffff8010e932:	85 c0                	test   %eax,%eax
ffffffff8010e934:	75 0c                	jne    ffffffff8010e942 <vfs_absolute_path+0x2f>
ffffffff8010e936:	48 c7 c0 60 41 11 80 	mov    $0xffffffff80114160,%rax
ffffffff8010e93d:	e9 b0 00 00 00       	jmpq   ffffffff8010e9f2 <vfs_absolute_path+0xdf>
ffffffff8010e942:	48 8b 45 d8          	mov    -0x28(%rbp),%rax
ffffffff8010e946:	0f b6 00             	movzbl (%rax),%eax
ffffffff8010e949:	3c 2f                	cmp    $0x2f,%al
ffffffff8010e94b:	75 05                	jne    ffffffff8010e952 <vfs_absolute_path+0x3f>
ffffffff8010e94d:	48 83 45 d8 01       	addq   $0x1,-0x28(%rbp)
ffffffff8010e952:	48 8b 45 d8          	mov    -0x28(%rbp),%rax
ffffffff8010e956:	48 89 c7             	mov    %rax,%rdi
ffffffff8010e959:	e8 b1 f5 ff ff       	callq  ffffffff8010df0f <strlen>
ffffffff8010e95e:	48 89 c7             	mov    %rax,%rdi
ffffffff8010e961:	e8 e1 39 ff ff       	callq  ffffffff80102347 <kmalloc>
ffffffff8010e966:	48 89 45 f0          	mov    %rax,-0x10(%rbp)
ffffffff8010e96a:	48 8b 55 d8          	mov    -0x28(%rbp),%rdx
ffffffff8010e96e:	48 8b 45 f0          	mov    -0x10(%rbp),%rax
ffffffff8010e972:	48 89 d6             	mov    %rdx,%rsi
ffffffff8010e975:	48 89 c7             	mov    %rax,%rdi
ffffffff8010e978:	e8 73 f6 ff ff       	callq  ffffffff8010dff0 <strcpy>
ffffffff8010e97d:	48 c7 45 f8 60 41 11 	movq   $0xffffffff80114160,-0x8(%rbp)
ffffffff8010e984:	80 
ffffffff8010e985:	48 8b 45 f0          	mov    -0x10(%rbp),%rax
ffffffff8010e989:	48 89 45 e0          	mov    %rax,-0x20(%rbp)
ffffffff8010e98d:	eb 31                	jmp    ffffffff8010e9c0 <vfs_absolute_path+0xad>
ffffffff8010e98f:	48 8b 55 e8          	mov    -0x18(%rbp),%rdx
ffffffff8010e993:	48 8b 45 f8          	mov    -0x8(%rbp),%rax
ffffffff8010e997:	48 89 d6             	mov    %rdx,%rsi
ffffffff8010e99a:	48 89 c7             	mov    %rax,%rdi
ffffffff8010e99d:	e8 52 00 00 00       	callq  ffffffff8010e9f4 <vfs_relative_path>
ffffffff8010e9a2:	48 89 45 f8          	mov    %rax,-0x8(%rbp)
ffffffff8010e9a6:	48 83 7d f8 00       	cmpq   $0x0,-0x8(%rbp)
ffffffff8010e9ab:	75 13                	jne    ffffffff8010e9c0 <vfs_absolute_path+0xad>
ffffffff8010e9ad:	48 8b 45 f0          	mov    -0x10(%rbp),%rax
ffffffff8010e9b1:	48 89 c7             	mov    %rax,%rdi
ffffffff8010e9b4:	e8 3a 3b ff ff       	callq  ffffffff801024f3 <kfree>
ffffffff8010e9b9:	b8 00 00 00 00       	mov    $0x0,%eax
ffffffff8010e9be:	eb 32                	jmp    ffffffff8010e9f2 <vfs_absolute_path+0xdf>
ffffffff8010e9c0:	48 8b 45 e0          	mov    -0x20(%rbp),%rax
ffffffff8010e9c4:	48 8d 55 e0          	lea    -0x20(%rbp),%rdx
ffffffff8010e9c8:	48 c7 c6 e1 09 11 80 	mov    $0xffffffff801109e1,%rsi
ffffffff8010e9cf:	48 89 c7             	mov    %rax,%rdi
ffffffff8010e9d2:	e8 19 f8 ff ff       	callq  ffffffff8010e1f0 <strtok_r>
ffffffff8010e9d7:	48 89 45 e8          	mov    %rax,-0x18(%rbp)
ffffffff8010e9db:	48 83 7d e8 00       	cmpq   $0x0,-0x18(%rbp)
ffffffff8010e9e0:	75 ad                	jne    ffffffff8010e98f <vfs_absolute_path+0x7c>
ffffffff8010e9e2:	48 8b 45 f0          	mov    -0x10(%rbp),%rax
ffffffff8010e9e6:	48 89 c7             	mov    %rax,%rdi
ffffffff8010e9e9:	e8 05 3b ff ff       	callq  ffffffff801024f3 <kfree>
ffffffff8010e9ee:	48 8b 45 f8          	mov    -0x8(%rbp),%rax
ffffffff8010e9f2:	c9                   	leaveq 
ffffffff8010e9f3:	c3                   	retq   

ffffffff8010e9f4 <vfs_relative_path>:
ffffffff8010e9f4:	55                   	push   %rbp
ffffffff8010e9f5:	48 89 e5             	mov    %rsp,%rbp
ffffffff8010e9f8:	48 83 ec 30          	sub    $0x30,%rsp
ffffffff8010e9fc:	48 89 7d d8          	mov    %rdi,-0x28(%rbp)
ffffffff8010ea00:	48 89 75 d0          	mov    %rsi,-0x30(%rbp)
ffffffff8010ea04:	48 c7 45 f8 00 00 00 	movq   $0x0,-0x8(%rbp)
ffffffff8010ea0b:	00 
ffffffff8010ea0c:	e9 91 00 00 00       	jmpq   ffffffff8010eaa2 <vfs_relative_path+0xae>
ffffffff8010ea11:	48 c7 45 f0 00 00 00 	movq   $0x0,-0x10(%rbp)
ffffffff8010ea18:	00 
ffffffff8010ea19:	48 8b 45 d8          	mov    -0x28(%rbp),%rax
ffffffff8010ea1d:	48 05 98 00 00 00    	add    $0x98,%rax
ffffffff8010ea23:	48 89 c7             	mov    %rax,%rdi
ffffffff8010ea26:	e8 75 f4 ff ff       	callq  ffffffff8010dea0 <spin_lock>
ffffffff8010ea2b:	48 8b 45 d8          	mov    -0x28(%rbp),%rax
ffffffff8010ea2f:	48 8b 80 a8 00 00 00 	mov    0xa8(%rax),%rax
ffffffff8010ea36:	48 39 45 f8          	cmp    %rax,-0x8(%rbp)
ffffffff8010ea3a:	73 25                	jae    ffffffff8010ea61 <vfs_relative_path+0x6d>
ffffffff8010ea3c:	48 8b 45 d8          	mov    -0x28(%rbp),%rax
ffffffff8010ea40:	48 8b 88 90 00 00 00 	mov    0x90(%rax),%rcx
ffffffff8010ea47:	48 8b 55 f8          	mov    -0x8(%rbp),%rdx
ffffffff8010ea4b:	48 89 d0             	mov    %rdx,%rax
ffffffff8010ea4e:	48 01 c0             	add    %rax,%rax
ffffffff8010ea51:	48 01 d0             	add    %rdx,%rax
ffffffff8010ea54:	48 c1 e0 06          	shl    $0x6,%rax
ffffffff8010ea58:	48 01 c8             	add    %rcx,%rax
ffffffff8010ea5b:	48 89 45 f0          	mov    %rax,-0x10(%rbp)
ffffffff8010ea5f:	eb 01                	jmp    ffffffff8010ea62 <vfs_relative_path+0x6e>
ffffffff8010ea61:	90                   	nop
ffffffff8010ea62:	48 8b 45 d8          	mov    -0x28(%rbp),%rax
ffffffff8010ea66:	48 05 98 00 00 00    	add    $0x98,%rax
ffffffff8010ea6c:	48 89 c7             	mov    %rax,%rdi
ffffffff8010ea6f:	e8 81 f4 ff ff       	callq  ffffffff8010def5 <spin_release>
ffffffff8010ea74:	48 8b 45 f0          	mov    -0x10(%rbp),%rax
ffffffff8010ea78:	48 89 45 e8          	mov    %rax,-0x18(%rbp)
ffffffff8010ea7c:	48 8b 45 e8          	mov    -0x18(%rbp),%rax
ffffffff8010ea80:	48 8b 40 10          	mov    0x10(%rax),%rax
ffffffff8010ea84:	48 8b 55 d0          	mov    -0x30(%rbp),%rdx
ffffffff8010ea88:	48 89 d6             	mov    %rdx,%rsi
ffffffff8010ea8b:	48 89 c7             	mov    %rax,%rdi
ffffffff8010ea8e:	e8 af f4 ff ff       	callq  ffffffff8010df42 <strcmp>
ffffffff8010ea93:	85 c0                	test   %eax,%eax
ffffffff8010ea95:	75 06                	jne    ffffffff8010ea9d <vfs_relative_path+0xa9>
ffffffff8010ea97:	48 8b 45 e8          	mov    -0x18(%rbp),%rax
ffffffff8010ea9b:	eb 1f                	jmp    ffffffff8010eabc <vfs_relative_path+0xc8>
ffffffff8010ea9d:	48 83 45 f8 01       	addq   $0x1,-0x8(%rbp)
ffffffff8010eaa2:	48 8b 45 d8          	mov    -0x28(%rbp),%rax
ffffffff8010eaa6:	48 8b 80 a8 00 00 00 	mov    0xa8(%rax),%rax
ffffffff8010eaad:	48 39 45 f8          	cmp    %rax,-0x8(%rbp)
ffffffff8010eab1:	0f 82 5a ff ff ff    	jb     ffffffff8010ea11 <vfs_relative_path+0x1d>
ffffffff8010eab7:	b8 00 00 00 00       	mov    $0x0,%eax
ffffffff8010eabc:	c9                   	leaveq 
ffffffff8010eabd:	c3                   	retq   

ffffffff8010eabe <vfs_check_node>:
ffffffff8010eabe:	55                   	push   %rbp
ffffffff8010eabf:	48 89 e5             	mov    %rsp,%rbp
ffffffff8010eac2:	48 83 ec 10          	sub    $0x10,%rsp
ffffffff8010eac6:	48 89 7d f8          	mov    %rdi,-0x8(%rbp)
ffffffff8010eaca:	48 8b 45 f8          	mov    -0x8(%rbp),%rax
ffffffff8010eace:	48 8b 00             	mov    (%rax),%rax
ffffffff8010ead1:	48 89 c7             	mov    %rax,%rdi
ffffffff8010ead4:	e8 3a fe ff ff       	callq  ffffffff8010e913 <vfs_absolute_path>
ffffffff8010ead9:	c9                   	leaveq 
ffffffff8010eada:	c3                   	retq   

ffffffff8010eadb <vfs_mkdir>:
ffffffff8010eadb:	55                   	push   %rbp
ffffffff8010eadc:	48 89 e5             	mov    %rsp,%rbp
ffffffff8010eadf:	48 83 ec 20          	sub    $0x20,%rsp
ffffffff8010eae3:	48 89 7d e8          	mov    %rdi,-0x18(%rbp)
ffffffff8010eae7:	48 89 75 e0          	mov    %rsi,-0x20(%rbp)
ffffffff8010eaeb:	48 8b 55 e0          	mov    -0x20(%rbp),%rdx
ffffffff8010eaef:	48 8b 45 e8          	mov    -0x18(%rbp),%rax
ffffffff8010eaf3:	48 89 d6             	mov    %rdx,%rsi
ffffffff8010eaf6:	48 89 c7             	mov    %rax,%rdi
ffffffff8010eaf9:	e8 da f9 ff ff       	callq  ffffffff8010e4d8 <vfs_create_node>
ffffffff8010eafe:	48 89 45 f8          	mov    %rax,-0x8(%rbp)
ffffffff8010eb02:	48 8b 45 f8          	mov    -0x8(%rbp),%rax
ffffffff8010eb06:	48 c7 c6 e3 09 11 80 	mov    $0xffffffff801109e3,%rsi
ffffffff8010eb0d:	48 89 c7             	mov    %rax,%rdi
ffffffff8010eb10:	e8 c3 f9 ff ff       	callq  ffffffff8010e4d8 <vfs_create_node>
ffffffff8010eb15:	48 8b 45 f8          	mov    -0x8(%rbp),%rax
ffffffff8010eb19:	48 c7 c6 e5 09 11 80 	mov    $0xffffffff801109e5,%rsi
ffffffff8010eb20:	48 89 c7             	mov    %rax,%rdi
ffffffff8010eb23:	e8 b0 f9 ff ff       	callq  ffffffff8010e4d8 <vfs_create_node>
ffffffff8010eb28:	48 89 45 f0          	mov    %rax,-0x10(%rbp)
ffffffff8010eb2c:	48 8b 45 f0          	mov    -0x10(%rbp),%rax
ffffffff8010eb30:	48 8b 55 e8          	mov    -0x18(%rbp),%rdx
ffffffff8010eb34:	48 89 90 b8 00 00 00 	mov    %rdx,0xb8(%rax)
ffffffff8010eb3b:	48 8b 45 f8          	mov    -0x8(%rbp),%rax
ffffffff8010eb3f:	c9                   	leaveq 
ffffffff8010eb40:	c3                   	retq   

ffffffff8010eb41 <vfs_remove_cluster>:
ffffffff8010eb41:	55                   	push   %rbp
ffffffff8010eb42:	48 89 e5             	mov    %rsp,%rbp
ffffffff8010eb45:	48 83 ec 30          	sub    $0x30,%rsp
ffffffff8010eb49:	48 89 7d d8          	mov    %rdi,-0x28(%rbp)
ffffffff8010eb4d:	48 8b 45 d8          	mov    -0x28(%rbp),%rax
ffffffff8010eb51:	48 8b 80 a8 00 00 00 	mov    0xa8(%rax),%rax
ffffffff8010eb58:	48 85 c0             	test   %rax,%rax
ffffffff8010eb5b:	0f 84 c8 00 00 00    	je     ffffffff8010ec29 <vfs_remove_cluster+0xe8>
ffffffff8010eb61:	48 c7 45 f8 00 00 00 	movq   $0x0,-0x8(%rbp)
ffffffff8010eb68:	00 
ffffffff8010eb69:	e9 91 00 00 00       	jmpq   ffffffff8010ebff <vfs_remove_cluster+0xbe>
ffffffff8010eb6e:	48 c7 45 f0 00 00 00 	movq   $0x0,-0x10(%rbp)
ffffffff8010eb75:	00 
ffffffff8010eb76:	48 8b 45 d8          	mov    -0x28(%rbp),%rax
ffffffff8010eb7a:	48 05 98 00 00 00    	add    $0x98,%rax
ffffffff8010eb80:	48 89 c7             	mov    %rax,%rdi
ffffffff8010eb83:	e8 18 f3 ff ff       	callq  ffffffff8010dea0 <spin_lock>
ffffffff8010eb88:	48 8b 45 d8          	mov    -0x28(%rbp),%rax
ffffffff8010eb8c:	48 8b 80 a8 00 00 00 	mov    0xa8(%rax),%rax
ffffffff8010eb93:	48 39 45 f8          	cmp    %rax,-0x8(%rbp)
ffffffff8010eb97:	73 25                	jae    ffffffff8010ebbe <vfs_remove_cluster+0x7d>
ffffffff8010eb99:	48 8b 45 d8          	mov    -0x28(%rbp),%rax
ffffffff8010eb9d:	48 8b 88 90 00 00 00 	mov    0x90(%rax),%rcx
ffffffff8010eba4:	48 8b 55 f8          	mov    -0x8(%rbp),%rdx
ffffffff8010eba8:	48 89 d0             	mov    %rdx,%rax
ffffffff8010ebab:	48 01 c0             	add    %rax,%rax
ffffffff8010ebae:	48 01 d0             	add    %rdx,%rax
ffffffff8010ebb1:	48 c1 e0 06          	shl    $0x6,%rax
ffffffff8010ebb5:	48 01 c8             	add    %rcx,%rax
ffffffff8010ebb8:	48 89 45 f0          	mov    %rax,-0x10(%rbp)
ffffffff8010ebbc:	eb 01                	jmp    ffffffff8010ebbf <vfs_remove_cluster+0x7e>
ffffffff8010ebbe:	90                   	nop
ffffffff8010ebbf:	48 8b 45 d8          	mov    -0x28(%rbp),%rax
ffffffff8010ebc3:	48 05 98 00 00 00    	add    $0x98,%rax
ffffffff8010ebc9:	48 89 c7             	mov    %rax,%rdi
ffffffff8010ebcc:	e8 24 f3 ff ff       	callq  ffffffff8010def5 <spin_release>
ffffffff8010ebd1:	48 8b 45 f0          	mov    -0x10(%rbp),%rax
ffffffff8010ebd5:	48 89 45 e8          	mov    %rax,-0x18(%rbp)
ffffffff8010ebd9:	48 8b 45 e8          	mov    -0x18(%rbp),%rax
ffffffff8010ebdd:	48 8b 40 18          	mov    0x18(%rax),%rax
ffffffff8010ebe1:	48 8b 50 40          	mov    0x40(%rax),%rdx
ffffffff8010ebe5:	48 8b 45 e8          	mov    -0x18(%rbp),%rax
ffffffff8010ebe9:	48 89 c7             	mov    %rax,%rdi
ffffffff8010ebec:	ff d2                	callq  *%rdx
ffffffff8010ebee:	48 8b 45 e8          	mov    -0x18(%rbp),%rax
ffffffff8010ebf2:	48 89 c7             	mov    %rax,%rdi
ffffffff8010ebf5:	e8 47 ff ff ff       	callq  ffffffff8010eb41 <vfs_remove_cluster>
ffffffff8010ebfa:	48 83 45 f8 01       	addq   $0x1,-0x8(%rbp)
ffffffff8010ebff:	48 8b 45 d8          	mov    -0x28(%rbp),%rax
ffffffff8010ec03:	48 8b 80 a8 00 00 00 	mov    0xa8(%rax),%rax
ffffffff8010ec0a:	48 39 45 f8          	cmp    %rax,-0x8(%rbp)
ffffffff8010ec0e:	0f 82 5a ff ff ff    	jb     ffffffff8010eb6e <vfs_remove_cluster+0x2d>
ffffffff8010ec14:	48 8b 45 d8          	mov    -0x28(%rbp),%rax
ffffffff8010ec18:	48 8b 80 90 00 00 00 	mov    0x90(%rax),%rax
ffffffff8010ec1f:	48 89 c7             	mov    %rax,%rdi
ffffffff8010ec22:	e8 cc 38 ff ff       	callq  ffffffff801024f3 <kfree>
ffffffff8010ec27:	eb 28                	jmp    ffffffff8010ec51 <vfs_remove_cluster+0x110>
ffffffff8010ec29:	48 8b 45 d8          	mov    -0x28(%rbp),%rax
ffffffff8010ec2d:	48 8b 40 18          	mov    0x18(%rax),%rax
ffffffff8010ec31:	48 8b 50 40          	mov    0x40(%rax),%rdx
ffffffff8010ec35:	48 8b 45 d8          	mov    -0x28(%rbp),%rax
ffffffff8010ec39:	48 89 c7             	mov    %rax,%rdi
ffffffff8010ec3c:	ff d2                	callq  *%rdx
ffffffff8010ec3e:	48 8b 45 d8          	mov    -0x28(%rbp),%rax
ffffffff8010ec42:	48 8b 80 90 00 00 00 	mov    0x90(%rax),%rax
ffffffff8010ec49:	48 89 c7             	mov    %rax,%rdi
ffffffff8010ec4c:	e8 a2 38 ff ff       	callq  ffffffff801024f3 <kfree>
ffffffff8010ec51:	90                   	nop
ffffffff8010ec52:	c9                   	leaveq 
ffffffff8010ec53:	c3                   	retq   

ffffffff8010ec54 <vfs_remove_node>:
ffffffff8010ec54:	55                   	push   %rbp
ffffffff8010ec55:	48 89 e5             	mov    %rsp,%rbp
ffffffff8010ec58:	48 83 ec 10          	sub    $0x10,%rsp
ffffffff8010ec5c:	48 89 7d f8          	mov    %rdi,-0x8(%rbp)
ffffffff8010ec60:	48 8b 45 f8          	mov    -0x8(%rbp),%rax
ffffffff8010ec64:	48 89 c7             	mov    %rax,%rdi
ffffffff8010ec67:	e8 52 fe ff ff       	callq  ffffffff8010eabe <vfs_check_node>
ffffffff8010ec6c:	48 85 c0             	test   %rax,%rax
ffffffff8010ec6f:	75 07                	jne    ffffffff8010ec78 <vfs_remove_node+0x24>
ffffffff8010ec71:	b8 ff ff ff ff       	mov    $0xffffffff,%eax
ffffffff8010ec76:	eb 11                	jmp    ffffffff8010ec89 <vfs_remove_node+0x35>
ffffffff8010ec78:	48 8b 45 f8          	mov    -0x8(%rbp),%rax
ffffffff8010ec7c:	48 89 c7             	mov    %rax,%rdi
ffffffff8010ec7f:	e8 bd fe ff ff       	callq  ffffffff8010eb41 <vfs_remove_cluster>
ffffffff8010ec84:	b8 00 00 00 00       	mov    $0x0,%eax
ffffffff8010ec89:	c9                   	leaveq 
ffffffff8010ec8a:	c3                   	retq   

ffffffff8010ec8b <vfs_mount_dev>:
ffffffff8010ec8b:	55                   	push   %rbp
ffffffff8010ec8c:	48 89 e5             	mov    %rsp,%rbp
ffffffff8010ec8f:	48 83 ec 20          	sub    $0x20,%rsp
ffffffff8010ec93:	48 89 7d e8          	mov    %rdi,-0x18(%rbp)
ffffffff8010ec97:	48 89 75 e0          	mov    %rsi,-0x20(%rbp)
ffffffff8010ec9b:	48 8b 45 e0          	mov    -0x20(%rbp),%rax
ffffffff8010ec9f:	48 89 c7             	mov    %rax,%rdi
ffffffff8010eca2:	e8 6c fc ff ff       	callq  ffffffff8010e913 <vfs_absolute_path>
ffffffff8010eca7:	48 89 45 f8          	mov    %rax,-0x8(%rbp)
ffffffff8010ecab:	48 83 7d f8 00       	cmpq   $0x0,-0x8(%rbp)
ffffffff8010ecb0:	75 0a                	jne    ffffffff8010ecbc <vfs_mount_dev+0x31>
ffffffff8010ecb2:	b8 ff ff ff ff       	mov    $0xffffffff,%eax
ffffffff8010ecb7:	e9 a4 00 00 00       	jmpq   ffffffff8010ed60 <vfs_mount_dev+0xd5>
ffffffff8010ecbc:	48 8b 45 e8          	mov    -0x18(%rbp),%rax
ffffffff8010ecc0:	48 89 c7             	mov    %rax,%rdi
ffffffff8010ecc3:	e8 f1 40 ff ff       	callq  ffffffff80102db9 <path2devfs>
ffffffff8010ecc8:	48 89 45 f0          	mov    %rax,-0x10(%rbp)
ffffffff8010eccc:	48 83 7d f0 00       	cmpq   $0x0,-0x10(%rbp)
ffffffff8010ecd1:	74 1d                	je     ffffffff8010ecf0 <vfs_mount_dev+0x65>
ffffffff8010ecd3:	48 8b 45 f0          	mov    -0x10(%rbp),%rax
ffffffff8010ecd7:	48 8b 40 18          	mov    0x18(%rax),%rax
ffffffff8010ecdb:	48 85 c0             	test   %rax,%rax
ffffffff8010ecde:	74 10                	je     ffffffff8010ecf0 <vfs_mount_dev+0x65>
ffffffff8010ece0:	48 8b 45 f0          	mov    -0x10(%rbp),%rax
ffffffff8010ece4:	48 8b 40 18          	mov    0x18(%rax),%rax
ffffffff8010ece8:	48 8b 00             	mov    (%rax),%rax
ffffffff8010eceb:	48 85 c0             	test   %rax,%rax
ffffffff8010ecee:	75 07                	jne    ffffffff8010ecf7 <vfs_mount_dev+0x6c>
ffffffff8010ecf0:	b8 ff ff ff ff       	mov    $0xffffffff,%eax
ffffffff8010ecf5:	eb 69                	jmp    ffffffff8010ed60 <vfs_mount_dev+0xd5>
ffffffff8010ecf7:	48 8b 55 e0          	mov    -0x20(%rbp),%rdx
ffffffff8010ecfb:	48 8b 45 e8          	mov    -0x18(%rbp),%rax
ffffffff8010ecff:	48 89 d1             	mov    %rdx,%rcx
ffffffff8010ed02:	48 89 c2             	mov    %rax,%rdx
ffffffff8010ed05:	48 c7 c6 e8 09 11 80 	mov    $0xffffffff801109e8,%rsi
ffffffff8010ed0c:	48 c7 c7 fe 09 11 80 	mov    $0xffffffff801109fe,%rdi
ffffffff8010ed13:	b8 00 00 00 00       	mov    $0x0,%eax
ffffffff8010ed18:	e8 90 c1 ff ff       	callq  ffffffff8010aead <kprintf>
ffffffff8010ed1d:	48 8b 45 f0          	mov    -0x10(%rbp),%rax
ffffffff8010ed21:	48 8b 40 18          	mov    0x18(%rax),%rax
ffffffff8010ed25:	48 8b 00             	mov    (%rax),%rax
ffffffff8010ed28:	48 8b 55 e0          	mov    -0x20(%rbp),%rdx
ffffffff8010ed2c:	48 89 50 10          	mov    %rdx,0x10(%rax)
ffffffff8010ed30:	48 8b 45 f0          	mov    -0x10(%rbp),%rax
ffffffff8010ed34:	48 8b 40 18          	mov    0x18(%rax),%rax
ffffffff8010ed38:	48 8b 10             	mov    (%rax),%rdx
ffffffff8010ed3b:	48 8b 45 f8          	mov    -0x8(%rbp),%rax
ffffffff8010ed3f:	48 89 50 18          	mov    %rdx,0x18(%rax)
ffffffff8010ed43:	48 8b 45 f0          	mov    -0x10(%rbp),%rax
ffffffff8010ed47:	48 8b 40 18          	mov    0x18(%rax),%rax
ffffffff8010ed4b:	48 8b 00             	mov    (%rax),%rax
ffffffff8010ed4e:	48 8b 50 30          	mov    0x30(%rax),%rdx
ffffffff8010ed52:	48 8b 45 f8          	mov    -0x8(%rbp),%rax
ffffffff8010ed56:	48 89 c7             	mov    %rax,%rdi
ffffffff8010ed59:	ff d2                	callq  *%rdx
ffffffff8010ed5b:	b8 00 00 00 00       	mov    $0x0,%eax
ffffffff8010ed60:	c9                   	leaveq 
ffffffff8010ed61:	c3                   	retq   

ffffffff8010ed62 <vfs_mount_fs>:
ffffffff8010ed62:	55                   	push   %rbp
ffffffff8010ed63:	48 89 e5             	mov    %rsp,%rbp
ffffffff8010ed66:	48 83 ec 20          	sub    $0x20,%rsp
ffffffff8010ed6a:	48 89 7d e8          	mov    %rdi,-0x18(%rbp)
ffffffff8010ed6e:	48 8b 45 e8          	mov    -0x18(%rbp),%rax
ffffffff8010ed72:	48 8b 40 10          	mov    0x10(%rax),%rax
ffffffff8010ed76:	48 89 c7             	mov    %rax,%rdi
ffffffff8010ed79:	e8 95 fb ff ff       	callq  ffffffff8010e913 <vfs_absolute_path>
ffffffff8010ed7e:	48 89 45 f8          	mov    %rax,-0x8(%rbp)
ffffffff8010ed82:	48 83 7d f8 00       	cmpq   $0x0,-0x8(%rbp)
ffffffff8010ed87:	75 07                	jne    ffffffff8010ed90 <vfs_mount_fs+0x2e>
ffffffff8010ed89:	b8 ff ff ff ff       	mov    $0xffffffff,%eax
ffffffff8010ed8e:	eb 11                	jmp    ffffffff8010eda1 <vfs_mount_fs+0x3f>
ffffffff8010ed90:	48 8b 45 f8          	mov    -0x8(%rbp),%rax
ffffffff8010ed94:	48 8b 55 e8          	mov    -0x18(%rbp),%rdx
ffffffff8010ed98:	48 89 50 18          	mov    %rdx,0x18(%rax)
ffffffff8010ed9c:	b8 00 00 00 00       	mov    $0x0,%eax
ffffffff8010eda1:	c9                   	leaveq 
ffffffff8010eda2:	c3                   	retq   

ffffffff8010eda3 <vfs_write>:
ffffffff8010eda3:	55                   	push   %rbp
ffffffff8010eda4:	48 89 e5             	mov    %rsp,%rbp
ffffffff8010eda7:	48 83 ec 20          	sub    $0x20,%rsp
ffffffff8010edab:	48 89 7d f8          	mov    %rdi,-0x8(%rbp)
ffffffff8010edaf:	48 89 75 f0          	mov    %rsi,-0x10(%rbp)
ffffffff8010edb3:	48 89 55 e8          	mov    %rdx,-0x18(%rbp)
ffffffff8010edb7:	48 89 4d e0          	mov    %rcx,-0x20(%rbp)
ffffffff8010edbb:	48 83 7d f8 00       	cmpq   $0x0,-0x8(%rbp)
ffffffff8010edc0:	75 07                	jne    ffffffff8010edc9 <vfs_write+0x26>
ffffffff8010edc2:	b8 ff ff ff ff       	mov    $0xffffffff,%eax
ffffffff8010edc7:	eb 22                	jmp    ffffffff8010edeb <vfs_write+0x48>
ffffffff8010edc9:	48 8b 45 f8          	mov    -0x8(%rbp),%rax
ffffffff8010edcd:	48 8b 40 18          	mov    0x18(%rax),%rax
ffffffff8010edd1:	4c 8b 40 20          	mov    0x20(%rax),%r8
ffffffff8010edd5:	48 8b 4d e0          	mov    -0x20(%rbp),%rcx
ffffffff8010edd9:	48 8b 55 e8          	mov    -0x18(%rbp),%rdx
ffffffff8010eddd:	48 8b 75 f0          	mov    -0x10(%rbp),%rsi
ffffffff8010ede1:	48 8b 45 f8          	mov    -0x8(%rbp),%rax
ffffffff8010ede5:	48 89 c7             	mov    %rax,%rdi
ffffffff8010ede8:	41 ff d0             	callq  *%r8
ffffffff8010edeb:	c9                   	leaveq 
ffffffff8010edec:	c3                   	retq   

ffffffff8010eded <vfs_read>:
ffffffff8010eded:	55                   	push   %rbp
ffffffff8010edee:	48 89 e5             	mov    %rsp,%rbp
ffffffff8010edf1:	48 83 ec 20          	sub    $0x20,%rsp
ffffffff8010edf5:	48 89 7d f8          	mov    %rdi,-0x8(%rbp)
ffffffff8010edf9:	48 89 75 f0          	mov    %rsi,-0x10(%rbp)
ffffffff8010edfd:	48 89 55 e8          	mov    %rdx,-0x18(%rbp)
ffffffff8010ee01:	48 89 4d e0          	mov    %rcx,-0x20(%rbp)
ffffffff8010ee05:	48 83 7d f8 00       	cmpq   $0x0,-0x8(%rbp)
ffffffff8010ee0a:	75 07                	jne    ffffffff8010ee13 <vfs_read+0x26>
ffffffff8010ee0c:	b8 ff ff ff ff       	mov    $0xffffffff,%eax
ffffffff8010ee11:	eb 22                	jmp    ffffffff8010ee35 <vfs_read+0x48>
ffffffff8010ee13:	48 8b 45 f8          	mov    -0x8(%rbp),%rax
ffffffff8010ee17:	48 8b 40 18          	mov    0x18(%rax),%rax
ffffffff8010ee1b:	4c 8b 40 18          	mov    0x18(%rax),%r8
ffffffff8010ee1f:	48 8b 4d e0          	mov    -0x20(%rbp),%rcx
ffffffff8010ee23:	48 8b 55 e8          	mov    -0x18(%rbp),%rdx
ffffffff8010ee27:	48 8b 75 f0          	mov    -0x10(%rbp),%rsi
ffffffff8010ee2b:	48 8b 45 f8          	mov    -0x8(%rbp),%rax
ffffffff8010ee2f:	48 89 c7             	mov    %rax,%rdi
ffffffff8010ee32:	41 ff d0             	callq  *%r8
ffffffff8010ee35:	c9                   	leaveq 
ffffffff8010ee36:	c3                   	retq   

ffffffff8010ee37 <vfs_open>:
ffffffff8010ee37:	55                   	push   %rbp
ffffffff8010ee38:	48 89 e5             	mov    %rsp,%rbp
ffffffff8010ee3b:	48 83 ec 20          	sub    $0x20,%rsp
ffffffff8010ee3f:	48 89 7d e8          	mov    %rdi,-0x18(%rbp)
ffffffff8010ee43:	89 75 e4             	mov    %esi,-0x1c(%rbp)
ffffffff8010ee46:	48 8b 45 e8          	mov    -0x18(%rbp),%rax
ffffffff8010ee4a:	48 89 c7             	mov    %rax,%rdi
ffffffff8010ee4d:	e8 c1 fa ff ff       	callq  ffffffff8010e913 <vfs_absolute_path>
ffffffff8010ee52:	48 89 45 f8          	mov    %rax,-0x8(%rbp)
ffffffff8010ee56:	48 83 7d f8 00       	cmpq   $0x0,-0x8(%rbp)
ffffffff8010ee5b:	75 5c                	jne    ffffffff8010eeb9 <vfs_open+0x82>
ffffffff8010ee5d:	8b 45 e4             	mov    -0x1c(%rbp),%eax
ffffffff8010ee60:	83 e0 10             	and    $0x10,%eax
ffffffff8010ee63:	85 c0                	test   %eax,%eax
ffffffff8010ee65:	74 52                	je     ffffffff8010eeb9 <vfs_open+0x82>
ffffffff8010ee67:	48 8b 45 e8          	mov    -0x18(%rbp),%rax
ffffffff8010ee6b:	48 89 c7             	mov    %rax,%rdi
ffffffff8010ee6e:	e8 85 f9 ff ff       	callq  ffffffff8010e7f8 <vfs_create_node_deep>
ffffffff8010ee73:	48 89 45 f8          	mov    %rax,-0x8(%rbp)
ffffffff8010ee77:	48 83 7d f8 00       	cmpq   $0x0,-0x8(%rbp)
ffffffff8010ee7c:	75 07                	jne    ffffffff8010ee85 <vfs_open+0x4e>
ffffffff8010ee7e:	b8 ff ff ff ff       	mov    $0xffffffff,%eax
ffffffff8010ee83:	eb 74                	jmp    ffffffff8010eef9 <vfs_open+0xc2>
ffffffff8010ee85:	48 8b 45 f8          	mov    -0x8(%rbp),%rax
ffffffff8010ee89:	48 8b 40 18          	mov    0x18(%rax),%rax
ffffffff8010ee8d:	48 8b 48 38          	mov    0x38(%rax),%rcx
ffffffff8010ee91:	8b 55 e4             	mov    -0x1c(%rbp),%edx
ffffffff8010ee94:	48 8b 45 f8          	mov    -0x8(%rbp),%rax
ffffffff8010ee98:	89 d6                	mov    %edx,%esi
ffffffff8010ee9a:	48 89 c7             	mov    %rax,%rdi
ffffffff8010ee9d:	ff d1                	callq  *%rcx
ffffffff8010ee9f:	89 45 f4             	mov    %eax,-0xc(%rbp)
ffffffff8010eea2:	83 7d f4 ff          	cmpl   $0xffffffff,-0xc(%rbp)
ffffffff8010eea6:	75 0c                	jne    ffffffff8010eeb4 <vfs_open+0x7d>
ffffffff8010eea8:	48 8b 45 f8          	mov    -0x8(%rbp),%rax
ffffffff8010eeac:	48 89 c7             	mov    %rax,%rdi
ffffffff8010eeaf:	e8 a0 fd ff ff       	callq  ffffffff8010ec54 <vfs_remove_node>
ffffffff8010eeb4:	8b 45 f4             	mov    -0xc(%rbp),%eax
ffffffff8010eeb7:	eb 40                	jmp    ffffffff8010eef9 <vfs_open+0xc2>
ffffffff8010eeb9:	48 83 7d f8 00       	cmpq   $0x0,-0x8(%rbp)
ffffffff8010eebe:	75 07                	jne    ffffffff8010eec7 <vfs_open+0x90>
ffffffff8010eec0:	b8 ff ff ff ff       	mov    $0xffffffff,%eax
ffffffff8010eec5:	eb 32                	jmp    ffffffff8010eef9 <vfs_open+0xc2>
ffffffff8010eec7:	48 8b 45 f8          	mov    -0x8(%rbp),%rax
ffffffff8010eecb:	48 8b 40 18          	mov    0x18(%rax),%rax
ffffffff8010eecf:	48 8b 48 38          	mov    0x38(%rax),%rcx
ffffffff8010eed3:	8b 55 e4             	mov    -0x1c(%rbp),%edx
ffffffff8010eed6:	48 8b 45 f8          	mov    -0x8(%rbp),%rax
ffffffff8010eeda:	89 d6                	mov    %edx,%esi
ffffffff8010eedc:	48 89 c7             	mov    %rax,%rdi
ffffffff8010eedf:	ff d1                	callq  *%rcx
ffffffff8010eee1:	89 45 f0             	mov    %eax,-0x10(%rbp)
ffffffff8010eee4:	83 7d f0 ff          	cmpl   $0xffffffff,-0x10(%rbp)
ffffffff8010eee8:	75 0c                	jne    ffffffff8010eef6 <vfs_open+0xbf>
ffffffff8010eeea:	48 8b 45 f8          	mov    -0x8(%rbp),%rax
ffffffff8010eeee:	48 89 c7             	mov    %rax,%rdi
ffffffff8010eef1:	e8 5e fd ff ff       	callq  ffffffff8010ec54 <vfs_remove_node>
ffffffff8010eef6:	8b 45 f0             	mov    -0x10(%rbp),%eax
ffffffff8010eef9:	c9                   	leaveq 
ffffffff8010eefa:	c3                   	retq   

ffffffff8010eefb <vfs_unlink>:
ffffffff8010eefb:	55                   	push   %rbp
ffffffff8010eefc:	48 89 e5             	mov    %rsp,%rbp
ffffffff8010eeff:	48 83 ec 20          	sub    $0x20,%rsp
ffffffff8010ef03:	48 89 7d e8          	mov    %rdi,-0x18(%rbp)
ffffffff8010ef07:	48 8b 45 e8          	mov    -0x18(%rbp),%rax
ffffffff8010ef0b:	48 89 c7             	mov    %rax,%rdi
ffffffff8010ef0e:	e8 00 fa ff ff       	callq  ffffffff8010e913 <vfs_absolute_path>
ffffffff8010ef13:	48 89 45 f8          	mov    %rax,-0x8(%rbp)
ffffffff8010ef17:	48 83 7d f8 00       	cmpq   $0x0,-0x8(%rbp)
ffffffff8010ef1c:	75 07                	jne    ffffffff8010ef25 <vfs_unlink+0x2a>
ffffffff8010ef1e:	b8 ff ff ff ff       	mov    $0xffffffff,%eax
ffffffff8010ef23:	eb 11                	jmp    ffffffff8010ef36 <vfs_unlink+0x3b>
ffffffff8010ef25:	48 8b 45 f8          	mov    -0x8(%rbp),%rax
ffffffff8010ef29:	48 89 c7             	mov    %rax,%rdi
ffffffff8010ef2c:	e8 23 fd ff ff       	callq  ffffffff8010ec54 <vfs_remove_node>
ffffffff8010ef31:	b8 00 00 00 00       	mov    $0x0,%eax
ffffffff8010ef36:	c9                   	leaveq 
ffffffff8010ef37:	c3                   	retq   

ffffffff8010ef38 <get_pt_index>:
ffffffff8010ef38:	55                   	push   %rbp
ffffffff8010ef39:	48 89 e5             	mov    %rsp,%rbp
ffffffff8010ef3c:	48 83 ec 58          	sub    $0x58,%rsp
ffffffff8010ef40:	48 89 7d b8          	mov    %rdi,-0x48(%rbp)
ffffffff8010ef44:	48 89 75 b0          	mov    %rsi,-0x50(%rbp)
ffffffff8010ef48:	48 89 55 a8          	mov    %rdx,-0x58(%rbp)
ffffffff8010ef4c:	48 8b 45 b0          	mov    -0x50(%rbp),%rax
ffffffff8010ef50:	48 c1 e8 27          	shr    $0x27,%rax
ffffffff8010ef54:	25 ff 01 00 00       	and    $0x1ff,%eax
ffffffff8010ef59:	49 89 c3             	mov    %rax,%r11
ffffffff8010ef5c:	48 8b 45 b0          	mov    -0x50(%rbp),%rax
ffffffff8010ef60:	48 c1 e8 1e          	shr    $0x1e,%rax
ffffffff8010ef64:	25 ff 01 00 00       	and    $0x1ff,%eax
ffffffff8010ef69:	49 89 c2             	mov    %rax,%r10
ffffffff8010ef6c:	48 8b 45 b0          	mov    -0x50(%rbp),%rax
ffffffff8010ef70:	48 c1 e8 15          	shr    $0x15,%rax
ffffffff8010ef74:	25 ff 01 00 00       	and    $0x1ff,%eax
ffffffff8010ef79:	49 89 c1             	mov    %rax,%r9
ffffffff8010ef7c:	48 8b 45 b0          	mov    -0x50(%rbp),%rax
ffffffff8010ef80:	48 c1 e8 0c          	shr    $0xc,%rax
ffffffff8010ef84:	25 ff 01 00 00       	and    $0x1ff,%eax
ffffffff8010ef89:	49 89 c0             	mov    %rax,%r8
ffffffff8010ef8c:	48 8b 45 a8          	mov    -0x58(%rbp),%rax
ffffffff8010ef90:	48 89 c6             	mov    %rax,%rsi
ffffffff8010ef93:	b8 00 00 00 00       	mov    $0x0,%eax
ffffffff8010ef98:	ba 07 00 00 00       	mov    $0x7,%edx
ffffffff8010ef9d:	48 89 f7             	mov    %rsi,%rdi
ffffffff8010efa0:	48 89 d1             	mov    %rdx,%rcx
ffffffff8010efa3:	f3 48 ab             	rep stos %rax,%es:(%rdi)
ffffffff8010efa6:	48 8b 45 a8          	mov    -0x58(%rbp),%rax
ffffffff8010efaa:	4c 89 18             	mov    %r11,(%rax)
ffffffff8010efad:	48 8b 45 a8          	mov    -0x58(%rbp),%rax
ffffffff8010efb1:	4c 89 50 08          	mov    %r10,0x8(%rax)
ffffffff8010efb5:	48 8b 45 a8          	mov    -0x58(%rbp),%rax
ffffffff8010efb9:	4c 89 48 10          	mov    %r9,0x10(%rax)
ffffffff8010efbd:	48 8b 45 a8          	mov    -0x58(%rbp),%rax
ffffffff8010efc1:	4c 89 40 18          	mov    %r8,0x18(%rax)
ffffffff8010efc5:	48 8b 45 b8          	mov    -0x48(%rbp),%rax
ffffffff8010efc9:	48 8b 10             	mov    (%rax),%rdx
ffffffff8010efcc:	48 8b 45 a8          	mov    -0x58(%rbp),%rax
ffffffff8010efd0:	48 8b 00             	mov    (%rax),%rax
ffffffff8010efd3:	48 c1 e0 03          	shl    $0x3,%rax
ffffffff8010efd7:	48 01 d0             	add    %rdx,%rax
ffffffff8010efda:	48 8b 00             	mov    (%rax),%rax
ffffffff8010efdd:	48 25 00 f0 ff ff    	and    $0xfffffffffffff000,%rax
ffffffff8010efe3:	48 89 c2             	mov    %rax,%rdx
ffffffff8010efe6:	48 8b 45 a8          	mov    -0x58(%rbp),%rax
ffffffff8010efea:	48 89 50 20          	mov    %rdx,0x20(%rax)
ffffffff8010efee:	48 8b 45 a8          	mov    -0x58(%rbp),%rax
ffffffff8010eff2:	48 8b 40 20          	mov    0x20(%rax),%rax
ffffffff8010eff6:	48 85 c0             	test   %rax,%rax
ffffffff8010eff9:	0f 84 df 00 00 00    	je     ffffffff8010f0de <get_pt_index+0x1a6>
ffffffff8010efff:	48 8b 45 a8          	mov    -0x58(%rbp),%rax
ffffffff8010f003:	48 8b 40 20          	mov    0x20(%rax),%rax
ffffffff8010f007:	48 89 c2             	mov    %rax,%rdx
ffffffff8010f00a:	48 b8 00 00 00 00 00 	movabs $0xffff800000000000,%rax
ffffffff8010f011:	80 ff ff 
ffffffff8010f014:	48 01 d0             	add    %rdx,%rax
ffffffff8010f017:	48 89 c2             	mov    %rax,%rdx
ffffffff8010f01a:	48 8b 45 a8          	mov    -0x58(%rbp),%rax
ffffffff8010f01e:	48 89 50 20          	mov    %rdx,0x20(%rax)
ffffffff8010f022:	48 8b 45 a8          	mov    -0x58(%rbp),%rax
ffffffff8010f026:	48 8b 50 20          	mov    0x20(%rax),%rdx
ffffffff8010f02a:	48 8b 45 a8          	mov    -0x58(%rbp),%rax
ffffffff8010f02e:	48 8b 40 08          	mov    0x8(%rax),%rax
ffffffff8010f032:	48 c1 e0 03          	shl    $0x3,%rax
ffffffff8010f036:	48 01 d0             	add    %rdx,%rax
ffffffff8010f039:	48 8b 00             	mov    (%rax),%rax
ffffffff8010f03c:	48 25 00 f0 ff ff    	and    $0xfffffffffffff000,%rax
ffffffff8010f042:	48 89 c2             	mov    %rax,%rdx
ffffffff8010f045:	48 8b 45 a8          	mov    -0x58(%rbp),%rax
ffffffff8010f049:	48 89 50 28          	mov    %rdx,0x28(%rax)
ffffffff8010f04d:	48 8b 45 a8          	mov    -0x58(%rbp),%rax
ffffffff8010f051:	48 8b 40 28          	mov    0x28(%rax),%rax
ffffffff8010f055:	48 85 c0             	test   %rax,%rax
ffffffff8010f058:	0f 84 83 00 00 00    	je     ffffffff8010f0e1 <get_pt_index+0x1a9>
ffffffff8010f05e:	48 8b 45 a8          	mov    -0x58(%rbp),%rax
ffffffff8010f062:	48 8b 40 28          	mov    0x28(%rax),%rax
ffffffff8010f066:	48 89 c2             	mov    %rax,%rdx
ffffffff8010f069:	48 b8 00 00 00 00 00 	movabs $0xffff800000000000,%rax
ffffffff8010f070:	80 ff ff 
ffffffff8010f073:	48 01 d0             	add    %rdx,%rax
ffffffff8010f076:	48 89 c2             	mov    %rax,%rdx
ffffffff8010f079:	48 8b 45 a8          	mov    -0x58(%rbp),%rax
ffffffff8010f07d:	48 89 50 28          	mov    %rdx,0x28(%rax)
ffffffff8010f081:	48 8b 45 a8          	mov    -0x58(%rbp),%rax
ffffffff8010f085:	48 8b 50 28          	mov    0x28(%rax),%rdx
ffffffff8010f089:	48 8b 45 a8          	mov    -0x58(%rbp),%rax
ffffffff8010f08d:	48 8b 40 10          	mov    0x10(%rax),%rax
ffffffff8010f091:	48 c1 e0 03          	shl    $0x3,%rax
ffffffff8010f095:	48 01 d0             	add    %rdx,%rax
ffffffff8010f098:	48 8b 00             	mov    (%rax),%rax
ffffffff8010f09b:	48 25 00 f0 ff ff    	and    $0xfffffffffffff000,%rax
ffffffff8010f0a1:	48 89 c2             	mov    %rax,%rdx
ffffffff8010f0a4:	48 8b 45 a8          	mov    -0x58(%rbp),%rax
ffffffff8010f0a8:	48 89 50 30          	mov    %rdx,0x30(%rax)
ffffffff8010f0ac:	48 8b 45 a8          	mov    -0x58(%rbp),%rax
ffffffff8010f0b0:	48 8b 40 30          	mov    0x30(%rax),%rax
ffffffff8010f0b4:	48 85 c0             	test   %rax,%rax
ffffffff8010f0b7:	74 29                	je     ffffffff8010f0e2 <get_pt_index+0x1aa>
ffffffff8010f0b9:	48 8b 45 a8          	mov    -0x58(%rbp),%rax
ffffffff8010f0bd:	48 8b 40 30          	mov    0x30(%rax),%rax
ffffffff8010f0c1:	48 89 c2             	mov    %rax,%rdx
ffffffff8010f0c4:	48 b8 00 00 00 00 00 	movabs $0xffff800000000000,%rax
ffffffff8010f0cb:	80 ff ff 
ffffffff8010f0ce:	48 01 d0             	add    %rdx,%rax
ffffffff8010f0d1:	48 89 c2             	mov    %rax,%rdx
ffffffff8010f0d4:	48 8b 45 a8          	mov    -0x58(%rbp),%rax
ffffffff8010f0d8:	48 89 50 30          	mov    %rdx,0x30(%rax)
ffffffff8010f0dc:	eb 04                	jmp    ffffffff8010f0e2 <get_pt_index+0x1aa>
ffffffff8010f0de:	90                   	nop
ffffffff8010f0df:	eb 01                	jmp    ffffffff8010f0e2 <get_pt_index+0x1aa>
ffffffff8010f0e1:	90                   	nop
ffffffff8010f0e2:	c9                   	leaveq 
ffffffff8010f0e3:	c3                   	retq   

ffffffff8010f0e4 <page_map>:
ffffffff8010f0e4:	55                   	push   %rbp
ffffffff8010f0e5:	48 89 e5             	mov    %rsp,%rbp
ffffffff8010f0e8:	48 83 ec 70          	sub    $0x70,%rsp
ffffffff8010f0ec:	48 89 7d b8          	mov    %rdi,-0x48(%rbp)
ffffffff8010f0f0:	48 89 75 b0          	mov    %rsi,-0x50(%rbp)
ffffffff8010f0f4:	48 89 55 a8          	mov    %rdx,-0x58(%rbp)
ffffffff8010f0f8:	48 89 4d a0          	mov    %rcx,-0x60(%rbp)
ffffffff8010f0fc:	4c 89 45 98          	mov    %r8,-0x68(%rbp)
ffffffff8010f100:	48 8d 55 c8          	lea    -0x38(%rbp),%rdx
ffffffff8010f104:	48 8b 4d a8          	mov    -0x58(%rbp),%rcx
ffffffff8010f108:	48 8b 45 b8          	mov    -0x48(%rbp),%rax
ffffffff8010f10c:	48 89 ce             	mov    %rcx,%rsi
ffffffff8010f10f:	48 89 c7             	mov    %rax,%rdi
ffffffff8010f112:	e8 21 fe ff ff       	callq  ffffffff8010ef38 <get_pt_index>
ffffffff8010f117:	48 8b 45 e8          	mov    -0x18(%rbp),%rax
ffffffff8010f11b:	48 85 c0             	test   %rax,%rax
ffffffff8010f11e:	75 4c                	jne    ffffffff8010f16c <page_map+0x88>
ffffffff8010f120:	bf 01 00 00 00       	mov    $0x1,%edi
ffffffff8010f125:	e8 8f d0 ff ff       	callq  ffffffff8010c1b9 <pmm_calloc>
ffffffff8010f12a:	48 ba 00 00 00 00 00 	movabs $0xffff800000000000,%rdx
ffffffff8010f131:	80 ff ff 
ffffffff8010f134:	48 01 d0             	add    %rdx,%rax
ffffffff8010f137:	48 89 45 e8          	mov    %rax,-0x18(%rbp)
ffffffff8010f13b:	48 8b 45 e8          	mov    -0x18(%rbp),%rax
ffffffff8010f13f:	48 89 c2             	mov    %rax,%rdx
ffffffff8010f142:	48 b8 00 00 00 00 00 	movabs $0x800000000000,%rax
ffffffff8010f149:	80 00 00 
ffffffff8010f14c:	48 8d 0c 02          	lea    (%rdx,%rax,1),%rcx
ffffffff8010f150:	48 8b 45 b8          	mov    -0x48(%rbp),%rax
ffffffff8010f154:	48 8b 10             	mov    (%rax),%rdx
ffffffff8010f157:	48 8b 45 c8          	mov    -0x38(%rbp),%rax
ffffffff8010f15b:	48 c1 e0 03          	shl    $0x3,%rax
ffffffff8010f15f:	48 01 c2             	add    %rax,%rdx
ffffffff8010f162:	48 89 c8             	mov    %rcx,%rax
ffffffff8010f165:	48 0b 45 a0          	or     -0x60(%rbp),%rax
ffffffff8010f169:	48 89 02             	mov    %rax,(%rdx)
ffffffff8010f16c:	48 8b 45 f0          	mov    -0x10(%rbp),%rax
ffffffff8010f170:	48 85 c0             	test   %rax,%rax
ffffffff8010f173:	75 45                	jne    ffffffff8010f1ba <page_map+0xd6>
ffffffff8010f175:	bf 01 00 00 00       	mov    $0x1,%edi
ffffffff8010f17a:	e8 3a d0 ff ff       	callq  ffffffff8010c1b9 <pmm_calloc>
ffffffff8010f17f:	48 ba 00 00 00 00 00 	movabs $0xffff800000000000,%rdx
ffffffff8010f186:	80 ff ff 
ffffffff8010f189:	48 01 d0             	add    %rdx,%rax
ffffffff8010f18c:	48 89 45 f0          	mov    %rax,-0x10(%rbp)
ffffffff8010f190:	48 8b 45 f0          	mov    -0x10(%rbp),%rax
ffffffff8010f194:	48 89 c2             	mov    %rax,%rdx
ffffffff8010f197:	48 b8 00 00 00 00 00 	movabs $0x800000000000,%rax
ffffffff8010f19e:	80 00 00 
ffffffff8010f1a1:	48 01 d0             	add    %rdx,%rax
ffffffff8010f1a4:	48 8b 4d e8          	mov    -0x18(%rbp),%rcx
ffffffff8010f1a8:	48 8b 55 d0          	mov    -0x30(%rbp),%rdx
ffffffff8010f1ac:	48 c1 e2 03          	shl    $0x3,%rdx
ffffffff8010f1b0:	48 01 ca             	add    %rcx,%rdx
ffffffff8010f1b3:	48 0b 45 a0          	or     -0x60(%rbp),%rax
ffffffff8010f1b7:	48 89 02             	mov    %rax,(%rdx)
ffffffff8010f1ba:	48 8b 45 98          	mov    -0x68(%rbp),%rax
ffffffff8010f1be:	25 80 00 00 00       	and    $0x80,%eax
ffffffff8010f1c3:	48 85 c0             	test   %rax,%rax
ffffffff8010f1c6:	75 6a                	jne    ffffffff8010f232 <page_map+0x14e>
ffffffff8010f1c8:	48 8b 45 f8          	mov    -0x8(%rbp),%rax
ffffffff8010f1cc:	48 85 c0             	test   %rax,%rax
ffffffff8010f1cf:	75 45                	jne    ffffffff8010f216 <page_map+0x132>
ffffffff8010f1d1:	bf 01 00 00 00       	mov    $0x1,%edi
ffffffff8010f1d6:	e8 de cf ff ff       	callq  ffffffff8010c1b9 <pmm_calloc>
ffffffff8010f1db:	48 ba 00 00 00 00 00 	movabs $0xffff800000000000,%rdx
ffffffff8010f1e2:	80 ff ff 
ffffffff8010f1e5:	48 01 d0             	add    %rdx,%rax
ffffffff8010f1e8:	48 89 45 f8          	mov    %rax,-0x8(%rbp)
ffffffff8010f1ec:	48 8b 45 f8          	mov    -0x8(%rbp),%rax
ffffffff8010f1f0:	48 89 c2             	mov    %rax,%rdx
ffffffff8010f1f3:	48 b8 00 00 00 00 00 	movabs $0x800000000000,%rax
ffffffff8010f1fa:	80 00 00 
ffffffff8010f1fd:	48 01 d0             	add    %rdx,%rax
ffffffff8010f200:	48 8b 4d f0          	mov    -0x10(%rbp),%rcx
ffffffff8010f204:	48 8b 55 d8          	mov    -0x28(%rbp),%rdx
ffffffff8010f208:	48 c1 e2 03          	shl    $0x3,%rdx
ffffffff8010f20c:	48 01 ca             	add    %rcx,%rdx
ffffffff8010f20f:	48 0b 45 a0          	or     -0x60(%rbp),%rax
ffffffff8010f213:	48 89 02             	mov    %rax,(%rdx)
ffffffff8010f216:	48 8b 55 f8          	mov    -0x8(%rbp),%rdx
ffffffff8010f21a:	48 8b 45 e0          	mov    -0x20(%rbp),%rax
ffffffff8010f21e:	48 c1 e0 03          	shl    $0x3,%rax
ffffffff8010f222:	48 01 c2             	add    %rax,%rdx
ffffffff8010f225:	48 8b 45 b0          	mov    -0x50(%rbp),%rax
ffffffff8010f229:	48 0b 45 98          	or     -0x68(%rbp),%rax
ffffffff8010f22d:	48 89 02             	mov    %rax,(%rdx)
ffffffff8010f230:	eb 1a                	jmp    ffffffff8010f24c <page_map+0x168>
ffffffff8010f232:	48 8b 55 f0          	mov    -0x10(%rbp),%rdx
ffffffff8010f236:	48 8b 45 d8          	mov    -0x28(%rbp),%rax
ffffffff8010f23a:	48 c1 e0 03          	shl    $0x3,%rax
ffffffff8010f23e:	48 01 c2             	add    %rax,%rdx
ffffffff8010f241:	48 8b 45 b0          	mov    -0x50(%rbp),%rax
ffffffff8010f245:	48 0b 45 98          	or     -0x68(%rbp),%rax
ffffffff8010f249:	48 89 02             	mov    %rax,(%rdx)
ffffffff8010f24c:	b8 00 00 00 00       	mov    $0x0,%eax
ffffffff8010f251:	e8 f4 04 00 00       	callq  ffffffff8010f74a <tlb_flush>
ffffffff8010f256:	90                   	nop
ffffffff8010f257:	c9                   	leaveq 
ffffffff8010f258:	c3                   	retq   

ffffffff8010f259 <page_unmap>:
ffffffff8010f259:	55                   	push   %rbp
ffffffff8010f25a:	48 89 e5             	mov    %rsp,%rbp
ffffffff8010f25d:	48 83 ec 68          	sub    $0x68,%rsp
ffffffff8010f261:	48 89 7d a8          	mov    %rdi,-0x58(%rbp)
ffffffff8010f265:	48 89 75 a0          	mov    %rsi,-0x60(%rbp)
ffffffff8010f269:	48 89 55 98          	mov    %rdx,-0x68(%rbp)
ffffffff8010f26d:	48 8d 55 b8          	lea    -0x48(%rbp),%rdx
ffffffff8010f271:	48 8b 4d a0          	mov    -0x60(%rbp),%rcx
ffffffff8010f275:	48 8b 45 a8          	mov    -0x58(%rbp),%rax
ffffffff8010f279:	48 89 ce             	mov    %rcx,%rsi
ffffffff8010f27c:	48 89 c7             	mov    %rax,%rdi
ffffffff8010f27f:	e8 b4 fc ff ff       	callq  ffffffff8010ef38 <get_pt_index>
ffffffff8010f284:	48 8b 45 98          	mov    -0x68(%rbp),%rax
ffffffff8010f288:	25 80 00 00 00       	and    $0x80,%eax
ffffffff8010f28d:	48 85 c0             	test   %rax,%rax
ffffffff8010f290:	74 32                	je     ffffffff8010f2c4 <page_unmap+0x6b>
ffffffff8010f292:	48 8b 55 e0          	mov    -0x20(%rbp),%rdx
ffffffff8010f296:	48 8b 45 c8          	mov    -0x38(%rbp),%rax
ffffffff8010f29a:	48 c1 e0 03          	shl    $0x3,%rax
ffffffff8010f29e:	48 01 d0             	add    %rdx,%rax
ffffffff8010f2a1:	48 8b 00             	mov    (%rax),%rax
ffffffff8010f2a4:	48 89 45 f0          	mov    %rax,-0x10(%rbp)
ffffffff8010f2a8:	48 8b 55 e0          	mov    -0x20(%rbp),%rdx
ffffffff8010f2ac:	48 8b 45 c8          	mov    -0x38(%rbp),%rax
ffffffff8010f2b0:	48 c1 e0 03          	shl    $0x3,%rax
ffffffff8010f2b4:	48 01 d0             	add    %rdx,%rax
ffffffff8010f2b7:	48 c7 00 00 00 00 00 	movq   $0x0,(%rax)
ffffffff8010f2be:	48 8b 45 f0          	mov    -0x10(%rbp),%rax
ffffffff8010f2c2:	eb 30                	jmp    ffffffff8010f2f4 <page_unmap+0x9b>
ffffffff8010f2c4:	48 8b 55 e8          	mov    -0x18(%rbp),%rdx
ffffffff8010f2c8:	48 8b 45 d0          	mov    -0x30(%rbp),%rax
ffffffff8010f2cc:	48 c1 e0 03          	shl    $0x3,%rax
ffffffff8010f2d0:	48 01 d0             	add    %rdx,%rax
ffffffff8010f2d3:	48 8b 00             	mov    (%rax),%rax
ffffffff8010f2d6:	48 89 45 f8          	mov    %rax,-0x8(%rbp)
ffffffff8010f2da:	48 8b 55 e8          	mov    -0x18(%rbp),%rdx
ffffffff8010f2de:	48 8b 45 d0          	mov    -0x30(%rbp),%rax
ffffffff8010f2e2:	48 c1 e0 03          	shl    $0x3,%rax
ffffffff8010f2e6:	48 01 d0             	add    %rdx,%rax
ffffffff8010f2e9:	48 c7 00 00 00 00 00 	movq   $0x0,(%rax)
ffffffff8010f2f0:	48 8b 45 f8          	mov    -0x8(%rbp),%rax
ffffffff8010f2f4:	c9                   	leaveq 
ffffffff8010f2f5:	c3                   	retq   

ffffffff8010f2f6 <map_range>:
ffffffff8010f2f6:	55                   	push   %rbp
ffffffff8010f2f7:	48 89 e5             	mov    %rsp,%rbp
ffffffff8010f2fa:	48 83 ec 30          	sub    $0x30,%rsp
ffffffff8010f2fe:	48 89 7d e8          	mov    %rdi,-0x18(%rbp)
ffffffff8010f302:	48 89 75 e0          	mov    %rsi,-0x20(%rbp)
ffffffff8010f306:	48 89 55 d8          	mov    %rdx,-0x28(%rbp)
ffffffff8010f30a:	48 89 4d d0          	mov    %rcx,-0x30(%rbp)
ffffffff8010f30e:	48 c7 45 f8 00 00 00 	movq   $0x0,-0x8(%rbp)
ffffffff8010f315:	00 
ffffffff8010f316:	eb 2d                	jmp    ffffffff8010f345 <map_range+0x4f>
ffffffff8010f318:	bf 01 00 00 00       	mov    $0x1,%edi
ffffffff8010f31d:	e8 97 ce ff ff       	callq  ffffffff8010c1b9 <pmm_calloc>
ffffffff8010f322:	48 89 c6             	mov    %rax,%rsi
ffffffff8010f325:	48 8b 7d d0          	mov    -0x30(%rbp),%rdi
ffffffff8010f329:	48 8b 4d d0          	mov    -0x30(%rbp),%rcx
ffffffff8010f32d:	48 8b 55 e0          	mov    -0x20(%rbp),%rdx
ffffffff8010f331:	48 8b 45 e8          	mov    -0x18(%rbp),%rax
ffffffff8010f335:	49 89 f8             	mov    %rdi,%r8
ffffffff8010f338:	48 89 c7             	mov    %rax,%rdi
ffffffff8010f33b:	e8 a4 fd ff ff       	callq  ffffffff8010f0e4 <page_map>
ffffffff8010f340:	48 83 45 f8 01       	addq   $0x1,-0x8(%rbp)
ffffffff8010f345:	48 8b 45 f8          	mov    -0x8(%rbp),%rax
ffffffff8010f349:	48 3b 45 d8          	cmp    -0x28(%rbp),%rax
ffffffff8010f34d:	72 c9                	jb     ffffffff8010f318 <map_range+0x22>
ffffffff8010f34f:	b8 00 00 00 00       	mov    $0x0,%eax
ffffffff8010f354:	e8 f1 03 00 00       	callq  ffffffff8010f74a <tlb_flush>
ffffffff8010f359:	90                   	nop
ffffffff8010f35a:	c9                   	leaveq 
ffffffff8010f35b:	c3                   	retq   

ffffffff8010f35c <unmap_range>:
ffffffff8010f35c:	55                   	push   %rbp
ffffffff8010f35d:	48 89 e5             	mov    %rsp,%rbp
ffffffff8010f360:	48 83 ec 30          	sub    $0x30,%rsp
ffffffff8010f364:	48 89 7d e8          	mov    %rdi,-0x18(%rbp)
ffffffff8010f368:	48 89 75 e0          	mov    %rsi,-0x20(%rbp)
ffffffff8010f36c:	48 89 55 d8          	mov    %rdx,-0x28(%rbp)
ffffffff8010f370:	48 89 4d d0          	mov    %rcx,-0x30(%rbp)
ffffffff8010f374:	48 c7 45 f8 00 00 00 	movq   $0x0,-0x8(%rbp)
ffffffff8010f37b:	00 
ffffffff8010f37c:	eb 29                	jmp    ffffffff8010f3a7 <unmap_range+0x4b>
ffffffff8010f37e:	48 8b 55 d0          	mov    -0x30(%rbp),%rdx
ffffffff8010f382:	48 8b 4d e0          	mov    -0x20(%rbp),%rcx
ffffffff8010f386:	48 8b 45 e8          	mov    -0x18(%rbp),%rax
ffffffff8010f38a:	48 89 ce             	mov    %rcx,%rsi
ffffffff8010f38d:	48 89 c7             	mov    %rax,%rdi
ffffffff8010f390:	e8 c4 fe ff ff       	callq  ffffffff8010f259 <page_unmap>
ffffffff8010f395:	be 01 00 00 00       	mov    $0x1,%esi
ffffffff8010f39a:	48 89 c7             	mov    %rax,%rdi
ffffffff8010f39d:	e8 69 ce ff ff       	callq  ffffffff8010c20b <pmm_free>
ffffffff8010f3a2:	48 83 45 f8 01       	addq   $0x1,-0x8(%rbp)
ffffffff8010f3a7:	48 8b 45 f8          	mov    -0x8(%rbp),%rax
ffffffff8010f3ab:	48 3b 45 d8          	cmp    -0x28(%rbp),%rax
ffffffff8010f3af:	72 cd                	jb     ffffffff8010f37e <unmap_range+0x22>
ffffffff8010f3b1:	b8 00 00 00 00       	mov    $0x0,%eax
ffffffff8010f3b6:	e8 8f 03 00 00       	callq  ffffffff8010f74a <tlb_flush>
ffffffff8010f3bb:	90                   	nop
ffffffff8010f3bc:	c9                   	leaveq 
ffffffff8010f3bd:	c3                   	retq   

ffffffff8010f3be <page_copy>:
ffffffff8010f3be:	55                   	push   %rbp
ffffffff8010f3bf:	48 89 e5             	mov    %rsp,%rbp
ffffffff8010f3c2:	48 83 ec 50          	sub    $0x50,%rsp
ffffffff8010f3c6:	48 89 7d b8          	mov    %rdi,-0x48(%rbp)
ffffffff8010f3ca:	48 89 75 b0          	mov    %rsi,-0x50(%rbp)
ffffffff8010f3ce:	48 8b 45 b0          	mov    -0x50(%rbp),%rax
ffffffff8010f3d2:	48 8b 08             	mov    (%rax),%rcx
ffffffff8010f3d5:	48 8b 45 b8          	mov    -0x48(%rbp),%rax
ffffffff8010f3d9:	48 8b 00             	mov    (%rax),%rax
ffffffff8010f3dc:	ba 00 02 00 00       	mov    $0x200,%edx
ffffffff8010f3e1:	48 89 ce             	mov    %rcx,%rsi
ffffffff8010f3e4:	48 89 c7             	mov    %rax,%rdi
ffffffff8010f3e7:	e8 4e b9 ff ff       	callq  ffffffff8010ad3a <memcpy64>
ffffffff8010f3ec:	c7 45 fc 00 00 00 00 	movl   $0x0,-0x4(%rbp)
ffffffff8010f3f3:	e9 2c 03 00 00       	jmpq   ffffffff8010f724 <page_copy+0x366>
ffffffff8010f3f8:	48 8b 45 b0          	mov    -0x50(%rbp),%rax
ffffffff8010f3fc:	48 8b 10             	mov    (%rax),%rdx
ffffffff8010f3ff:	8b 45 fc             	mov    -0x4(%rbp),%eax
ffffffff8010f402:	48 98                	cltq   
ffffffff8010f404:	48 c1 e0 03          	shl    $0x3,%rax
ffffffff8010f408:	48 01 d0             	add    %rdx,%rax
ffffffff8010f40b:	48 8b 00             	mov    (%rax),%rax
ffffffff8010f40e:	83 e0 01             	and    $0x1,%eax
ffffffff8010f411:	48 85 c0             	test   %rax,%rax
ffffffff8010f414:	0f 84 06 03 00 00    	je     ffffffff8010f720 <page_copy+0x362>
ffffffff8010f41a:	bf 01 00 00 00       	mov    $0x1,%edi
ffffffff8010f41f:	e8 95 cd ff ff       	callq  ffffffff8010c1b9 <pmm_calloc>
ffffffff8010f424:	48 89 c2             	mov    %rax,%rdx
ffffffff8010f427:	48 8b 45 b0          	mov    -0x50(%rbp),%rax
ffffffff8010f42b:	48 8b 08             	mov    (%rax),%rcx
ffffffff8010f42e:	8b 45 fc             	mov    -0x4(%rbp),%eax
ffffffff8010f431:	48 98                	cltq   
ffffffff8010f433:	48 c1 e0 03          	shl    $0x3,%rax
ffffffff8010f437:	48 01 c8             	add    %rcx,%rax
ffffffff8010f43a:	48 8b 00             	mov    (%rax),%rax
ffffffff8010f43d:	25 ff 0f 00 00       	and    $0xfff,%eax
ffffffff8010f442:	48 89 c6             	mov    %rax,%rsi
ffffffff8010f445:	48 8b 45 b8          	mov    -0x48(%rbp),%rax
ffffffff8010f449:	48 8b 08             	mov    (%rax),%rcx
ffffffff8010f44c:	8b 45 fc             	mov    -0x4(%rbp),%eax
ffffffff8010f44f:	48 98                	cltq   
ffffffff8010f451:	48 c1 e0 03          	shl    $0x3,%rax
ffffffff8010f455:	48 01 c8             	add    %rcx,%rax
ffffffff8010f458:	48 09 f2             	or     %rsi,%rdx
ffffffff8010f45b:	48 89 10             	mov    %rdx,(%rax)
ffffffff8010f45e:	48 8b 45 b8          	mov    -0x48(%rbp),%rax
ffffffff8010f462:	48 8b 10             	mov    (%rax),%rdx
ffffffff8010f465:	8b 45 fc             	mov    -0x4(%rbp),%eax
ffffffff8010f468:	48 98                	cltq   
ffffffff8010f46a:	48 c1 e0 03          	shl    $0x3,%rax
ffffffff8010f46e:	48 01 d0             	add    %rdx,%rax
ffffffff8010f471:	48 8b 00             	mov    (%rax),%rax
ffffffff8010f474:	48 25 00 f0 ff ff    	and    $0xfffffffffffff000,%rax
ffffffff8010f47a:	48 89 c2             	mov    %rax,%rdx
ffffffff8010f47d:	48 b8 00 00 00 00 00 	movabs $0xffff800000000000,%rax
ffffffff8010f484:	80 ff ff 
ffffffff8010f487:	48 01 d0             	add    %rdx,%rax
ffffffff8010f48a:	48 89 45 e8          	mov    %rax,-0x18(%rbp)
ffffffff8010f48e:	48 8b 45 b0          	mov    -0x50(%rbp),%rax
ffffffff8010f492:	48 8b 10             	mov    (%rax),%rdx
ffffffff8010f495:	8b 45 fc             	mov    -0x4(%rbp),%eax
ffffffff8010f498:	48 98                	cltq   
ffffffff8010f49a:	48 c1 e0 03          	shl    $0x3,%rax
ffffffff8010f49e:	48 01 d0             	add    %rdx,%rax
ffffffff8010f4a1:	48 8b 00             	mov    (%rax),%rax
ffffffff8010f4a4:	48 25 00 f0 ff ff    	and    $0xfffffffffffff000,%rax
ffffffff8010f4aa:	48 89 c2             	mov    %rax,%rdx
ffffffff8010f4ad:	48 b8 00 00 00 00 00 	movabs $0xffff800000000000,%rax
ffffffff8010f4b4:	80 ff ff 
ffffffff8010f4b7:	48 01 d0             	add    %rdx,%rax
ffffffff8010f4ba:	48 89 45 e0          	mov    %rax,-0x20(%rbp)
ffffffff8010f4be:	48 8b 4d e0          	mov    -0x20(%rbp),%rcx
ffffffff8010f4c2:	48 8b 45 e8          	mov    -0x18(%rbp),%rax
ffffffff8010f4c6:	ba 00 02 00 00       	mov    $0x200,%edx
ffffffff8010f4cb:	48 89 ce             	mov    %rcx,%rsi
ffffffff8010f4ce:	48 89 c7             	mov    %rax,%rdi
ffffffff8010f4d1:	e8 64 b8 ff ff       	callq  ffffffff8010ad3a <memcpy64>
ffffffff8010f4d6:	c7 45 f8 00 00 00 00 	movl   $0x0,-0x8(%rbp)
ffffffff8010f4dd:	e9 31 02 00 00       	jmpq   ffffffff8010f713 <page_copy+0x355>
ffffffff8010f4e2:	8b 45 f8             	mov    -0x8(%rbp),%eax
ffffffff8010f4e5:	48 98                	cltq   
ffffffff8010f4e7:	48 8d 14 c5 00 00 00 	lea    0x0(,%rax,8),%rdx
ffffffff8010f4ee:	00 
ffffffff8010f4ef:	48 8b 45 e0          	mov    -0x20(%rbp),%rax
ffffffff8010f4f3:	48 01 d0             	add    %rdx,%rax
ffffffff8010f4f6:	48 8b 00             	mov    (%rax),%rax
ffffffff8010f4f9:	83 e0 01             	and    $0x1,%eax
ffffffff8010f4fc:	48 85 c0             	test   %rax,%rax
ffffffff8010f4ff:	0f 84 0a 02 00 00    	je     ffffffff8010f70f <page_copy+0x351>
ffffffff8010f505:	8b 45 f8             	mov    -0x8(%rbp),%eax
ffffffff8010f508:	48 98                	cltq   
ffffffff8010f50a:	48 8d 14 c5 00 00 00 	lea    0x0(,%rax,8),%rdx
ffffffff8010f511:	00 
ffffffff8010f512:	48 8b 45 e0          	mov    -0x20(%rbp),%rax
ffffffff8010f516:	48 01 d0             	add    %rdx,%rax
ffffffff8010f519:	48 8b 00             	mov    (%rax),%rax
ffffffff8010f51c:	25 80 00 00 00       	and    $0x80,%eax
ffffffff8010f521:	48 85 c0             	test   %rax,%rax
ffffffff8010f524:	0f 85 e5 01 00 00    	jne    ffffffff8010f70f <page_copy+0x351>
ffffffff8010f52a:	bf 01 00 00 00       	mov    $0x1,%edi
ffffffff8010f52f:	e8 85 cc ff ff       	callq  ffffffff8010c1b9 <pmm_calloc>
ffffffff8010f534:	48 89 c2             	mov    %rax,%rdx
ffffffff8010f537:	8b 45 f8             	mov    -0x8(%rbp),%eax
ffffffff8010f53a:	48 98                	cltq   
ffffffff8010f53c:	48 8d 0c c5 00 00 00 	lea    0x0(,%rax,8),%rcx
ffffffff8010f543:	00 
ffffffff8010f544:	48 8b 45 e0          	mov    -0x20(%rbp),%rax
ffffffff8010f548:	48 01 c8             	add    %rcx,%rax
ffffffff8010f54b:	48 8b 00             	mov    (%rax),%rax
ffffffff8010f54e:	25 ff 0f 00 00       	and    $0xfff,%eax
ffffffff8010f553:	48 89 c1             	mov    %rax,%rcx
ffffffff8010f556:	8b 45 f8             	mov    -0x8(%rbp),%eax
ffffffff8010f559:	48 98                	cltq   
ffffffff8010f55b:	48 8d 34 c5 00 00 00 	lea    0x0(,%rax,8),%rsi
ffffffff8010f562:	00 
ffffffff8010f563:	48 8b 45 e8          	mov    -0x18(%rbp),%rax
ffffffff8010f567:	48 01 f0             	add    %rsi,%rax
ffffffff8010f56a:	48 09 ca             	or     %rcx,%rdx
ffffffff8010f56d:	48 89 10             	mov    %rdx,(%rax)
ffffffff8010f570:	8b 45 f8             	mov    -0x8(%rbp),%eax
ffffffff8010f573:	48 98                	cltq   
ffffffff8010f575:	48 8d 14 c5 00 00 00 	lea    0x0(,%rax,8),%rdx
ffffffff8010f57c:	00 
ffffffff8010f57d:	48 8b 45 e8          	mov    -0x18(%rbp),%rax
ffffffff8010f581:	48 01 d0             	add    %rdx,%rax
ffffffff8010f584:	48 8b 00             	mov    (%rax),%rax
ffffffff8010f587:	48 25 00 f0 ff ff    	and    $0xfffffffffffff000,%rax
ffffffff8010f58d:	48 89 c2             	mov    %rax,%rdx
ffffffff8010f590:	48 b8 00 00 00 00 00 	movabs $0xffff800000000000,%rax
ffffffff8010f597:	80 ff ff 
ffffffff8010f59a:	48 01 d0             	add    %rdx,%rax
ffffffff8010f59d:	48 89 45 d8          	mov    %rax,-0x28(%rbp)
ffffffff8010f5a1:	8b 45 f8             	mov    -0x8(%rbp),%eax
ffffffff8010f5a4:	48 98                	cltq   
ffffffff8010f5a6:	48 8d 14 c5 00 00 00 	lea    0x0(,%rax,8),%rdx
ffffffff8010f5ad:	00 
ffffffff8010f5ae:	48 8b 45 e0          	mov    -0x20(%rbp),%rax
ffffffff8010f5b2:	48 01 d0             	add    %rdx,%rax
ffffffff8010f5b5:	48 8b 00             	mov    (%rax),%rax
ffffffff8010f5b8:	48 25 00 f0 ff ff    	and    $0xfffffffffffff000,%rax
ffffffff8010f5be:	48 89 c2             	mov    %rax,%rdx
ffffffff8010f5c1:	48 b8 00 00 00 00 00 	movabs $0xffff800000000000,%rax
ffffffff8010f5c8:	80 ff ff 
ffffffff8010f5cb:	48 01 d0             	add    %rdx,%rax
ffffffff8010f5ce:	48 89 45 d0          	mov    %rax,-0x30(%rbp)
ffffffff8010f5d2:	48 8b 4d d0          	mov    -0x30(%rbp),%rcx
ffffffff8010f5d6:	48 8b 45 d8          	mov    -0x28(%rbp),%rax
ffffffff8010f5da:	ba 00 02 00 00       	mov    $0x200,%edx
ffffffff8010f5df:	48 89 ce             	mov    %rcx,%rsi
ffffffff8010f5e2:	48 89 c7             	mov    %rax,%rdi
ffffffff8010f5e5:	e8 50 b7 ff ff       	callq  ffffffff8010ad3a <memcpy64>
ffffffff8010f5ea:	c7 45 f4 00 00 00 00 	movl   $0x0,-0xc(%rbp)
ffffffff8010f5f1:	e9 0c 01 00 00       	jmpq   ffffffff8010f702 <page_copy+0x344>
ffffffff8010f5f6:	8b 45 f4             	mov    -0xc(%rbp),%eax
ffffffff8010f5f9:	48 98                	cltq   
ffffffff8010f5fb:	48 8d 14 c5 00 00 00 	lea    0x0(,%rax,8),%rdx
ffffffff8010f602:	00 
ffffffff8010f603:	48 8b 45 d0          	mov    -0x30(%rbp),%rax
ffffffff8010f607:	48 01 d0             	add    %rdx,%rax
ffffffff8010f60a:	48 8b 00             	mov    (%rax),%rax
ffffffff8010f60d:	83 e0 01             	and    $0x1,%eax
ffffffff8010f610:	48 85 c0             	test   %rax,%rax
ffffffff8010f613:	0f 84 e5 00 00 00    	je     ffffffff8010f6fe <page_copy+0x340>
ffffffff8010f619:	8b 45 f4             	mov    -0xc(%rbp),%eax
ffffffff8010f61c:	48 98                	cltq   
ffffffff8010f61e:	48 8d 14 c5 00 00 00 	lea    0x0(,%rax,8),%rdx
ffffffff8010f625:	00 
ffffffff8010f626:	48 8b 45 d0          	mov    -0x30(%rbp),%rax
ffffffff8010f62a:	48 01 d0             	add    %rdx,%rax
ffffffff8010f62d:	48 8b 00             	mov    (%rax),%rax
ffffffff8010f630:	25 80 00 00 00       	and    $0x80,%eax
ffffffff8010f635:	48 85 c0             	test   %rax,%rax
ffffffff8010f638:	0f 85 c0 00 00 00    	jne    ffffffff8010f6fe <page_copy+0x340>
ffffffff8010f63e:	bf 01 00 00 00       	mov    $0x1,%edi
ffffffff8010f643:	e8 71 cb ff ff       	callq  ffffffff8010c1b9 <pmm_calloc>
ffffffff8010f648:	48 89 c2             	mov    %rax,%rdx
ffffffff8010f64b:	8b 45 f4             	mov    -0xc(%rbp),%eax
ffffffff8010f64e:	48 98                	cltq   
ffffffff8010f650:	48 8d 0c c5 00 00 00 	lea    0x0(,%rax,8),%rcx
ffffffff8010f657:	00 
ffffffff8010f658:	48 8b 45 d0          	mov    -0x30(%rbp),%rax
ffffffff8010f65c:	48 01 c8             	add    %rcx,%rax
ffffffff8010f65f:	48 8b 00             	mov    (%rax),%rax
ffffffff8010f662:	25 ff 0f 00 00       	and    $0xfff,%eax
ffffffff8010f667:	48 89 c1             	mov    %rax,%rcx
ffffffff8010f66a:	8b 45 f4             	mov    -0xc(%rbp),%eax
ffffffff8010f66d:	48 98                	cltq   
ffffffff8010f66f:	48 8d 34 c5 00 00 00 	lea    0x0(,%rax,8),%rsi
ffffffff8010f676:	00 
ffffffff8010f677:	48 8b 45 d8          	mov    -0x28(%rbp),%rax
ffffffff8010f67b:	48 01 f0             	add    %rsi,%rax
ffffffff8010f67e:	48 09 ca             	or     %rcx,%rdx
ffffffff8010f681:	48 89 10             	mov    %rdx,(%rax)
ffffffff8010f684:	8b 45 f4             	mov    -0xc(%rbp),%eax
ffffffff8010f687:	48 98                	cltq   
ffffffff8010f689:	48 8d 14 c5 00 00 00 	lea    0x0(,%rax,8),%rdx
ffffffff8010f690:	00 
ffffffff8010f691:	48 8b 45 d8          	mov    -0x28(%rbp),%rax
ffffffff8010f695:	48 01 d0             	add    %rdx,%rax
ffffffff8010f698:	48 8b 00             	mov    (%rax),%rax
ffffffff8010f69b:	48 25 00 f0 ff ff    	and    $0xfffffffffffff000,%rax
ffffffff8010f6a1:	48 89 c2             	mov    %rax,%rdx
ffffffff8010f6a4:	48 b8 00 00 00 00 00 	movabs $0xffff800000000000,%rax
ffffffff8010f6ab:	80 ff ff 
ffffffff8010f6ae:	48 01 d0             	add    %rdx,%rax
ffffffff8010f6b1:	48 89 45 c8          	mov    %rax,-0x38(%rbp)
ffffffff8010f6b5:	8b 45 f4             	mov    -0xc(%rbp),%eax
ffffffff8010f6b8:	48 98                	cltq   
ffffffff8010f6ba:	48 8d 14 c5 00 00 00 	lea    0x0(,%rax,8),%rdx
ffffffff8010f6c1:	00 
ffffffff8010f6c2:	48 8b 45 d0          	mov    -0x30(%rbp),%rax
ffffffff8010f6c6:	48 01 d0             	add    %rdx,%rax
ffffffff8010f6c9:	48 8b 00             	mov    (%rax),%rax
ffffffff8010f6cc:	48 25 00 f0 ff ff    	and    $0xfffffffffffff000,%rax
ffffffff8010f6d2:	48 89 c2             	mov    %rax,%rdx
ffffffff8010f6d5:	48 b8 00 00 00 00 00 	movabs $0xffff800000000000,%rax
ffffffff8010f6dc:	80 ff ff 
ffffffff8010f6df:	48 01 d0             	add    %rdx,%rax
ffffffff8010f6e2:	48 89 45 c0          	mov    %rax,-0x40(%rbp)
ffffffff8010f6e6:	48 8b 4d c0          	mov    -0x40(%rbp),%rcx
ffffffff8010f6ea:	48 8b 45 c8          	mov    -0x38(%rbp),%rax
ffffffff8010f6ee:	ba 00 02 00 00       	mov    $0x200,%edx
ffffffff8010f6f3:	48 89 ce             	mov    %rcx,%rsi
ffffffff8010f6f6:	48 89 c7             	mov    %rax,%rdi
ffffffff8010f6f9:	e8 3c b6 ff ff       	callq  ffffffff8010ad3a <memcpy64>
ffffffff8010f6fe:	83 45 f4 01          	addl   $0x1,-0xc(%rbp)
ffffffff8010f702:	81 7d f4 ff 01 00 00 	cmpl   $0x1ff,-0xc(%rbp)
ffffffff8010f709:	0f 8e e7 fe ff ff    	jle    ffffffff8010f5f6 <page_copy+0x238>
ffffffff8010f70f:	83 45 f8 01          	addl   $0x1,-0x8(%rbp)
ffffffff8010f713:	81 7d f8 ff 01 00 00 	cmpl   $0x1ff,-0x8(%rbp)
ffffffff8010f71a:	0f 8e c2 fd ff ff    	jle    ffffffff8010f4e2 <page_copy+0x124>
ffffffff8010f720:	83 45 fc 01          	addl   $0x1,-0x4(%rbp)
ffffffff8010f724:	81 7d fc ff 01 00 00 	cmpl   $0x1ff,-0x4(%rbp)
ffffffff8010f72b:	0f 8e c7 fc ff ff    	jle    ffffffff8010f3f8 <page_copy+0x3a>
ffffffff8010f731:	90                   	nop
ffffffff8010f732:	90                   	nop
ffffffff8010f733:	c9                   	leaveq 
ffffffff8010f734:	c3                   	retq   

ffffffff8010f735 <grab_PML4>:
ffffffff8010f735:	55                   	push   %rbp
ffffffff8010f736:	48 89 e5             	mov    %rsp,%rbp
ffffffff8010f739:	48 83 ec 10          	sub    $0x10,%rsp
ffffffff8010f73d:	0f 20 d8             	mov    %cr3,%rax
ffffffff8010f740:	48 89 45 f8          	mov    %rax,-0x8(%rbp)
ffffffff8010f744:	48 8b 45 f8          	mov    -0x8(%rbp),%rax
ffffffff8010f748:	c9                   	leaveq 
ffffffff8010f749:	c3                   	retq   

ffffffff8010f74a <tlb_flush>:
ffffffff8010f74a:	55                   	push   %rbp
ffffffff8010f74b:	48 89 e5             	mov    %rsp,%rbp
ffffffff8010f74e:	b8 00 00 00 00       	mov    $0x0,%eax
ffffffff8010f753:	e8 dd ff ff ff       	callq  ffffffff8010f735 <grab_PML4>
ffffffff8010f758:	0f 22 d8             	mov    %rax,%cr3
ffffffff8010f75b:	90                   	nop
ffffffff8010f75c:	5d                   	pop    %rbp
ffffffff8010f75d:	c3                   	retq   

ffffffff8010f75e <pagestruct_init>:
ffffffff8010f75e:	55                   	push   %rbp
ffffffff8010f75f:	48 89 e5             	mov    %rsp,%rbp
ffffffff8010f762:	48 83 ec 08          	sub    $0x8,%rsp
ffffffff8010f766:	48 89 7d f8          	mov    %rdi,-0x8(%rbp)
ffffffff8010f76a:	48 8b 45 f8          	mov    -0x8(%rbp),%rax
ffffffff8010f76e:	48 8b 00             	mov    (%rax),%rax
ffffffff8010f771:	48 89 c2             	mov    %rax,%rdx
ffffffff8010f774:	48 b8 00 00 00 00 00 	movabs $0x800000000000,%rax
ffffffff8010f77b:	80 00 00 
ffffffff8010f77e:	48 01 d0             	add    %rdx,%rax
ffffffff8010f781:	0f 22 d8             	mov    %rax,%cr3
ffffffff8010f784:	90                   	nop
ffffffff8010f785:	c9                   	leaveq 
ffffffff8010f786:	c3                   	retq   

ffffffff8010f787 <vmm_init>:
ffffffff8010f787:	55                   	push   %rbp
ffffffff8010f788:	48 89 e5             	mov    %rsp,%rbp
ffffffff8010f78b:	48 83 ec 20          	sub    $0x20,%rsp
ffffffff8010f78f:	bf 01 00 00 00       	mov    $0x1,%edi
ffffffff8010f794:	e8 20 ca ff ff       	callq  ffffffff8010c1b9 <pmm_calloc>
ffffffff8010f799:	48 ba 00 00 00 00 00 	movabs $0xffff800000000000,%rdx
ffffffff8010f7a0:	80 ff ff 
ffffffff8010f7a3:	48 01 d0             	add    %rdx,%rax
ffffffff8010f7a6:	48 c7 05 ef ee 00 00 	movq   $0x0,0xeeef(%rip)        # ffffffff8011e6a0 <kernel_mapping>
ffffffff8010f7ad:	00 00 00 00 
ffffffff8010f7b1:	48 c7 05 ec ee 00 00 	movq   $0x0,0xeeec(%rip)        # ffffffff8011e6a8 <kernel_mapping+0x8>
ffffffff8010f7b8:	00 00 00 00 
ffffffff8010f7bc:	48 89 05 dd ee 00 00 	mov    %rax,0xeedd(%rip)        # ffffffff8011e6a0 <kernel_mapping>
ffffffff8010f7c3:	48 c7 45 f8 00 00 00 	movq   $0x0,-0x8(%rbp)
ffffffff8010f7ca:	00 
ffffffff8010f7cb:	48 c7 45 f0 00 00 00 	movq   $0x0,-0x10(%rbp)
ffffffff8010f7d2:	00 
ffffffff8010f7d3:	eb 36                	jmp    ffffffff8010f80b <vmm_init+0x84>
ffffffff8010f7d5:	48 8b 45 f8          	mov    -0x8(%rbp),%rax
ffffffff8010f7d9:	48 8d 90 00 00 00 80 	lea    -0x80000000(%rax),%rdx
ffffffff8010f7e0:	48 8b 45 f8          	mov    -0x8(%rbp),%rax
ffffffff8010f7e4:	41 b8 83 00 00 00    	mov    $0x83,%r8d
ffffffff8010f7ea:	b9 03 00 00 00       	mov    $0x3,%ecx
ffffffff8010f7ef:	48 89 c6             	mov    %rax,%rsi
ffffffff8010f7f2:	48 c7 c7 a0 e6 11 80 	mov    $0xffffffff8011e6a0,%rdi
ffffffff8010f7f9:	e8 e6 f8 ff ff       	callq  ffffffff8010f0e4 <page_map>
ffffffff8010f7fe:	48 81 45 f8 00 00 20 	addq   $0x200000,-0x8(%rbp)
ffffffff8010f805:	00 
ffffffff8010f806:	48 83 45 f0 01       	addq   $0x1,-0x10(%rbp)
ffffffff8010f80b:	48 81 7d f0 ff 01 00 	cmpq   $0x1ff,-0x10(%rbp)
ffffffff8010f812:	00 
ffffffff8010f813:	76 c0                	jbe    ffffffff8010f7d5 <vmm_init+0x4e>
ffffffff8010f815:	48 c7 45 f8 00 00 00 	movq   $0x0,-0x8(%rbp)
ffffffff8010f81c:	00 
ffffffff8010f81d:	48 c7 45 e8 00 00 00 	movq   $0x0,-0x18(%rbp)
ffffffff8010f824:	00 
ffffffff8010f825:	eb 3c                	jmp    ffffffff8010f863 <vmm_init+0xdc>
ffffffff8010f827:	48 ba 00 00 00 00 00 	movabs $0xffff800000000000,%rdx
ffffffff8010f82e:	80 ff ff 
ffffffff8010f831:	48 8b 45 f8          	mov    -0x8(%rbp),%rax
ffffffff8010f835:	48 01 c2             	add    %rax,%rdx
ffffffff8010f838:	48 8b 45 f8          	mov    -0x8(%rbp),%rax
ffffffff8010f83c:	41 b8 83 00 00 00    	mov    $0x83,%r8d
ffffffff8010f842:	b9 03 00 00 00       	mov    $0x3,%ecx
ffffffff8010f847:	48 89 c6             	mov    %rax,%rsi
ffffffff8010f84a:	48 c7 c7 a0 e6 11 80 	mov    $0xffffffff8011e6a0,%rdi
ffffffff8010f851:	e8 8e f8 ff ff       	callq  ffffffff8010f0e4 <page_map>
ffffffff8010f856:	48 81 45 f8 00 00 20 	addq   $0x200000,-0x8(%rbp)
ffffffff8010f85d:	00 
ffffffff8010f85e:	48 83 45 e8 01       	addq   $0x1,-0x18(%rbp)
ffffffff8010f863:	48 8b 05 f6 ec 00 00 	mov    0xecf6(%rip),%rax        # ffffffff8011e560 <total_physical_mem>
ffffffff8010f86a:	48 c1 e8 15          	shr    $0x15,%rax
ffffffff8010f86e:	48 39 45 e8          	cmp    %rax,-0x18(%rbp)
ffffffff8010f872:	72 b3                	jb     ffffffff8010f827 <vmm_init+0xa0>
ffffffff8010f874:	48 c7 c7 a0 e6 11 80 	mov    $0xffffffff8011e6a0,%rdi
ffffffff8010f87b:	e8 de fe ff ff       	callq  ffffffff8010f75e <pagestruct_init>
ffffffff8010f880:	90                   	nop
ffffffff8010f881:	c9                   	leaveq 
ffffffff8010f882:	c3                   	retq   
